ARM GAS  /var/folders/20/cstyxln53wn53rr40gj353bh0000gn/T//ccU9y6Dn.s 			page 1


   1              		.cpu cortex-m3
   2              		.eabi_attribute 20, 1
   3              		.eabi_attribute 21, 1
   4              		.eabi_attribute 23, 3
   5              		.eabi_attribute 24, 1
   6              		.eabi_attribute 25, 1
   7              		.eabi_attribute 26, 1
   8              		.eabi_attribute 30, 2
   9              		.eabi_attribute 34, 1
  10              		.eabi_attribute 18, 4
  11              		.file	"Background.cpp"
  12              		.text
  13              	.Ltext0:
  14              		.cfi_sections	.debug_frame
  15              		.section	.text._ZN3VFO9BitmapBoxD2Ev,"axG",%progbits,_ZN3VFO9BitmapBoxD5Ev,comdat
  16              		.align	1
  17              		.p2align 2,,3
  18              		.weak	_ZN3VFO9BitmapBoxD2Ev
  19              		.arch armv7-m
  20              		.syntax unified
  21              		.thumb
  22              		.thumb_func
  23              		.fpu softvfp
  25              	_ZN3VFO9BitmapBoxD2Ev:
  26              		.fnstart
  27              	.LVL0:
  28              	.LFB84:
  29              		.file 1 "Src/VFO/GUI/Background.h"
   1:Src/VFO/GUI/Background.h **** /*
   2:Src/VFO/GUI/Background.h ****  * Background.h
   3:Src/VFO/GUI/Background.h ****  *
   4:Src/VFO/GUI/Background.h ****  *  Created on: Apr 8, 2018
   5:Src/VFO/GUI/Background.h ****  *      Author: lymes
   6:Src/VFO/GUI/Background.h ****  */
   7:Src/VFO/GUI/Background.h **** 
   8:Src/VFO/GUI/Background.h **** #ifndef BACKGROUND_H_
   9:Src/VFO/GUI/Background.h **** #define BACKGROUND_H_
  10:Src/VFO/GUI/Background.h **** 
  11:Src/VFO/GUI/Background.h **** #include "stm32f1xx_hal.h"
  12:Src/VFO/GUI/Background.h **** #include <stdlib.h>
  13:Src/VFO/GUI/Background.h **** 
  14:Src/VFO/GUI/Background.h **** #include "Bitmap.h"
  15:Src/VFO/GUI/Background.h **** 
  16:Src/VFO/GUI/Background.h **** namespace VFO
  17:Src/VFO/GUI/Background.h **** {
  18:Src/VFO/GUI/Background.h **** 
  19:Src/VFO/GUI/Background.h **** struct RGB
  20:Src/VFO/GUI/Background.h **** {
  21:Src/VFO/GUI/Background.h **** 	uint8_t r, g, b;
  22:Src/VFO/GUI/Background.h **** };
  23:Src/VFO/GUI/Background.h **** 
  24:Src/VFO/GUI/Background.h **** class Background
  25:Src/VFO/GUI/Background.h **** {
  26:Src/VFO/GUI/Background.h **** 
  27:Src/VFO/GUI/Background.h **** 	uint16_t _backColor;
  28:Src/VFO/GUI/Background.h **** 
  29:Src/VFO/GUI/Background.h **** public:
ARM GAS  /var/folders/20/cstyxln53wn53rr40gj353bh0000gn/T//ccU9y6Dn.s 			page 2


  30:Src/VFO/GUI/Background.h **** 	Background()
  31:Src/VFO/GUI/Background.h **** 	{
  32:Src/VFO/GUI/Background.h **** 		_backColor = 0;
  33:Src/VFO/GUI/Background.h **** 	}
  34:Src/VFO/GUI/Background.h **** 	Background(uint16_t c)
  35:Src/VFO/GUI/Background.h **** 	{
  36:Src/VFO/GUI/Background.h **** 		_backColor = c;
  37:Src/VFO/GUI/Background.h **** 	}
  38:Src/VFO/GUI/Background.h **** 
  39:Src/VFO/GUI/Background.h **** 	virtual ~Background()
  40:Src/VFO/GUI/Background.h **** 	{
  41:Src/VFO/GUI/Background.h **** 	}
  42:Src/VFO/GUI/Background.h **** 
  43:Src/VFO/GUI/Background.h **** 	virtual uint16_t getBackColor(uint8_t x, uint8_t y)
  44:Src/VFO/GUI/Background.h **** 	{
  45:Src/VFO/GUI/Background.h **** 		return _backColor;
  46:Src/VFO/GUI/Background.h **** 	}
  47:Src/VFO/GUI/Background.h **** 
  48:Src/VFO/GUI/Background.h **** };
  49:Src/VFO/GUI/Background.h **** 
  50:Src/VFO/GUI/Background.h **** class BitmapBox: public Background
  51:Src/VFO/GUI/Background.h **** {
  52:Src/VFO/GUI/Background.h **** 	Bitmap *_data;
  53:Src/VFO/GUI/Background.h **** 	uint8_t _x, _y;
  54:Src/VFO/GUI/Background.h **** 
  55:Src/VFO/GUI/Background.h **** public:
  56:Src/VFO/GUI/Background.h **** 	BitmapBox(uint8_t x, uint8_t y, Bitmap *bitmap);
  57:Src/VFO/GUI/Background.h **** 	virtual ~BitmapBox()
  30              		.loc 1 57 10 view -0
  31              		.cfi_startproc
  32              		@ args = 0, pretend = 0, frame = 0
  33              		@ frame_needed = 0, uses_anonymous_args = 0
  34              		@ link register save eliminated.
  35              	.LBB29:
  36              	.LBI29:
  39:Src/VFO/GUI/Background.h **** 	{
  37              		.loc 1 39 10 view .LVU1
  39:Src/VFO/GUI/Background.h **** 	{
  38              		.loc 1 39 10 is_stmt 0 view .LVU2
  39              	.LBE29:
  58:Src/VFO/GUI/Background.h **** 	{
  59:Src/VFO/GUI/Background.h **** 	}
  40              		.loc 1 59 2 view .LVU3
  41 0000 7047     		bx	lr
  42              		.cfi_endproc
  43              	.LFE84:
  44              		.cantunwind
  45              		.fnend
  47              		.weak	_ZN3VFO9BitmapBoxD1Ev
  48              		.thumb_set _ZN3VFO9BitmapBoxD1Ev,_ZN3VFO9BitmapBoxD2Ev
  49 0002 00BF     		.section	.text._ZN3VFO11GradientBoxD2Ev,"axG",%progbits,_ZN3VFO11GradientBoxD5Ev,comdat
  50              		.align	1
  51              		.p2align 2,,3
  52              		.weak	_ZN3VFO11GradientBoxD2Ev
  53              		.syntax unified
  54              		.thumb
  55              		.thumb_func
ARM GAS  /var/folders/20/cstyxln53wn53rr40gj353bh0000gn/T//ccU9y6Dn.s 			page 3


  56              		.fpu softvfp
  58              	_ZN3VFO11GradientBoxD2Ev:
  59              		.fnstart
  60              	.LVL1:
  61              	.LFB88:
  60:Src/VFO/GUI/Background.h **** 
  61:Src/VFO/GUI/Background.h **** 	virtual uint16_t getBackColor(uint8_t x, uint8_t y);
  62:Src/VFO/GUI/Background.h **** 
  63:Src/VFO/GUI/Background.h **** 	void draw();
  64:Src/VFO/GUI/Background.h **** };
  65:Src/VFO/GUI/Background.h **** 
  66:Src/VFO/GUI/Background.h **** class GradientBox: public Background
  67:Src/VFO/GUI/Background.h **** {
  68:Src/VFO/GUI/Background.h **** 
  69:Src/VFO/GUI/Background.h **** public:
  70:Src/VFO/GUI/Background.h **** 	RGB upLeft    = { 0, 40, 80 };
  71:Src/VFO/GUI/Background.h **** 	RGB upRight   = { 140, 10, 10 };
  72:Src/VFO/GUI/Background.h **** 	RGB downLeft  = { 140, 128, 0 };
  73:Src/VFO/GUI/Background.h **** 	RGB downRight = { 0, 128, 140 };
  74:Src/VFO/GUI/Background.h **** 
  75:Src/VFO/GUI/Background.h **** 	GradientBox(uint8_t x, uint8_t y, uint8_t w, uint8_t h);
  76:Src/VFO/GUI/Background.h **** 	virtual ~GradientBox()
  62              		.loc 1 76 10 is_stmt 1 view -0
  63              		.cfi_startproc
  64              		@ args = 0, pretend = 0, frame = 0
  65              		@ frame_needed = 0, uses_anonymous_args = 0
  66              		@ link register save eliminated.
  67              	.LBB30:
  68              	.LBI30:
  39:Src/VFO/GUI/Background.h **** 	{
  69              		.loc 1 39 10 view .LVU5
  39:Src/VFO/GUI/Background.h **** 	{
  70              		.loc 1 39 10 is_stmt 0 view .LVU6
  71              	.LBE30:
  77:Src/VFO/GUI/Background.h **** 	{
  78:Src/VFO/GUI/Background.h **** 	}
  72              		.loc 1 78 2 view .LVU7
  73 0000 7047     		bx	lr
  74              		.cfi_endproc
  75              	.LFE88:
  76              		.cantunwind
  77              		.fnend
  79              		.weak	_ZN3VFO11GradientBoxD1Ev
  80              		.thumb_set _ZN3VFO11GradientBoxD1Ev,_ZN3VFO11GradientBoxD2Ev
  81 0002 00BF     		.section	.text._ZN3VFO9BitmapBox12getBackColorEhh,"ax",%progbits
  82              		.align	1
  83              		.p2align 2,,3
  84              		.global	_ZN3VFO9BitmapBox12getBackColorEhh
  85              		.syntax unified
  86              		.thumb
  87              		.thumb_func
  88              		.fpu softvfp
  90              	_ZN3VFO9BitmapBox12getBackColorEhh:
  91              		.fnstart
  92              	.LVL2:
  93              	.LFB94:
  94              		.file 2 "Src/VFO/GUI/Background.cpp"
ARM GAS  /var/folders/20/cstyxln53wn53rr40gj353bh0000gn/T//ccU9y6Dn.s 			page 4


   1:Src/VFO/GUI/Background.cpp **** /*
   2:Src/VFO/GUI/Background.cpp ****  * Background.cpp
   3:Src/VFO/GUI/Background.cpp ****  *
   4:Src/VFO/GUI/Background.cpp ****  *  Created on: Apr 8, 2018
   5:Src/VFO/GUI/Background.cpp ****  *      Author: lymes
   6:Src/VFO/GUI/Background.cpp ****  */
   7:Src/VFO/GUI/Background.cpp **** 
   8:Src/VFO/GUI/Background.cpp **** #include "Background.h"
   9:Src/VFO/GUI/Background.cpp **** 
  10:Src/VFO/GUI/Background.cpp **** #include "ST7735/st7735.h"
  11:Src/VFO/GUI/Background.cpp **** 
  12:Src/VFO/GUI/Background.cpp **** namespace VFO
  13:Src/VFO/GUI/Background.cpp **** {
  14:Src/VFO/GUI/Background.cpp **** 
  15:Src/VFO/GUI/Background.cpp **** BitmapBox::BitmapBox(uint8_t x, uint8_t y, Bitmap *bitmap)
  16:Src/VFO/GUI/Background.cpp **** {
  17:Src/VFO/GUI/Background.cpp **** 	_x = x;
  18:Src/VFO/GUI/Background.cpp **** 	_y = y;
  19:Src/VFO/GUI/Background.cpp **** 	_data = bitmap;
  20:Src/VFO/GUI/Background.cpp **** }
  21:Src/VFO/GUI/Background.cpp **** 
  22:Src/VFO/GUI/Background.cpp **** uint16_t BitmapBox::getBackColor(uint8_t x, uint8_t y)
  23:Src/VFO/GUI/Background.cpp **** {
  95              		.loc 2 23 1 is_stmt 1 view -0
  96              		.cfi_startproc
  97              		@ args = 0, pretend = 0, frame = 0
  98              		@ frame_needed = 0, uses_anonymous_args = 0
  99              		@ link register save eliminated.
  24:Src/VFO/GUI/Background.cpp **** 	return *(_data->data + y * 160 + x);
 100              		.loc 2 24 2 view .LVU9
 101              		.loc 2 24 36 is_stmt 0 view .LVU10
 102 0000 8368     		ldr	r3, [r0, #8]
 103              		.loc 2 24 33 view .LVU11
 104 0002 02EB8202 		add	r2, r2, r2, lsl #2
 105              	.LVL3:
 106              		.loc 2 24 33 view .LVU12
 107 0006 01EB4211 		add	r1, r1, r2, lsl #5
 108              	.LVL4:
 109              		.loc 2 24 36 view .LVU13
 110 000a 03EB4103 		add	r3, r3, r1, lsl #1
  25:Src/VFO/GUI/Background.cpp **** }
 111              		.loc 2 25 1 view .LVU14
 112 000e 5888     		ldrh	r0, [r3, #2]
 113              	.LVL5:
 114              		.loc 2 25 1 view .LVU15
 115 0010 7047     		bx	lr
 116              		.cfi_endproc
 117              	.LFE94:
 118              		.cantunwind
 119              		.fnend
 121 0012 00BF     		.section	.text._ZN3VFO11GradientBox12getBackColorEhh,"ax",%progbits
 122              		.align	1
 123              		.p2align 2,,3
 124              		.global	_ZN3VFO11GradientBox12getBackColorEhh
 125              		.syntax unified
 126              		.thumb
 127              		.thumb_func
ARM GAS  /var/folders/20/cstyxln53wn53rr40gj353bh0000gn/T//ccU9y6Dn.s 			page 5


 128              		.fpu softvfp
 130              	_ZN3VFO11GradientBox12getBackColorEhh:
 131              		.fnstart
 132              	.LVL6:
 133              	.LFB99:
  26:Src/VFO/GUI/Background.cpp **** 
  27:Src/VFO/GUI/Background.cpp **** void BitmapBox::draw()
  28:Src/VFO/GUI/Background.cpp **** {
  29:Src/VFO/GUI/Background.cpp **** 	CS_L();
  30:Src/VFO/GUI/Background.cpp **** 	ST7735_AddrSet(_x, _y, _x + _data->width, _y + _data->height);
  31:Src/VFO/GUI/Background.cpp **** 	A0_H();
  32:Src/VFO/GUI/Background.cpp **** 	uint16_t *ptr = (uint16_t *) _data->data;
  33:Src/VFO/GUI/Background.cpp **** 	for (int i = 0; i < _data->width * _data->height; i++)
  34:Src/VFO/GUI/Background.cpp **** 	{
  35:Src/VFO/GUI/Background.cpp **** 		uint16_t color = *ptr++;
  36:Src/VFO/GUI/Background.cpp **** 		ST7735_write(color >> 8);
  37:Src/VFO/GUI/Background.cpp **** 		ST7735_write((uint8_t) color);
  38:Src/VFO/GUI/Background.cpp **** 	}
  39:Src/VFO/GUI/Background.cpp **** 
  40:Src/VFO/GUI/Background.cpp **** 	CS_H();
  41:Src/VFO/GUI/Background.cpp **** }
  42:Src/VFO/GUI/Background.cpp **** 
  43:Src/VFO/GUI/Background.cpp **** GradientBox::GradientBox(uint8_t x, uint8_t y, uint8_t w, uint8_t h)
  44:Src/VFO/GUI/Background.cpp **** {
  45:Src/VFO/GUI/Background.cpp **** 	_x = x, _y = y, _w = w, _h = h;
  46:Src/VFO/GUI/Background.cpp **** }
  47:Src/VFO/GUI/Background.cpp **** 
  48:Src/VFO/GUI/Background.cpp **** uint16_t GradientBox::getBackColor(uint8_t x, uint8_t y)
  49:Src/VFO/GUI/Background.cpp **** {
 134              		.loc 2 49 1 is_stmt 1 view -0
 135              		.cfi_startproc
 136              		@ args = 0, pretend = 0, frame = 16
 137              		@ frame_needed = 0, uses_anonymous_args = 0
  50:Src/VFO/GUI/Background.cpp **** 	uint8_t absY = y - _y;
 138              		.loc 2 50 2 view .LVU17
  51:Src/VFO/GUI/Background.cpp **** 	uint8_t absX = x - _x;
 139              		.loc 2 51 2 view .LVU18
  52:Src/VFO/GUI/Background.cpp **** 	RGB rowStart =
 140              		.loc 2 52 2 view .LVU19
  49:Src/VFO/GUI/Background.cpp **** 	uint8_t absY = y - _y;
 141              		.loc 2 49 1 is_stmt 0 view .LVU20
 142 0000 2DE9F04F 		push	{r4, r5, r6, r7, r8, r9, r10, fp, lr}
 143              	.LCFI0:
 144              		.cfi_def_cfa_offset 36
 145              		.cfi_offset 4, -36
 146              		.cfi_offset 5, -32
 147              		.cfi_offset 6, -28
 148              		.cfi_offset 7, -24
 149              		.cfi_offset 8, -20
 150              		.cfi_offset 9, -16
 151              		.cfi_offset 10, -12
 152              		.cfi_offset 11, -8
 153              		.cfi_offset 14, -4
  50:Src/VFO/GUI/Background.cpp **** 	uint8_t absX = x - _x;
 154              		.loc 2 50 10 view .LVU21
 155 0004 C47C     		ldrb	r4, [r0, #19]	@ zero_extendqisi2
  53:Src/VFO/GUI/Background.cpp **** 	{
ARM GAS  /var/folders/20/cstyxln53wn53rr40gj353bh0000gn/T//ccU9y6Dn.s 			page 6


  54:Src/VFO/GUI/Background.cpp **** 			(uint8_t) (upLeft.r + (downLeft.r - upLeft.r) * absY / _h),
  55:Src/VFO/GUI/Background.cpp **** 			(uint8_t) (upLeft.g + (downLeft.g - upLeft.g) * absY / _h),
  56:Src/VFO/GUI/Background.cpp **** 			(uint8_t) (upLeft.b + (downLeft.b - upLeft.b) * absY / _h),
  57:Src/VFO/GUI/Background.cpp **** 	};
  58:Src/VFO/GUI/Background.cpp **** 	RGB rowEnd =
  59:Src/VFO/GUI/Background.cpp **** 	{
  60:Src/VFO/GUI/Background.cpp **** 			(uint8_t) (upRight.r + (downRight.r - upRight.r) * absY / _h),
  61:Src/VFO/GUI/Background.cpp **** 			(uint8_t) (upRight.g + (downRight.g - upRight.g) * absY / _h),
 156              		.loc 2 61 23 view .LVU22
 157 0006 857A     		ldrb	r5, [r0, #10]	@ zero_extendqisi2
 158              		.loc 2 61 38 view .LVU23
 159 0008 90F810E0 		ldrb	lr, [r0, #16]	@ zero_extendqisi2
  50:Src/VFO/GUI/Background.cpp **** 	uint8_t absX = x - _x;
 160              		.loc 2 50 10 view .LVU24
 161 000c 121B     		subs	r2, r2, r4
 162              	.LVL7:
  54:Src/VFO/GUI/Background.cpp **** 			(uint8_t) (upLeft.g + (downLeft.g - upLeft.g) * absY / _h),
 163              		.loc 2 54 50 view .LVU25
 164 000e D2B2     		uxtb	r2, r2
 165              		.loc 2 61 40 view .LVU26
 166 0010 AEEB050E 		sub	lr, lr, r5
 167              		.loc 2 61 53 view .LVU27
 168 0014 02FB0EFE 		mul	lr, r2, lr
  55:Src/VFO/GUI/Background.cpp **** 			(uint8_t) (upLeft.b + (downLeft.b - upLeft.b) * absY / _h),
 169              		.loc 2 55 22 view .LVU28
 170 0018 C379     		ldrb	r3, [r0, #7]	@ zero_extendqisi2
  55:Src/VFO/GUI/Background.cpp **** 			(uint8_t) (upLeft.b + (downLeft.b - upLeft.b) * absY / _h),
 171              		.loc 2 55 36 view .LVU29
 172 001a 90F80DB0 		ldrb	fp, [r0, #13]	@ zero_extendqisi2
  54:Src/VFO/GUI/Background.cpp **** 			(uint8_t) (upLeft.g + (downLeft.g - upLeft.g) * absY / _h),
 173              		.loc 2 54 59 view .LVU30
 174 001e 90F815A0 		ldrb	r10, [r0, #21]	@ zero_extendqisi2
  55:Src/VFO/GUI/Background.cpp **** 			(uint8_t) (upLeft.b + (downLeft.b - upLeft.b) * absY / _h),
 175              		.loc 2 55 38 view .LVU31
 176 0022 ABEB030B 		sub	fp, fp, r3
  55:Src/VFO/GUI/Background.cpp **** 			(uint8_t) (upLeft.b + (downLeft.b - upLeft.b) * absY / _h),
 177              		.loc 2 55 50 view .LVU32
 178 0026 02FB0BFB 		mul	fp, r2, fp
 179              		.loc 2 61 60 view .LVU33
 180 002a 9EFBFAFE 		sdiv	lr, lr, r10
  49:Src/VFO/GUI/Background.cpp **** 	uint8_t absY = y - _y;
 181              		.loc 2 49 1 view .LVU34
 182 002e 85B0     		sub	sp, sp, #20
 183              	.LCFI1:
 184              		.cfi_def_cfa_offset 56
  55:Src/VFO/GUI/Background.cpp **** 			(uint8_t) (upLeft.b + (downLeft.b - upLeft.b) * absY / _h),
 185              		.loc 2 55 38 view .LVU35
 186 0030 0193     		str	r3, [sp, #4]
  55:Src/VFO/GUI/Background.cpp **** 			(uint8_t) (upLeft.b + (downLeft.b - upLeft.b) * absY / _h),
 187              		.loc 2 55 57 view .LVU36
 188 0032 9BFBFAF3 		sdiv	r3, fp, r10
  54:Src/VFO/GUI/Background.cpp **** 			(uint8_t) (upLeft.g + (downLeft.g - upLeft.g) * absY / _h),
 189              		.loc 2 54 22 view .LVU37
 190 0036 8779     		ldrb	r7, [r0, #6]	@ zero_extendqisi2
  60:Src/VFO/GUI/Background.cpp **** 			(uint8_t) (upRight.g + (downRight.g - upRight.g) * absY / _h),
 191              		.loc 2 60 23 view .LVU38
 192 0038 447A     		ldrb	r4, [r0, #9]	@ zero_extendqisi2
ARM GAS  /var/folders/20/cstyxln53wn53rr40gj353bh0000gn/T//ccU9y6Dn.s 			page 7


  54:Src/VFO/GUI/Background.cpp **** 			(uint8_t) (upLeft.g + (downLeft.g - upLeft.g) * absY / _h),
 193              		.loc 2 54 36 view .LVU39
 194 003a 90F80C90 		ldrb	r9, [r0, #12]	@ zero_extendqisi2
  60:Src/VFO/GUI/Background.cpp **** 			(uint8_t) (upRight.g + (downRight.g - upRight.g) * absY / _h),
 195              		.loc 2 60 38 view .LVU40
 196 003e 90F80F80 		ldrb	r8, [r0, #15]	@ zero_extendqisi2
  56:Src/VFO/GUI/Background.cpp **** 	};
 197              		.loc 2 56 22 view .LVU41
 198 0042 067A     		ldrb	r6, [r0, #8]	@ zero_extendqisi2
  62:Src/VFO/GUI/Background.cpp **** 			(uint8_t) (upRight.b + (downRight.b - upRight.b) * absY / _h),
 199              		.loc 2 62 23 view .LVU42
 200 0044 90F80BC0 		ldrb	ip, [r0, #11]	@ zero_extendqisi2
  61:Src/VFO/GUI/Background.cpp **** 			(uint8_t) (upRight.b + (downRight.b - upRight.b) * absY / _h),
 201              		.loc 2 61 60 view .LVU43
 202 0048 CDF80CE0 		str	lr, [sp, #12]
 203              		.loc 2 62 38 view .LVU44
 204 004c 90F811B0 		ldrb	fp, [r0, #17]	@ zero_extendqisi2
  56:Src/VFO/GUI/Background.cpp **** 	};
 205              		.loc 2 56 36 view .LVU45
 206 0050 90F80EE0 		ldrb	lr, [r0, #14]	@ zero_extendqisi2
  54:Src/VFO/GUI/Background.cpp **** 			(uint8_t) (upLeft.g + (downLeft.g - upLeft.g) * absY / _h),
 207              		.loc 2 54 38 view .LVU46
 208 0054 A9EB0709 		sub	r9, r9, r7
  60:Src/VFO/GUI/Background.cpp **** 			(uint8_t) (upRight.g + (downRight.g - upRight.g) * absY / _h),
 209              		.loc 2 60 40 view .LVU47
 210 0058 A8EB0408 		sub	r8, r8, r4
  54:Src/VFO/GUI/Background.cpp **** 			(uint8_t) (upLeft.g + (downLeft.g - upLeft.g) * absY / _h),
 211              		.loc 2 54 50 view .LVU48
 212 005c 02FB09F9 		mul	r9, r2, r9
  60:Src/VFO/GUI/Background.cpp **** 			(uint8_t) (upRight.g + (downRight.g - upRight.g) * absY / _h),
 213              		.loc 2 60 53 view .LVU49
 214 0060 02FB08F8 		mul	r8, r2, r8
  56:Src/VFO/GUI/Background.cpp **** 	};
 215              		.loc 2 56 38 view .LVU50
 216 0064 AEEB060E 		sub	lr, lr, r6
 217              		.loc 2 62 40 view .LVU51
 218 0068 ABEB0C0B 		sub	fp, fp, ip
  56:Src/VFO/GUI/Background.cpp **** 	};
 219              		.loc 2 56 50 view .LVU52
 220 006c 02FB0EFE 		mul	lr, r2, lr
 221              		.loc 2 62 53 view .LVU53
 222 0070 02FB0BFB 		mul	fp, r2, fp
  55:Src/VFO/GUI/Background.cpp **** 			(uint8_t) (upLeft.b + (downLeft.b - upLeft.b) * absY / _h),
 223              		.loc 2 55 57 view .LVU54
 224 0074 0293     		str	r3, [sp, #8]
  55:Src/VFO/GUI/Background.cpp **** 			(uint8_t) (upLeft.b + (downLeft.b - upLeft.b) * absY / _h),
 225              		.loc 2 55 24 view .LVU55
 226 0076 DDE90123 		ldrd	r2, r3, [sp, #4]
 227 007a 1A44     		add	r2, r2, r3
  54:Src/VFO/GUI/Background.cpp **** 			(uint8_t) (upLeft.g + (downLeft.g - upLeft.g) * absY / _h),
 228              		.loc 2 54 57 view .LVU56
 229 007c 99FBFAF9 		sdiv	r9, r9, r10
  60:Src/VFO/GUI/Background.cpp **** 			(uint8_t) (upRight.g + (downRight.g - upRight.g) * absY / _h),
 230              		.loc 2 60 60 view .LVU57
 231 0080 98FBFAF8 		sdiv	r8, r8, r10
  55:Src/VFO/GUI/Background.cpp **** 			(uint8_t) (upLeft.b + (downLeft.b - upLeft.b) * absY / _h),
 232              		.loc 2 55 24 view .LVU58
ARM GAS  /var/folders/20/cstyxln53wn53rr40gj353bh0000gn/T//ccU9y6Dn.s 			page 8


 233 0084 1346     		mov	r3, r2
  56:Src/VFO/GUI/Background.cpp **** 	};
 234              		.loc 2 56 57 view .LVU59
 235 0086 9EFBFAFE 		sdiv	lr, lr, r10
 236              		.loc 2 62 60 view .LVU60
 237 008a 9BFBFAFB 		sdiv	fp, fp, r10
  61:Src/VFO/GUI/Background.cpp **** 			(uint8_t) (upRight.b + (downRight.b - upRight.b) * absY / _h),
 238              		.loc 2 61 25 view .LVU61
 239 008e 039A     		ldr	r2, [sp, #12]
  55:Src/VFO/GUI/Background.cpp **** 			(uint8_t) (upLeft.b + (downLeft.b - upLeft.b) * absY / _h),
 240              		.loc 2 55 24 view .LVU62
 241 0090 DBB2     		uxtb	r3, r3
  61:Src/VFO/GUI/Background.cpp **** 			(uint8_t) (upRight.b + (downRight.b - upRight.b) * absY / _h),
 242              		.loc 2 61 25 view .LVU63
 243 0092 1544     		add	r5, r5, r2
  51:Src/VFO/GUI/Background.cpp **** 	RGB rowStart =
 244              		.loc 2 51 10 view .LVU64
 245 0094 827C     		ldrb	r2, [r0, #18]	@ zero_extendqisi2
  54:Src/VFO/GUI/Background.cpp **** 			(uint8_t) (upLeft.g + (downLeft.g - upLeft.g) * absY / _h),
 246              		.loc 2 54 24 view .LVU65
 247 0096 4F44     		add	r7, r7, r9
  51:Src/VFO/GUI/Background.cpp **** 	RGB rowStart =
 248              		.loc 2 51 10 view .LVU66
 249 0098 891A     		subs	r1, r1, r2
 250              	.LVL8:
  60:Src/VFO/GUI/Background.cpp **** 			(uint8_t) (upRight.g + (downRight.g - upRight.g) * absY / _h),
 251              		.loc 2 60 25 view .LVU67
 252 009a 4444     		add	r4, r4, r8
  63:Src/VFO/GUI/Background.cpp **** 	};
  64:Src/VFO/GUI/Background.cpp **** 	RGB pix =
  65:Src/VFO/GUI/Background.cpp **** 	{
  66:Src/VFO/GUI/Background.cpp **** 			(uint8_t) (rowStart.r + (rowEnd.r - rowStart.r) * absX / _w),
  67:Src/VFO/GUI/Background.cpp **** 			(uint8_t) (rowStart.g + (rowEnd.g - rowStart.g) * absX / _w),
 253              		.loc 2 67 36 view .LVU68
 254 009c EDB2     		uxtb	r5, r5
  66:Src/VFO/GUI/Background.cpp **** 			(uint8_t) (rowStart.g + (rowEnd.g - rowStart.g) * absX / _w),
 255              		.loc 2 66 52 view .LVU69
 256 009e C9B2     		uxtb	r1, r1
  54:Src/VFO/GUI/Background.cpp **** 			(uint8_t) (upLeft.g + (downLeft.g - upLeft.g) * absY / _h),
 257              		.loc 2 54 24 view .LVU70
 258 00a0 FFB2     		uxtb	r7, r7
 259              	.LVL9:
 260              		.loc 2 67 38 view .LVU71
 261 00a2 ED1A     		subs	r5, r5, r3
  56:Src/VFO/GUI/Background.cpp **** 	};
 262              		.loc 2 56 24 view .LVU72
 263 00a4 7644     		add	r6, r6, lr
  62:Src/VFO/GUI/Background.cpp **** 	};
 264              		.loc 2 62 25 view .LVU73
 265 00a6 E344     		add	fp, fp, ip
  66:Src/VFO/GUI/Background.cpp **** 			(uint8_t) (rowStart.g + (rowEnd.g - rowStart.g) * absX / _w),
 266              		.loc 2 66 36 view .LVU74
 267 00a8 E4B2     		uxtb	r4, r4
 268              		.loc 2 67 52 view .LVU75
 269 00aa 01FB05F5 		mul	r5, r1, r5
  66:Src/VFO/GUI/Background.cpp **** 			(uint8_t) (rowStart.g + (rowEnd.g - rowStart.g) * absX / _w),
 270              		.loc 2 66 38 view .LVU76
ARM GAS  /var/folders/20/cstyxln53wn53rr40gj353bh0000gn/T//ccU9y6Dn.s 			page 9


 271 00ae E41B     		subs	r4, r4, r7
  56:Src/VFO/GUI/Background.cpp **** 	};
 272              		.loc 2 56 24 view .LVU77
 273 00b0 F6B2     		uxtb	r6, r6
 274              	.LVL10:
  58:Src/VFO/GUI/Background.cpp **** 	{
 275              		.loc 2 58 2 is_stmt 1 view .LVU78
  64:Src/VFO/GUI/Background.cpp **** 	{
 276              		.loc 2 64 2 view .LVU79
  68:Src/VFO/GUI/Background.cpp **** 			(uint8_t) (rowStart.b + (rowEnd.b - rowStart.b) * absX / _w),
 277              		.loc 2 68 36 is_stmt 0 view .LVU80
 278 00b2 5FFA8BFB 		uxtb	fp, fp
 279              		.loc 2 68 38 view .LVU81
 280 00b6 ABEB060B 		sub	fp, fp, r6
  66:Src/VFO/GUI/Background.cpp **** 			(uint8_t) (rowStart.g + (rowEnd.g - rowStart.g) * absX / _w),
 281              		.loc 2 66 52 view .LVU82
 282 00ba 01FB04F4 		mul	r4, r1, r4
  66:Src/VFO/GUI/Background.cpp **** 			(uint8_t) (rowStart.g + (rowEnd.g - rowStart.g) * absX / _w),
 283              		.loc 2 66 61 view .LVU83
 284 00be 007D     		ldrb	r0, [r0, #20]	@ zero_extendqisi2
 285              	.LVL11:
  69:Src/VFO/GUI/Background.cpp **** 	};
  70:Src/VFO/GUI/Background.cpp **** 
  71:Src/VFO/GUI/Background.cpp **** 	return ((pix.r >> 3) << 11) | ((pix.g >> 2) << 5) | (pix.b >> 3);
 286              		.loc 2 71 2 is_stmt 1 view .LVU84
  68:Src/VFO/GUI/Background.cpp **** 	};
 287              		.loc 2 68 52 is_stmt 0 view .LVU85
 288 00c0 01FB0BF1 		mul	r1, r1, fp
  67:Src/VFO/GUI/Background.cpp **** 			(uint8_t) (rowStart.b + (rowEnd.b - rowStart.b) * absX / _w),
 289              		.loc 2 67 59 view .LVU86
 290 00c4 95FBF0F5 		sdiv	r5, r5, r0
  66:Src/VFO/GUI/Background.cpp **** 			(uint8_t) (rowStart.g + (rowEnd.g - rowStart.g) * absX / _w),
 291              		.loc 2 66 59 view .LVU87
 292 00c8 94FBF0F4 		sdiv	r4, r4, r0
  68:Src/VFO/GUI/Background.cpp **** 	};
 293              		.loc 2 68 59 view .LVU88
 294 00cc 91FBF0F1 		sdiv	r1, r1, r0
  67:Src/VFO/GUI/Background.cpp **** 			(uint8_t) (rowStart.b + (rowEnd.b - rowStart.b) * absX / _w),
 295              		.loc 2 67 26 view .LVU89
 296 00d0 2B44     		add	r3, r3, r5
 297              	.LVL12:
  66:Src/VFO/GUI/Background.cpp **** 			(uint8_t) (rowStart.g + (rowEnd.g - rowStart.g) * absX / _w),
 298              		.loc 2 66 26 view .LVU90
 299 00d2 3C44     		add	r4, r4, r7
 300              		.loc 2 71 40 view .LVU91
 301 00d4 C3F38503 		ubfx	r3, r3, #2, #6
 302              		.loc 2 71 46 view .LVU92
 303 00d8 5B01     		lsls	r3, r3, #5
  68:Src/VFO/GUI/Background.cpp **** 	};
 304              		.loc 2 68 26 view .LVU93
 305 00da 0E44     		add	r6, r6, r1
 306              	.LVL13:
 307              		.loc 2 71 17 view .LVU94
 308 00dc C4F3C404 		ubfx	r4, r4, #3, #5
 309              		.loc 2 71 30 view .LVU95
 310 00e0 43EAC424 		orr	r4, r3, r4, lsl #11
 311              		.loc 2 71 61 view .LVU96
ARM GAS  /var/folders/20/cstyxln53wn53rr40gj353bh0000gn/T//ccU9y6Dn.s 			page 10


 312 00e4 C6F3C400 		ubfx	r0, r6, #3, #5
  72:Src/VFO/GUI/Background.cpp **** 
  73:Src/VFO/GUI/Background.cpp **** }
 313              		.loc 2 73 1 view .LVU97
 314 00e8 2043     		orrs	r0, r0, r4
 315 00ea 05B0     		add	sp, sp, #20
 316              	.LCFI2:
 317              		.cfi_def_cfa_offset 36
 318              		@ sp needed
 319 00ec BDE8F08F 		pop	{r4, r5, r6, r7, r8, r9, r10, fp, pc}
 320              		.loc 2 73 1 view .LVU98
 321              		.cfi_endproc
 322              	.LFE99:
 323              		.cantunwind
 324              		.fnend
 326              		.section	.text._ZN3VFO11GradientBoxD0Ev,"axG",%progbits,_ZN3VFO11GradientBoxD5Ev,comdat
 327              		.align	1
 328              		.p2align 2,,3
 329              		.weak	_ZN3VFO11GradientBoxD0Ev
 330              		.syntax unified
 331              		.thumb
 332              		.thumb_func
 333              		.fpu softvfp
 335              	_ZN3VFO11GradientBoxD0Ev:
 336              		.fnstart
 337              	.LVL14:
 338              	.LFB90:
  76:Src/VFO/GUI/Background.h **** 	{
 339              		.loc 1 76 10 is_stmt 1 view -0
 340              		.cfi_startproc
 341              		@ args = 0, pretend = 0, frame = 0
 342              		@ frame_needed = 0, uses_anonymous_args = 0
  76:Src/VFO/GUI/Background.h **** 	{
 343              		.loc 1 76 10 is_stmt 0 view .LVU100
 344 0000 10B5     		push	{r4, lr}
 345              	.LCFI3:
 346              		.cfi_def_cfa_offset 8
 347              		.cfi_offset 4, -8
 348              		.cfi_offset 14, -4
  76:Src/VFO/GUI/Background.h **** 	{
 349              		.loc 1 76 10 view .LVU101
 350 0002 0446     		mov	r4, r0
 351              	.LVL15:
 352              	.LBB31:
 353              	.LBI31:
  76:Src/VFO/GUI/Background.h **** 	{
 354              		.loc 1 76 10 is_stmt 1 view .LVU102
 355              	.LBB32:
 356              	.LBI32:
  39:Src/VFO/GUI/Background.h **** 	{
 357              		.loc 1 39 10 view .LVU103
  39:Src/VFO/GUI/Background.h **** 	{
 358              		.loc 1 39 10 is_stmt 0 view .LVU104
 359              	.LBE32:
 360              	.LBE31:
 361              		.loc 1 78 2 view .LVU105
 362 0004 1821     		movs	r1, #24
ARM GAS  /var/folders/20/cstyxln53wn53rr40gj353bh0000gn/T//ccU9y6Dn.s 			page 11


 363 0006 FFF7FEFF 		bl	_ZdlPvj
 364              	.LVL16:
 365              		.loc 1 78 2 view .LVU106
 366 000a 2046     		mov	r0, r4
 367 000c 10BD     		pop	{r4, pc}
 368              		.loc 1 78 2 view .LVU107
 369              		.cfi_endproc
 370              	.LFE90:
 371              		.cantunwind
 372              		.fnend
 374 000e 00BF     		.section	.text._ZN3VFO9BitmapBoxD0Ev,"axG",%progbits,_ZN3VFO9BitmapBoxD5Ev,comdat
 375              		.align	1
 376              		.p2align 2,,3
 377              		.weak	_ZN3VFO9BitmapBoxD0Ev
 378              		.syntax unified
 379              		.thumb
 380              		.thumb_func
 381              		.fpu softvfp
 383              	_ZN3VFO9BitmapBoxD0Ev:
 384              		.fnstart
 385              	.LVL17:
 386              	.LFB86:
  57:Src/VFO/GUI/Background.h **** 	{
 387              		.loc 1 57 10 is_stmt 1 view -0
 388              		.cfi_startproc
 389              		@ args = 0, pretend = 0, frame = 0
 390              		@ frame_needed = 0, uses_anonymous_args = 0
  57:Src/VFO/GUI/Background.h **** 	{
 391              		.loc 1 57 10 is_stmt 0 view .LVU109
 392 0000 10B5     		push	{r4, lr}
 393              	.LCFI4:
 394              		.cfi_def_cfa_offset 8
 395              		.cfi_offset 4, -8
 396              		.cfi_offset 14, -4
  57:Src/VFO/GUI/Background.h **** 	{
 397              		.loc 1 57 10 view .LVU110
 398 0002 0446     		mov	r4, r0
 399              	.LVL18:
 400              	.LBB33:
 401              	.LBI33:
  57:Src/VFO/GUI/Background.h **** 	{
 402              		.loc 1 57 10 is_stmt 1 view .LVU111
 403              	.LBB34:
 404              	.LBI34:
  39:Src/VFO/GUI/Background.h **** 	{
 405              		.loc 1 39 10 view .LVU112
  39:Src/VFO/GUI/Background.h **** 	{
 406              		.loc 1 39 10 is_stmt 0 view .LVU113
 407              	.LBE34:
 408              	.LBE33:
  59:Src/VFO/GUI/Background.h **** 
 409              		.loc 1 59 2 view .LVU114
 410 0004 1021     		movs	r1, #16
 411 0006 FFF7FEFF 		bl	_ZdlPvj
 412              	.LVL19:
  59:Src/VFO/GUI/Background.h **** 
 413              		.loc 1 59 2 view .LVU115
ARM GAS  /var/folders/20/cstyxln53wn53rr40gj353bh0000gn/T//ccU9y6Dn.s 			page 12


 414 000a 2046     		mov	r0, r4
 415 000c 10BD     		pop	{r4, pc}
  59:Src/VFO/GUI/Background.h **** 
 416              		.loc 1 59 2 view .LVU116
 417              		.cfi_endproc
 418              	.LFE86:
 419              		.cantunwind
 420              		.fnend
 422 000e 00BF     		.section	.text._ZN3VFO9BitmapBoxC2EhhP6Bitmap,"ax",%progbits
 423              		.align	1
 424              		.p2align 2,,3
 425              		.global	_ZN3VFO9BitmapBoxC2EhhP6Bitmap
 426              		.syntax unified
 427              		.thumb
 428              		.thumb_func
 429              		.fpu softvfp
 431              	_ZN3VFO9BitmapBoxC2EhhP6Bitmap:
 432              		.fnstart
 433              	.LVL20:
 434              	.LFB92:
  15:Src/VFO/GUI/Background.cpp **** {
 435              		.loc 2 15 1 is_stmt 1 view -0
 436              		.cfi_startproc
 437              		@ args = 0, pretend = 0, frame = 0
 438              		@ frame_needed = 0, uses_anonymous_args = 0
 439              		@ link register save eliminated.
 440              	.LBB35:
 441              	.LBB36:
 442              	.LBI36:
  30:Src/VFO/GUI/Background.h **** 	{
 443              		.loc 1 30 2 view .LVU118
 444              	.LBB37:
  32:Src/VFO/GUI/Background.h **** 	}
 445              		.loc 1 32 3 view .LVU119
 446              	.LBE37:
 447              	.LBE36:
 448              	.LBE35:
  15:Src/VFO/GUI/Background.cpp **** {
 449              		.loc 2 15 1 is_stmt 0 view .LVU120
 450 0000 30B4     		push	{r4, r5}
 451              	.LCFI5:
 452              		.cfi_def_cfa_offset 8
 453              		.cfi_offset 4, -8
 454              		.cfi_offset 5, -4
 455              	.LBB42:
 456              	.LBB40:
 457              	.LBB38:
  32:Src/VFO/GUI/Background.h **** 	}
 458              		.loc 1 32 14 view .LVU121
 459 0002 0025     		movs	r5, #0
 460              	.LBE38:
 461              	.LBE40:
  17:Src/VFO/GUI/Background.cpp **** 	_y = y;
 462              		.loc 2 17 5 view .LVU122
 463 0004 0173     		strb	r1, [r0, #12]
  15:Src/VFO/GUI/Background.cpp **** {
 464              		.loc 2 15 58 view .LVU123
ARM GAS  /var/folders/20/cstyxln53wn53rr40gj353bh0000gn/T//ccU9y6Dn.s 			page 13


 465 0006 0349     		ldr	r1, .L13
 466              	.LVL21:
 467              	.LBB41:
 468              	.LBB39:
  32:Src/VFO/GUI/Background.h **** 	}
 469              		.loc 1 32 14 view .LVU124
 470 0008 8580     		strh	r5, [r0, #4]	@ movhi
 471              	.LVL22:
  32:Src/VFO/GUI/Background.h **** 	}
 472              		.loc 1 32 14 view .LVU125
 473              	.LBE39:
 474              	.LBE41:
  18:Src/VFO/GUI/Background.cpp **** 	_data = bitmap;
 475              		.loc 2 18 5 view .LVU126
 476 000a 4273     		strb	r2, [r0, #13]
  19:Src/VFO/GUI/Background.cpp **** }
 477              		.loc 2 19 8 view .LVU127
 478 000c 8360     		str	r3, [r0, #8]
  15:Src/VFO/GUI/Background.cpp **** {
 479              		.loc 2 15 58 view .LVU128
 480 000e 0160     		str	r1, [r0]
  17:Src/VFO/GUI/Background.cpp **** 	_y = y;
 481              		.loc 2 17 2 is_stmt 1 view .LVU129
  18:Src/VFO/GUI/Background.cpp **** 	_data = bitmap;
 482              		.loc 2 18 2 view .LVU130
  19:Src/VFO/GUI/Background.cpp **** }
 483              		.loc 2 19 2 view .LVU131
 484              	.LBE42:
  20:Src/VFO/GUI/Background.cpp **** 
 485              		.loc 2 20 1 is_stmt 0 view .LVU132
 486 0010 30BC     		pop	{r4, r5}
 487              	.LCFI6:
 488              		.cfi_restore 5
 489              		.cfi_restore 4
 490              		.cfi_def_cfa_offset 0
 491 0012 7047     		bx	lr
 492              	.L14:
 493              		.align	2
 494              	.L13:
 495 0014 08000000 		.word	.LANCHOR0+8
 496              		.cfi_endproc
 497              	.LFE92:
 498              		.cantunwind
 499              		.fnend
 501              		.global	_ZN3VFO9BitmapBoxC1EhhP6Bitmap
 502              		.thumb_set _ZN3VFO9BitmapBoxC1EhhP6Bitmap,_ZN3VFO9BitmapBoxC2EhhP6Bitmap
 503              		.section	.text._ZN3VFO9BitmapBox4drawEv,"ax",%progbits
 504              		.align	1
 505              		.p2align 2,,3
 506              		.global	_ZN3VFO9BitmapBox4drawEv
 507              		.syntax unified
 508              		.thumb
 509              		.thumb_func
 510              		.fpu softvfp
 512              	_ZN3VFO9BitmapBox4drawEv:
 513              		.fnstart
 514              	.LVL23:
ARM GAS  /var/folders/20/cstyxln53wn53rr40gj353bh0000gn/T//ccU9y6Dn.s 			page 14


 515              	.LFB95:
  28:Src/VFO/GUI/Background.cpp **** 	CS_L();
 516              		.loc 2 28 1 is_stmt 1 view -0
 517              		.cfi_startproc
 518              		@ args = 0, pretend = 0, frame = 0
 519              		@ frame_needed = 0, uses_anonymous_args = 0
  29:Src/VFO/GUI/Background.cpp **** 	ST7735_AddrSet(_x, _y, _x + _data->width, _y + _data->height);
 520              		.loc 2 29 2 view .LVU134
  28:Src/VFO/GUI/Background.cpp **** 	CS_L();
 521              		.loc 2 28 1 is_stmt 0 view .LVU135
 522 0000 F8B5     		push	{r3, r4, r5, r6, r7, lr}
 523              		.save {r3, r4, r5, r6, r7, lr}
 524              	.LCFI7:
 525              		.cfi_def_cfa_offset 24
 526              		.cfi_offset 3, -24
 527              		.cfi_offset 4, -20
 528              		.cfi_offset 5, -16
 529              		.cfi_offset 6, -12
 530              		.cfi_offset 7, -8
 531              		.cfi_offset 14, -4
  28:Src/VFO/GUI/Background.cpp **** 	CS_L();
 532              		.loc 2 28 1 view .LVU136
 533 0002 0746     		mov	r7, r0
  29:Src/VFO/GUI/Background.cpp **** 	ST7735_AddrSet(_x, _y, _x + _data->width, _y + _data->height);
 534              		.loc 2 29 2 view .LVU137
 535 0004 0022     		movs	r2, #0
 536 0006 4FF48051 		mov	r1, #4096
 537 000a 1948     		ldr	r0, .L23
 538              	.LVL24:
  29:Src/VFO/GUI/Background.cpp **** 	ST7735_AddrSet(_x, _y, _x + _data->width, _y + _data->height);
 539              		.loc 2 29 2 view .LVU138
 540 000c FFF7FEFF 		bl	HAL_GPIO_WritePin
 541              	.LVL25:
  30:Src/VFO/GUI/Background.cpp **** 	A0_H();
 542              		.loc 2 30 2 is_stmt 1 view .LVU139
  30:Src/VFO/GUI/Background.cpp **** 	A0_H();
 543              		.loc 2 30 30 is_stmt 0 view .LVU140
 544 0010 BA68     		ldr	r2, [r7, #8]
  30:Src/VFO/GUI/Background.cpp **** 	A0_H();
 545              		.loc 2 30 16 view .LVU141
 546 0012 797B     		ldrb	r1, [r7, #13]	@ zero_extendqisi2
  30:Src/VFO/GUI/Background.cpp **** 	A0_H();
 547              		.loc 2 30 56 view .LVU142
 548 0014 1378     		ldrb	r3, [r2]	@ zero_extendqisi2
  30:Src/VFO/GUI/Background.cpp **** 	A0_H();
 549              		.loc 2 30 16 view .LVU143
 550 0016 387B     		ldrb	r0, [r7, #12]	@ zero_extendqisi2
  30:Src/VFO/GUI/Background.cpp **** 	A0_H();
 551              		.loc 2 30 37 view .LVU144
 552 0018 5278     		ldrb	r2, [r2, #1]	@ zero_extendqisi2
  30:Src/VFO/GUI/Background.cpp **** 	A0_H();
 553              		.loc 2 30 16 view .LVU145
 554 001a 0B44     		add	r3, r3, r1
 555 001c 0244     		add	r2, r2, r0
 556 001e FFF7FEFF 		bl	ST7735_AddrSet
 557              	.LVL26:
  31:Src/VFO/GUI/Background.cpp **** 	uint16_t *ptr = (uint16_t *) _data->data;
ARM GAS  /var/folders/20/cstyxln53wn53rr40gj353bh0000gn/T//ccU9y6Dn.s 			page 15


 558              		.loc 2 31 2 is_stmt 1 view .LVU146
 559 0022 0122     		movs	r2, #1
 560 0024 4FF40071 		mov	r1, #512
 561 0028 1148     		ldr	r0, .L23
 562 002a FFF7FEFF 		bl	HAL_GPIO_WritePin
 563              	.LVL27:
  32:Src/VFO/GUI/Background.cpp **** 	for (int i = 0; i < _data->width * _data->height; i++)
 564              		.loc 2 32 2 view .LVU147
  32:Src/VFO/GUI/Background.cpp **** 	for (int i = 0; i < _data->width * _data->height; i++)
 565              		.loc 2 32 31 is_stmt 0 view .LVU148
 566 002e BE68     		ldr	r6, [r7, #8]
 567              	.LBB43:
  33:Src/VFO/GUI/Background.cpp **** 	{
 568              		.loc 2 33 29 view .LVU149
 569 0030 7278     		ldrb	r2, [r6, #1]	@ zero_extendqisi2
  33:Src/VFO/GUI/Background.cpp **** 	{
 570              		.loc 2 33 44 view .LVU150
 571 0032 3378     		ldrb	r3, [r6]	@ zero_extendqisi2
 572              	.LVL28:
  33:Src/VFO/GUI/Background.cpp **** 	{
 573              		.loc 2 33 44 view .LVU151
 574              	.LBE43:
  33:Src/VFO/GUI/Background.cpp **** 	{
 575              		.loc 2 33 2 is_stmt 1 view .LVU152
 576              	.LBB46:
  33:Src/VFO/GUI/Background.cpp **** 	{
 577              		.loc 2 33 35 is_stmt 0 view .LVU153
 578 0034 03FB02F3 		mul	r3, r3, r2
  33:Src/VFO/GUI/Background.cpp **** 	{
 579              		.loc 2 33 20 view .LVU154
 580 0038 8BB1     		cbz	r3, .L16
  33:Src/VFO/GUI/Background.cpp **** 	{
 581              		.loc 2 33 11 view .LVU155
 582 003a 0024     		movs	r4, #0
 583 003c 0236     		adds	r6, r6, #2
 584              	.LVL29:
 585              	.L17:
 586              	.LBB44:
  35:Src/VFO/GUI/Background.cpp **** 		ST7735_write(color >> 8);
 587              		.loc 2 35 3 is_stmt 1 discriminator 2 view .LVU156
  35:Src/VFO/GUI/Background.cpp **** 		ST7735_write(color >> 8);
 588              		.loc 2 35 24 is_stmt 0 discriminator 2 view .LVU157
 589 003e 36F8025B 		ldrh	r5, [r6], #2
 590              	.LVL30:
  36:Src/VFO/GUI/Background.cpp **** 		ST7735_write((uint8_t) color);
 591              		.loc 2 36 3 is_stmt 1 discriminator 2 view .LVU158
 592              	.LBE44:
  33:Src/VFO/GUI/Background.cpp **** 	{
 593              		.loc 2 33 2 is_stmt 0 discriminator 2 view .LVU159
 594 0042 0134     		adds	r4, r4, #1
 595              	.LVL31:
 596              	.LBB45:
  36:Src/VFO/GUI/Background.cpp **** 		ST7735_write((uint8_t) color);
 597              		.loc 2 36 15 discriminator 2 view .LVU160
 598 0044 280A     		lsrs	r0, r5, #8
 599 0046 FFF7FEFF 		bl	ST7735_write
 600              	.LVL32:
ARM GAS  /var/folders/20/cstyxln53wn53rr40gj353bh0000gn/T//ccU9y6Dn.s 			page 16


  37:Src/VFO/GUI/Background.cpp **** 	}
 601              		.loc 2 37 3 is_stmt 1 discriminator 2 view .LVU161
  37:Src/VFO/GUI/Background.cpp **** 	}
 602              		.loc 2 37 15 is_stmt 0 discriminator 2 view .LVU162
 603 004a E8B2     		uxtb	r0, r5
 604 004c FFF7FEFF 		bl	ST7735_write
 605              	.LVL33:
  37:Src/VFO/GUI/Background.cpp **** 	}
 606              		.loc 2 37 15 discriminator 2 view .LVU163
 607              	.LBE45:
  33:Src/VFO/GUI/Background.cpp **** 	{
 608              		.loc 2 33 22 discriminator 2 view .LVU164
 609 0050 BA68     		ldr	r2, [r7, #8]
  33:Src/VFO/GUI/Background.cpp **** 	{
 610              		.loc 2 33 29 discriminator 2 view .LVU165
 611 0052 5178     		ldrb	r1, [r2, #1]	@ zero_extendqisi2
  33:Src/VFO/GUI/Background.cpp **** 	{
 612              		.loc 2 33 44 discriminator 2 view .LVU166
 613 0054 1378     		ldrb	r3, [r2]	@ zero_extendqisi2
  33:Src/VFO/GUI/Background.cpp **** 	{
 614              		.loc 2 33 35 discriminator 2 view .LVU167
 615 0056 03FB01F3 		mul	r3, r3, r1
  33:Src/VFO/GUI/Background.cpp **** 	{
 616              		.loc 2 33 20 discriminator 2 view .LVU168
 617 005a A342     		cmp	r3, r4
 618 005c EFDC     		bgt	.L17
 619              	.LVL34:
 620              	.L16:
  33:Src/VFO/GUI/Background.cpp **** 	{
 621              		.loc 2 33 20 discriminator 2 view .LVU169
 622              	.LBE46:
  40:Src/VFO/GUI/Background.cpp **** }
 623              		.loc 2 40 2 is_stmt 1 view .LVU170
  41:Src/VFO/GUI/Background.cpp **** 
 624              		.loc 2 41 1 is_stmt 0 view .LVU171
 625 005e BDE8F840 		pop	{r3, r4, r5, r6, r7, lr}
 626              	.LCFI8:
 627              		.cfi_restore 14
 628              		.cfi_restore 7
 629              		.cfi_restore 6
 630              		.cfi_restore 5
 631              		.cfi_restore 4
 632              		.cfi_restore 3
 633              		.cfi_def_cfa_offset 0
 634              	.LVL35:
  40:Src/VFO/GUI/Background.cpp **** }
 635              		.loc 2 40 2 view .LVU172
 636 0062 0122     		movs	r2, #1
 637 0064 4FF48051 		mov	r1, #4096
 638 0068 0148     		ldr	r0, .L23
 639 006a FFF7FEBF 		b	HAL_GPIO_WritePin
 640              	.LVL36:
 641              	.L24:
 642 006e 00BF     		.align	2
 643              	.L23:
 644 0070 00080140 		.word	1073809408
 645              		.cfi_endproc
ARM GAS  /var/folders/20/cstyxln53wn53rr40gj353bh0000gn/T//ccU9y6Dn.s 			page 17


 646              	.LFE95:
 647              		.fnend
 649              		.section	.text._ZN3VFO11GradientBoxC2Ehhhh,"ax",%progbits
 650              		.align	1
 651              		.p2align 2,,3
 652              		.global	_ZN3VFO11GradientBoxC2Ehhhh
 653              		.syntax unified
 654              		.thumb
 655              		.thumb_func
 656              		.fpu softvfp
 658              	_ZN3VFO11GradientBoxC2Ehhhh:
 659              		.fnstart
 660              	.LVL37:
 661              	.LFB97:
  43:Src/VFO/GUI/Background.cpp **** {
 662              		.loc 2 43 1 is_stmt 1 view -0
 663              		.cfi_startproc
 664              		@ args = 4, pretend = 0, frame = 0
 665              		@ frame_needed = 0, uses_anonymous_args = 0
 666              	.LBB47:
 667              	.LBB48:
 668              	.LBI48:
  30:Src/VFO/GUI/Background.h **** 	{
 669              		.loc 1 30 2 view .LVU174
 670              	.LBB49:
  32:Src/VFO/GUI/Background.h **** 	}
 671              		.loc 1 32 3 view .LVU175
 672              	.LBE49:
 673              	.LBE48:
 674              	.LBE47:
  43:Src/VFO/GUI/Background.cpp **** {
 675              		.loc 2 43 1 is_stmt 0 view .LVU176
 676 0000 2DE9F043 		push	{r4, r5, r6, r7, r8, r9, lr}
 677              	.LCFI9:
 678              		.cfi_def_cfa_offset 28
 679              		.cfi_offset 4, -28
 680              		.cfi_offset 5, -24
 681              		.cfi_offset 6, -20
 682              		.cfi_offset 7, -16
 683              		.cfi_offset 8, -12
 684              		.cfi_offset 9, -8
 685              		.cfi_offset 14, -4
 686              	.LBB54:
  43:Src/VFO/GUI/Background.cpp **** {
 687              		.loc 2 43 68 view .LVU177
 688 0004 164D     		ldr	r5, .L27
 689              	.LBB52:
 690              	.LBB50:
  32:Src/VFO/GUI/Background.h **** 	}
 691              		.loc 1 32 14 view .LVU178
 692 0006 4FF0000E 		mov	lr, #0
 693              	.LBE50:
 694              	.LBE52:
  43:Src/VFO/GUI/Background.cpp **** {
 695              		.loc 2 43 68 view .LVU179
 696 000a 2E46     		mov	r6, r5
 697 000c 8446     		mov	ip, r0
ARM GAS  /var/folders/20/cstyxln53wn53rr40gj353bh0000gn/T//ccU9y6Dn.s 			page 18


 698 000e 2F46     		mov	r7, r5
 699              	.LBB53:
 700              	.LBB51:
  32:Src/VFO/GUI/Background.h **** 	}
 701              		.loc 1 32 14 view .LVU180
 702 0010 A0F804E0 		strh	lr, [r0, #4]	@ movhi
 703              	.LVL38:
  32:Src/VFO/GUI/Background.h **** 	}
 704              		.loc 1 32 14 view .LVU181
 705              	.LBE51:
 706              	.LBE53:
  43:Src/VFO/GUI/Background.cpp **** {
 707              		.loc 2 43 68 view .LVU182
 708 0014 DFF84C80 		ldr	r8, .L27+4
 709 0018 36F804EF 		ldrh	lr, [r6, #4]!	@ unaligned
 710 001c 4CF8068B 		str	r8, [ip], #6
 711 0020 B5F80090 		ldrh	r9, [r5]	@ unaligned
 712 0024 96F80280 		ldrb	r8, [r6, #2]	@ zero_extendqisi2
 713 0028 AE78     		ldrb	r6, [r5, #2]	@ zero_extendqisi2
 714 002a A0F80690 		strh	r9, [r0, #6]	@ unaligned
 715 002e 8CF80260 		strb	r6, [ip, #2]
 716 0032 37F80C6F 		ldrh	r6, [r7, #12]!	@ unaligned
 717 0036 AD68     		ldr	r5, [r5, #8]
  45:Src/VFO/GUI/Background.cpp **** }
 718              		.loc 2 45 5 view .LVU183
 719 0038 8174     		strb	r1, [r0, #18]
  45:Src/VFO/GUI/Background.cpp **** }
 720              		.loc 2 45 13 view .LVU184
 721 003a C274     		strb	r2, [r0, #19]
  43:Src/VFO/GUI/Background.cpp **** {
 722              		.loc 2 43 68 view .LVU185
 723 003c B978     		ldrb	r1, [r7, #2]	@ zero_extendqisi2
 724              	.LVL39:
  43:Src/VFO/GUI/Background.cpp **** {
 725              		.loc 2 43 68 view .LVU186
 726              	.LBE54:
  43:Src/VFO/GUI/Background.cpp **** {
 727              		.loc 2 43 1 view .LVU187
 728 003e 9DF81C20 		ldrb	r2, [sp, #28]	@ zero_extendqisi2
 729              	.LVL40:
 730              	.LBB55:
  45:Src/VFO/GUI/Background.cpp **** }
 731              		.loc 2 45 21 view .LVU188
 732 0042 0375     		strb	r3, [r0, #20]
  43:Src/VFO/GUI/Background.cpp **** {
 733              		.loc 2 43 68 view .LVU189
 734 0044 2B0C     		lsrs	r3, r5, #16
 735              	.LVL41:
  43:Src/VFO/GUI/Background.cpp **** {
 736              		.loc 2 43 68 view .LVU190
 737 0046 A0F809E0 		strh	lr, [r0, #9]	@ unaligned
 738 004a 80F80B80 		strb	r8, [r0, #11]
 739 004e 8581     		strh	r5, [r0, #12]	@ movhi
 740 0050 8373     		strb	r3, [r0, #14]
 741 0052 A0F80F60 		strh	r6, [r0, #15]	@ unaligned
 742 0056 4174     		strb	r1, [r0, #17]
  45:Src/VFO/GUI/Background.cpp **** }
ARM GAS  /var/folders/20/cstyxln53wn53rr40gj353bh0000gn/T//ccU9y6Dn.s 			page 19


 743              		.loc 2 45 2 is_stmt 1 view .LVU191
  45:Src/VFO/GUI/Background.cpp **** }
 744              		.loc 2 45 29 is_stmt 0 view .LVU192
 745 0058 4275     		strb	r2, [r0, #21]
 746              	.LBE55:
  46:Src/VFO/GUI/Background.cpp **** 
 747              		.loc 2 46 1 view .LVU193
 748 005a BDE8F083 		pop	{r4, r5, r6, r7, r8, r9, pc}
 749              	.LVL42:
 750              	.L28:
  46:Src/VFO/GUI/Background.cpp **** 
 751              		.loc 2 46 1 view .LVU194
 752 005e 00BF     		.align	2
 753              	.L27:
 754 0060 00000000 		.word	.LANCHOR2
 755 0064 08000000 		.word	.LANCHOR1+8
 756              		.cfi_endproc
 757              	.LFE97:
 758              		.cantunwind
 759              		.fnend
 761              		.global	_ZN3VFO11GradientBoxC1Ehhhh
 762              		.thumb_set _ZN3VFO11GradientBoxC1Ehhhh,_ZN3VFO11GradientBoxC2Ehhhh
 763              		.section	.text._ZN3VFO11GradientBox4drawEv,"ax",%progbits
 764              		.align	1
 765              		.p2align 2,,3
 766              		.global	_ZN3VFO11GradientBox4drawEv
 767              		.syntax unified
 768              		.thumb
 769              		.thumb_func
 770              		.fpu softvfp
 772              	_ZN3VFO11GradientBox4drawEv:
 773              		.fnstart
 774              	.LVL43:
 775              	.LFB100:
  74:Src/VFO/GUI/Background.cpp **** 
  75:Src/VFO/GUI/Background.cpp **** void GradientBox::draw()
  76:Src/VFO/GUI/Background.cpp **** {
 776              		.loc 2 76 1 is_stmt 1 view -0
 777              		.cfi_startproc
 778              		@ args = 0, pretend = 0, frame = 16
 779              		@ frame_needed = 0, uses_anonymous_args = 0
  77:Src/VFO/GUI/Background.cpp **** 	CS_L();
 780              		.loc 2 77 2 view .LVU196
  76:Src/VFO/GUI/Background.cpp **** 	CS_L();
 781              		.loc 2 76 1 is_stmt 0 view .LVU197
 782 0000 2DE9F04F 		push	{r4, r5, r6, r7, r8, r9, r10, fp, lr}
 783              		.save {r4, r5, r6, r7, r8, r9, r10, fp, lr}
 784              	.LCFI10:
 785              		.cfi_def_cfa_offset 36
 786              		.cfi_offset 4, -36
 787              		.cfi_offset 5, -32
 788              		.cfi_offset 6, -28
 789              		.cfi_offset 7, -24
 790              		.cfi_offset 8, -20
 791              		.cfi_offset 9, -16
 792              		.cfi_offset 10, -12
 793              		.cfi_offset 11, -8
ARM GAS  /var/folders/20/cstyxln53wn53rr40gj353bh0000gn/T//ccU9y6Dn.s 			page 20


 794              		.cfi_offset 14, -4
 795 0004 0546     		mov	r5, r0
 796              		.pad #20
 797 0006 85B0     		sub	sp, sp, #20
 798              	.LCFI11:
 799              		.cfi_def_cfa_offset 56
 800              		.loc 2 77 2 view .LVU198
 801 0008 0022     		movs	r2, #0
 802 000a 4FF48051 		mov	r1, #4096
 803 000e 5648     		ldr	r0, .L40
 804              	.LVL44:
 805              		.loc 2 77 2 view .LVU199
 806 0010 FFF7FEFF 		bl	HAL_GPIO_WritePin
 807              	.LVL45:
  78:Src/VFO/GUI/Background.cpp **** 	ST7735_AddrSet(_x, _y, _x + _w - 1, _y + _h - 1);
 808              		.loc 2 78 2 is_stmt 1 view .LVU200
 809              		.loc 2 78 16 is_stmt 0 view .LVU201
 810 0014 A87C     		ldrb	r0, [r5, #18]	@ zero_extendqisi2
 811 0016 E97C     		ldrb	r1, [r5, #19]	@ zero_extendqisi2
 812              		.loc 2 78 30 view .LVU202
 813 0018 2A7D     		ldrb	r2, [r5, #20]	@ zero_extendqisi2
 814              		.loc 2 78 43 view .LVU203
 815 001a 6B7D     		ldrb	r3, [r5, #21]	@ zero_extendqisi2
 816              		.loc 2 78 28 view .LVU204
 817 001c 0244     		add	r2, r2, r0
 818              		.loc 2 78 41 view .LVU205
 819 001e 0B44     		add	r3, r3, r1
 820              		.loc 2 78 16 view .LVU206
 821 0020 013A     		subs	r2, r2, #1
 822 0022 013B     		subs	r3, r3, #1
 823 0024 92B2     		uxth	r2, r2
 824 0026 9BB2     		uxth	r3, r3
 825 0028 FFF7FEFF 		bl	ST7735_AddrSet
 826              	.LVL46:
  79:Src/VFO/GUI/Background.cpp **** 	A0_H();
 827              		.loc 2 79 2 is_stmt 1 view .LVU207
 828 002c 0122     		movs	r2, #1
 829 002e 4FF40071 		mov	r1, #512
 830 0032 4D48     		ldr	r0, .L40
 831 0034 FFF7FEFF 		bl	HAL_GPIO_WritePin
 832              	.LVL47:
  80:Src/VFO/GUI/Background.cpp **** 
  81:Src/VFO/GUI/Background.cpp **** 	uint16_t color;
  82:Src/VFO/GUI/Background.cpp **** 	uint8_t row, col;
  83:Src/VFO/GUI/Background.cpp **** 	RGB rowStart, rowEnd, pix;
  84:Src/VFO/GUI/Background.cpp **** 	for (row = 0; row < _h; row++)
 833              		.loc 2 84 22 is_stmt 0 view .LVU208
 834 0038 95F815C0 		ldrb	ip, [r5, #21]	@ zero_extendqisi2
 835              		.loc 2 84 20 view .LVU209
 836 003c BCF1000F 		cmp	ip, #0
 837 0040 00F08880 		beq	.L33
 838 0044 0023     		movs	r3, #0
 839 0046 0293     		str	r3, [sp, #8]
 840 0048 1F46     		mov	r7, r3
 841 004a 2B7D     		ldrb	r3, [r5, #20]	@ zero_extendqisi2
 842              	.LVL48:
 843              	.L34:
ARM GAS  /var/folders/20/cstyxln53wn53rr40gj353bh0000gn/T//ccU9y6Dn.s 			page 21


  85:Src/VFO/GUI/Background.cpp **** 	{
  86:Src/VFO/GUI/Background.cpp **** 		rowStart =
 844              		.loc 2 86 3 is_stmt 1 view .LVU210
  87:Src/VFO/GUI/Background.cpp **** 		{
  88:Src/VFO/GUI/Background.cpp **** 			(uint8_t)(upLeft.r + (downLeft.r - upLeft.r) * row / _h),
  89:Src/VFO/GUI/Background.cpp **** 			(uint8_t)(upLeft.g + (downLeft.g - upLeft.g) * row / _h),
  90:Src/VFO/GUI/Background.cpp **** 			(uint8_t)(upLeft.b + (downLeft.b - upLeft.b) * row / _h),
  91:Src/VFO/GUI/Background.cpp **** 		};
  92:Src/VFO/GUI/Background.cpp **** 		rowEnd =
  93:Src/VFO/GUI/Background.cpp **** 		{
  94:Src/VFO/GUI/Background.cpp **** 			(uint8_t)(upRight.r + (downRight.r - upRight.r) * row / _h),
  95:Src/VFO/GUI/Background.cpp **** 			(uint8_t)(upRight.g + (downRight.g - upRight.g) * row / _h),
 845              		.loc 2 95 22 is_stmt 0 view .LVU211
 846 004c A97A     		ldrb	r1, [r5, #10]	@ zero_extendqisi2
  94:Src/VFO/GUI/Background.cpp **** 			(uint8_t)(upRight.g + (downRight.g - upRight.g) * row / _h),
 847              		.loc 2 94 22 view .LVU212
 848 004e 6A7A     		ldrb	r2, [r5, #9]	@ zero_extendqisi2
  89:Src/VFO/GUI/Background.cpp **** 			(uint8_t)(upLeft.b + (downLeft.b - upLeft.b) * row / _h),
 849              		.loc 2 89 21 view .LVU213
 850 0050 95F80790 		ldrb	r9, [r5, #7]	@ zero_extendqisi2
  89:Src/VFO/GUI/Background.cpp **** 			(uint8_t)(upLeft.b + (downLeft.b - upLeft.b) * row / _h),
 851              		.loc 2 89 35 view .LVU214
 852 0054 6C7B     		ldrb	r4, [r5, #13]	@ zero_extendqisi2
  94:Src/VFO/GUI/Background.cpp **** 			(uint8_t)(upRight.g + (downRight.g - upRight.g) * row / _h),
 853              		.loc 2 94 37 view .LVU215
 854 0056 EE7B     		ldrb	r6, [r5, #15]	@ zero_extendqisi2
 855              		.loc 2 95 22 view .LVU216
 856 0058 0191     		str	r1, [sp, #4]
  89:Src/VFO/GUI/Background.cpp **** 			(uint8_t)(upLeft.b + (downLeft.b - upLeft.b) * row / _h),
 857              		.loc 2 89 37 view .LVU217
 858 005a A4EB0904 		sub	r4, r4, r9
  94:Src/VFO/GUI/Background.cpp **** 			(uint8_t)(upRight.g + (downRight.g - upRight.g) * row / _h),
 859              		.loc 2 94 39 view .LVU218
 860 005e 0392     		str	r2, [sp, #12]
 861 0060 B61A     		subs	r6, r6, r2
 862              		.loc 2 95 37 view .LVU219
 863 0062 297C     		ldrb	r1, [r5, #16]	@ zero_extendqisi2
 864              		.loc 2 95 39 view .LVU220
 865 0064 019A     		ldr	r2, [sp, #4]
  89:Src/VFO/GUI/Background.cpp **** 			(uint8_t)(upLeft.b + (downLeft.b - upLeft.b) * row / _h),
 866              		.loc 2 89 49 view .LVU221
 867 0066 07FB04F4 		mul	r4, r7, r4
  88:Src/VFO/GUI/Background.cpp **** 			(uint8_t)(upLeft.g + (downLeft.g - upLeft.g) * row / _h),
 868              		.loc 2 88 21 view .LVU222
 869 006a 95F80680 		ldrb	r8, [r5, #6]	@ zero_extendqisi2
  96:Src/VFO/GUI/Background.cpp **** 			(uint8_t)(upRight.b + (downRight.b - upRight.b) * row / _h),
 870              		.loc 2 96 22 view .LVU223
 871 006e 95F80BE0 		ldrb	lr, [r5, #11]	@ zero_extendqisi2
  90:Src/VFO/GUI/Background.cpp **** 		};
 872              		.loc 2 90 21 view .LVU224
 873 0072 95F808B0 		ldrb	fp, [r5, #8]	@ zero_extendqisi2
  95:Src/VFO/GUI/Background.cpp **** 			(uint8_t)(upRight.b + (downRight.b - upRight.b) * row / _h),
 874              		.loc 2 95 39 view .LVU225
 875 0076 891A     		subs	r1, r1, r2
  88:Src/VFO/GUI/Background.cpp **** 			(uint8_t)(upLeft.g + (downLeft.g - upLeft.g) * row / _h),
 876              		.loc 2 88 35 view .LVU226
 877 0078 95F80CA0 		ldrb	r10, [r5, #12]	@ zero_extendqisi2
ARM GAS  /var/folders/20/cstyxln53wn53rr40gj353bh0000gn/T//ccU9y6Dn.s 			page 22


  90:Src/VFO/GUI/Background.cpp **** 		};
 878              		.loc 2 90 35 view .LVU227
 879 007c A87B     		ldrb	r0, [r5, #14]	@ zero_extendqisi2
 880              		.loc 2 96 37 view .LVU228
 881 007e 6A7C     		ldrb	r2, [r5, #17]	@ zero_extendqisi2
  94:Src/VFO/GUI/Background.cpp **** 			(uint8_t)(upRight.g + (downRight.g - upRight.g) * row / _h),
 882              		.loc 2 94 52 view .LVU229
 883 0080 07FB06F6 		mul	r6, r7, r6
  88:Src/VFO/GUI/Background.cpp **** 			(uint8_t)(upLeft.g + (downLeft.g - upLeft.g) * row / _h),
 884              		.loc 2 88 37 view .LVU230
 885 0084 AAEB080A 		sub	r10, r10, r8
 886              		.loc 2 96 39 view .LVU231
 887 0088 A2EB0E02 		sub	r2, r2, lr
  90:Src/VFO/GUI/Background.cpp **** 		};
 888              		.loc 2 90 37 view .LVU232
 889 008c A0EB0B00 		sub	r0, r0, fp
  89:Src/VFO/GUI/Background.cpp **** 			(uint8_t)(upLeft.b + (downLeft.b - upLeft.b) * row / _h),
 890              		.loc 2 89 55 view .LVU233
 891 0090 94FBFCF4 		sdiv	r4, r4, ip
  88:Src/VFO/GUI/Background.cpp **** 			(uint8_t)(upLeft.g + (downLeft.g - upLeft.g) * row / _h),
 892              		.loc 2 88 49 view .LVU234
 893 0094 07FB0AFA 		mul	r10, r7, r10
  90:Src/VFO/GUI/Background.cpp **** 		};
 894              		.loc 2 90 49 view .LVU235
 895 0098 07FB00F0 		mul	r0, r7, r0
  95:Src/VFO/GUI/Background.cpp **** 			(uint8_t)(upRight.b + (downRight.b - upRight.b) * row / _h),
 896              		.loc 2 95 52 view .LVU236
 897 009c 07FB01F1 		mul	r1, r7, r1
 898              		.loc 2 96 52 view .LVU237
 899 00a0 07FB02F2 		mul	r2, r7, r2
  94:Src/VFO/GUI/Background.cpp **** 			(uint8_t)(upRight.g + (downRight.g - upRight.g) * row / _h),
 900              		.loc 2 94 58 view .LVU238
 901 00a4 96FBFCF6 		sdiv	r6, r6, ip
  88:Src/VFO/GUI/Background.cpp **** 			(uint8_t)(upLeft.g + (downLeft.g - upLeft.g) * row / _h),
 902              		.loc 2 88 55 view .LVU239
 903 00a8 9AFBFCFA 		sdiv	r10, r10, ip
  90:Src/VFO/GUI/Background.cpp **** 		};
 904              		.loc 2 90 55 view .LVU240
 905 00ac 90FBFCF0 		sdiv	r0, r0, ip
  95:Src/VFO/GUI/Background.cpp **** 			(uint8_t)(upRight.b + (downRight.b - upRight.b) * row / _h),
 906              		.loc 2 95 58 view .LVU241
 907 00b0 91FBFCF1 		sdiv	r1, r1, ip
 908              		.loc 2 96 58 view .LVU242
 909 00b4 92FBFCF2 		sdiv	r2, r2, ip
  89:Src/VFO/GUI/Background.cpp **** 			(uint8_t)(upLeft.b + (downLeft.b - upLeft.b) * row / _h),
 910              		.loc 2 89 23 view .LVU243
 911 00b8 A144     		add	r9, r9, r4
  94:Src/VFO/GUI/Background.cpp **** 			(uint8_t)(upRight.g + (downRight.g - upRight.g) * row / _h),
 912              		.loc 2 94 24 view .LVU244
 913 00ba 039C     		ldr	r4, [sp, #12]
  88:Src/VFO/GUI/Background.cpp **** 			(uint8_t)(upLeft.g + (downLeft.g - upLeft.g) * row / _h),
 914              		.loc 2 88 23 view .LVU245
 915 00bc C244     		add	r10, r10, r8
  94:Src/VFO/GUI/Background.cpp **** 			(uint8_t)(upRight.g + (downRight.g - upRight.g) * row / _h),
 916              		.loc 2 94 24 view .LVU246
 917 00be 2644     		add	r6, r6, r4
  95:Src/VFO/GUI/Background.cpp **** 			(uint8_t)(upRight.b + (downRight.b - upRight.b) * row / _h),
ARM GAS  /var/folders/20/cstyxln53wn53rr40gj353bh0000gn/T//ccU9y6Dn.s 			page 23


 918              		.loc 2 95 24 view .LVU247
 919 00c0 019C     		ldr	r4, [sp, #4]
  90:Src/VFO/GUI/Background.cpp **** 		};
 920              		.loc 2 90 23 view .LVU248
 921 00c2 5844     		add	r0, r0, fp
  95:Src/VFO/GUI/Background.cpp **** 			(uint8_t)(upRight.b + (downRight.b - upRight.b) * row / _h),
 922              		.loc 2 95 24 view .LVU249
 923 00c4 2144     		add	r1, r1, r4
 924              		.loc 2 96 24 view .LVU250
 925 00c6 7244     		add	r2, r2, lr
  88:Src/VFO/GUI/Background.cpp **** 			(uint8_t)(upLeft.g + (downLeft.g - upLeft.g) * row / _h),
 926              		.loc 2 88 23 view .LVU251
 927 00c8 5FFA8AFA 		uxtb	r10, r10
  89:Src/VFO/GUI/Background.cpp **** 			(uint8_t)(upLeft.b + (downLeft.b - upLeft.b) * row / _h),
 928              		.loc 2 89 23 view .LVU252
 929 00cc 5FFA89F9 		uxtb	r9, r9
  90:Src/VFO/GUI/Background.cpp **** 		};
 930              		.loc 2 90 23 view .LVU253
 931 00d0 5FFA80F8 		uxtb	r8, r0
 932              	.LVL49:
  92:Src/VFO/GUI/Background.cpp **** 		{
 933              		.loc 2 92 3 is_stmt 1 view .LVU254
  94:Src/VFO/GUI/Background.cpp **** 			(uint8_t)(upRight.g + (downRight.g - upRight.g) * row / _h),
 934              		.loc 2 94 24 is_stmt 0 view .LVU255
 935 00d4 F6B2     		uxtb	r6, r6
  95:Src/VFO/GUI/Background.cpp **** 			(uint8_t)(upRight.b + (downRight.b - upRight.b) * row / _h),
 936              		.loc 2 95 24 view .LVU256
 937 00d6 C9B2     		uxtb	r1, r1
 938              		.loc 2 96 24 view .LVU257
 939 00d8 5FFA82FE 		uxtb	lr, r2
 940              	.LVL50:
  97:Src/VFO/GUI/Background.cpp **** 		};
  98:Src/VFO/GUI/Background.cpp **** 
  99:Src/VFO/GUI/Background.cpp **** 		for (col = 0; col < _w; col++)
 941              		.loc 2 99 3 is_stmt 1 view .LVU258
 942              		.loc 2 99 21 is_stmt 0 view .LVU259
 943 00dc 9BB3     		cbz	r3, .L31
 944 00de 0024     		movs	r4, #0
 945 00e0 1846     		mov	r0, r3
 946 00e2 2246     		mov	r2, r4
 947 00e4 A1EB0907 		sub	r7, r1, r9
 948 00e8 AEEB0801 		sub	r1, lr, r8
 949              	.LVL51:
 950              		.loc 2 99 21 view .LVU260
 951 00ec A6EB0A0B 		sub	fp, r6, r10
 952 00f0 0191     		str	r1, [sp, #4]
 953              	.LVL52:
 954              	.L32:
 100:Src/VFO/GUI/Background.cpp **** 		{
 101:Src/VFO/GUI/Background.cpp **** 			pix =
 955              		.loc 2 101 4 is_stmt 1 view .LVU261
 102:Src/VFO/GUI/Background.cpp **** 			{
 103:Src/VFO/GUI/Background.cpp **** 				(uint8_t)(rowStart.r + (rowEnd.r - rowStart.r) * col / _w),
 104:Src/VFO/GUI/Background.cpp **** 				(uint8_t)(rowStart.g + (rowEnd.g - rowStart.g) * col / _w),
 105:Src/VFO/GUI/Background.cpp **** 				(uint8_t)(rowStart.b + (rowEnd.b - rowStart.b) * col / _w),
 106:Src/VFO/GUI/Background.cpp **** 			};
 107:Src/VFO/GUI/Background.cpp **** 
ARM GAS  /var/folders/20/cstyxln53wn53rr40gj353bh0000gn/T//ccU9y6Dn.s 			page 24


 108:Src/VFO/GUI/Background.cpp **** 			color = ((pix.r >> 3) << 11) | ((pix.g >> 2) << 5) | (pix.b >> 3);
 956              		.loc 2 108 4 view .LVU262
 105:Src/VFO/GUI/Background.cpp **** 			};
 957              		.loc 2 105 52 is_stmt 0 view .LVU263
 958 00f2 019E     		ldr	r6, [sp, #4]
 104:Src/VFO/GUI/Background.cpp **** 				(uint8_t)(rowStart.b + (rowEnd.b - rowStart.b) * col / _w),
 959              		.loc 2 104 52 view .LVU264
 960 00f4 07FB02F3 		mul	r3, r7, r2
 103:Src/VFO/GUI/Background.cpp **** 				(uint8_t)(rowStart.g + (rowEnd.g - rowStart.g) * col / _w),
 961              		.loc 2 103 52 view .LVU265
 962 00f8 0BFB02F1 		mul	r1, fp, r2
 105:Src/VFO/GUI/Background.cpp **** 			};
 963              		.loc 2 105 52 view .LVU266
 964 00fc 06FB02F2 		mul	r2, r6, r2
 965              	.LVL53:
 104:Src/VFO/GUI/Background.cpp **** 				(uint8_t)(rowStart.b + (rowEnd.b - rowStart.b) * col / _w),
 966              		.loc 2 104 58 view .LVU267
 967 0100 93FBF0F3 		sdiv	r3, r3, r0
 103:Src/VFO/GUI/Background.cpp **** 				(uint8_t)(rowStart.g + (rowEnd.g - rowStart.g) * col / _w),
 968              		.loc 2 103 58 view .LVU268
 969 0104 91FBF0F1 		sdiv	r1, r1, r0
 105:Src/VFO/GUI/Background.cpp **** 			};
 970              		.loc 2 105 58 view .LVU269
 971 0108 92FBF0F2 		sdiv	r2, r2, r0
 104:Src/VFO/GUI/Background.cpp **** 				(uint8_t)(rowStart.b + (rowEnd.b - rowStart.b) * col / _w),
 972              		.loc 2 104 26 view .LVU270
 973 010c 4B44     		add	r3, r3, r9
 974              		.loc 2 108 43 view .LVU271
 975 010e C3F38503 		ubfx	r3, r3, #2, #6
 103:Src/VFO/GUI/Background.cpp **** 				(uint8_t)(rowStart.g + (rowEnd.g - rowStart.g) * col / _w),
 976              		.loc 2 103 26 view .LVU272
 977 0112 5144     		add	r1, r1, r10
 978              		.loc 2 108 20 view .LVU273
 979 0114 C1F3C401 		ubfx	r1, r1, #3, #5
 980              		.loc 2 108 49 view .LVU274
 981 0118 5B01     		lsls	r3, r3, #5
 105:Src/VFO/GUI/Background.cpp **** 			};
 982              		.loc 2 105 26 view .LVU275
 983 011a 4244     		add	r2, r2, r8
 984              		.loc 2 108 64 view .LVU276
 985 011c C2F3C402 		ubfx	r2, r2, #3, #5
 986              		.loc 2 108 33 view .LVU277
 987 0120 43EAC123 		orr	r3, r3, r1, lsl #11
 988              		.loc 2 108 55 view .LVU278
 989 0124 1343     		orrs	r3, r3, r2
 990 0126 1EB2     		sxth	r6, r3
 991              	.LVL54:
 109:Src/VFO/GUI/Background.cpp **** 			ST7735_write(color >> 8);
 992              		.loc 2 109 4 is_stmt 1 view .LVU279
 993              		.loc 2 109 16 is_stmt 0 view .LVU280
 994 0128 C6F30720 		ubfx	r0, r6, #8, #8
 995 012c FFF7FEFF 		bl	ST7735_write
 996              	.LVL55:
 110:Src/VFO/GUI/Background.cpp **** 			ST7735_write((uint8_t)color);
 997              		.loc 2 110 4 is_stmt 1 view .LVU281
 998              		.loc 2 110 16 is_stmt 0 view .LVU282
 999 0130 F0B2     		uxtb	r0, r6
ARM GAS  /var/folders/20/cstyxln53wn53rr40gj353bh0000gn/T//ccU9y6Dn.s 			page 25


 1000 0132 FFF7FEFF 		bl	ST7735_write
 1001              	.LVL56:
 1002              		.loc 2 110 16 view .LVU283
 1003 0136 0134     		adds	r4, r4, #1
  99:Src/VFO/GUI/Background.cpp **** 		{
 1004              		.loc 2 99 23 view .LVU284
 1005 0138 287D     		ldrb	r0, [r5, #20]	@ zero_extendqisi2
  99:Src/VFO/GUI/Background.cpp **** 		{
 1006              		.loc 2 99 21 view .LVU285
 1007 013a E2B2     		uxtb	r2, r4
 1008 013c 9042     		cmp	r0, r2
 1009 013e D8D8     		bhi	.L32
 1010 0140 0346     		mov	r3, r0
 1011 0142 95F815C0 		ldrb	ip, [r5, #21]	@ zero_extendqisi2
 1012              	.LVL57:
 1013              	.L31:
  99:Src/VFO/GUI/Background.cpp **** 		{
 1014              		.loc 2 99 21 view .LVU286
 1015 0146 029A     		ldr	r2, [sp, #8]
 1016 0148 0132     		adds	r2, r2, #1
  84:Src/VFO/GUI/Background.cpp **** 	{
 1017              		.loc 2 84 20 discriminator 2 view .LVU287
 1018 014a D7B2     		uxtb	r7, r2
 1019 014c BC45     		cmp	ip, r7
 1020 014e 0292     		str	r2, [sp, #8]
 1021              	.LVL58:
  84:Src/VFO/GUI/Background.cpp **** 	{
 1022              		.loc 2 84 20 discriminator 2 view .LVU288
 1023 0150 3FF67CAF 		bhi	.L34
 1024              	.LVL59:
 1025              	.L33:
 111:Src/VFO/GUI/Background.cpp **** 		}
 112:Src/VFO/GUI/Background.cpp **** 	}
 113:Src/VFO/GUI/Background.cpp **** 
 114:Src/VFO/GUI/Background.cpp **** 	CS_H();
 1026              		.loc 2 114 2 is_stmt 1 view .LVU289
 1027 0154 0122     		movs	r2, #1
 1028 0156 4FF48051 		mov	r1, #4096
 1029 015a 0348     		ldr	r0, .L40
 115:Src/VFO/GUI/Background.cpp **** }
 1030              		.loc 2 115 1 is_stmt 0 view .LVU290
 1031 015c 05B0     		add	sp, sp, #20
 1032              	.LCFI12:
 1033              		.cfi_def_cfa_offset 36
 1034              		@ sp needed
 1035 015e BDE8F04F 		pop	{r4, r5, r6, r7, r8, r9, r10, fp, lr}
 1036              	.LCFI13:
 1037              		.cfi_restore 14
 1038              		.cfi_restore 11
 1039              		.cfi_restore 10
 1040              		.cfi_restore 9
 1041              		.cfi_restore 8
 1042              		.cfi_restore 7
 1043              		.cfi_restore 6
 1044              		.cfi_restore 5
 1045              		.cfi_restore 4
 1046              		.cfi_def_cfa_offset 0
ARM GAS  /var/folders/20/cstyxln53wn53rr40gj353bh0000gn/T//ccU9y6Dn.s 			page 26


 1047              	.LVL60:
 114:Src/VFO/GUI/Background.cpp **** }
 1048              		.loc 2 114 2 view .LVU291
 1049 0162 FFF7FEBF 		b	HAL_GPIO_WritePin
 1050              	.LVL61:
 1051              	.L41:
 1052 0166 00BF     		.align	2
 1053              	.L40:
 1054 0168 00080140 		.word	1073809408
 1055              		.cfi_endproc
 1056              	.LFE100:
 1057              		.fnend
 1059              		.section	.text._ZN3VFO11GradientBox4drawEhhhh,"ax",%progbits
 1060              		.align	1
 1061              		.p2align 2,,3
 1062              		.global	_ZN3VFO11GradientBox4drawEhhhh
 1063              		.syntax unified
 1064              		.thumb
 1065              		.thumb_func
 1066              		.fpu softvfp
 1068              	_ZN3VFO11GradientBox4drawEhhhh:
 1069              		.fnstart
 1070              	.LVL62:
 1071              	.LFB101:
 116:Src/VFO/GUI/Background.cpp **** 
 117:Src/VFO/GUI/Background.cpp **** 
 118:Src/VFO/GUI/Background.cpp **** void GradientBox::draw(uint8_t x, uint8_t y, uint8_t w, uint8_t h)
 119:Src/VFO/GUI/Background.cpp **** {
 1072              		.loc 2 119 1 is_stmt 1 view -0
 1073              		.cfi_startproc
 1074              		@ args = 4, pretend = 0, frame = 0
 1075              		@ frame_needed = 0, uses_anonymous_args = 0
 1076              		@ link register save eliminated.
 120:Src/VFO/GUI/Background.cpp **** 	_x = x; _y = y; _w = w; _h = h;
 1077              		.loc 2 120 2 view .LVU293
 1078              		.loc 2 120 10 view .LVU294
 1079              		.loc 2 120 18 view .LVU295
 1080              		.loc 2 120 26 view .LVU296
 119:Src/VFO/GUI/Background.cpp **** 	_x = x; _y = y; _w = w; _h = h;
 1081              		.loc 2 119 1 is_stmt 0 view .LVU297
 1082 0000 10B4     		push	{r4}
 1083              	.LCFI14:
 1084              		.cfi_def_cfa_offset 4
 1085              		.cfi_offset 4, -4
 1086              		.loc 2 120 5 view .LVU298
 1087 0002 0024     		movs	r4, #0
 1088 0004 61F30704 		bfi	r4, r1, #0, #8
 1089              	.LVL63:
 1090              		.loc 2 120 5 view .LVU299
 1091 0008 62F30F24 		bfi	r4, r2, #8, #8
 119:Src/VFO/GUI/Background.cpp **** 	_x = x; _y = y; _w = w; _h = h;
 1092              		.loc 2 119 1 view .LVU300
 1093 000c 9DF80420 		ldrb	r2, [sp, #4]	@ zero_extendqisi2
 1094              	.LVL64:
 1095              		.loc 2 120 5 view .LVU301
 1096 0010 63F31744 		bfi	r4, r3, #16, #8
 1097 0014 62F31F64 		bfi	r4, r2, #24, #8
ARM GAS  /var/folders/20/cstyxln53wn53rr40gj353bh0000gn/T//ccU9y6Dn.s 			page 27


 1098 0018 C0F81240 		str	r4, [r0, #18]	@ unaligned
 121:Src/VFO/GUI/Background.cpp **** 	draw();
 1099              		.loc 2 121 2 is_stmt 1 view .LVU302
 122:Src/VFO/GUI/Background.cpp **** }
 1100              		.loc 2 122 1 is_stmt 0 view .LVU303
 1101 001c 10BC     		pop	{r4}
 1102              	.LCFI15:
 1103              		.cfi_restore 4
 1104              		.cfi_def_cfa_offset 0
 1105              	.LVL65:
 121:Src/VFO/GUI/Background.cpp **** 	draw();
 1106              		.loc 2 121 6 view .LVU304
 1107 001e FFF7FEBF 		b	_ZN3VFO11GradientBox4drawEv
 1108              	.LVL66:
 121:Src/VFO/GUI/Background.cpp **** 	draw();
 1109              		.loc 2 121 6 view .LVU305
 1110              		.cfi_endproc
 1111              	.LFE101:
 1112              		.cantunwind
 1113              		.fnend
 1115 0022 00BF     		.section	.text._ZN3VFO11GradientBox5clearEhhhh,"ax",%progbits
 1116              		.align	1
 1117              		.p2align 2,,3
 1118              		.global	_ZN3VFO11GradientBox5clearEhhhh
 1119              		.syntax unified
 1120              		.thumb
 1121              		.thumb_func
 1122              		.fpu softvfp
 1124              	_ZN3VFO11GradientBox5clearEhhhh:
 1125              		.fnstart
 1126              	.LVL67:
 1127              	.LFB102:
 123:Src/VFO/GUI/Background.cpp **** 
 124:Src/VFO/GUI/Background.cpp **** 
 125:Src/VFO/GUI/Background.cpp **** void GradientBox::clear(uint8_t x, uint8_t y, uint8_t w, uint8_t h)
 126:Src/VFO/GUI/Background.cpp **** {
 1128              		.loc 2 126 1 is_stmt 1 view -0
 1129              		.cfi_startproc
 1130              		@ args = 4, pretend = 0, frame = 24
 1131              		@ frame_needed = 0, uses_anonymous_args = 0
 127:Src/VFO/GUI/Background.cpp **** 	CS_L();
 1132              		.loc 2 127 2 view .LVU307
 126:Src/VFO/GUI/Background.cpp **** 	CS_L();
 1133              		.loc 2 126 1 is_stmt 0 view .LVU308
 1134 0000 2DE9F04F 		push	{r4, r5, r6, r7, r8, r9, r10, fp, lr}
 1135              		.save {r4, r5, r6, r7, r8, r9, r10, fp, lr}
 1136              	.LCFI16:
 1137              		.cfi_def_cfa_offset 36
 1138              		.cfi_offset 4, -36
 1139              		.cfi_offset 5, -32
 1140              		.cfi_offset 6, -28
 1141              		.cfi_offset 7, -24
 1142              		.cfi_offset 8, -20
 1143              		.cfi_offset 9, -16
 1144              		.cfi_offset 10, -12
 1145              		.cfi_offset 11, -8
 1146              		.cfi_offset 14, -4
ARM GAS  /var/folders/20/cstyxln53wn53rr40gj353bh0000gn/T//ccU9y6Dn.s 			page 28


 1147 0004 1646     		mov	r6, r2
 1148 0006 1C46     		mov	r4, r3
 1149 0008 0F46     		mov	r7, r1
 1150              		.pad #28
 1151 000a 87B0     		sub	sp, sp, #28
 1152              	.LCFI17:
 1153              		.cfi_def_cfa_offset 64
 126:Src/VFO/GUI/Background.cpp **** 	CS_L();
 1154              		.loc 2 126 1 view .LVU309
 1155 000c 9DF84050 		ldrb	r5, [sp, #64]	@ zero_extendqisi2
 1156 0010 0491     		str	r1, [sp, #16]
 1157 0012 0292     		str	r2, [sp, #8]
 1158              		.loc 2 127 2 view .LVU310
 1159 0014 4FF48051 		mov	r1, #4096
 1160              	.LVL68:
 1161              		.loc 2 127 2 view .LVU311
 1162 0018 0022     		movs	r2, #0
 1163              	.LVL69:
 126:Src/VFO/GUI/Background.cpp **** 	CS_L();
 1164              		.loc 2 126 1 view .LVU312
 1165 001a 8046     		mov	r8, r0
 1166              		.loc 2 127 2 view .LVU313
 1167 001c 5A48     		ldr	r0, .L52
 1168              	.LVL70:
 1169              		.loc 2 127 2 view .LVU314
 1170 001e FFF7FEFF 		bl	HAL_GPIO_WritePin
 1171              	.LVL71:
 128:Src/VFO/GUI/Background.cpp **** 	ST7735_AddrSet(x, y, x + w - 1, y + h - 1);
 1172              		.loc 2 128 2 is_stmt 1 view .LVU315
 1173              		.loc 2 128 16 is_stmt 0 view .LVU316
 1174 0022 B8B2     		uxth	r0, r7
 1175 0024 B1B2     		uxth	r1, r6
 1176 0026 6B1E     		subs	r3, r5, #1
 1177 0028 621E     		subs	r2, r4, #1
 1178 002a 0244     		add	r2, r2, r0
 1179 002c 0B44     		add	r3, r3, r1
 1180 002e 92B2     		uxth	r2, r2
 1181 0030 9BB2     		uxth	r3, r3
 1182 0032 FFF7FEFF 		bl	ST7735_AddrSet
 1183              	.LVL72:
 129:Src/VFO/GUI/Background.cpp **** 	A0_H();
 1184              		.loc 2 129 2 is_stmt 1 view .LVU317
 130:Src/VFO/GUI/Background.cpp **** 
 131:Src/VFO/GUI/Background.cpp **** 	uint16_t color;
 132:Src/VFO/GUI/Background.cpp **** 	uint8_t row, col;
 133:Src/VFO/GUI/Background.cpp **** 	RGB rowStart, rowEnd, pix;
 134:Src/VFO/GUI/Background.cpp **** 	for (row = y; row < y + h; row++)
 1185              		.loc 2 134 24 is_stmt 0 view .LVU318
 1186 0036 3544     		add	r5, r5, r6
 129:Src/VFO/GUI/Background.cpp **** 	A0_H();
 1187              		.loc 2 129 2 view .LVU319
 1188 0038 0122     		movs	r2, #1
 1189 003a 4FF40071 		mov	r1, #512
 1190 003e 5248     		ldr	r0, .L52
 1191              		.loc 2 134 24 view .LVU320
 1192 0040 0595     		str	r5, [sp, #20]
 129:Src/VFO/GUI/Background.cpp **** 	A0_H();
ARM GAS  /var/folders/20/cstyxln53wn53rr40gj353bh0000gn/T//ccU9y6Dn.s 			page 29


 1193              		.loc 2 129 2 view .LVU321
 1194 0042 FFF7FEFF 		bl	HAL_GPIO_WritePin
 1195              	.LVL73:
 1196              		.loc 2 134 20 view .LVU322
 1197 0046 AE42     		cmp	r6, r5
 1198 0048 80F29480 		bge	.L48
 135:Src/VFO/GUI/Background.cpp **** 	{
 136:Src/VFO/GUI/Background.cpp **** 		rowStart =
 137:Src/VFO/GUI/Background.cpp **** 		{
 138:Src/VFO/GUI/Background.cpp **** 			(uint8_t)(upLeft.r + (downLeft.r - upLeft.r) * row / _h),
 139:Src/VFO/GUI/Background.cpp **** 			(uint8_t)(upLeft.g + (downLeft.g - upLeft.g) * row / _h),
 140:Src/VFO/GUI/Background.cpp **** 			(uint8_t)(upLeft.b + (downLeft.b - upLeft.b) * row / _h),
 141:Src/VFO/GUI/Background.cpp **** 		};
 142:Src/VFO/GUI/Background.cpp **** 		rowEnd =
 143:Src/VFO/GUI/Background.cpp **** 		{
 144:Src/VFO/GUI/Background.cpp **** 			(uint8_t)(upRight.r + (downRight.r - upRight.r) * row / _h),
 145:Src/VFO/GUI/Background.cpp **** 			(uint8_t)(upRight.g + (downRight.g - upRight.g) * row / _h),
 146:Src/VFO/GUI/Background.cpp **** 			(uint8_t)(upRight.b + (downRight.b - upRight.b) * row / _h),
 147:Src/VFO/GUI/Background.cpp **** 		};
 148:Src/VFO/GUI/Background.cpp **** 
 149:Src/VFO/GUI/Background.cpp **** 		for (col = x; col < x + w; col++)
 1199              		.loc 2 149 25 view .LVU323
 1200 004c 049A     		ldr	r2, [sp, #16]
 1201 004e A318     		adds	r3, r4, r2
 1202 0050 9A42     		cmp	r2, r3
 1203 0052 0193     		str	r3, [sp, #4]
 1204 0054 80F28E80 		bge	.L48
 1205              	.LVL74:
 1206              	.L49:
 136:Src/VFO/GUI/Background.cpp **** 		{
 1207              		.loc 2 136 3 is_stmt 1 view .LVU324
 145:Src/VFO/GUI/Background.cpp **** 			(uint8_t)(upRight.b + (downRight.b - upRight.b) * row / _h),
 1208              		.loc 2 145 22 is_stmt 0 view .LVU325
 1209 0058 98F80A00 		ldrb	r0, [r8, #10]	@ zero_extendqisi2
 145:Src/VFO/GUI/Background.cpp **** 			(uint8_t)(upRight.b + (downRight.b - upRight.b) * row / _h),
 1210              		.loc 2 145 37 view .LVU326
 1211 005c 98F81090 		ldrb	r9, [r8, #16]	@ zero_extendqisi2
 140:Src/VFO/GUI/Background.cpp **** 		};
 1212              		.loc 2 140 21 view .LVU327
 1213 0060 98F80810 		ldrb	r1, [r8, #8]	@ zero_extendqisi2
 145:Src/VFO/GUI/Background.cpp **** 			(uint8_t)(upRight.b + (downRight.b - upRight.b) * row / _h),
 1214              		.loc 2 145 39 view .LVU328
 1215 0064 0390     		str	r0, [sp, #12]
 1216 0066 A9EB0009 		sub	r9, r9, r0
 146:Src/VFO/GUI/Background.cpp **** 		};
 1217              		.loc 2 146 22 view .LVU329
 1218 006a 98F80B70 		ldrb	r7, [r8, #11]	@ zero_extendqisi2
 140:Src/VFO/GUI/Background.cpp **** 		};
 1219              		.loc 2 140 35 view .LVU330
 1220 006e 98F80E40 		ldrb	r4, [r8, #14]	@ zero_extendqisi2
 146:Src/VFO/GUI/Background.cpp **** 		};
 1221              		.loc 2 146 37 view .LVU331
 1222 0072 98F81100 		ldrb	r0, [r8, #17]	@ zero_extendqisi2
 138:Src/VFO/GUI/Background.cpp **** 			(uint8_t)(upLeft.g + (downLeft.g - upLeft.g) * row / _h),
 1223              		.loc 2 138 49 view .LVU332
 1224 0076 029A     		ldr	r2, [sp, #8]
 140:Src/VFO/GUI/Background.cpp **** 		};
ARM GAS  /var/folders/20/cstyxln53wn53rr40gj353bh0000gn/T//ccU9y6Dn.s 			page 30


 1225              		.loc 2 140 37 view .LVU333
 1226 0078 641A     		subs	r4, r4, r1
 146:Src/VFO/GUI/Background.cpp **** 		};
 1227              		.loc 2 146 39 view .LVU334
 1228 007a C01B     		subs	r0, r0, r7
 138:Src/VFO/GUI/Background.cpp **** 			(uint8_t)(upLeft.g + (downLeft.g - upLeft.g) * row / _h),
 1229              		.loc 2 138 21 view .LVU335
 1230 007c 98F806A0 		ldrb	r10, [r8, #6]	@ zero_extendqisi2
 139:Src/VFO/GUI/Background.cpp **** 			(uint8_t)(upLeft.b + (downLeft.b - upLeft.b) * row / _h),
 1231              		.loc 2 139 21 view .LVU336
 1232 0080 98F80730 		ldrb	r3, [r8, #7]	@ zero_extendqisi2
 140:Src/VFO/GUI/Background.cpp **** 		};
 1233              		.loc 2 140 49 view .LVU337
 1234 0084 02FB04F4 		mul	r4, r2, r4
 146:Src/VFO/GUI/Background.cpp **** 		};
 1235              		.loc 2 146 52 view .LVU338
 1236 0088 02FB00F0 		mul	r0, r2, r0
 138:Src/VFO/GUI/Background.cpp **** 			(uint8_t)(upLeft.g + (downLeft.g - upLeft.g) * row / _h),
 1237              		.loc 2 138 35 view .LVU339
 1238 008c 98F80C60 		ldrb	r6, [r8, #12]	@ zero_extendqisi2
 139:Src/VFO/GUI/Background.cpp **** 			(uint8_t)(upLeft.b + (downLeft.b - upLeft.b) * row / _h),
 1239              		.loc 2 139 35 view .LVU340
 1240 0090 98F80D50 		ldrb	r5, [r8, #13]	@ zero_extendqisi2
 139:Src/VFO/GUI/Background.cpp **** 			(uint8_t)(upLeft.b + (downLeft.b - upLeft.b) * row / _h),
 1241              		.loc 2 139 37 view .LVU341
 1242 0094 0093     		str	r3, [sp]
 138:Src/VFO/GUI/Background.cpp **** 			(uint8_t)(upLeft.g + (downLeft.g - upLeft.g) * row / _h),
 1243              		.loc 2 138 37 view .LVU342
 1244 0096 A6EB0A06 		sub	r6, r6, r10
 139:Src/VFO/GUI/Background.cpp **** 			(uint8_t)(upLeft.b + (downLeft.b - upLeft.b) * row / _h),
 1245              		.loc 2 139 37 view .LVU343
 1246 009a ED1A     		subs	r5, r5, r3
 138:Src/VFO/GUI/Background.cpp **** 			(uint8_t)(upLeft.g + (downLeft.g - upLeft.g) * row / _h),
 1247              		.loc 2 138 57 view .LVU344
 1248 009c 98F81530 		ldrb	r3, [r8, #21]	@ zero_extendqisi2
 138:Src/VFO/GUI/Background.cpp **** 			(uint8_t)(upLeft.g + (downLeft.g - upLeft.g) * row / _h),
 1249              		.loc 2 138 49 view .LVU345
 1250 00a0 02FB06F6 		mul	r6, r2, r6
 140:Src/VFO/GUI/Background.cpp **** 		};
 1251              		.loc 2 140 55 view .LVU346
 1252 00a4 94FBF3F4 		sdiv	r4, r4, r3
 146:Src/VFO/GUI/Background.cpp **** 		};
 1253              		.loc 2 146 58 view .LVU347
 1254 00a8 90FBF3F0 		sdiv	r0, r0, r3
 138:Src/VFO/GUI/Background.cpp **** 			(uint8_t)(upLeft.g + (downLeft.g - upLeft.g) * row / _h),
 1255              		.loc 2 138 55 view .LVU348
 1256 00ac 96FBF3F6 		sdiv	r6, r6, r3
 144:Src/VFO/GUI/Background.cpp **** 			(uint8_t)(upRight.g + (downRight.g - upRight.g) * row / _h),
 1257              		.loc 2 144 22 view .LVU349
 1258 00b0 98F809E0 		ldrb	lr, [r8, #9]	@ zero_extendqisi2
 144:Src/VFO/GUI/Background.cpp **** 			(uint8_t)(upRight.g + (downRight.g - upRight.g) * row / _h),
 1259              		.loc 2 144 37 view .LVU350
 1260 00b4 98F80FC0 		ldrb	ip, [r8, #15]	@ zero_extendqisi2
 139:Src/VFO/GUI/Background.cpp **** 			(uint8_t)(upLeft.b + (downLeft.b - upLeft.b) * row / _h),
 1261              		.loc 2 139 49 view .LVU351
 1262 00b8 02FB05F5 		mul	r5, r2, r5
 144:Src/VFO/GUI/Background.cpp **** 			(uint8_t)(upRight.g + (downRight.g - upRight.g) * row / _h),
ARM GAS  /var/folders/20/cstyxln53wn53rr40gj353bh0000gn/T//ccU9y6Dn.s 			page 31


 1263              		.loc 2 144 39 view .LVU352
 1264 00bc ACEB0E0C 		sub	ip, ip, lr
 144:Src/VFO/GUI/Background.cpp **** 			(uint8_t)(upRight.g + (downRight.g - upRight.g) * row / _h),
 1265              		.loc 2 144 52 view .LVU353
 1266 00c0 02FB0CFC 		mul	ip, r2, ip
 145:Src/VFO/GUI/Background.cpp **** 			(uint8_t)(upRight.b + (downRight.b - upRight.b) * row / _h),
 1267              		.loc 2 145 52 view .LVU354
 1268 00c4 02FB09F9 		mul	r9, r2, r9
 139:Src/VFO/GUI/Background.cpp **** 			(uint8_t)(upLeft.b + (downLeft.b - upLeft.b) * row / _h),
 1269              		.loc 2 139 55 view .LVU355
 1270 00c8 95FBF3F5 		sdiv	r5, r5, r3
 144:Src/VFO/GUI/Background.cpp **** 			(uint8_t)(upRight.g + (downRight.g - upRight.g) * row / _h),
 1271              		.loc 2 144 58 view .LVU356
 1272 00cc 9CFBF3FC 		sdiv	ip, ip, r3
 145:Src/VFO/GUI/Background.cpp **** 			(uint8_t)(upRight.b + (downRight.b - upRight.b) * row / _h),
 1273              		.loc 2 145 58 view .LVU357
 1274 00d0 99FBF3F9 		sdiv	r9, r9, r3
 140:Src/VFO/GUI/Background.cpp **** 		};
 1275              		.loc 2 140 23 view .LVU358
 1276 00d4 0C44     		add	r4, r4, r1
 146:Src/VFO/GUI/Background.cpp **** 		};
 1277              		.loc 2 146 24 view .LVU359
 1278 00d6 0744     		add	r7, r7, r0
 1279              		.loc 2 149 12 view .LVU360
 1280 00d8 049B     		ldr	r3, [sp, #16]
 140:Src/VFO/GUI/Background.cpp **** 		};
 1281              		.loc 2 140 23 view .LVU361
 1282 00da E4B2     		uxtb	r4, r4
 1283 00dc FFB2     		uxtb	r7, r7
 1284 00de 3F1B     		subs	r7, r7, r4
 138:Src/VFO/GUI/Background.cpp **** 			(uint8_t)(upLeft.g + (downLeft.g - upLeft.g) * row / _h),
 1285              		.loc 2 138 23 view .LVU362
 1286 00e0 5644     		add	r6, r6, r10
 1287 00e2 1946     		mov	r1, r3
 1288 00e4 9A46     		mov	r10, r3
 1289 00e6 BB46     		mov	fp, r7
 139:Src/VFO/GUI/Background.cpp **** 			(uint8_t)(upLeft.b + (downLeft.b - upLeft.b) * row / _h),
 1290              		.loc 2 139 23 view .LVU363
 1291 00e8 009A     		ldr	r2, [sp]
 144:Src/VFO/GUI/Background.cpp **** 			(uint8_t)(upRight.g + (downRight.g - upRight.g) * row / _h),
 1292              		.loc 2 144 24 view .LVU364
 1293 00ea F444     		add	ip, ip, lr
 139:Src/VFO/GUI/Background.cpp **** 			(uint8_t)(upLeft.b + (downLeft.b - upLeft.b) * row / _h),
 1294              		.loc 2 139 23 view .LVU365
 1295 00ec 1544     		add	r5, r5, r2
 145:Src/VFO/GUI/Background.cpp **** 			(uint8_t)(upRight.b + (downRight.b - upRight.b) * row / _h),
 1296              		.loc 2 145 24 view .LVU366
 1297 00ee 039A     		ldr	r2, [sp, #12]
 138:Src/VFO/GUI/Background.cpp **** 			(uint8_t)(upLeft.g + (downLeft.g - upLeft.g) * row / _h),
 1298              		.loc 2 138 23 view .LVU367
 1299 00f0 F6B2     		uxtb	r6, r6
 1300              	.LVL75:
 145:Src/VFO/GUI/Background.cpp **** 			(uint8_t)(upRight.b + (downRight.b - upRight.b) * row / _h),
 1301              		.loc 2 145 24 view .LVU368
 1302 00f2 9144     		add	r9, r9, r2
 1303 00f4 5FFA8CFC 		uxtb	ip, ip
 139:Src/VFO/GUI/Background.cpp **** 			(uint8_t)(upLeft.b + (downLeft.b - upLeft.b) * row / _h),
ARM GAS  /var/folders/20/cstyxln53wn53rr40gj353bh0000gn/T//ccU9y6Dn.s 			page 32


 1304              		.loc 2 139 23 view .LVU369
 1305 00f8 EDB2     		uxtb	r5, r5
 1306              	.LVL76:
 142:Src/VFO/GUI/Background.cpp **** 		{
 1307              		.loc 2 142 3 is_stmt 1 view .LVU370
 1308              		.loc 2 149 3 view .LVU371
 1309 00fa 5FFA89F9 		uxtb	r9, r9
 1310 00fe ACEB0602 		sub	r2, ip, r6
 1311              	.LVL77:
 1312              		.loc 2 149 3 is_stmt 0 view .LVU372
 1313 0102 0092     		str	r2, [sp]
 1314 0104 A9EB0509 		sub	r9, r9, r5
 1315              	.LVL78:
 1316              	.L47:
 150:Src/VFO/GUI/Background.cpp **** 		{
 151:Src/VFO/GUI/Background.cpp **** 			pix =
 1317              		.loc 2 151 4 is_stmt 1 view .LVU373
 152:Src/VFO/GUI/Background.cpp **** 			{
 153:Src/VFO/GUI/Background.cpp **** 				(uint8_t)(rowStart.r + (rowEnd.r - rowStart.r) * col / _w),
 1318              		.loc 2 153 52 is_stmt 0 view .LVU374
 1319 0108 009A     		ldr	r2, [sp]
 154:Src/VFO/GUI/Background.cpp **** 				(uint8_t)(rowStart.g + (rowEnd.g - rowStart.g) * col / _w),
 1320              		.loc 2 154 52 view .LVU375
 1321 010a 09FB01F3 		mul	r3, r9, r1
 153:Src/VFO/GUI/Background.cpp **** 				(uint8_t)(rowStart.g + (rowEnd.g - rowStart.g) * col / _w),
 1322              		.loc 2 153 52 view .LVU376
 1323 010e 02FB01F0 		mul	r0, r2, r1
 153:Src/VFO/GUI/Background.cpp **** 				(uint8_t)(rowStart.g + (rowEnd.g - rowStart.g) * col / _w),
 1324              		.loc 2 153 60 view .LVU377
 1325 0112 98F814C0 		ldrb	ip, [r8, #20]	@ zero_extendqisi2
 1326              	.LVL79:
 155:Src/VFO/GUI/Background.cpp **** 				(uint8_t)(rowStart.b + (rowEnd.b - rowStart.b) * col / _w),
 156:Src/VFO/GUI/Background.cpp **** 			};
 157:Src/VFO/GUI/Background.cpp **** 
 158:Src/VFO/GUI/Background.cpp **** 			color = ((pix.r >> 3) << 11) | ((pix.g >> 2) << 5) | (pix.b >> 3);
 1327              		.loc 2 158 4 is_stmt 1 view .LVU378
 155:Src/VFO/GUI/Background.cpp **** 				(uint8_t)(rowStart.b + (rowEnd.b - rowStart.b) * col / _w),
 1328              		.loc 2 155 52 is_stmt 0 view .LVU379
 1329 0116 0BFB01F1 		mul	r1, fp, r1
 1330              	.LVL80:
 154:Src/VFO/GUI/Background.cpp **** 				(uint8_t)(rowStart.b + (rowEnd.b - rowStart.b) * col / _w),
 1331              		.loc 2 154 58 view .LVU380
 1332 011a 93FBFCF3 		sdiv	r3, r3, ip
 153:Src/VFO/GUI/Background.cpp **** 				(uint8_t)(rowStart.g + (rowEnd.g - rowStart.g) * col / _w),
 1333              		.loc 2 153 58 view .LVU381
 1334 011e 90FBFCF0 		sdiv	r0, r0, ip
 155:Src/VFO/GUI/Background.cpp **** 				(uint8_t)(rowStart.b + (rowEnd.b - rowStart.b) * col / _w),
 1335              		.loc 2 155 58 view .LVU382
 1336 0122 91FBFCF1 		sdiv	r1, r1, ip
 154:Src/VFO/GUI/Background.cpp **** 				(uint8_t)(rowStart.b + (rowEnd.b - rowStart.b) * col / _w),
 1337              		.loc 2 154 26 view .LVU383
 1338 0126 2B44     		add	r3, r3, r5
 1339              		.loc 2 158 43 view .LVU384
 1340 0128 C3F38503 		ubfx	r3, r3, #2, #6
 153:Src/VFO/GUI/Background.cpp **** 				(uint8_t)(rowStart.g + (rowEnd.g - rowStart.g) * col / _w),
 1341              		.loc 2 153 26 view .LVU385
 1342 012c 3044     		add	r0, r0, r6
ARM GAS  /var/folders/20/cstyxln53wn53rr40gj353bh0000gn/T//ccU9y6Dn.s 			page 33


 1343              		.loc 2 158 20 view .LVU386
 1344 012e C0F3C400 		ubfx	r0, r0, #3, #5
 1345              		.loc 2 158 49 view .LVU387
 1346 0132 5B01     		lsls	r3, r3, #5
 155:Src/VFO/GUI/Background.cpp **** 				(uint8_t)(rowStart.b + (rowEnd.b - rowStart.b) * col / _w),
 1347              		.loc 2 155 26 view .LVU388
 1348 0134 2144     		add	r1, r1, r4
 1349              		.loc 2 158 64 view .LVU389
 1350 0136 C1F3C401 		ubfx	r1, r1, #3, #5
 1351              		.loc 2 158 33 view .LVU390
 1352 013a 43EAC023 		orr	r3, r3, r0, lsl #11
 1353              		.loc 2 158 55 view .LVU391
 1354 013e 0B43     		orrs	r3, r3, r1
 1355 0140 1FB2     		sxth	r7, r3
 1356              	.LVL81:
 159:Src/VFO/GUI/Background.cpp **** 			ST7735_write(color >> 8);
 1357              		.loc 2 159 4 is_stmt 1 view .LVU392
 1358              		.loc 2 159 16 is_stmt 0 view .LVU393
 1359 0142 C7F30720 		ubfx	r0, r7, #8, #8
 1360 0146 FFF7FEFF 		bl	ST7735_write
 1361              	.LVL82:
 160:Src/VFO/GUI/Background.cpp **** 			ST7735_write((uint8_t)color);
 1362              		.loc 2 160 4 is_stmt 1 view .LVU394
 1363              		.loc 2 160 16 is_stmt 0 view .LVU395
 1364 014a F8B2     		uxtb	r0, r7
 1365 014c FFF7FEFF 		bl	ST7735_write
 1366              	.LVL83:
 149:Src/VFO/GUI/Background.cpp **** 		{
 1367              		.loc 2 149 3 view .LVU396
 1368 0150 0AF10102 		add	r2, r10, #1
 149:Src/VFO/GUI/Background.cpp **** 		{
 1369              		.loc 2 149 21 view .LVU397
 1370 0154 019B     		ldr	r3, [sp, #4]
 149:Src/VFO/GUI/Background.cpp **** 		{
 1371              		.loc 2 149 3 view .LVU398
 1372 0156 5FFA82FA 		uxtb	r10, r2
 1373              	.LVL84:
 149:Src/VFO/GUI/Background.cpp **** 		{
 1374              		.loc 2 149 21 view .LVU399
 1375 015a 9A45     		cmp	r10, r3
 1376 015c 5146     		mov	r1, r10
 1377 015e D3DB     		blt	.L47
 134:Src/VFO/GUI/Background.cpp **** 	{
 1378              		.loc 2 134 2 view .LVU400
 1379 0160 029B     		ldr	r3, [sp, #8]
 134:Src/VFO/GUI/Background.cpp **** 	{
 1380              		.loc 2 134 20 view .LVU401
 1381 0162 059A     		ldr	r2, [sp, #20]
 134:Src/VFO/GUI/Background.cpp **** 	{
 1382              		.loc 2 134 2 view .LVU402
 1383 0164 03F1010B 		add	fp, r3, #1
 1384 0168 5FFA8BF3 		uxtb	r3, fp
 134:Src/VFO/GUI/Background.cpp **** 	{
 1385              		.loc 2 134 20 view .LVU403
 1386 016c 9342     		cmp	r3, r2
 134:Src/VFO/GUI/Background.cpp **** 	{
 1387              		.loc 2 134 2 view .LVU404
ARM GAS  /var/folders/20/cstyxln53wn53rr40gj353bh0000gn/T//ccU9y6Dn.s 			page 34


 1388 016e 0293     		str	r3, [sp, #8]
 1389              	.LVL85:
 134:Src/VFO/GUI/Background.cpp **** 	{
 1390              		.loc 2 134 20 view .LVU405
 1391 0170 FFF672AF 		blt	.L49
 1392              	.LVL86:
 1393              	.L48:
 161:Src/VFO/GUI/Background.cpp **** 		}
 162:Src/VFO/GUI/Background.cpp **** 	}
 163:Src/VFO/GUI/Background.cpp **** 
 164:Src/VFO/GUI/Background.cpp **** 	CS_H();
 1394              		.loc 2 164 2 is_stmt 1 view .LVU406
 1395 0174 0122     		movs	r2, #1
 1396 0176 4FF48051 		mov	r1, #4096
 1397 017a 0348     		ldr	r0, .L52
 165:Src/VFO/GUI/Background.cpp **** }
 1398              		.loc 2 165 1 is_stmt 0 view .LVU407
 1399 017c 07B0     		add	sp, sp, #28
 1400              	.LCFI18:
 1401              		.cfi_def_cfa_offset 36
 1402              		@ sp needed
 1403 017e BDE8F04F 		pop	{r4, r5, r6, r7, r8, r9, r10, fp, lr}
 1404              	.LCFI19:
 1405              		.cfi_restore 14
 1406              		.cfi_restore 11
 1407              		.cfi_restore 10
 1408              		.cfi_restore 9
 1409              		.cfi_restore 8
 1410              		.cfi_restore 7
 1411              		.cfi_restore 6
 1412              		.cfi_restore 5
 1413              		.cfi_restore 4
 1414              		.cfi_def_cfa_offset 0
 1415              	.LVL87:
 164:Src/VFO/GUI/Background.cpp **** }
 1416              		.loc 2 164 2 view .LVU408
 1417 0182 FFF7FEBF 		b	HAL_GPIO_WritePin
 1418              	.LVL88:
 1419              	.L53:
 1420 0186 00BF     		.align	2
 1421              	.L52:
 1422 0188 00080140 		.word	1073809408
 1423              		.cfi_endproc
 1424              	.LFE102:
 1425              		.fnend
 1427              		.section	.text._ZN3VFO15backgroundColorEPvhh,"ax",%progbits
 1428              		.align	1
 1429              		.p2align 2,,3
 1430              		.global	_ZN3VFO15backgroundColorEPvhh
 1431              		.syntax unified
 1432              		.thumb
 1433              		.thumb_func
 1434              		.fpu softvfp
 1436              	_ZN3VFO15backgroundColorEPvhh:
 1437              		.fnstart
 1438              	.LVL89:
 1439              	.LFB103:
ARM GAS  /var/folders/20/cstyxln53wn53rr40gj353bh0000gn/T//ccU9y6Dn.s 			page 35


 166:Src/VFO/GUI/Background.cpp **** 
 167:Src/VFO/GUI/Background.cpp **** 
 168:Src/VFO/GUI/Background.cpp **** uint16_t backgroundColor(void *ptr, uint8_t x, uint8_t y)
 169:Src/VFO/GUI/Background.cpp **** {
 1440              		.loc 2 169 1 is_stmt 1 view -0
 1441              		.cfi_startproc
 1442              		@ args = 0, pretend = 0, frame = 0
 1443              		@ frame_needed = 0, uses_anonymous_args = 0
 1444              		@ link register save eliminated.
 170:Src/VFO/GUI/Background.cpp **** 	return ((Background *) ptr)->getBackColor(x, y);
 1445              		.loc 2 170 2 view .LVU410
 1446              		.loc 2 170 48 is_stmt 0 view .LVU411
 1447 0000 0368     		ldr	r3, [r0]
 1448              		.loc 2 170 43 view .LVU412
 1449 0002 9B68     		ldr	r3, [r3, #8]
 1450 0004 1847     		bx	r3
 1451              	.LVL90:
 1452              		.loc 2 170 43 view .LVU413
 1453              		.cfi_endproc
 1454              	.LFE103:
 1455              		.cantunwind
 1456              		.fnend
 1458              		.weak	_ZTSN3VFO10BackgroundE
 1459 0006 00BF     		.section	.rodata._ZTSN3VFO10BackgroundE,"aG",%progbits,_ZTSN3VFO10BackgroundE,comdat
 1460              		.align	2
 1463              	_ZTSN3VFO10BackgroundE:
 1464 0000 4E335646 		.ascii	"N3VFO10BackgroundE\000"
 1464      4F313042 
 1464      61636B67 
 1464      726F756E 
 1464      644500
 1465              		.weak	_ZTIN3VFO10BackgroundE
 1466              		.section	.rodata._ZTIN3VFO10BackgroundE,"aG",%progbits,_ZTIN3VFO10BackgroundE,comdat
 1467              		.align	2
 1470              	_ZTIN3VFO10BackgroundE:
 1471 0000 08000000 		.word	_ZTVN10__cxxabiv117__class_type_infoE+8
 1472 0004 00000000 		.word	_ZTSN3VFO10BackgroundE
 1473              		.global	_ZTSN3VFO9BitmapBoxE
 1474              		.global	_ZTIN3VFO9BitmapBoxE
 1475              		.global	_ZTSN3VFO11GradientBoxE
 1476              		.global	_ZTIN3VFO11GradientBoxE
 1477              		.global	_ZTVN3VFO9BitmapBoxE
 1478              		.global	_ZTVN3VFO11GradientBoxE
 1479              		.section	.rodata
 1480              		.align	2
 1481              		.set	.LANCHOR2,. + 0
 1482              	.LC0:
 1483 0000 00       		.byte	0
 1484 0001 28       		.byte	40
 1485 0002 50       		.byte	80
 1486 0003 00       		.space	1
 1487              	.LC1:
 1488 0004 8C       		.byte	-116
 1489 0005 0A       		.byte	10
 1490 0006 0A       		.byte	10
 1491 0007 00       		.space	1
 1492              	.LC2:
ARM GAS  /var/folders/20/cstyxln53wn53rr40gj353bh0000gn/T//ccU9y6Dn.s 			page 36


 1493 0008 8C       		.byte	-116
 1494 0009 80       		.byte	-128
 1495 000a 00       		.byte	0
 1496 000b 00       		.space	1
 1497              	.LC3:
 1498 000c 00       		.byte	0
 1499 000d 80       		.byte	-128
 1500 000e 8C       		.byte	-116
 1501              		.section	.rodata._ZTIN3VFO11GradientBoxE,"a"
 1502              		.align	2
 1505              	_ZTIN3VFO11GradientBoxE:
 1506 0000 08000000 		.word	_ZTVN10__cxxabiv120__si_class_type_infoE+8
 1507 0004 00000000 		.word	_ZTSN3VFO11GradientBoxE
 1508 0008 00000000 		.word	_ZTIN3VFO10BackgroundE
 1509              		.section	.rodata._ZTIN3VFO9BitmapBoxE,"a"
 1510              		.align	2
 1513              	_ZTIN3VFO9BitmapBoxE:
 1514 0000 08000000 		.word	_ZTVN10__cxxabiv120__si_class_type_infoE+8
 1515 0004 00000000 		.word	_ZTSN3VFO9BitmapBoxE
 1516 0008 00000000 		.word	_ZTIN3VFO10BackgroundE
 1517              		.section	.rodata._ZTSN3VFO11GradientBoxE,"a"
 1518              		.align	2
 1521              	_ZTSN3VFO11GradientBoxE:
 1522 0000 4E335646 		.ascii	"N3VFO11GradientBoxE\000"
 1522      4F313147 
 1522      72616469 
 1522      656E7442 
 1522      6F784500 
 1523              		.section	.rodata._ZTSN3VFO9BitmapBoxE,"a"
 1524              		.align	2
 1527              	_ZTSN3VFO9BitmapBoxE:
 1528 0000 4E335646 		.ascii	"N3VFO9BitmapBoxE\000"
 1528      4F394269 
 1528      746D6170 
 1528      426F7845 
 1528      00
 1529              		.section	.rodata._ZTVN3VFO11GradientBoxE,"a"
 1530              		.align	2
 1531              		.set	.LANCHOR1,. + 0
 1534              	_ZTVN3VFO11GradientBoxE:
 1535 0000 00000000 		.word	0
 1536 0004 00000000 		.word	_ZTIN3VFO11GradientBoxE
 1537 0008 00000000 		.word	_ZN3VFO11GradientBoxD1Ev
 1538 000c 00000000 		.word	_ZN3VFO11GradientBoxD0Ev
 1539 0010 00000000 		.word	_ZN3VFO11GradientBox12getBackColorEhh
 1540              		.section	.rodata._ZTVN3VFO9BitmapBoxE,"a"
 1541              		.align	2
 1542              		.set	.LANCHOR0,. + 0
 1545              	_ZTVN3VFO9BitmapBoxE:
 1546 0000 00000000 		.word	0
 1547 0004 00000000 		.word	_ZTIN3VFO9BitmapBoxE
 1548 0008 00000000 		.word	_ZN3VFO9BitmapBoxD1Ev
 1549 000c 00000000 		.word	_ZN3VFO9BitmapBoxD0Ev
 1550 0010 00000000 		.word	_ZN3VFO9BitmapBox12getBackColorEhh
 1551              		.text
 1552              	.Letext0:
 1553              		.file 3 "/usr/local/gcc-arm-none-eabi-8-2019-q3-update/arm-none-eabi/include/machine/_default_type
ARM GAS  /var/folders/20/cstyxln53wn53rr40gj353bh0000gn/T//ccU9y6Dn.s 			page 37


 1554              		.file 4 "/usr/local/gcc-arm-none-eabi-8-2019-q3-update/arm-none-eabi/include/sys/_stdint.h"
 1555              		.file 5 "Drivers/CMSIS/Include/core_cm3.h"
 1556              		.file 6 "Drivers/CMSIS/Device/ST/STM32F1xx/Include/system_stm32f1xx.h"
 1557              		.file 7 "Drivers/CMSIS/Device/ST/STM32F1xx/Include/stm32f103xb.h"
 1558              		.file 8 "Drivers/CMSIS/Device/ST/STM32F1xx/Include/stm32f1xx.h"
 1559              		.file 9 "/usr/local/gcc-arm-none-eabi-8-2019-q3-update/lib/gcc/arm-none-eabi/8.3.1/include/stddef.
 1560              		.file 10 "Drivers/STM32F1xx_HAL_Driver/Inc/stm32f1xx_hal_gpio.h"
 1561              		.file 11 "Drivers/STM32F1xx_HAL_Driver/Inc/stm32f1xx_hal.h"
 1562              		.file 12 "/usr/local/gcc-arm-none-eabi-8-2019-q3-update/arm-none-eabi/include/c++/8.3.1/cstdlib"
 1563              		.file 13 "/usr/local/gcc-arm-none-eabi-8-2019-q3-update/arm-none-eabi/include/c++/8.3.1/bits/std_a
 1564              		.file 14 "/usr/local/gcc-arm-none-eabi-8-2019-q3-update/arm-none-eabi/include/c++/8.3.1/arm-none-e
 1565              		.file 15 "/usr/local/gcc-arm-none-eabi-8-2019-q3-update/arm-none-eabi/include/sys/_types.h"
 1566              		.file 16 "/usr/local/gcc-arm-none-eabi-8-2019-q3-update/arm-none-eabi/include/sys/reent.h"
 1567              		.file 17 "/usr/local/gcc-arm-none-eabi-8-2019-q3-update/arm-none-eabi/include/sys/lock.h"
 1568              		.file 18 "/usr/local/gcc-arm-none-eabi-8-2019-q3-update/arm-none-eabi/include/stdlib.h"
 1569              		.file 19 "/usr/local/gcc-arm-none-eabi-8-2019-q3-update/arm-none-eabi/include/c++/8.3.1/stdlib.h"
 1570              		.file 20 "Src/VFO/GUI/Bitmap.h"
 1571              		.file 21 "Inc/ST7735/font5x7.h"
 1572              		.file 22 "Inc/ST7735/font7x11.h"
 1573              		.file 23 "Inc/ST7735/st7735.h"
 1574              		.file 24 "<built-in>"
ARM GAS  /var/folders/20/cstyxln53wn53rr40gj353bh0000gn/T//ccU9y6Dn.s 			page 38

