ARM GAS  /var/folders/20/cstyxln53wn53rr40gj353bh0000gn/T//ccx5tB5i.s 			page 1


   1              		.cpu cortex-m3
   2              		.eabi_attribute 20, 1
   3              		.eabi_attribute 21, 1
   4              		.eabi_attribute 23, 3
   5              		.eabi_attribute 24, 1
   6              		.eabi_attribute 25, 1
   7              		.eabi_attribute 26, 1
   8              		.eabi_attribute 30, 2
   9              		.eabi_attribute 34, 1
  10              		.eabi_attribute 18, 4
  11              		.file	"Configuration.cpp"
  12              		.text
  13              	.Ltext0:
  14              		.cfi_sections	.debug_frame
  15              		.section	.text._ZN3VFO8Eeprom24D2Ev,"axG",%progbits,_ZN3VFO8Eeprom24D5Ev,comdat
  16              		.align	1
  17              		.p2align 2,,3
  18              		.weak	_ZN3VFO8Eeprom24D2Ev
  19              		.arch armv7-m
  20              		.syntax unified
  21              		.thumb
  22              		.thumb_func
  23              		.fpu softvfp
  25              	_ZN3VFO8Eeprom24D2Ev:
  26              		.fnstart
  27              	.LVL0:
  28              	.LFB72:
  29              		.file 1 "Inc/eeprom/eeprom24xx.h"
   1:Inc/eeprom/eeprom24xx.h **** #ifndef	_EEPROM_24XX_H
   2:Inc/eeprom/eeprom24xx.h **** #define	_EEPROM_24XX_H
   3:Inc/eeprom/eeprom24xx.h **** 
   4:Inc/eeprom/eeprom24xx.h **** #include "stm32f1xx_hal.h"
   5:Inc/eeprom/eeprom24xx.h **** 
   6:Inc/eeprom/eeprom24xx.h **** // 	eeprom 24cxxx library				version 1V00
   7:Inc/eeprom/eeprom24xx.h **** //	Writen by "Nima Askari"			www.github.com/NimaLTD
   8:Inc/eeprom/eeprom24xx.h **** 
   9:Inc/eeprom/eeprom24xx.h **** #include <stdbool.h>
  10:Inc/eeprom/eeprom24xx.h **** 
  11:Inc/eeprom/eeprom24xx.h **** #ifdef __cplusplus
  12:Inc/eeprom/eeprom24xx.h ****  extern "C" {
  13:Inc/eeprom/eeprom24xx.h **** #endif
  14:Inc/eeprom/eeprom24xx.h **** 
  15:Inc/eeprom/eeprom24xx.h **** bool EEPROM24XX_IsConnected(void);
  16:Inc/eeprom/eeprom24xx.h **** bool EEPROM24XX_Save(uint16_t Address, uint8_t *data, size_t size_of_data);
  17:Inc/eeprom/eeprom24xx.h **** bool EEPROM24XX_Load(uint16_t Address, uint8_t *data, size_t size_of_data);
  18:Inc/eeprom/eeprom24xx.h **** 
  19:Inc/eeprom/eeprom24xx.h **** #ifdef __cplusplus
  20:Inc/eeprom/eeprom24xx.h ****  }
  21:Inc/eeprom/eeprom24xx.h **** 
  22:Inc/eeprom/eeprom24xx.h ****  namespace VFO
  23:Inc/eeprom/eeprom24xx.h ****  {
  24:Inc/eeprom/eeprom24xx.h **** 
  25:Inc/eeprom/eeprom24xx.h ****  class Eeprom24
  26:Inc/eeprom/eeprom24xx.h ****  {
  27:Inc/eeprom/eeprom24xx.h ****  	uint8_t _addr;
  28:Inc/eeprom/eeprom24xx.h **** 
  29:Inc/eeprom/eeprom24xx.h ****  public:
ARM GAS  /var/folders/20/cstyxln53wn53rr40gj353bh0000gn/T//ccx5tB5i.s 			page 2


  30:Inc/eeprom/eeprom24xx.h ****  	Eeprom24() : Eeprom24( 0 ) {}
  31:Inc/eeprom/eeprom24xx.h ****  	Eeprom24( uint16_t addr ) { _addr = addr; }
  32:Inc/eeprom/eeprom24xx.h ****  	virtual ~Eeprom24() {}
  30              		.loc 1 32 11 view -0
  31              		.cfi_startproc
  32              		@ args = 0, pretend = 0, frame = 0
  33              		@ frame_needed = 0, uses_anonymous_args = 0
  34              		@ link register save eliminated.
  35              		.loc 1 32 24 is_stmt 0 view .LVU1
  36 0000 7047     		bx	lr
  37              		.cfi_endproc
  38              	.LFE72:
  39              		.cantunwind
  40              		.fnend
  42              		.weak	_ZN3VFO8Eeprom24D1Ev
  43              		.thumb_set _ZN3VFO8Eeprom24D1Ev,_ZN3VFO8Eeprom24D2Ev
  44 0002 00BF     		.section	.text._ZN3VFO13ConfigurationD2Ev,"ax",%progbits
  45              		.align	1
  46              		.p2align 2,,3
  47              		.global	_ZN3VFO13ConfigurationD2Ev
  48              		.syntax unified
  49              		.thumb
  50              		.thumb_func
  51              		.fpu softvfp
  53              	_ZN3VFO13ConfigurationD2Ev:
  54              		.fnstart
  55              	.LVL1:
  56              	.LFB94:
  57              		.file 2 "Src/VFO/Configuration.cpp"
   1:Src/VFO/Configuration.cpp **** /*
   2:Src/VFO/Configuration.cpp ****  * Configuration.cpp
   3:Src/VFO/Configuration.cpp ****  *
   4:Src/VFO/Configuration.cpp ****  *  Created on: Apr 4, 2018
   5:Src/VFO/Configuration.cpp ****  *      Author: lymes
   6:Src/VFO/Configuration.cpp ****  */
   7:Src/VFO/Configuration.cpp **** 
   8:Src/VFO/Configuration.cpp **** #include "Configuration.h"
   9:Src/VFO/Configuration.cpp **** 
  10:Src/VFO/Configuration.cpp **** namespace VFO
  11:Src/VFO/Configuration.cpp **** {
  12:Src/VFO/Configuration.cpp **** 
  13:Src/VFO/Configuration.cpp **** Configuration::Configuration()
  14:Src/VFO/Configuration.cpp **** {
  15:Src/VFO/Configuration.cpp **** 	// TODO Auto-generated constructor stub
  16:Src/VFO/Configuration.cpp **** 	_data.frequency   = 7100000;
  17:Src/VFO/Configuration.cpp **** 	_data.iFrequency  = 4000000;
  18:Src/VFO/Configuration.cpp **** 	_data.bFrequency  = 4000000;
  19:Src/VFO/Configuration.cpp **** 	_data.calibration = 22334;
  20:Src/VFO/Configuration.cpp **** 	_data.brightness  = 255;
  21:Src/VFO/Configuration.cpp **** }
  22:Src/VFO/Configuration.cpp **** 
  23:Src/VFO/Configuration.cpp **** Configuration::~Configuration()
  58              		.loc 2 23 1 is_stmt 1 view -0
  59              		.cfi_startproc
  60              		@ args = 0, pretend = 0, frame = 0
  61              		@ frame_needed = 0, uses_anonymous_args = 0
  62              		@ link register save eliminated.
ARM GAS  /var/folders/20/cstyxln53wn53rr40gj353bh0000gn/T//ccx5tB5i.s 			page 3


  63              	.LBB31:
  64              	.LBI31:
  65              		.loc 1 32 11 view .LVU3
  66              		.loc 1 32 11 is_stmt 0 view .LVU4
  67              	.LBE31:
  24:Src/VFO/Configuration.cpp **** {
  25:Src/VFO/Configuration.cpp **** }
  68              		.loc 2 25 1 view .LVU5
  69 0000 7047     		bx	lr
  70              		.cfi_endproc
  71              	.LFE94:
  72              		.cantunwind
  73              		.fnend
  75              		.global	_ZN3VFO13ConfigurationD1Ev
  76              		.thumb_set _ZN3VFO13ConfigurationD1Ev,_ZN3VFO13ConfigurationD2Ev
  77 0002 00BF     		.section	.text._ZN3VFO8Eeprom24D0Ev,"axG",%progbits,_ZN3VFO8Eeprom24D5Ev,comdat
  78              		.align	1
  79              		.p2align 2,,3
  80              		.weak	_ZN3VFO8Eeprom24D0Ev
  81              		.syntax unified
  82              		.thumb
  83              		.thumb_func
  84              		.fpu softvfp
  86              	_ZN3VFO8Eeprom24D0Ev:
  87              		.fnstart
  88              	.LVL2:
  89              	.LFB74:
  90              		.loc 1 32 11 is_stmt 1 view -0
  91              		.cfi_startproc
  92              		@ args = 0, pretend = 0, frame = 0
  93              		@ frame_needed = 0, uses_anonymous_args = 0
  94              		.loc 1 32 11 is_stmt 0 view .LVU7
  95 0000 10B5     		push	{r4, lr}
  96              	.LCFI0:
  97              		.cfi_def_cfa_offset 8
  98              		.cfi_offset 4, -8
  99              		.cfi_offset 14, -4
 100              		.loc 1 32 11 view .LVU8
 101 0002 0446     		mov	r4, r0
 102              	.LVL3:
 103              	.LBB32:
 104              	.LBI32:
 105              		.loc 1 32 11 is_stmt 1 view .LVU9
 106              		.loc 1 32 11 is_stmt 0 view .LVU10
 107              	.LBE32:
 108              		.loc 1 32 24 view .LVU11
 109 0004 0821     		movs	r1, #8
 110 0006 FFF7FEFF 		bl	_ZdlPvj
 111              	.LVL4:
 112              		.loc 1 32 24 view .LVU12
 113 000a 2046     		mov	r0, r4
 114 000c 10BD     		pop	{r4, pc}
 115              		.loc 1 32 24 view .LVU13
 116              		.cfi_endproc
 117              	.LFE74:
 118              		.cantunwind
 119              		.fnend
ARM GAS  /var/folders/20/cstyxln53wn53rr40gj353bh0000gn/T//ccx5tB5i.s 			page 4


 121 000e 00BF     		.section	.text._ZN3VFO13ConfigurationD0Ev,"ax",%progbits
 122              		.align	1
 123              		.p2align 2,,3
 124              		.global	_ZN3VFO13ConfigurationD0Ev
 125              		.syntax unified
 126              		.thumb
 127              		.thumb_func
 128              		.fpu softvfp
 130              	_ZN3VFO13ConfigurationD0Ev:
 131              		.fnstart
 132              	.LVL5:
 133              	.LFB96:
  23:Src/VFO/Configuration.cpp **** {
 134              		.loc 2 23 1 is_stmt 1 view -0
 135              		.cfi_startproc
 136              		@ args = 0, pretend = 0, frame = 0
 137              		@ frame_needed = 0, uses_anonymous_args = 0
  23:Src/VFO/Configuration.cpp **** {
 138              		.loc 2 23 1 is_stmt 0 view .LVU15
 139 0000 10B5     		push	{r4, lr}
 140              	.LCFI1:
 141              		.cfi_def_cfa_offset 8
 142              		.cfi_offset 4, -8
 143              		.cfi_offset 14, -4
  23:Src/VFO/Configuration.cpp **** {
 144              		.loc 2 23 1 view .LVU16
 145 0002 0446     		mov	r4, r0
 146              	.LVL6:
 147              	.LBB33:
 148              	.LBI33:
  23:Src/VFO/Configuration.cpp **** {
 149              		.loc 2 23 1 is_stmt 1 view .LVU17
 150              	.LBB34:
 151              	.LBI34:
 152              		.loc 1 32 11 view .LVU18
 153              		.loc 1 32 11 is_stmt 0 view .LVU19
 154              	.LBE34:
 155              	.LBE33:
 156              		.loc 2 25 1 view .LVU20
 157 0004 2421     		movs	r1, #36
 158 0006 FFF7FEFF 		bl	_ZdlPvj
 159              	.LVL7:
 160              		.loc 2 25 1 view .LVU21
 161 000a 2046     		mov	r0, r4
 162 000c 10BD     		pop	{r4, pc}
 163              		.loc 2 25 1 view .LVU22
 164              		.cfi_endproc
 165              	.LFE96:
 166              		.cantunwind
 167              		.fnend
 169 000e 00BF     		.section	.text._ZN3VFO13ConfigurationC2Ev,"ax",%progbits
 170              		.align	1
 171              		.p2align 2,,3
 172              		.global	_ZN3VFO13ConfigurationC2Ev
 173              		.syntax unified
 174              		.thumb
 175              		.thumb_func
ARM GAS  /var/folders/20/cstyxln53wn53rr40gj353bh0000gn/T//ccx5tB5i.s 			page 5


 176              		.fpu softvfp
 178              	_ZN3VFO13ConfigurationC2Ev:
 179              		.fnstart
 180              	.LVL8:
 181              	.LFB91:
  13:Src/VFO/Configuration.cpp **** {
 182              		.loc 2 13 1 is_stmt 1 view -0
 183              		.cfi_startproc
 184              		@ args = 0, pretend = 0, frame = 0
 185              		@ frame_needed = 0, uses_anonymous_args = 0
 186              		@ link register save eliminated.
 187              	.LBB35:
 188              	.LBB36:
 189              	.LBB37:
 190              	.LBB38:
  31:Inc/eeprom/eeprom24xx.h ****  	virtual ~Eeprom24() {}
 191              		.loc 1 31 37 is_stmt 0 view .LVU24
 192 0000 0022     		movs	r2, #0
 193              	.LBE38:
 194              	.LBE37:
 195              	.LBE36:
 196              	.LBE35:
  13:Src/VFO/Configuration.cpp **** {
 197              		.loc 2 13 1 view .LVU25
 198 0002 30B4     		push	{r4, r5}
 199              	.LCFI2:
 200              		.cfi_def_cfa_offset 8
 201              		.cfi_offset 4, -8
 202              		.cfi_offset 5, -4
 203              	.LBB45:
  20:Src/VFO/Configuration.cpp **** }
 204              		.loc 2 20 20 view .LVU26
 205 0004 FF21     		movs	r1, #255
  19:Src/VFO/Configuration.cpp **** 	_data.brightness  = 255;
 206              		.loc 2 19 20 view .LVU27
 207 0006 45F23E74 		movw	r4, #22334
  13:Src/VFO/Configuration.cpp **** {
 208              		.loc 2 13 30 view .LVU28
 209 000a 074D     		ldr	r5, .L10
 210              	.LBB43:
 211              	.LBB41:
 212              	.LBB39:
  31:Inc/eeprom/eeprom24xx.h ****  	virtual ~Eeprom24() {}
 213              		.loc 1 31 37 view .LVU29
 214 000c 0272     		strb	r2, [r0, #8]
  31:Inc/eeprom/eeprom24xx.h ****  	virtual ~Eeprom24() {}
 215              		.loc 1 31 29 view .LVU30
 216 000e 074A     		ldr	r2, .L10+4
 217              	.LBE39:
 218              	.LBE41:
 219              	.LBE43:
  13:Src/VFO/Configuration.cpp **** {
 220              		.loc 2 13 30 view .LVU31
 221 0010 0560     		str	r5, [r0]
 222              	.LVL9:
 223              	.LBB44:
 224              	.LBI36:
ARM GAS  /var/folders/20/cstyxln53wn53rr40gj353bh0000gn/T//ccx5tB5i.s 			page 6


  30:Inc/eeprom/eeprom24xx.h ****  	Eeprom24( uint16_t addr ) { _addr = addr; }
 225              		.loc 1 30 3 is_stmt 1 view .LVU32
 226              	.LBB42:
 227              	.LBI37:
  31:Inc/eeprom/eeprom24xx.h ****  	virtual ~Eeprom24() {}
 228              		.loc 1 31 3 view .LVU33
 229              	.LBB40:
  31:Inc/eeprom/eeprom24xx.h ****  	virtual ~Eeprom24() {}
 230              		.loc 1 31 29 is_stmt 0 view .LVU34
 231 0012 4260     		str	r2, [r0, #4]
  31:Inc/eeprom/eeprom24xx.h ****  	virtual ~Eeprom24() {}
 232              		.loc 1 31 31 is_stmt 1 view .LVU35
 233              	.LVL10:
  31:Inc/eeprom/eeprom24xx.h ****  	virtual ~Eeprom24() {}
 234              		.loc 1 31 31 is_stmt 0 view .LVU36
 235              	.LBE40:
 236              	.LBE42:
 237              	.LBE44:
  16:Src/VFO/Configuration.cpp **** 	_data.iFrequency  = 4000000;
 238              		.loc 2 16 2 is_stmt 1 view .LVU37
  16:Src/VFO/Configuration.cpp **** 	_data.iFrequency  = 4000000;
 239              		.loc 2 16 20 is_stmt 0 view .LVU38
 240 0014 064D     		ldr	r5, .L10+8
  17:Src/VFO/Configuration.cpp **** 	_data.bFrequency  = 4000000;
 241              		.loc 2 17 20 view .LVU39
 242 0016 074A     		ldr	r2, .L10+12
  16:Src/VFO/Configuration.cpp **** 	_data.iFrequency  = 4000000;
 243              		.loc 2 16 20 view .LVU40
 244 0018 C560     		str	r5, [r0, #12]
  17:Src/VFO/Configuration.cpp **** 	_data.bFrequency  = 4000000;
 245              		.loc 2 17 2 is_stmt 1 view .LVU41
  19:Src/VFO/Configuration.cpp **** 	_data.brightness  = 255;
 246              		.loc 2 19 20 is_stmt 0 view .LVU42
 247 001a C461     		str	r4, [r0, #28]
  20:Src/VFO/Configuration.cpp **** }
 248              		.loc 2 20 20 view .LVU43
 249 001c 80F82010 		strb	r1, [r0, #32]
  18:Src/VFO/Configuration.cpp **** 	_data.calibration = 22334;
 250              		.loc 2 18 20 view .LVU44
 251 0020 C0E90422 		strd	r2, r2, [r0, #16]
  19:Src/VFO/Configuration.cpp **** 	_data.brightness  = 255;
 252              		.loc 2 19 2 is_stmt 1 view .LVU45
  20:Src/VFO/Configuration.cpp **** }
 253              		.loc 2 20 2 view .LVU46
 254              	.LBE45:
  21:Src/VFO/Configuration.cpp **** 
 255              		.loc 2 21 1 is_stmt 0 view .LVU47
 256 0024 30BC     		pop	{r4, r5}
 257              	.LCFI3:
 258              		.cfi_restore 5
 259              		.cfi_restore 4
 260              		.cfi_def_cfa_offset 0
 261 0026 7047     		bx	lr
 262              	.L11:
 263              		.align	2
 264              	.L10:
 265 0028 08000000 		.word	.LANCHOR0+8
ARM GAS  /var/folders/20/cstyxln53wn53rr40gj353bh0000gn/T//ccx5tB5i.s 			page 7


 266 002c 08000000 		.word	_ZTVN3VFO8Eeprom24E+8
 267 0030 60566C00 		.word	7100000
 268 0034 00093D00 		.word	4000000
 269              		.cfi_endproc
 270              	.LFE91:
 271              		.cantunwind
 272              		.fnend
 274              		.global	_ZN3VFO13ConfigurationC1Ev
 275              		.thumb_set _ZN3VFO13ConfigurationC1Ev,_ZN3VFO13ConfigurationC2Ev
 276              		.section	.text._ZN3VFO13Configuration4saveEv,"ax",%progbits
 277              		.align	1
 278              		.p2align 2,,3
 279              		.global	_ZN3VFO13Configuration4saveEv
 280              		.syntax unified
 281              		.thumb
 282              		.thumb_func
 283              		.fpu softvfp
 285              	_ZN3VFO13Configuration4saveEv:
 286              		.fnstart
 287              	.LVL11:
 288              	.LFB97:
  26:Src/VFO/Configuration.cpp **** 
  27:Src/VFO/Configuration.cpp **** 
  28:Src/VFO/Configuration.cpp **** void Configuration::save()
  29:Src/VFO/Configuration.cpp **** {
 289              		.loc 2 29 1 is_stmt 1 view -0
 290              		.cfi_startproc
 291              		@ args = 0, pretend = 0, frame = 0
 292              		@ frame_needed = 0, uses_anonymous_args = 0
  30:Src/VFO/Configuration.cpp **** 	if ( _mem.isConnected() )
 293              		.loc 2 30 2 view .LVU49
  29:Src/VFO/Configuration.cpp **** 	if ( _mem.isConnected() )
 294              		.loc 2 29 1 is_stmt 0 view .LVU50
 295 0000 10B5     		push	{r4, lr}
 296              		.save {r4, lr}
 297              	.LCFI4:
 298              		.cfi_def_cfa_offset 8
 299              		.cfi_offset 4, -8
 300              		.cfi_offset 14, -4
  29:Src/VFO/Configuration.cpp **** 	if ( _mem.isConnected() )
 301              		.loc 2 29 1 view .LVU51
 302 0002 0446     		mov	r4, r0
 303              	.LBB46:
 304              	.LBI46:
  33:Inc/eeprom/eeprom24xx.h **** 
  34:Inc/eeprom/eeprom24xx.h ****  	bool isConnected(void) { return ::EEPROM24XX_IsConnected(); }
 305              		.loc 1 34 8 is_stmt 1 view .LVU52
 306              	.LVL12:
 307              	.LBB47:
 308              		.loc 1 34 28 view .LVU53
 309              		.loc 1 34 59 is_stmt 0 view .LVU54
 310 0004 FFF7FEFF 		bl	EEPROM24XX_IsConnected
 311              	.LVL13:
 312              		.loc 1 34 59 view .LVU55
 313              	.LBE47:
 314              	.LBE46:
 315              		.loc 2 30 2 view .LVU56
ARM GAS  /var/folders/20/cstyxln53wn53rr40gj353bh0000gn/T//ccx5tB5i.s 			page 8


 316 0008 00B9     		cbnz	r0, .L15
  31:Src/VFO/Configuration.cpp **** 	{
  32:Src/VFO/Configuration.cpp **** 		_mem.save((uint8_t *)(&_data), sizeof(_data));
  33:Src/VFO/Configuration.cpp **** 	}
  34:Src/VFO/Configuration.cpp **** }
 317              		.loc 2 34 1 view .LVU57
 318 000a 10BD     		pop	{r4, pc}
 319              	.LVL14:
 320              	.L15:
  32:Src/VFO/Configuration.cpp **** 	}
 321              		.loc 2 32 3 is_stmt 1 view .LVU58
 322              	.LBB48:
 323              	.LBI48:
  35:Inc/eeprom/eeprom24xx.h ****  	bool save(uint8_t *data, size_t size_of_data) { return ::EEPROM24XX_Save(_addr, data, size_of_dat
 324              		.loc 1 35 8 view .LVU59
 325              	.LBB49:
 326              		.loc 1 35 51 view .LVU60
 327              		.loc 1 35 75 is_stmt 0 view .LVU61
 328 000c 04F10C01 		add	r1, r4, #12
 329              	.LVL15:
 330              		.loc 1 35 75 view .LVU62
 331 0010 207A     		ldrb	r0, [r4, #8]	@ zero_extendqisi2
 332 0012 1822     		movs	r2, #24
 333              	.LBE49:
 334              	.LBE48:
 335              		.loc 2 34 1 view .LVU63
 336 0014 BDE81040 		pop	{r4, lr}
 337              	.LCFI5:
 338              		.cfi_restore 14
 339              		.cfi_restore 4
 340              		.cfi_def_cfa_offset 0
 341              	.LVL16:
 342              	.LBB51:
 343              	.LBB50:
 344              		.loc 1 35 75 view .LVU64
 345 0018 FFF7FEBF 		b	EEPROM24XX_Save
 346              	.LVL17:
 347              		.loc 1 35 75 view .LVU65
 348              	.LBE50:
 349              	.LBE51:
 350              		.cfi_endproc
 351              	.LFE97:
 352              		.fnend
 354              		.section	.text._ZN3VFO13Configuration4loadEv,"ax",%progbits
 355              		.align	1
 356              		.p2align 2,,3
 357              		.global	_ZN3VFO13Configuration4loadEv
 358              		.syntax unified
 359              		.thumb
 360              		.thumb_func
 361              		.fpu softvfp
 363              	_ZN3VFO13Configuration4loadEv:
 364              		.fnstart
 365              	.LVL18:
 366              	.LFB98:
  35:Src/VFO/Configuration.cpp **** 
  36:Src/VFO/Configuration.cpp **** 
ARM GAS  /var/folders/20/cstyxln53wn53rr40gj353bh0000gn/T//ccx5tB5i.s 			page 9


  37:Src/VFO/Configuration.cpp **** void Configuration::load()
  38:Src/VFO/Configuration.cpp **** {
 367              		.loc 2 38 1 is_stmt 1 view -0
 368              		.cfi_startproc
 369              		@ args = 0, pretend = 0, frame = 0
 370              		@ frame_needed = 0, uses_anonymous_args = 0
  39:Src/VFO/Configuration.cpp **** 	if ( _mem.isConnected() )
 371              		.loc 2 39 2 view .LVU67
  38:Src/VFO/Configuration.cpp **** 	if ( _mem.isConnected() )
 372              		.loc 2 38 1 is_stmt 0 view .LVU68
 373 0000 10B5     		push	{r4, lr}
 374              		.save {r4, lr}
 375              	.LCFI6:
 376              		.cfi_def_cfa_offset 8
 377              		.cfi_offset 4, -8
 378              		.cfi_offset 14, -4
  38:Src/VFO/Configuration.cpp **** 	if ( _mem.isConnected() )
 379              		.loc 2 38 1 view .LVU69
 380 0002 0446     		mov	r4, r0
 381              	.LBB52:
 382              	.LBI52:
  34:Inc/eeprom/eeprom24xx.h ****  	bool save(uint8_t *data, size_t size_of_data) { return ::EEPROM24XX_Save(_addr, data, size_of_dat
 383              		.loc 1 34 8 is_stmt 1 view .LVU70
 384              	.LVL19:
 385              	.LBB53:
  34:Inc/eeprom/eeprom24xx.h ****  	bool save(uint8_t *data, size_t size_of_data) { return ::EEPROM24XX_Save(_addr, data, size_of_dat
 386              		.loc 1 34 28 view .LVU71
  34:Inc/eeprom/eeprom24xx.h ****  	bool save(uint8_t *data, size_t size_of_data) { return ::EEPROM24XX_Save(_addr, data, size_of_dat
 387              		.loc 1 34 59 is_stmt 0 view .LVU72
 388 0004 FFF7FEFF 		bl	EEPROM24XX_IsConnected
 389              	.LVL20:
  34:Inc/eeprom/eeprom24xx.h ****  	bool save(uint8_t *data, size_t size_of_data) { return ::EEPROM24XX_Save(_addr, data, size_of_dat
 390              		.loc 1 34 59 view .LVU73
 391              	.LBE53:
 392              	.LBE52:
 393              		.loc 2 39 2 view .LVU74
 394 0008 00B9     		cbnz	r0, .L19
  40:Src/VFO/Configuration.cpp **** 	{
  41:Src/VFO/Configuration.cpp **** 		if ( !_mem.load((uint8_t *)(&_data), sizeof(_data)) )
  42:Src/VFO/Configuration.cpp **** 		{
  43:Src/VFO/Configuration.cpp **** 
  44:Src/VFO/Configuration.cpp **** 		}
  45:Src/VFO/Configuration.cpp **** 	}
  46:Src/VFO/Configuration.cpp **** }
 395              		.loc 2 46 1 view .LVU75
 396 000a 10BD     		pop	{r4, pc}
 397              	.LVL21:
 398              	.L19:
  41:Src/VFO/Configuration.cpp **** 		{
 399              		.loc 2 41 3 is_stmt 1 view .LVU76
 400              	.LBB54:
 401              	.LBI54:
  36:Inc/eeprom/eeprom24xx.h ****  	bool load(uint8_t *data, size_t size_of_data) { return ::EEPROM24XX_Load(_addr, data, size_of_dat
 402              		.loc 1 36 8 view .LVU77
 403              	.LBB55:
 404              		.loc 1 36 51 view .LVU78
 405              		.loc 1 36 75 is_stmt 0 view .LVU79
ARM GAS  /var/folders/20/cstyxln53wn53rr40gj353bh0000gn/T//ccx5tB5i.s 			page 10


 406 000c 04F10C01 		add	r1, r4, #12
 407              	.LVL22:
 408              		.loc 1 36 75 view .LVU80
 409 0010 207A     		ldrb	r0, [r4, #8]	@ zero_extendqisi2
 410 0012 1822     		movs	r2, #24
 411              	.LBE55:
 412              	.LBE54:
 413              		.loc 2 46 1 view .LVU81
 414 0014 BDE81040 		pop	{r4, lr}
 415              	.LCFI7:
 416              		.cfi_restore 14
 417              		.cfi_restore 4
 418              		.cfi_def_cfa_offset 0
 419              	.LVL23:
 420              	.LBB57:
 421              	.LBB56:
 422              		.loc 1 36 75 view .LVU82
 423 0018 FFF7FEBF 		b	EEPROM24XX_Load
 424              	.LVL24:
 425              		.loc 1 36 75 view .LVU83
 426              	.LBE56:
 427              	.LBE57:
 428              		.cfi_endproc
 429              	.LFE98:
 430              		.fnend
 432              		.weak	_ZTSN3VFO8Eeprom24E
 433              		.section	.rodata._ZTSN3VFO8Eeprom24E,"aG",%progbits,_ZTSN3VFO8Eeprom24E,comdat
 434              		.align	2
 437              	_ZTSN3VFO8Eeprom24E:
 438 0000 4E335646 		.ascii	"N3VFO8Eeprom24E\000"
 438      4F384565 
 438      70726F6D 
 438      32344500 
 439              		.weak	_ZTIN3VFO8Eeprom24E
 440              		.section	.rodata._ZTIN3VFO8Eeprom24E,"aG",%progbits,_ZTIN3VFO8Eeprom24E,comdat
 441              		.align	2
 444              	_ZTIN3VFO8Eeprom24E:
 445 0000 08000000 		.word	_ZTVN10__cxxabiv117__class_type_infoE+8
 446 0004 00000000 		.word	_ZTSN3VFO8Eeprom24E
 447              		.global	_ZTSN3VFO13ConfigurationE
 448              		.global	_ZTIN3VFO13ConfigurationE
 449              		.weak	_ZTVN3VFO8Eeprom24E
 450              		.section	.rodata._ZTVN3VFO8Eeprom24E,"aG",%progbits,_ZTVN3VFO8Eeprom24E,comdat
 451              		.align	2
 454              	_ZTVN3VFO8Eeprom24E:
 455 0000 00000000 		.word	0
 456 0004 00000000 		.word	_ZTIN3VFO8Eeprom24E
 457 0008 00000000 		.word	_ZN3VFO8Eeprom24D1Ev
 458 000c 00000000 		.word	_ZN3VFO8Eeprom24D0Ev
 459              		.global	_ZTVN3VFO13ConfigurationE
 460              		.section	.rodata._ZTIN3VFO13ConfigurationE,"a"
 461              		.align	2
 464              	_ZTIN3VFO13ConfigurationE:
 465 0000 08000000 		.word	_ZTVN10__cxxabiv117__class_type_infoE+8
 466 0004 00000000 		.word	_ZTSN3VFO13ConfigurationE
 467              		.section	.rodata._ZTSN3VFO13ConfigurationE,"a"
 468              		.align	2
ARM GAS  /var/folders/20/cstyxln53wn53rr40gj353bh0000gn/T//ccx5tB5i.s 			page 11


 471              	_ZTSN3VFO13ConfigurationE:
 472 0000 4E335646 		.ascii	"N3VFO13ConfigurationE\000"
 472      4F313343 
 472      6F6E6669 
 472      67757261 
 472      74696F6E 
 473              		.section	.rodata._ZTVN3VFO13ConfigurationE,"a"
 474              		.align	2
 475              		.set	.LANCHOR0,. + 0
 478              	_ZTVN3VFO13ConfigurationE:
 479 0000 00000000 		.word	0
 480 0004 00000000 		.word	_ZTIN3VFO13ConfigurationE
 481 0008 00000000 		.word	_ZN3VFO13ConfigurationD1Ev
 482 000c 00000000 		.word	_ZN3VFO13ConfigurationD0Ev
 483              		.text
 484              	.Letext0:
 485              		.file 3 "/usr/local/gcc-arm-none-eabi-8-2019-q3-update/arm-none-eabi/include/machine/_default_type
 486              		.file 4 "/usr/local/gcc-arm-none-eabi-8-2019-q3-update/arm-none-eabi/include/sys/_stdint.h"
 487              		.file 5 "Drivers/CMSIS/Include/core_cm3.h"
 488              		.file 6 "Drivers/CMSIS/Device/ST/STM32F1xx/Include/system_stm32f1xx.h"
 489              		.file 7 "Drivers/CMSIS/Device/ST/STM32F1xx/Include/stm32f1xx.h"
 490              		.file 8 "/usr/local/gcc-arm-none-eabi-8-2019-q3-update/lib/gcc/arm-none-eabi/8.3.1/include/stddef.
 491              		.file 9 "Drivers/STM32F1xx_HAL_Driver/Inc/stm32f1xx_hal.h"
 492              		.file 10 "Src/VFO/Configuration.h"
ARM GAS  /var/folders/20/cstyxln53wn53rr40gj353bh0000gn/T//ccx5tB5i.s 			page 12

