ARM GAS  /var/folders/20/cstyxln53wn53rr40gj353bh0000gn/T//cceT7FQ9.s 			page 1


   1              		.cpu cortex-m3
   2              		.eabi_attribute 20, 1
   3              		.eabi_attribute 21, 1
   4              		.eabi_attribute 23, 3
   5              		.eabi_attribute 24, 1
   6              		.eabi_attribute 25, 1
   7              		.eabi_attribute 26, 1
   8              		.eabi_attribute 30, 2
   9              		.eabi_attribute 34, 1
  10              		.eabi_attribute 18, 4
  11              		.file	"eeprom24xx.c"
  12              		.text
  13              	.Ltext0:
  14              		.cfi_sections	.debug_frame
  15              		.section	.text.EEPROM24XX_IsConnected,"ax",%progbits
  16              		.align	1
  17              		.p2align 2,,3
  18              		.global	EEPROM24XX_IsConnected
  19              		.arch armv7-m
  20              		.syntax unified
  21              		.thumb
  22              		.thumb_func
  23              		.fpu softvfp
  25              	EEPROM24XX_IsConnected:
  26              	.LFB65:
  27              		.file 1 "Src/eeprom/eeprom24xx.c"
   1:Src/eeprom/eeprom24xx.c **** #include "eeprom/eeprom24xx.h"
   2:Src/eeprom/eeprom24xx.c **** 
   3:Src/eeprom/eeprom24xx.c **** extern I2C_HandleTypeDef hi2c2;
   4:Src/eeprom/eeprom24xx.c **** 
   5:Src/eeprom/eeprom24xx.c **** #define EEPROM_I2C 			hi2c2
   6:Src/eeprom/eeprom24xx.c **** #define EEPROM_ADDRESS      0xA0
   7:Src/eeprom/eeprom24xx.c **** #define EEPROM_PAGESIZE     16
   8:Src/eeprom/eeprom24xx.c **** #define EEPROM_TIMEOUT      100
   9:Src/eeprom/eeprom24xx.c **** 
  10:Src/eeprom/eeprom24xx.c **** 
  11:Src/eeprom/eeprom24xx.c **** bool EEPROM24XX_IsConnected(void)
  12:Src/eeprom/eeprom24xx.c **** {
  28              		.loc 1 12 1 view -0
  29              		.cfi_startproc
  30              		@ args = 0, pretend = 0, frame = 0
  31              		@ frame_needed = 0, uses_anonymous_args = 0
  13:Src/eeprom/eeprom24xx.c **** 	uint8_t numTrials = 0;
  32              		.loc 1 13 2 view .LVU1
  33              	.LVL0:
  14:Src/eeprom/eeprom24xx.c **** 	while ( HAL_I2C_IsDeviceReady( &EEPROM_I2C, EEPROM_ADDRESS, 50, EEPROM_TIMEOUT ) != HAL_OK )
  34              		.loc 1 14 2 view .LVU2
  12:Src/eeprom/eeprom24xx.c **** 	uint8_t numTrials = 0;
  35              		.loc 1 12 1 is_stmt 0 view .LVU3
  36 0000 38B5     		push	{r3, r4, r5, lr}
  37              	.LCFI0:
  38              		.cfi_def_cfa_offset 16
  39              		.cfi_offset 3, -16
  40              		.cfi_offset 4, -12
  41              		.cfi_offset 5, -8
  42              		.cfi_offset 14, -4
  43              		.loc 1 14 8 view .LVU4
ARM GAS  /var/folders/20/cstyxln53wn53rr40gj353bh0000gn/T//cceT7FQ9.s 			page 2


  44 0002 0724     		movs	r4, #7
  45              		.loc 1 14 10 view .LVU5
  46 0004 094D     		ldr	r5, .L9
  47              	.LVL1:
  48              	.L2:
  49              		.loc 1 14 10 view .LVU6
  50 0006 6423     		movs	r3, #100
  51 0008 3222     		movs	r2, #50
  52 000a A021     		movs	r1, #160
  53 000c 2846     		mov	r0, r5
  54 000e FFF7FEFF 		bl	HAL_I2C_IsDeviceReady
  55              	.LVL2:
  15:Src/eeprom/eeprom24xx.c **** 	{
  16:Src/eeprom/eeprom24xx.c **** 		HAL_Delay( 2 );
  56              		.loc 1 16 3 is_stmt 1 view .LVU7
  14:Src/eeprom/eeprom24xx.c **** 	{
  57              		.loc 1 14 8 is_stmt 0 view .LVU8
  58 0012 40B1     		cbz	r0, .L8
  59              		.loc 1 16 3 view .LVU9
  60 0014 0220     		movs	r0, #2
  61 0016 FFF7FEFF 		bl	HAL_Delay
  62              	.LVL3:
  17:Src/eeprom/eeprom24xx.c **** 		if ( numTrials++ > 5 )
  63              		.loc 1 17 3 is_stmt 1 view .LVU10
  64 001a 601E     		subs	r0, r4, #1
  65              		.loc 1 17 6 is_stmt 0 view .LVU11
  66 001c 10F0FF04 		ands	r4, r0, #255
  67 0020 F1D1     		bne	.L2
  18:Src/eeprom/eeprom24xx.c **** 		{
  19:Src/eeprom/eeprom24xx.c **** 			return false;
  68              		.loc 1 19 11 view .LVU12
  69 0022 2046     		mov	r0, r4
  20:Src/eeprom/eeprom24xx.c **** 		}
  21:Src/eeprom/eeprom24xx.c **** 	}
  22:Src/eeprom/eeprom24xx.c **** 	return true;
  23:Src/eeprom/eeprom24xx.c **** }
  70              		.loc 1 23 1 view .LVU13
  71 0024 38BD     		pop	{r3, r4, r5, pc}
  72              	.L8:
  22:Src/eeprom/eeprom24xx.c **** }
  73              		.loc 1 22 9 view .LVU14
  74 0026 0120     		movs	r0, #1
  75              		.loc 1 23 1 view .LVU15
  76 0028 38BD     		pop	{r3, r4, r5, pc}
  77              	.L10:
  78 002a 00BF     		.align	2
  79              	.L9:
  80 002c 00000000 		.word	hi2c2
  81              		.cfi_endproc
  82              	.LFE65:
  84              		.section	.text.EEPROM24XX_Save,"ax",%progbits
  85              		.align	1
  86              		.p2align 2,,3
  87              		.global	EEPROM24XX_Save
  88              		.syntax unified
  89              		.thumb
  90              		.thumb_func
ARM GAS  /var/folders/20/cstyxln53wn53rr40gj353bh0000gn/T//cceT7FQ9.s 			page 3


  91              		.fpu softvfp
  93              	EEPROM24XX_Save:
  94              	.LVL4:
  95              	.LFB66:
  24:Src/eeprom/eeprom24xx.c **** 
  25:Src/eeprom/eeprom24xx.c **** 
  26:Src/eeprom/eeprom24xx.c **** bool EEPROM24XX_Save(uint16_t Address, uint8_t *data, size_t size_of_data)
  27:Src/eeprom/eeprom24xx.c **** {
  96              		.loc 1 27 1 is_stmt 1 view -0
  97              		.cfi_startproc
  98              		@ args = 0, pretend = 0, frame = 0
  99              		@ frame_needed = 0, uses_anonymous_args = 0
  28:Src/eeprom/eeprom24xx.c **** 	uint8_t numTrials = 0;
 100              		.loc 1 28 2 view .LVU17
  29:Src/eeprom/eeprom24xx.c **** 	uint16_t counter = 0;
 101              		.loc 1 29 2 view .LVU18
  30:Src/eeprom/eeprom24xx.c **** 	while ( counter < size_of_data )
 102              		.loc 1 30 2 view .LVU19
  27:Src/eeprom/eeprom24xx.c **** 	uint8_t numTrials = 0;
 103              		.loc 1 27 1 is_stmt 0 view .LVU20
 104 0000 2DE9F04F 		push	{r4, r5, r6, r7, r8, r9, r10, fp, lr}
 105              	.LCFI1:
 106              		.cfi_def_cfa_offset 36
 107              		.cfi_offset 4, -36
 108              		.cfi_offset 5, -32
 109              		.cfi_offset 6, -28
 110              		.cfi_offset 7, -24
 111              		.cfi_offset 8, -20
 112              		.cfi_offset 9, -16
 113              		.cfi_offset 10, -12
 114              		.cfi_offset 11, -8
 115              		.cfi_offset 14, -4
  29:Src/eeprom/eeprom24xx.c **** 	uint16_t counter = 0;
 116              		.loc 1 29 11 view .LVU21
 117 0004 0024     		movs	r4, #0
  27:Src/eeprom/eeprom24xx.c **** 	uint8_t numTrials = 0;
 118              		.loc 1 27 1 view .LVU22
 119 0006 1746     		mov	r7, r2
 120 0008 8146     		mov	r9, r0
 121 000a 8846     		mov	r8, r1
  28:Src/eeprom/eeprom24xx.c **** 	uint16_t counter = 0;
 122              		.loc 1 28 10 view .LVU23
 123 000c 2646     		mov	r6, r4
 124              	.LBB2:
  31:Src/eeprom/eeprom24xx.c **** 	{
  32:Src/eeprom/eeprom24xx.c **** 		uint16_t diff = size_of_data - counter;
  33:Src/eeprom/eeprom24xx.c **** 		if ( diff >= EEPROM_PAGESIZE )
  34:Src/eeprom/eeprom24xx.c **** 		{
  35:Src/eeprom/eeprom24xx.c **** 			if ( HAL_I2C_Mem_Write( &EEPROM_I2C, EEPROM_ADDRESS,
  36:Src/eeprom/eeprom24xx.c **** 					Address + counter, I2C_MEMADD_SIZE_8BIT,
  37:Src/eeprom/eeprom24xx.c **** 					&data[counter], EEPROM_PAGESIZE, EEPROM_TIMEOUT ) != HAL_OK )
  38:Src/eeprom/eeprom24xx.c **** 			{
  39:Src/eeprom/eeprom24xx.c **** 				if ( numTrials++ > 5 )
  40:Src/eeprom/eeprom24xx.c **** 				{
  41:Src/eeprom/eeprom24xx.c **** 					return false;
  42:Src/eeprom/eeprom24xx.c **** 				}
  43:Src/eeprom/eeprom24xx.c **** 				continue;
ARM GAS  /var/folders/20/cstyxln53wn53rr40gj353bh0000gn/T//cceT7FQ9.s 			page 4


  44:Src/eeprom/eeprom24xx.c **** 			}
  45:Src/eeprom/eeprom24xx.c **** 			counter += EEPROM_PAGESIZE;
  46:Src/eeprom/eeprom24xx.c **** 		}
  47:Src/eeprom/eeprom24xx.c **** 		else
  48:Src/eeprom/eeprom24xx.c **** 		{
  49:Src/eeprom/eeprom24xx.c **** 			//and the remaining ones...low packet size
  50:Src/eeprom/eeprom24xx.c **** 			if ( HAL_I2C_Mem_Write( &EEPROM_I2C, EEPROM_ADDRESS,
 125              		.loc 1 50 9 view .LVU24
 126 000e DFF878A0 		ldr	r10, .L28
 127              	.LBE2:
  27:Src/eeprom/eeprom24xx.c **** 	uint8_t numTrials = 0;
 128              		.loc 1 27 1 view .LVU25
 129 0012 85B0     		sub	sp, sp, #20
 130              	.LCFI2:
 131              		.cfi_def_cfa_offset 56
 132              	.LBB3:
  32:Src/eeprom/eeprom24xx.c **** 		if ( diff >= EEPROM_PAGESIZE )
 133              		.loc 1 32 32 view .LVU26
 134 0014 95B2     		uxth	r5, r2
 135              	.LVL5:
 136              	.L12:
  32:Src/eeprom/eeprom24xx.c **** 		if ( diff >= EEPROM_PAGESIZE )
 137              		.loc 1 32 3 is_stmt 1 view .LVU27
  35:Src/eeprom/eeprom24xx.c **** 					Address + counter, I2C_MEMADD_SIZE_8BIT,
 138              		.loc 1 35 4 view .LVU28
 139              		.loc 1 50 4 view .LVU29
  32:Src/eeprom/eeprom24xx.c **** 		if ( diff >= EEPROM_PAGESIZE )
 140              		.loc 1 32 12 is_stmt 0 view .LVU30
 141 0016 2B1B     		subs	r3, r5, r4
 142 0018 04EB0902 		add	r2, r4, r9
 143              	.LBE3:
  30:Src/eeprom/eeprom24xx.c **** 	{
 144              		.loc 1 30 8 view .LVU31
 145 001c BC42     		cmp	r4, r7
 146              	.LBB4:
  32:Src/eeprom/eeprom24xx.c **** 		if ( diff >= EEPROM_PAGESIZE )
 147              		.loc 1 32 12 view .LVU32
 148 001e 9BB2     		uxth	r3, r3
 149              	.LVL6:
  33:Src/eeprom/eeprom24xx.c **** 		{
 150              		.loc 1 33 3 is_stmt 1 view .LVU33
 151 0020 92B2     		uxth	r2, r2
 152 0022 08EB0401 		add	r1, r8, r4
 153              	.LBE4:
  30:Src/eeprom/eeprom24xx.c **** 	{
 154              		.loc 1 30 8 is_stmt 0 view .LVU34
 155 0026 2BD2     		bcs	.L27
 156              	.LBB5:
  33:Src/eeprom/eeprom24xx.c **** 		{
 157              		.loc 1 33 6 view .LVU35
 158 0028 0F2B     		cmp	r3, #15
  32:Src/eeprom/eeprom24xx.c **** 		if ( diff >= EEPROM_PAGESIZE )
 159              		.loc 1 32 32 view .LVU36
 160 002a AB46     		mov	fp, r5
  35:Src/eeprom/eeprom24xx.c **** 					Address + counter, I2C_MEMADD_SIZE_8BIT,
 161              		.loc 1 35 9 view .LVU37
 162 002c 4FF06400 		mov	r0, #100
ARM GAS  /var/folders/20/cstyxln53wn53rr40gj353bh0000gn/T//cceT7FQ9.s 			page 5


  33:Src/eeprom/eeprom24xx.c **** 		{
 163              		.loc 1 33 6 view .LVU38
 164 0030 12D9     		bls	.L13
  35:Src/eeprom/eeprom24xx.c **** 					Address + counter, I2C_MEMADD_SIZE_8BIT,
 165              		.loc 1 35 9 view .LVU39
 166 0032 1023     		movs	r3, #16
 167              	.LVL7:
  35:Src/eeprom/eeprom24xx.c **** 					Address + counter, I2C_MEMADD_SIZE_8BIT,
 168              		.loc 1 35 9 view .LVU40
 169 0034 0091     		str	r1, [sp]
 170 0036 CDE90130 		strd	r3, r0, [sp, #4]
 171 003a A021     		movs	r1, #160
 172 003c 0123     		movs	r3, #1
 173 003e 5046     		mov	r0, r10
 174 0040 FFF7FEFF 		bl	HAL_I2C_Mem_Write
 175              	.LVL8:
  39:Src/eeprom/eeprom24xx.c **** 				{
 176              		.loc 1 39 5 is_stmt 1 view .LVU41
  45:Src/eeprom/eeprom24xx.c **** 		}
 177              		.loc 1 45 4 view .LVU42
  45:Src/eeprom/eeprom24xx.c **** 		}
 178              		.loc 1 45 12 is_stmt 0 view .LVU43
 179 0044 04F1100B 		add	fp, r4, #16
  35:Src/eeprom/eeprom24xx.c **** 					Address + counter, I2C_MEMADD_SIZE_8BIT,
 180              		.loc 1 35 7 view .LVU44
 181 0048 80B9     		cbnz	r0, .L26
  45:Src/eeprom/eeprom24xx.c **** 		}
 182              		.loc 1 45 12 view .LVU45
 183 004a 1FFA8BFB 		uxth	fp, fp
 184              	.LVL9:
 185              	.L18:
  51:Src/eeprom/eeprom24xx.c **** 					Address + counter, I2C_MEMADD_SIZE_8BIT,
  52:Src/eeprom/eeprom24xx.c **** 					&data[counter], diff, EEPROM_TIMEOUT ) != HAL_OK )
  53:Src/eeprom/eeprom24xx.c **** 			{
  54:Src/eeprom/eeprom24xx.c **** 				if ( numTrials++ > 5 )
  55:Src/eeprom/eeprom24xx.c **** 				{
  56:Src/eeprom/eeprom24xx.c **** 					return false;
  57:Src/eeprom/eeprom24xx.c **** 				}
  58:Src/eeprom/eeprom24xx.c **** 				continue;
  59:Src/eeprom/eeprom24xx.c **** 			}
  60:Src/eeprom/eeprom24xx.c **** 			counter += diff;
  61:Src/eeprom/eeprom24xx.c **** 		}
  62:Src/eeprom/eeprom24xx.c **** 		HAL_Delay( 2 );
 186              		.loc 1 62 3 is_stmt 1 view .LVU46
 187 004e 0220     		movs	r0, #2
 188 0050 5C46     		mov	r4, fp
 189              	.LVL10:
 190              		.loc 1 62 3 is_stmt 0 view .LVU47
 191 0052 FFF7FEFF 		bl	HAL_Delay
 192              	.LVL11:
 193 0056 DEE7     		b	.L12
 194              	.LVL12:
 195              	.L13:
  50:Src/eeprom/eeprom24xx.c **** 					Address + counter, I2C_MEMADD_SIZE_8BIT,
 196              		.loc 1 50 9 view .LVU48
 197 0058 CDE90013 		strd	r1, r3, [sp]
 198 005c 0290     		str	r0, [sp, #8]
ARM GAS  /var/folders/20/cstyxln53wn53rr40gj353bh0000gn/T//cceT7FQ9.s 			page 6


 199 005e 0123     		movs	r3, #1
 200              	.LVL13:
  50:Src/eeprom/eeprom24xx.c **** 					Address + counter, I2C_MEMADD_SIZE_8BIT,
 201              		.loc 1 50 9 view .LVU49
 202 0060 A021     		movs	r1, #160
 203 0062 5046     		mov	r0, r10
 204 0064 FFF7FEFF 		bl	HAL_I2C_Mem_Write
 205              	.LVL14:
  54:Src/eeprom/eeprom24xx.c **** 				{
 206              		.loc 1 54 5 is_stmt 1 view .LVU50
  50:Src/eeprom/eeprom24xx.c **** 					Address + counter, I2C_MEMADD_SIZE_8BIT,
 207              		.loc 1 50 7 is_stmt 0 view .LVU51
 208 0068 0028     		cmp	r0, #0
 209 006a F0D0     		beq	.L18
 210              	.LVL15:
 211              	.L26:
  54:Src/eeprom/eeprom24xx.c **** 				{
 212              		.loc 1 54 8 view .LVU52
 213 006c 052E     		cmp	r6, #5
  54:Src/eeprom/eeprom24xx.c **** 				{
 214              		.loc 1 54 19 view .LVU53
 215 006e 06F10106 		add	r6, r6, #1
  54:Src/eeprom/eeprom24xx.c **** 				{
 216              		.loc 1 54 8 view .LVU54
 217 0072 01D8     		bhi	.L15
  54:Src/eeprom/eeprom24xx.c **** 				{
 218              		.loc 1 54 19 view .LVU55
 219 0074 F6B2     		uxtb	r6, r6
 220 0076 CEE7     		b	.L12
 221              	.L15:
  41:Src/eeprom/eeprom24xx.c **** 				}
 222              		.loc 1 41 13 view .LVU56
 223 0078 0020     		movs	r0, #0
 224              	.LBE5:
  63:Src/eeprom/eeprom24xx.c **** 	}
  64:Src/eeprom/eeprom24xx.c **** 
  65:Src/eeprom/eeprom24xx.c **** 	return true;
  66:Src/eeprom/eeprom24xx.c **** }
 225              		.loc 1 66 1 view .LVU57
 226 007a 05B0     		add	sp, sp, #20
 227              	.LCFI3:
 228              		.cfi_remember_state
 229              		.cfi_def_cfa_offset 36
 230              		@ sp needed
 231 007c BDE8F08F 		pop	{r4, r5, r6, r7, r8, r9, r10, fp, pc}
 232              	.LVL16:
 233              	.L27:
 234              	.LCFI4:
 235              		.cfi_restore_state
  65:Src/eeprom/eeprom24xx.c **** }
 236              		.loc 1 65 9 view .LVU58
 237 0080 0120     		movs	r0, #1
 238              		.loc 1 66 1 view .LVU59
 239 0082 05B0     		add	sp, sp, #20
 240              	.LCFI5:
 241              		.cfi_def_cfa_offset 36
 242              		@ sp needed
ARM GAS  /var/folders/20/cstyxln53wn53rr40gj353bh0000gn/T//cceT7FQ9.s 			page 7


 243 0084 BDE8F08F 		pop	{r4, r5, r6, r7, r8, r9, r10, fp, pc}
 244              	.LVL17:
 245              	.L29:
 246              		.loc 1 66 1 view .LVU60
 247              		.align	2
 248              	.L28:
 249 0088 00000000 		.word	hi2c2
 250              		.cfi_endproc
 251              	.LFE66:
 253              		.section	.text.EEPROM24XX_Load,"ax",%progbits
 254              		.align	1
 255              		.p2align 2,,3
 256              		.global	EEPROM24XX_Load
 257              		.syntax unified
 258              		.thumb
 259              		.thumb_func
 260              		.fpu softvfp
 262              	EEPROM24XX_Load:
 263              	.LVL18:
 264              	.LFB67:
  67:Src/eeprom/eeprom24xx.c **** 
  68:Src/eeprom/eeprom24xx.c **** 
  69:Src/eeprom/eeprom24xx.c **** bool EEPROM24XX_Load(uint16_t Address, uint8_t *data, size_t size_of_data)
  70:Src/eeprom/eeprom24xx.c **** {
 265              		.loc 1 70 1 is_stmt 1 view -0
 266              		.cfi_startproc
 267              		@ args = 0, pretend = 0, frame = 0
 268              		@ frame_needed = 0, uses_anonymous_args = 0
  71:Src/eeprom/eeprom24xx.c **** 	uint8_t numTrials = 0;
 269              		.loc 1 71 2 view .LVU62
  72:Src/eeprom/eeprom24xx.c **** 	uint16_t counter = 0;
 270              		.loc 1 72 2 view .LVU63
  73:Src/eeprom/eeprom24xx.c **** 	while ( counter < size_of_data )
 271              		.loc 1 73 2 view .LVU64
  70:Src/eeprom/eeprom24xx.c **** 	uint8_t numTrials = 0;
 272              		.loc 1 70 1 is_stmt 0 view .LVU65
 273 0000 2DE9F04F 		push	{r4, r5, r6, r7, r8, r9, r10, fp, lr}
 274              	.LCFI6:
 275              		.cfi_def_cfa_offset 36
 276              		.cfi_offset 4, -36
 277              		.cfi_offset 5, -32
 278              		.cfi_offset 6, -28
 279              		.cfi_offset 7, -24
 280              		.cfi_offset 8, -20
 281              		.cfi_offset 9, -16
 282              		.cfi_offset 10, -12
 283              		.cfi_offset 11, -8
 284              		.cfi_offset 14, -4
  72:Src/eeprom/eeprom24xx.c **** 	uint16_t counter = 0;
 285              		.loc 1 72 11 view .LVU66
 286 0004 0024     		movs	r4, #0
  70:Src/eeprom/eeprom24xx.c **** 	uint8_t numTrials = 0;
 287              		.loc 1 70 1 view .LVU67
 288 0006 1746     		mov	r7, r2
 289 0008 8146     		mov	r9, r0
 290 000a 8846     		mov	r8, r1
  71:Src/eeprom/eeprom24xx.c **** 	uint16_t counter = 0;
ARM GAS  /var/folders/20/cstyxln53wn53rr40gj353bh0000gn/T//cceT7FQ9.s 			page 8


 291              		.loc 1 71 10 view .LVU68
 292 000c 2646     		mov	r6, r4
 293              	.LBB6:
  74:Src/eeprom/eeprom24xx.c **** 	{
  75:Src/eeprom/eeprom24xx.c **** 		uint16_t diff = size_of_data - counter;
  76:Src/eeprom/eeprom24xx.c **** 
  77:Src/eeprom/eeprom24xx.c **** 		if (diff >= EEPROM_PAGESIZE)
  78:Src/eeprom/eeprom24xx.c **** 		{
  79:Src/eeprom/eeprom24xx.c **** 			if ( HAL_I2C_Mem_Read( &EEPROM_I2C, EEPROM_ADDRESS,
  80:Src/eeprom/eeprom24xx.c **** 					Address + counter, I2C_MEMADD_SIZE_8BIT,
  81:Src/eeprom/eeprom24xx.c **** 					&data[counter], EEPROM_PAGESIZE, EEPROM_TIMEOUT ) != HAL_OK )
  82:Src/eeprom/eeprom24xx.c **** 			{
  83:Src/eeprom/eeprom24xx.c **** 				if ( numTrials++ > 5 )
  84:Src/eeprom/eeprom24xx.c **** 				{
  85:Src/eeprom/eeprom24xx.c **** 					return false;
  86:Src/eeprom/eeprom24xx.c **** 				}
  87:Src/eeprom/eeprom24xx.c **** 				continue;
  88:Src/eeprom/eeprom24xx.c **** 			}
  89:Src/eeprom/eeprom24xx.c **** 			counter += EEPROM_PAGESIZE;
  90:Src/eeprom/eeprom24xx.c **** 		}
  91:Src/eeprom/eeprom24xx.c **** 		else
  92:Src/eeprom/eeprom24xx.c **** 		{
  93:Src/eeprom/eeprom24xx.c **** 			// and the remaining ones...low packet size
  94:Src/eeprom/eeprom24xx.c **** 			if ( HAL_I2C_Mem_Read( &EEPROM_I2C, EEPROM_ADDRESS,
 294              		.loc 1 94 9 view .LVU69
 295 000e DFF878A0 		ldr	r10, .L47
 296              	.LBE6:
  70:Src/eeprom/eeprom24xx.c **** 	uint8_t numTrials = 0;
 297              		.loc 1 70 1 view .LVU70
 298 0012 85B0     		sub	sp, sp, #20
 299              	.LCFI7:
 300              		.cfi_def_cfa_offset 56
 301              	.LBB7:
  75:Src/eeprom/eeprom24xx.c **** 
 302              		.loc 1 75 32 view .LVU71
 303 0014 95B2     		uxth	r5, r2
 304              	.LVL19:
 305              	.L31:
  75:Src/eeprom/eeprom24xx.c **** 
 306              		.loc 1 75 3 is_stmt 1 view .LVU72
  79:Src/eeprom/eeprom24xx.c **** 					Address + counter, I2C_MEMADD_SIZE_8BIT,
 307              		.loc 1 79 4 view .LVU73
 308              		.loc 1 94 4 view .LVU74
  75:Src/eeprom/eeprom24xx.c **** 
 309              		.loc 1 75 12 is_stmt 0 view .LVU75
 310 0016 2B1B     		subs	r3, r5, r4
 311 0018 04EB0902 		add	r2, r4, r9
 312              	.LBE7:
  73:Src/eeprom/eeprom24xx.c **** 	{
 313              		.loc 1 73 8 view .LVU76
 314 001c BC42     		cmp	r4, r7
 315              	.LBB8:
  75:Src/eeprom/eeprom24xx.c **** 
 316              		.loc 1 75 12 view .LVU77
 317 001e 9BB2     		uxth	r3, r3
 318              	.LVL20:
  77:Src/eeprom/eeprom24xx.c **** 		{
ARM GAS  /var/folders/20/cstyxln53wn53rr40gj353bh0000gn/T//cceT7FQ9.s 			page 9


 319              		.loc 1 77 3 is_stmt 1 view .LVU78
 320 0020 92B2     		uxth	r2, r2
 321 0022 08EB0401 		add	r1, r8, r4
 322              	.LBE8:
  73:Src/eeprom/eeprom24xx.c **** 	{
 323              		.loc 1 73 8 is_stmt 0 view .LVU79
 324 0026 2BD2     		bcs	.L46
 325              	.LBB9:
  77:Src/eeprom/eeprom24xx.c **** 		{
 326              		.loc 1 77 6 view .LVU80
 327 0028 0F2B     		cmp	r3, #15
  75:Src/eeprom/eeprom24xx.c **** 
 328              		.loc 1 75 32 view .LVU81
 329 002a AB46     		mov	fp, r5
  79:Src/eeprom/eeprom24xx.c **** 					Address + counter, I2C_MEMADD_SIZE_8BIT,
 330              		.loc 1 79 9 view .LVU82
 331 002c 4FF06400 		mov	r0, #100
  77:Src/eeprom/eeprom24xx.c **** 		{
 332              		.loc 1 77 6 view .LVU83
 333 0030 12D9     		bls	.L32
  79:Src/eeprom/eeprom24xx.c **** 					Address + counter, I2C_MEMADD_SIZE_8BIT,
 334              		.loc 1 79 9 view .LVU84
 335 0032 1023     		movs	r3, #16
 336              	.LVL21:
  79:Src/eeprom/eeprom24xx.c **** 					Address + counter, I2C_MEMADD_SIZE_8BIT,
 337              		.loc 1 79 9 view .LVU85
 338 0034 0091     		str	r1, [sp]
 339 0036 CDE90130 		strd	r3, r0, [sp, #4]
 340 003a A021     		movs	r1, #160
 341 003c 0123     		movs	r3, #1
 342 003e 5046     		mov	r0, r10
 343 0040 FFF7FEFF 		bl	HAL_I2C_Mem_Read
 344              	.LVL22:
  83:Src/eeprom/eeprom24xx.c **** 				{
 345              		.loc 1 83 5 is_stmt 1 view .LVU86
  89:Src/eeprom/eeprom24xx.c **** 		}
 346              		.loc 1 89 4 view .LVU87
  89:Src/eeprom/eeprom24xx.c **** 		}
 347              		.loc 1 89 12 is_stmt 0 view .LVU88
 348 0044 04F1100B 		add	fp, r4, #16
  79:Src/eeprom/eeprom24xx.c **** 					Address + counter, I2C_MEMADD_SIZE_8BIT,
 349              		.loc 1 79 7 view .LVU89
 350 0048 80B9     		cbnz	r0, .L45
  89:Src/eeprom/eeprom24xx.c **** 		}
 351              		.loc 1 89 12 view .LVU90
 352 004a 1FFA8BFB 		uxth	fp, fp
 353              	.LVL23:
 354              	.L37:
  95:Src/eeprom/eeprom24xx.c **** 					Address + counter, I2C_MEMADD_SIZE_8BIT,
  96:Src/eeprom/eeprom24xx.c **** 					&data[counter], diff, EEPROM_TIMEOUT ) != HAL_OK )
  97:Src/eeprom/eeprom24xx.c **** 			{
  98:Src/eeprom/eeprom24xx.c **** 				if ( numTrials++ > 5 )
  99:Src/eeprom/eeprom24xx.c **** 				{
 100:Src/eeprom/eeprom24xx.c **** 					return false;
 101:Src/eeprom/eeprom24xx.c **** 				}
 102:Src/eeprom/eeprom24xx.c **** 				continue;
 103:Src/eeprom/eeprom24xx.c **** 			}
ARM GAS  /var/folders/20/cstyxln53wn53rr40gj353bh0000gn/T//cceT7FQ9.s 			page 10


 104:Src/eeprom/eeprom24xx.c **** 			counter += diff;
 105:Src/eeprom/eeprom24xx.c **** 		}
 106:Src/eeprom/eeprom24xx.c **** 		HAL_Delay( 2 );
 355              		.loc 1 106 3 is_stmt 1 view .LVU91
 356 004e 0220     		movs	r0, #2
 357 0050 5C46     		mov	r4, fp
 358              	.LVL24:
 359              		.loc 1 106 3 is_stmt 0 view .LVU92
 360 0052 FFF7FEFF 		bl	HAL_Delay
 361              	.LVL25:
 362 0056 DEE7     		b	.L31
 363              	.LVL26:
 364              	.L32:
  94:Src/eeprom/eeprom24xx.c **** 					Address + counter, I2C_MEMADD_SIZE_8BIT,
 365              		.loc 1 94 9 view .LVU93
 366 0058 CDE90013 		strd	r1, r3, [sp]
 367 005c 0290     		str	r0, [sp, #8]
 368 005e 0123     		movs	r3, #1
 369              	.LVL27:
  94:Src/eeprom/eeprom24xx.c **** 					Address + counter, I2C_MEMADD_SIZE_8BIT,
 370              		.loc 1 94 9 view .LVU94
 371 0060 A021     		movs	r1, #160
 372 0062 5046     		mov	r0, r10
 373 0064 FFF7FEFF 		bl	HAL_I2C_Mem_Read
 374              	.LVL28:
  98:Src/eeprom/eeprom24xx.c **** 				{
 375              		.loc 1 98 5 is_stmt 1 view .LVU95
  94:Src/eeprom/eeprom24xx.c **** 					Address + counter, I2C_MEMADD_SIZE_8BIT,
 376              		.loc 1 94 7 is_stmt 0 view .LVU96
 377 0068 0028     		cmp	r0, #0
 378 006a F0D0     		beq	.L37
 379              	.LVL29:
 380              	.L45:
  98:Src/eeprom/eeprom24xx.c **** 				{
 381              		.loc 1 98 8 view .LVU97
 382 006c 052E     		cmp	r6, #5
  98:Src/eeprom/eeprom24xx.c **** 				{
 383              		.loc 1 98 19 view .LVU98
 384 006e 06F10106 		add	r6, r6, #1
  98:Src/eeprom/eeprom24xx.c **** 				{
 385              		.loc 1 98 8 view .LVU99
 386 0072 01D8     		bhi	.L34
  98:Src/eeprom/eeprom24xx.c **** 				{
 387              		.loc 1 98 19 view .LVU100
 388 0074 F6B2     		uxtb	r6, r6
 389 0076 CEE7     		b	.L31
 390              	.L34:
  85:Src/eeprom/eeprom24xx.c **** 				}
 391              		.loc 1 85 13 view .LVU101
 392 0078 0020     		movs	r0, #0
 393              	.LBE9:
 107:Src/eeprom/eeprom24xx.c **** 	}
 108:Src/eeprom/eeprom24xx.c **** 
 109:Src/eeprom/eeprom24xx.c **** 	return true;
 110:Src/eeprom/eeprom24xx.c **** }
 394              		.loc 1 110 1 view .LVU102
 395 007a 05B0     		add	sp, sp, #20
ARM GAS  /var/folders/20/cstyxln53wn53rr40gj353bh0000gn/T//cceT7FQ9.s 			page 11


 396              	.LCFI8:
 397              		.cfi_remember_state
 398              		.cfi_def_cfa_offset 36
 399              		@ sp needed
 400 007c BDE8F08F 		pop	{r4, r5, r6, r7, r8, r9, r10, fp, pc}
 401              	.LVL30:
 402              	.L46:
 403              	.LCFI9:
 404              		.cfi_restore_state
 109:Src/eeprom/eeprom24xx.c **** }
 405              		.loc 1 109 9 view .LVU103
 406 0080 0120     		movs	r0, #1
 407              		.loc 1 110 1 view .LVU104
 408 0082 05B0     		add	sp, sp, #20
 409              	.LCFI10:
 410              		.cfi_def_cfa_offset 36
 411              		@ sp needed
 412 0084 BDE8F08F 		pop	{r4, r5, r6, r7, r8, r9, r10, fp, pc}
 413              	.LVL31:
 414              	.L48:
 415              		.loc 1 110 1 view .LVU105
 416              		.align	2
 417              	.L47:
 418 0088 00000000 		.word	hi2c2
 419              		.cfi_endproc
 420              	.LFE67:
 422              		.text
 423              	.Letext0:
 424              		.file 2 "/usr/local/gcc-arm-none-eabi-8-2019-q3-update/arm-none-eabi/include/machine/_default_type
 425              		.file 3 "/usr/local/gcc-arm-none-eabi-8-2019-q3-update/arm-none-eabi/include/sys/_stdint.h"
 426              		.file 4 "Drivers/CMSIS/Include/core_cm3.h"
 427              		.file 5 "Drivers/CMSIS/Device/ST/STM32F1xx/Include/system_stm32f1xx.h"
 428              		.file 6 "Drivers/CMSIS/Device/ST/STM32F1xx/Include/stm32f103xb.h"
 429              		.file 7 "/usr/local/gcc-arm-none-eabi-8-2019-q3-update/lib/gcc/arm-none-eabi/8.3.1/include/stddef.
 430              		.file 8 "Drivers/STM32F1xx_HAL_Driver/Inc/stm32f1xx_hal_def.h"
 431              		.file 9 "Drivers/STM32F1xx_HAL_Driver/Inc/stm32f1xx_hal_dma.h"
 432              		.file 10 "Drivers/STM32F1xx_HAL_Driver/Inc/stm32f1xx_hal_i2c.h"
 433              		.file 11 "Drivers/STM32F1xx_HAL_Driver/Inc/stm32f1xx_hal.h"
ARM GAS  /var/folders/20/cstyxln53wn53rr40gj353bh0000gn/T//cceT7FQ9.s 			page 12

