ARM GAS  /var/folders/20/cstyxln53wn53rr40gj353bh0000gn/T//ccP2nhox.s 			page 1


   1              		.cpu cortex-m3
   2              		.eabi_attribute 20, 1
   3              		.eabi_attribute 21, 1
   4              		.eabi_attribute 23, 3
   5              		.eabi_attribute 24, 1
   6              		.eabi_attribute 25, 1
   7              		.eabi_attribute 26, 1
   8              		.eabi_attribute 30, 2
   9              		.eabi_attribute 34, 1
  10              		.eabi_attribute 18, 4
  11              		.file	"GUISetupView.cpp"
  12              		.text
  13              	.Ltext0:
  14              		.cfi_sections	.debug_frame
  15              		.section	.text._ZN3VFO11GradientBoxD0Ev,"axG",%progbits,_ZN3VFO11GradientBoxD5Ev,comdat
  16              		.align	1
  17              		.p2align 2,,3
  18              		.weak	_ZN3VFO11GradientBoxD0Ev
  19              		.arch armv7-m
  20              		.syntax unified
  21              		.thumb
  22              		.thumb_func
  23              		.fpu softvfp
  25              	_ZN3VFO11GradientBoxD0Ev:
  26              		.fnstart
  27              	.LVL0:
  28              	.LFB90:
  29              		.file 1 "Src/VFO/GUI/Background.h"
   1:Src/VFO/GUI/Background.h **** /*
   2:Src/VFO/GUI/Background.h ****  * Background.h
   3:Src/VFO/GUI/Background.h ****  *
   4:Src/VFO/GUI/Background.h ****  *  Created on: Apr 8, 2018
   5:Src/VFO/GUI/Background.h ****  *      Author: lymes
   6:Src/VFO/GUI/Background.h ****  */
   7:Src/VFO/GUI/Background.h **** 
   8:Src/VFO/GUI/Background.h **** #ifndef BACKGROUND_H_
   9:Src/VFO/GUI/Background.h **** #define BACKGROUND_H_
  10:Src/VFO/GUI/Background.h **** 
  11:Src/VFO/GUI/Background.h **** #include "stm32f1xx_hal.h"
  12:Src/VFO/GUI/Background.h **** #include <stdlib.h>
  13:Src/VFO/GUI/Background.h **** 
  14:Src/VFO/GUI/Background.h **** #include "Bitmap.h"
  15:Src/VFO/GUI/Background.h **** 
  16:Src/VFO/GUI/Background.h **** namespace VFO
  17:Src/VFO/GUI/Background.h **** {
  18:Src/VFO/GUI/Background.h **** 
  19:Src/VFO/GUI/Background.h **** struct RGB
  20:Src/VFO/GUI/Background.h **** {
  21:Src/VFO/GUI/Background.h **** 	uint8_t r, g, b;
  22:Src/VFO/GUI/Background.h **** };
  23:Src/VFO/GUI/Background.h **** 
  24:Src/VFO/GUI/Background.h **** class Background
  25:Src/VFO/GUI/Background.h **** {
  26:Src/VFO/GUI/Background.h **** 
  27:Src/VFO/GUI/Background.h **** 	uint16_t _backColor;
  28:Src/VFO/GUI/Background.h **** 
  29:Src/VFO/GUI/Background.h **** public:
ARM GAS  /var/folders/20/cstyxln53wn53rr40gj353bh0000gn/T//ccP2nhox.s 			page 2


  30:Src/VFO/GUI/Background.h **** 	Background()
  31:Src/VFO/GUI/Background.h **** 	{
  32:Src/VFO/GUI/Background.h **** 		_backColor = 0;
  33:Src/VFO/GUI/Background.h **** 	}
  34:Src/VFO/GUI/Background.h **** 	Background(uint16_t c)
  35:Src/VFO/GUI/Background.h **** 	{
  36:Src/VFO/GUI/Background.h **** 		_backColor = c;
  37:Src/VFO/GUI/Background.h **** 	}
  38:Src/VFO/GUI/Background.h **** 
  39:Src/VFO/GUI/Background.h **** 	virtual ~Background()
  40:Src/VFO/GUI/Background.h **** 	{
  41:Src/VFO/GUI/Background.h **** 	}
  42:Src/VFO/GUI/Background.h **** 
  43:Src/VFO/GUI/Background.h **** 	virtual uint16_t getBackColor(uint8_t x, uint8_t y)
  44:Src/VFO/GUI/Background.h **** 	{
  45:Src/VFO/GUI/Background.h **** 		return _backColor;
  46:Src/VFO/GUI/Background.h **** 	}
  47:Src/VFO/GUI/Background.h **** 
  48:Src/VFO/GUI/Background.h **** };
  49:Src/VFO/GUI/Background.h **** 
  50:Src/VFO/GUI/Background.h **** class BitmapBox: public Background
  51:Src/VFO/GUI/Background.h **** {
  52:Src/VFO/GUI/Background.h **** 	Bitmap *_data;
  53:Src/VFO/GUI/Background.h **** 	uint8_t _x, _y;
  54:Src/VFO/GUI/Background.h **** 
  55:Src/VFO/GUI/Background.h **** public:
  56:Src/VFO/GUI/Background.h **** 	BitmapBox(uint8_t x, uint8_t y, Bitmap *bitmap);
  57:Src/VFO/GUI/Background.h **** 	virtual ~BitmapBox()
  58:Src/VFO/GUI/Background.h **** 	{
  59:Src/VFO/GUI/Background.h **** 	}
  60:Src/VFO/GUI/Background.h **** 
  61:Src/VFO/GUI/Background.h **** 	virtual uint16_t getBackColor(uint8_t x, uint8_t y);
  62:Src/VFO/GUI/Background.h **** 
  63:Src/VFO/GUI/Background.h **** 	void draw();
  64:Src/VFO/GUI/Background.h **** };
  65:Src/VFO/GUI/Background.h **** 
  66:Src/VFO/GUI/Background.h **** class GradientBox: public Background
  67:Src/VFO/GUI/Background.h **** {
  68:Src/VFO/GUI/Background.h **** 
  69:Src/VFO/GUI/Background.h **** public:
  70:Src/VFO/GUI/Background.h **** 	RGB upLeft    = { 0, 40, 80 };
  71:Src/VFO/GUI/Background.h **** 	RGB upRight   = { 140, 10, 10 };
  72:Src/VFO/GUI/Background.h **** 	RGB downLeft  = { 140, 128, 0 };
  73:Src/VFO/GUI/Background.h **** 	RGB downRight = { 0, 128, 140 };
  74:Src/VFO/GUI/Background.h **** 
  75:Src/VFO/GUI/Background.h **** 	GradientBox(uint8_t x, uint8_t y, uint8_t w, uint8_t h);
  76:Src/VFO/GUI/Background.h **** 	virtual ~GradientBox()
  30              		.loc 1 76 10 view -0
  31              		.cfi_startproc
  32              		@ args = 0, pretend = 0, frame = 0
  33              		@ frame_needed = 0, uses_anonymous_args = 0
  34              		.loc 1 76 10 is_stmt 0 view .LVU1
  35 0000 10B5     		push	{r4, lr}
  36              	.LCFI0:
  37              		.cfi_def_cfa_offset 8
  38              		.cfi_offset 4, -8
  39              		.cfi_offset 14, -4
ARM GAS  /var/folders/20/cstyxln53wn53rr40gj353bh0000gn/T//ccP2nhox.s 			page 3


  40              		.loc 1 76 10 view .LVU2
  41 0002 0446     		mov	r4, r0
  42              	.LVL1:
  43              	.LBB26:
  44              	.LBI26:
  45              		.loc 1 76 10 is_stmt 1 view .LVU3
  46              	.LBB27:
  47              	.LBI27:
  39:Src/VFO/GUI/Background.h **** 	{
  48              		.loc 1 39 10 view .LVU4
  39:Src/VFO/GUI/Background.h **** 	{
  49              		.loc 1 39 10 is_stmt 0 view .LVU5
  50              	.LBE27:
  51              	.LBE26:
  77:Src/VFO/GUI/Background.h **** 	{
  78:Src/VFO/GUI/Background.h **** 	}
  52              		.loc 1 78 2 view .LVU6
  53 0004 1821     		movs	r1, #24
  54 0006 FFF7FEFF 		bl	_ZdlPvj
  55              	.LVL2:
  56              		.loc 1 78 2 view .LVU7
  57 000a 2046     		mov	r0, r4
  58 000c 10BD     		pop	{r4, pc}
  59              		.loc 1 78 2 view .LVU8
  60              		.cfi_endproc
  61              	.LFE90:
  62              		.cantunwind
  63              		.fnend
  65 000e 00BF     		.section	.text._ZN3VFO12GUISetupViewD2Ev,"ax",%progbits
  66              		.align	1
  67              		.p2align 2,,3
  68              		.global	_ZN3VFO12GUISetupViewD2Ev
  69              		.syntax unified
  70              		.thumb
  71              		.thumb_func
  72              		.fpu softvfp
  74              	_ZN3VFO12GUISetupViewD2Ev:
  75              		.fnstart
  76              	.LVL3:
  77              	.LFB126:
  78              		.file 2 "Src/VFO/GUISetupView.cpp"
   1:Src/VFO/GUISetupView.cpp **** /*
   2:Src/VFO/GUISetupView.cpp ****  * GUISetupView.cpp
   3:Src/VFO/GUISetupView.cpp ****  *
   4:Src/VFO/GUISetupView.cpp ****  *  Created on: Apr 6, 2018
   5:Src/VFO/GUISetupView.cpp ****  *      Author: lymes
   6:Src/VFO/GUISetupView.cpp ****  */
   7:Src/VFO/GUISetupView.cpp **** 
   8:Src/VFO/GUISetupView.cpp **** #include "GUISetupView.h"
   9:Src/VFO/GUISetupView.cpp **** #include "ConfigHelpers.h"
  10:Src/VFO/GUISetupView.cpp **** 
  11:Src/VFO/GUISetupView.cpp **** #include "GUI/Utils.h"
  12:Src/VFO/GUISetupView.cpp **** 
  13:Src/VFO/GUISetupView.cpp **** namespace VFO
  14:Src/VFO/GUISetupView.cpp **** {
  15:Src/VFO/GUISetupView.cpp **** 
  16:Src/VFO/GUISetupView.cpp **** const struct SetupItem menu =
ARM GAS  /var/folders/20/cstyxln53wn53rr40gj353bh0000gn/T//ccP2nhox.s 			page 4


  17:Src/VFO/GUISetupView.cpp **** {
  18:Src/VFO/GUISetupView.cpp **** 	"Установки",
  19:Src/VFO/GUISetupView.cpp **** 	NULL,
  20:Src/VFO/GUISetupView.cpp **** 	NULL,
  21:Src/VFO/GUISetupView.cpp **** 	NULL,
  22:Src/VFO/GUISetupView.cpp **** 	4,
  23:Src/VFO/GUISetupView.cpp **** 	(struct SetupItem[])
  24:Src/VFO/GUISetupView.cpp **** 	{
  25:Src/VFO/GUISetupView.cpp **** 		{
  26:Src/VFO/GUISetupView.cpp **** 			"Калибровка",
  27:Src/VFO/GUISetupView.cpp **** 			_getCalibration,
  28:Src/VFO/GUISetupView.cpp **** 			_setCalibration,
  29:Src/VFO/GUISetupView.cpp **** 			NULL,
  30:Src/VFO/GUISetupView.cpp **** 			0,
  31:Src/VFO/GUISetupView.cpp **** 			NULL
  32:Src/VFO/GUISetupView.cpp **** 		},
  33:Src/VFO/GUISetupView.cpp **** 		{
  34:Src/VFO/GUISetupView.cpp **** 			"Промежуточная",
  35:Src/VFO/GUISetupView.cpp **** 			_getIFrequency,
  36:Src/VFO/GUISetupView.cpp **** 			_setIFrequency,
  37:Src/VFO/GUISetupView.cpp **** 			NULL,
  38:Src/VFO/GUISetupView.cpp **** 			0,
  39:Src/VFO/GUISetupView.cpp **** 			NULL
  40:Src/VFO/GUISetupView.cpp **** 		},
  41:Src/VFO/GUISetupView.cpp **** 		{
  42:Src/VFO/GUISetupView.cpp **** 			"Опорная",
  43:Src/VFO/GUISetupView.cpp **** 			_getBFrequency,
  44:Src/VFO/GUISetupView.cpp **** 			_setBFrequency,
  45:Src/VFO/GUISetupView.cpp **** 			NULL,
  46:Src/VFO/GUISetupView.cpp **** 			0,
  47:Src/VFO/GUISetupView.cpp **** 			NULL
  48:Src/VFO/GUISetupView.cpp **** 		},
  49:Src/VFO/GUISetupView.cpp **** 		{
  50:Src/VFO/GUISetupView.cpp **** 			"Разное",
  51:Src/VFO/GUISetupView.cpp **** 			NULL,
  52:Src/VFO/GUISetupView.cpp **** 			NULL,
  53:Src/VFO/GUISetupView.cpp **** 			NULL,
  54:Src/VFO/GUISetupView.cpp **** 			3,
  55:Src/VFO/GUISetupView.cpp **** 			(struct SetupItem[])
  56:Src/VFO/GUISetupView.cpp **** 			{
  57:Src/VFO/GUISetupView.cpp **** 				{
  58:Src/VFO/GUISetupView.cpp **** 					"Яркость экрана",
  59:Src/VFO/GUISetupView.cpp **** 					_getBrightness,
  60:Src/VFO/GUISetupView.cpp **** 					_setBrightness,
  61:Src/VFO/GUISetupView.cpp **** 					NULL,
  62:Src/VFO/GUISetupView.cpp **** 					0,
  63:Src/VFO/GUISetupView.cpp **** 					NULL
  64:Src/VFO/GUISetupView.cpp **** 				},
  65:Src/VFO/GUISetupView.cpp **** 				{
  66:Src/VFO/GUISetupView.cpp **** 					"Энкодер",
  67:Src/VFO/GUISetupView.cpp **** 					_getEncoder,
  68:Src/VFO/GUISetupView.cpp **** 					_setEncoder,
  69:Src/VFO/GUISetupView.cpp **** 					NULL,
  70:Src/VFO/GUISetupView.cpp **** 					0,
  71:Src/VFO/GUISetupView.cpp **** 					NULL
  72:Src/VFO/GUISetupView.cpp **** 				},
  73:Src/VFO/GUISetupView.cpp **** 				{
ARM GAS  /var/folders/20/cstyxln53wn53rr40gj353bh0000gn/T//ccP2nhox.s 			page 5


  74:Src/VFO/GUISetupView.cpp **** 					"Сброс настроек",
  75:Src/VFO/GUISetupView.cpp **** 					NULL,
  76:Src/VFO/GUISetupView.cpp **** 					NULL,
  77:Src/VFO/GUISetupView.cpp **** 					_resetConfig,
  78:Src/VFO/GUISetupView.cpp **** 					0,
  79:Src/VFO/GUISetupView.cpp **** 					NULL
  80:Src/VFO/GUISetupView.cpp **** 				}
  81:Src/VFO/GUISetupView.cpp **** 			}
  82:Src/VFO/GUISetupView.cpp **** 		}
  83:Src/VFO/GUISetupView.cpp **** 	}
  84:Src/VFO/GUISetupView.cpp **** };
  85:Src/VFO/GUISetupView.cpp **** 
  86:Src/VFO/GUISetupView.cpp **** 
  87:Src/VFO/GUISetupView.cpp **** 
  88:Src/VFO/GUISetupView.cpp **** GUISetupView::GUISetupView()
  89:Src/VFO/GUISetupView.cpp **** {
  90:Src/VFO/GUISetupView.cpp **** 	_parent = NULL;
  91:Src/VFO/GUISetupView.cpp **** 	_currentItem = &menu;
  92:Src/VFO/GUISetupView.cpp **** 	_selectedChild = NULL;
  93:Src/VFO/GUISetupView.cpp **** 	init();
  94:Src/VFO/GUISetupView.cpp **** }
  95:Src/VFO/GUISetupView.cpp **** 
  96:Src/VFO/GUISetupView.cpp **** GUISetupView::GUISetupView(SetupItem *item, GUISetupView *parent)
  97:Src/VFO/GUISetupView.cpp **** {
  98:Src/VFO/GUISetupView.cpp **** 	_parent = parent;
  99:Src/VFO/GUISetupView.cpp **** 	_currentItem = item;
 100:Src/VFO/GUISetupView.cpp **** 	_selectedChild = NULL;
 101:Src/VFO/GUISetupView.cpp **** 	init();
 102:Src/VFO/GUISetupView.cpp **** }
 103:Src/VFO/GUISetupView.cpp **** 
 104:Src/VFO/GUISetupView.cpp **** void GUISetupView::init()
 105:Src/VFO/GUISetupView.cpp **** {
 106:Src/VFO/GUISetupView.cpp **** 	_window = new GradientBox(0, 0, 160, 128);
 107:Src/VFO/GUISetupView.cpp **** 	_window->downLeft  = { 200, 10, 20 };
 108:Src/VFO/GUISetupView.cpp **** 	_window->downRight = { 150, 0, 200 };
 109:Src/VFO/GUISetupView.cpp **** 	_window->upLeft    = { 60, 0, 40 };
 110:Src/VFO/GUISetupView.cpp **** 	_window->upRight   = { 200, 160, 20 };
 111:Src/VFO/GUISetupView.cpp **** 
 112:Src/VFO/GUISetupView.cpp **** 	_header = new GradientBox(2, 2, 156, 25);
 113:Src/VFO/GUISetupView.cpp **** 	_header->downLeft  = { 10, 10, 10 };
 114:Src/VFO/GUISetupView.cpp **** 	_header->downRight = { 10, 10, 10 };
 115:Src/VFO/GUISetupView.cpp **** 	_header->upLeft    = { 100, 100, 100 };
 116:Src/VFO/GUISetupView.cpp **** 	_header->upRight   = { 100, 100, 100};
 117:Src/VFO/GUISetupView.cpp **** 
 118:Src/VFO/GUISetupView.cpp **** 	_selection = new GradientBox(2, 2, 156, 15);
 119:Src/VFO/GUISetupView.cpp **** 	_selection->upLeft  = { 10, 160, 10 };
 120:Src/VFO/GUISetupView.cpp **** 	_selection->upRight = { 10, 160, 10 };
 121:Src/VFO/GUISetupView.cpp **** 	_selection->downLeft  = { 10, 10, 100 };
 122:Src/VFO/GUISetupView.cpp **** 	_selection->downRight = { 10, 10, 100 };
 123:Src/VFO/GUISetupView.cpp **** 
 124:Src/VFO/GUISetupView.cpp **** 	_btnBack = new GradientBox(6, 105, 60, 20);
 125:Src/VFO/GUISetupView.cpp **** 	_btnBack->downLeft  = { 10, 10, 10 };
 126:Src/VFO/GUISetupView.cpp **** 	_btnBack->downRight = { 10, 10, 10 };
 127:Src/VFO/GUISetupView.cpp **** 	_btnBack->upLeft    = { 100, 100, 100 };
 128:Src/VFO/GUISetupView.cpp **** 	_btnBack->upRight   = { 100, 100, 100};
 129:Src/VFO/GUISetupView.cpp **** }
 130:Src/VFO/GUISetupView.cpp **** 
ARM GAS  /var/folders/20/cstyxln53wn53rr40gj353bh0000gn/T//ccP2nhox.s 			page 6


 131:Src/VFO/GUISetupView.cpp **** GUISetupView::~GUISetupView()
  79              		.loc 2 131 1 is_stmt 1 view -0
  80              		.cfi_startproc
  81              		@ args = 0, pretend = 0, frame = 0
  82              		@ frame_needed = 0, uses_anonymous_args = 0
  83              		.loc 2 131 1 is_stmt 0 view .LVU10
  84 0000 10B5     		push	{r4, lr}
  85              	.LCFI1:
  86              		.cfi_def_cfa_offset 8
  87              		.cfi_offset 4, -8
  88              		.cfi_offset 14, -4
  89              		.loc 2 131 1 view .LVU11
  90 0002 0446     		mov	r4, r0
  91              	.LBB45:
  92              		.loc 2 131 29 view .LVU12
  93 0004 174B     		ldr	r3, .L21
 132:Src/VFO/GUISetupView.cpp **** {
 133:Src/VFO/GUISetupView.cpp **** 	delete _header;
  94              		.loc 2 133 9 view .LVU13
  95 0006 8068     		ldr	r0, [r0, #8]
  96              	.LVL4:
 131:Src/VFO/GUISetupView.cpp **** {
  97              		.loc 2 131 29 view .LVU14
  98 0008 2360     		str	r3, [r4]
  99              		.loc 2 133 2 is_stmt 1 view .LVU15
 100              		.loc 2 133 16 is_stmt 0 view .LVU16
 101 000a 38B1     		cbz	r0, .L5
 102              		.loc 2 133 9 discriminator 1 view .LVU17
 103 000c 0368     		ldr	r3, [r0]
 104 000e 164A     		ldr	r2, .L21+4
 105 0010 5B68     		ldr	r3, [r3, #4]
 106 0012 9342     		cmp	r3, r2
 107 0014 1BD1     		bne	.L6
 108              	.LVL5:
 109              	.LBB46:
 110              	.LBI46:
  76:Src/VFO/GUI/Background.h **** 	{
 111              		.loc 1 76 10 is_stmt 1 view .LVU18
 112              	.LBB47:
 113              	.LBB48:
 114              	.LBI48:
  76:Src/VFO/GUI/Background.h **** 	{
 115              		.loc 1 76 10 view .LVU19
 116              	.LBB49:
 117              	.LBI49:
  39:Src/VFO/GUI/Background.h **** 	{
 118              		.loc 1 39 10 view .LVU20
  39:Src/VFO/GUI/Background.h **** 	{
 119              		.loc 1 39 10 is_stmt 0 view .LVU21
 120              	.LBE49:
 121              	.LBE48:
 122              		.loc 1 78 2 view .LVU22
 123 0016 1821     		movs	r1, #24
 124 0018 FFF7FEFF 		bl	_ZdlPvj
 125              	.LVL6:
 126              	.L5:
 127              		.loc 1 78 2 view .LVU23
ARM GAS  /var/folders/20/cstyxln53wn53rr40gj353bh0000gn/T//ccP2nhox.s 			page 7


 128              	.LBE47:
 129              	.LBE46:
 134:Src/VFO/GUISetupView.cpp **** 	delete _window;
 130              		.loc 2 134 2 is_stmt 1 view .LVU24
 131              		.loc 2 134 9 is_stmt 0 view .LVU25
 132 001c 6068     		ldr	r0, [r4, #4]
 133              		.loc 2 134 16 view .LVU26
 134 001e 38B1     		cbz	r0, .L7
 135              		.loc 2 134 9 discriminator 1 view .LVU27
 136 0020 0368     		ldr	r3, [r0]
 137 0022 114A     		ldr	r2, .L21+4
 138 0024 5B68     		ldr	r3, [r3, #4]
 139 0026 9342     		cmp	r3, r2
 140 0028 13D1     		bne	.L8
 141              	.LVL7:
 142              	.LBB50:
 143              	.LBI50:
  76:Src/VFO/GUI/Background.h **** 	{
 144              		.loc 1 76 10 is_stmt 1 view .LVU28
 145              	.LBB51:
 146              	.LBB52:
 147              	.LBI52:
  76:Src/VFO/GUI/Background.h **** 	{
 148              		.loc 1 76 10 view .LVU29
 149              	.LBB53:
 150              	.LBI53:
  39:Src/VFO/GUI/Background.h **** 	{
 151              		.loc 1 39 10 view .LVU30
  39:Src/VFO/GUI/Background.h **** 	{
 152              		.loc 1 39 10 is_stmt 0 view .LVU31
 153              	.LBE53:
 154              	.LBE52:
 155              		.loc 1 78 2 view .LVU32
 156 002a 1821     		movs	r1, #24
 157 002c FFF7FEFF 		bl	_ZdlPvj
 158              	.LVL8:
 159              	.L7:
 160              		.loc 1 78 2 view .LVU33
 161              	.LBE51:
 162              	.LBE50:
 135:Src/VFO/GUISetupView.cpp **** 	delete _btnBack;
 163              		.loc 2 135 2 is_stmt 1 view .LVU34
 164              		.loc 2 135 9 is_stmt 0 view .LVU35
 165 0030 E068     		ldr	r0, [r4, #12]
 166              		.loc 2 135 17 view .LVU36
 167 0032 38B1     		cbz	r0, .L9
 168              		.loc 2 135 9 discriminator 1 view .LVU37
 169 0034 0368     		ldr	r3, [r0]
 170 0036 0C4A     		ldr	r2, .L21+4
 171 0038 5B68     		ldr	r3, [r3, #4]
 172 003a 9342     		cmp	r3, r2
 173 003c 0BD1     		bne	.L10
 174              	.LVL9:
 175              	.LBB54:
 176              	.LBI54:
  76:Src/VFO/GUI/Background.h **** 	{
 177              		.loc 1 76 10 is_stmt 1 view .LVU38
ARM GAS  /var/folders/20/cstyxln53wn53rr40gj353bh0000gn/T//ccP2nhox.s 			page 8


 178              	.LBB55:
 179              	.LBB56:
 180              	.LBI56:
  76:Src/VFO/GUI/Background.h **** 	{
 181              		.loc 1 76 10 view .LVU39
 182              	.LBB57:
 183              	.LBI57:
  39:Src/VFO/GUI/Background.h **** 	{
 184              		.loc 1 39 10 view .LVU40
  39:Src/VFO/GUI/Background.h **** 	{
 185              		.loc 1 39 10 is_stmt 0 view .LVU41
 186              	.LBE57:
 187              	.LBE56:
 188              		.loc 1 78 2 view .LVU42
 189 003e 1821     		movs	r1, #24
 190 0040 FFF7FEFF 		bl	_ZdlPvj
 191              	.LVL10:
 192              	.L9:
 193              		.loc 1 78 2 view .LVU43
 194              	.LBE55:
 195              	.LBE54:
 131:Src/VFO/GUISetupView.cpp **** {
 196              		.loc 2 131 29 view .LVU44
 197 0044 2046     		mov	r0, r4
 198 0046 FFF7FEFF 		bl	_ZN3VFO7GUIViewD2Ev
 199              	.LVL11:
 200              	.LBE45:
 136:Src/VFO/GUISetupView.cpp **** }
 201              		.loc 2 136 1 view .LVU45
 202 004a 2046     		mov	r0, r4
 203 004c 10BD     		pop	{r4, pc}
 204              	.LVL12:
 205              	.L6:
 206              	.LBB58:
 133:Src/VFO/GUISetupView.cpp **** 	delete _window;
 207              		.loc 2 133 9 discriminator 1 view .LVU46
 208 004e 9847     		blx	r3
 209              	.LVL13:
 210 0050 E4E7     		b	.L5
 211              	.L8:
 134:Src/VFO/GUISetupView.cpp **** 	delete _btnBack;
 212              		.loc 2 134 9 discriminator 1 view .LVU47
 213 0052 9847     		blx	r3
 214              	.LVL14:
 215 0054 ECE7     		b	.L7
 216              	.L10:
 135:Src/VFO/GUISetupView.cpp **** }
 217              		.loc 2 135 9 discriminator 1 view .LVU48
 218 0056 9847     		blx	r3
 219              	.LVL15:
 131:Src/VFO/GUISetupView.cpp **** {
 220              		.loc 2 131 29 discriminator 1 view .LVU49
 221 0058 2046     		mov	r0, r4
 222 005a FFF7FEFF 		bl	_ZN3VFO7GUIViewD2Ev
 223              	.LVL16:
 224              	.LBE58:
 225              		.loc 2 136 1 discriminator 1 view .LVU50
ARM GAS  /var/folders/20/cstyxln53wn53rr40gj353bh0000gn/T//ccP2nhox.s 			page 9


 226 005e 2046     		mov	r0, r4
 227 0060 10BD     		pop	{r4, pc}
 228              	.LVL17:
 229              	.L22:
 230              		.loc 2 136 1 discriminator 1 view .LVU51
 231 0062 00BF     		.align	2
 232              	.L21:
 233 0064 08000000 		.word	.LANCHOR0+8
 234 0068 00000000 		.word	_ZN3VFO11GradientBoxD0Ev
 235              		.cfi_endproc
 236              	.LFE126:
 237              		.cantunwind
 238              		.fnend
 240              		.global	_ZN3VFO12GUISetupViewD1Ev
 241              		.thumb_set _ZN3VFO12GUISetupViewD1Ev,_ZN3VFO12GUISetupViewD2Ev
 242              		.section	.text._ZN3VFO12GUISetupViewD0Ev,"ax",%progbits
 243              		.align	1
 244              		.p2align 2,,3
 245              		.global	_ZN3VFO12GUISetupViewD0Ev
 246              		.syntax unified
 247              		.thumb
 248              		.thumb_func
 249              		.fpu softvfp
 251              	_ZN3VFO12GUISetupViewD0Ev:
 252              		.fnstart
 253              	.LVL18:
 254              	.LFB128:
 131:Src/VFO/GUISetupView.cpp **** {
 255              		.loc 2 131 1 is_stmt 1 view -0
 256              		.cfi_startproc
 257              		@ args = 0, pretend = 0, frame = 0
 258              		@ frame_needed = 0, uses_anonymous_args = 0
 131:Src/VFO/GUISetupView.cpp **** {
 259              		.loc 2 131 1 is_stmt 0 view .LVU53
 260 0000 10B5     		push	{r4, lr}
 261              	.LCFI2:
 262              		.cfi_def_cfa_offset 8
 263              		.cfi_offset 4, -8
 264              		.cfi_offset 14, -4
 131:Src/VFO/GUISetupView.cpp **** {
 265              		.loc 2 131 1 view .LVU54
 266 0002 0446     		mov	r4, r0
 267              	.LVL19:
 268              	.LBB77:
 269              	.LBI77:
 131:Src/VFO/GUISetupView.cpp **** {
 270              		.loc 2 131 1 is_stmt 1 view .LVU55
 271              	.LBB78:
 131:Src/VFO/GUISetupView.cpp **** {
 272              		.loc 2 131 29 is_stmt 0 view .LVU56
 273 0004 174B     		ldr	r3, .L40
 133:Src/VFO/GUISetupView.cpp **** 	delete _window;
 274              		.loc 2 133 9 view .LVU57
 275 0006 8068     		ldr	r0, [r0, #8]
 276              	.LVL20:
 131:Src/VFO/GUISetupView.cpp **** {
 277              		.loc 2 131 29 view .LVU58
ARM GAS  /var/folders/20/cstyxln53wn53rr40gj353bh0000gn/T//ccP2nhox.s 			page 10


 278 0008 2360     		str	r3, [r4]
 133:Src/VFO/GUISetupView.cpp **** 	delete _window;
 279              		.loc 2 133 2 is_stmt 1 view .LVU59
 133:Src/VFO/GUISetupView.cpp **** 	delete _window;
 280              		.loc 2 133 16 is_stmt 0 view .LVU60
 281 000a 38B1     		cbz	r0, .L24
 133:Src/VFO/GUISetupView.cpp **** 	delete _window;
 282              		.loc 2 133 9 view .LVU61
 283 000c 0368     		ldr	r3, [r0]
 284 000e 164A     		ldr	r2, .L40+4
 285 0010 5B68     		ldr	r3, [r3, #4]
 286 0012 9342     		cmp	r3, r2
 287 0014 1FD1     		bne	.L25
 288              	.LVL21:
 289              	.LBB79:
 290              	.LBI79:
  76:Src/VFO/GUI/Background.h **** 	{
 291              		.loc 1 76 10 is_stmt 1 view .LVU62
 292              	.LBB80:
 293              	.LBB81:
 294              	.LBI81:
  76:Src/VFO/GUI/Background.h **** 	{
 295              		.loc 1 76 10 view .LVU63
 296              	.LBB82:
 297              	.LBI82:
  39:Src/VFO/GUI/Background.h **** 	{
 298              		.loc 1 39 10 view .LVU64
  39:Src/VFO/GUI/Background.h **** 	{
 299              		.loc 1 39 10 is_stmt 0 view .LVU65
 300              	.LBE82:
 301              	.LBE81:
 302              		.loc 1 78 2 view .LVU66
 303 0016 1821     		movs	r1, #24
 304 0018 FFF7FEFF 		bl	_ZdlPvj
 305              	.LVL22:
 306              	.L24:
 307              		.loc 1 78 2 view .LVU67
 308              	.LBE80:
 309              	.LBE79:
 134:Src/VFO/GUISetupView.cpp **** 	delete _btnBack;
 310              		.loc 2 134 2 is_stmt 1 view .LVU68
 134:Src/VFO/GUISetupView.cpp **** 	delete _btnBack;
 311              		.loc 2 134 9 is_stmt 0 view .LVU69
 312 001c 6068     		ldr	r0, [r4, #4]
 134:Src/VFO/GUISetupView.cpp **** 	delete _btnBack;
 313              		.loc 2 134 16 view .LVU70
 314 001e 38B1     		cbz	r0, .L26
 134:Src/VFO/GUISetupView.cpp **** 	delete _btnBack;
 315              		.loc 2 134 9 view .LVU71
 316 0020 0368     		ldr	r3, [r0]
 317 0022 114A     		ldr	r2, .L40+4
 318 0024 5B68     		ldr	r3, [r3, #4]
 319 0026 9342     		cmp	r3, r2
 320 0028 17D1     		bne	.L27
 321              	.LVL23:
 322              	.LBB83:
 323              	.LBI83:
ARM GAS  /var/folders/20/cstyxln53wn53rr40gj353bh0000gn/T//ccP2nhox.s 			page 11


  76:Src/VFO/GUI/Background.h **** 	{
 324              		.loc 1 76 10 is_stmt 1 view .LVU72
 325              	.LBB84:
 326              	.LBB85:
 327              	.LBI85:
  76:Src/VFO/GUI/Background.h **** 	{
 328              		.loc 1 76 10 view .LVU73
 329              	.LBB86:
 330              	.LBI86:
  39:Src/VFO/GUI/Background.h **** 	{
 331              		.loc 1 39 10 view .LVU74
  39:Src/VFO/GUI/Background.h **** 	{
 332              		.loc 1 39 10 is_stmt 0 view .LVU75
 333              	.LBE86:
 334              	.LBE85:
 335              		.loc 1 78 2 view .LVU76
 336 002a 1821     		movs	r1, #24
 337 002c FFF7FEFF 		bl	_ZdlPvj
 338              	.LVL24:
 339              	.L26:
 340              		.loc 1 78 2 view .LVU77
 341              	.LBE84:
 342              	.LBE83:
 135:Src/VFO/GUISetupView.cpp **** }
 343              		.loc 2 135 2 is_stmt 1 view .LVU78
 135:Src/VFO/GUISetupView.cpp **** }
 344              		.loc 2 135 9 is_stmt 0 view .LVU79
 345 0030 E068     		ldr	r0, [r4, #12]
 135:Src/VFO/GUISetupView.cpp **** }
 346              		.loc 2 135 17 view .LVU80
 347 0032 38B1     		cbz	r0, .L28
 135:Src/VFO/GUISetupView.cpp **** }
 348              		.loc 2 135 9 view .LVU81
 349 0034 0368     		ldr	r3, [r0]
 350 0036 0C4A     		ldr	r2, .L40+4
 351 0038 5B68     		ldr	r3, [r3, #4]
 352 003a 9342     		cmp	r3, r2
 353 003c 0FD1     		bne	.L29
 354              	.LVL25:
 355              	.LBB87:
 356              	.LBI87:
  76:Src/VFO/GUI/Background.h **** 	{
 357              		.loc 1 76 10 is_stmt 1 view .LVU82
 358              	.LBB88:
 359              	.LBB89:
 360              	.LBI89:
  76:Src/VFO/GUI/Background.h **** 	{
 361              		.loc 1 76 10 view .LVU83
 362              	.LBB90:
 363              	.LBI90:
  39:Src/VFO/GUI/Background.h **** 	{
 364              		.loc 1 39 10 view .LVU84
  39:Src/VFO/GUI/Background.h **** 	{
 365              		.loc 1 39 10 is_stmt 0 view .LVU85
 366              	.LBE90:
 367              	.LBE89:
 368              		.loc 1 78 2 view .LVU86
ARM GAS  /var/folders/20/cstyxln53wn53rr40gj353bh0000gn/T//ccP2nhox.s 			page 12


 369 003e 1821     		movs	r1, #24
 370 0040 FFF7FEFF 		bl	_ZdlPvj
 371              	.LVL26:
 372              	.L28:
 373              		.loc 1 78 2 view .LVU87
 374              	.LBE88:
 375              	.LBE87:
 131:Src/VFO/GUISetupView.cpp **** {
 376              		.loc 2 131 29 view .LVU88
 377 0044 2046     		mov	r0, r4
 378 0046 FFF7FEFF 		bl	_ZN3VFO7GUIViewD2Ev
 379              	.LVL27:
 131:Src/VFO/GUISetupView.cpp **** {
 380              		.loc 2 131 29 view .LVU89
 381              	.LBE78:
 382              	.LBE77:
 383              		.loc 2 136 1 view .LVU90
 384 004a 2046     		mov	r0, r4
 385 004c 2821     		movs	r1, #40
 386 004e FFF7FEFF 		bl	_ZdlPvj
 387              	.LVL28:
 388 0052 2046     		mov	r0, r4
 389 0054 10BD     		pop	{r4, pc}
 390              	.LVL29:
 391              	.L25:
 392              	.LBB92:
 393              	.LBB91:
 133:Src/VFO/GUISetupView.cpp **** 	delete _window;
 394              		.loc 2 133 9 view .LVU91
 395 0056 9847     		blx	r3
 396              	.LVL30:
 397 0058 E0E7     		b	.L24
 398              	.L27:
 134:Src/VFO/GUISetupView.cpp **** 	delete _btnBack;
 399              		.loc 2 134 9 view .LVU92
 400 005a 9847     		blx	r3
 401              	.LVL31:
 402 005c E8E7     		b	.L26
 403              	.L29:
 135:Src/VFO/GUISetupView.cpp **** }
 404              		.loc 2 135 9 view .LVU93
 405 005e 9847     		blx	r3
 406              	.LVL32:
 407 0060 F0E7     		b	.L28
 408              	.L41:
 409 0062 00BF     		.align	2
 410              	.L40:
 411 0064 08000000 		.word	.LANCHOR0+8
 412 0068 00000000 		.word	_ZN3VFO11GradientBoxD0Ev
 413              	.LBE91:
 414              	.LBE92:
 415              		.cfi_endproc
 416              	.LFE128:
 417              		.cantunwind
 418              		.fnend
 420              		.section	.text._ZN3VFO11GradientBoxD2Ev,"axG",%progbits,_ZN3VFO11GradientBoxD5Ev,comdat
 421              		.align	1
ARM GAS  /var/folders/20/cstyxln53wn53rr40gj353bh0000gn/T//ccP2nhox.s 			page 13


 422              		.p2align 2,,3
 423              		.weak	_ZN3VFO11GradientBoxD2Ev
 424              		.syntax unified
 425              		.thumb
 426              		.thumb_func
 427              		.fpu softvfp
 429              	_ZN3VFO11GradientBoxD2Ev:
 430              		.fnstart
 431              	.LVL33:
 432              	.LFB88:
  76:Src/VFO/GUI/Background.h **** 	{
 433              		.loc 1 76 10 is_stmt 1 view -0
 434              		.cfi_startproc
 435              		@ args = 0, pretend = 0, frame = 0
 436              		@ frame_needed = 0, uses_anonymous_args = 0
 437              		@ link register save eliminated.
 438              	.LBB93:
 439              	.LBI93:
  39:Src/VFO/GUI/Background.h **** 	{
 440              		.loc 1 39 10 view .LVU95
  39:Src/VFO/GUI/Background.h **** 	{
 441              		.loc 1 39 10 is_stmt 0 view .LVU96
 442              	.LBE93:
 443              		.loc 1 78 2 view .LVU97
 444 0000 7047     		bx	lr
 445              		.cfi_endproc
 446              	.LFE88:
 447              		.cantunwind
 448              		.fnend
 450              		.weak	_ZN3VFO11GradientBoxD1Ev
 451              		.thumb_set _ZN3VFO11GradientBoxD1Ev,_ZN3VFO11GradientBoxD2Ev
 452 0002 00BF     		.section	.text._ZN3VFO12GUISetupView4initEv,"ax",%progbits
 453              		.align	1
 454              		.p2align 2,,3
 455              		.global	_ZN3VFO12GUISetupView4initEv
 456              		.syntax unified
 457              		.thumb
 458              		.thumb_func
 459              		.fpu softvfp
 461              	_ZN3VFO12GUISetupView4initEv:
 462              		.fnstart
 463              	.LVL34:
 464              	.LFB124:
 105:Src/VFO/GUISetupView.cpp **** 	_window = new GradientBox(0, 0, 160, 128);
 465              		.loc 2 105 1 is_stmt 1 view -0
 466              		.cfi_startproc
 467              		@ args = 0, pretend = 0, frame = 0
 468              		@ frame_needed = 0, uses_anonymous_args = 0
 106:Src/VFO/GUISetupView.cpp **** 	_window->downLeft  = { 200, 10, 20 };
 469              		.loc 2 106 2 view .LVU99
 105:Src/VFO/GUISetupView.cpp **** 	_window = new GradientBox(0, 0, 160, 128);
 470              		.loc 2 105 1 is_stmt 0 view .LVU100
 471 0000 2DE9F041 		push	{r4, r5, r6, r7, r8, lr}
 472              		.save {r4, r5, r6, r7, r8, lr}
 473              	.LCFI3:
 474              		.cfi_def_cfa_offset 24
 475              		.cfi_offset 4, -24
ARM GAS  /var/folders/20/cstyxln53wn53rr40gj353bh0000gn/T//ccP2nhox.s 			page 14


 476              		.cfi_offset 5, -20
 477              		.cfi_offset 6, -16
 478              		.cfi_offset 7, -12
 479              		.cfi_offset 8, -8
 480              		.cfi_offset 14, -4
 481 0004 8046     		mov	r8, r0
 482              		.pad #8
 483 0006 82B0     		sub	sp, sp, #8
 484              	.LCFI4:
 485              		.cfi_def_cfa_offset 32
 106:Src/VFO/GUISetupView.cpp **** 	_window->downLeft  = { 200, 10, 20 };
 486              		.loc 2 106 42 view .LVU101
 487 0008 1820     		movs	r0, #24
 488              	.LVL35:
 489              	.LEHB0:
 106:Src/VFO/GUISetupView.cpp **** 	_window->downLeft  = { 200, 10, 20 };
 490              		.loc 2 106 42 view .LVU102
 491 000a FFF7FEFF 		bl	_Znwj
 492              	.LVL36:
 493              	.LEHE0:
 494 000e 8023     		movs	r3, #128
 495 0010 0022     		movs	r2, #0
 496 0012 0093     		str	r3, [sp]
 497 0014 1146     		mov	r1, r2
 498 0016 A023     		movs	r3, #160
 499 0018 0446     		mov	r4, r0
 500              	.LEHB1:
 501 001a FFF7FEFF 		bl	_ZN3VFO11GradientBoxC1Ehhhh
 502              	.LVL37:
 503              	.LEHE1:
 107:Src/VFO/GUISetupView.cpp **** 	_window->downRight = { 150, 0, 200 };
 504              		.loc 2 107 21 discriminator 2 view .LVU103
 505 001e 464D     		ldr	r5, .L55
 106:Src/VFO/GUISetupView.cpp **** 	_window->downLeft  = { 200, 10, 20 };
 506              		.loc 2 106 10 discriminator 2 view .LVU104
 507 0020 C8F80440 		str	r4, [r8, #4]
 107:Src/VFO/GUISetupView.cpp **** 	_window->downRight = { 150, 0, 200 };
 508              		.loc 2 107 2 is_stmt 1 discriminator 2 view .LVU105
 108:Src/VFO/GUISetupView.cpp **** 	_window->upLeft    = { 60, 0, 40 };
 509              		.loc 2 108 21 is_stmt 0 discriminator 2 view .LVU106
 510 0024 2946     		mov	r1, r5
 110:Src/VFO/GUISetupView.cpp **** 
 511              		.loc 2 110 21 discriminator 2 view .LVU107
 512 0026 2B46     		mov	r3, r5
 109:Src/VFO/GUISetupView.cpp **** 	_window->upRight   = { 200, 160, 20 };
 513              		.loc 2 109 21 discriminator 2 view .LVU108
 514 0028 2A46     		mov	r2, r5
 108:Src/VFO/GUISetupView.cpp **** 	_window->upLeft    = { 60, 0, 40 };
 515              		.loc 2 108 21 discriminator 2 view .LVU109
 516 002a 31F8047F 		ldrh	r7, [r1, #4]!	@ unaligned
 109:Src/VFO/GUISetupView.cpp **** 	_window->upRight   = { 200, 160, 20 };
 517              		.loc 2 109 21 discriminator 2 view .LVU110
 518 002e 32F8080F 		ldrh	r0, [r2, #8]!	@ unaligned
 110:Src/VFO/GUISetupView.cpp **** 
 519              		.loc 2 110 21 discriminator 2 view .LVU111
 520 0032 33F80C6F 		ldrh	r6, [r3, #12]!	@ unaligned
 108:Src/VFO/GUISetupView.cpp **** 	_window->upLeft    = { 60, 0, 40 };
ARM GAS  /var/folders/20/cstyxln53wn53rr40gj353bh0000gn/T//ccP2nhox.s 			page 15


 521              		.loc 2 108 21 discriminator 2 view .LVU112
 522 0036 91F802C0 		ldrb	ip, [r1, #2]	@ zero_extendqisi2
 109:Src/VFO/GUISetupView.cpp **** 	_window->upRight   = { 200, 160, 20 };
 523              		.loc 2 109 21 discriminator 2 view .LVU113
 524 003a 9278     		ldrb	r2, [r2, #2]	@ zero_extendqisi2
 110:Src/VFO/GUISetupView.cpp **** 
 525              		.loc 2 110 21 discriminator 2 view .LVU114
 526 003c 9978     		ldrb	r1, [r3, #2]	@ zero_extendqisi2
 107:Src/VFO/GUISetupView.cpp **** 	_window->downRight = { 150, 0, 200 };
 527              		.loc 2 107 21 discriminator 2 view .LVU115
 528 003e 2B68     		ldr	r3, [r5]
 109:Src/VFO/GUISetupView.cpp **** 	_window->upRight   = { 200, 160, 20 };
 529              		.loc 2 109 21 discriminator 2 view .LVU116
 530 0040 2272     		strb	r2, [r4, #8]
 107:Src/VFO/GUISetupView.cpp **** 	_window->downRight = { 150, 0, 200 };
 531              		.loc 2 107 21 discriminator 2 view .LVU117
 532 0042 1A0C     		lsrs	r2, r3, #16
 109:Src/VFO/GUISetupView.cpp **** 	_window->upRight   = { 200, 160, 20 };
 533              		.loc 2 109 21 discriminator 2 view .LVU118
 534 0044 E080     		strh	r0, [r4, #6]	@ unaligned
 110:Src/VFO/GUISetupView.cpp **** 
 535              		.loc 2 110 21 discriminator 2 view .LVU119
 536 0046 E172     		strb	r1, [r4, #11]
 107:Src/VFO/GUISetupView.cpp **** 	_window->downRight = { 150, 0, 200 };
 537              		.loc 2 107 21 discriminator 2 view .LVU120
 538 0048 A381     		strh	r3, [r4, #12]	@ movhi
 539 004a A273     		strb	r2, [r4, #14]
 108:Src/VFO/GUISetupView.cpp **** 	_window->upLeft    = { 60, 0, 40 };
 540              		.loc 2 108 2 is_stmt 1 discriminator 2 view .LVU121
 109:Src/VFO/GUISetupView.cpp **** 	_window->upRight   = { 200, 160, 20 };
 541              		.loc 2 109 2 discriminator 2 view .LVU122
 110:Src/VFO/GUISetupView.cpp **** 
 542              		.loc 2 110 2 discriminator 2 view .LVU123
 112:Src/VFO/GUISetupView.cpp **** 	_header->downLeft  = { 10, 10, 10 };
 543              		.loc 2 112 2 discriminator 2 view .LVU124
 108:Src/VFO/GUISetupView.cpp **** 	_window->upLeft    = { 60, 0, 40 };
 544              		.loc 2 108 21 is_stmt 0 discriminator 2 view .LVU125
 545 004c 84F811C0 		strb	ip, [r4, #17]
 546 0050 A4F80F70 		strh	r7, [r4, #15]	@ unaligned
 110:Src/VFO/GUISetupView.cpp **** 
 547              		.loc 2 110 21 discriminator 2 view .LVU126
 548 0054 A4F80960 		strh	r6, [r4, #9]	@ unaligned
 112:Src/VFO/GUISetupView.cpp **** 	_header->downLeft  = { 10, 10, 10 };
 549              		.loc 2 112 41 discriminator 2 view .LVU127
 550 0058 1820     		movs	r0, #24
 551              	.LEHB2:
 552 005a FFF7FEFF 		bl	_Znwj
 553              	.LVL38:
 554              	.LEHE2:
 555 005e 1923     		movs	r3, #25
 556 0060 0222     		movs	r2, #2
 557 0062 0093     		str	r3, [sp]
 558 0064 1146     		mov	r1, r2
 559 0066 9C23     		movs	r3, #156
 560 0068 0446     		mov	r4, r0
 561              	.LEHB3:
 562 006a FFF7FEFF 		bl	_ZN3VFO11GradientBoxC1Ehhhh
ARM GAS  /var/folders/20/cstyxln53wn53rr40gj353bh0000gn/T//ccP2nhox.s 			page 16


 563              	.LVL39:
 564              	.LEHE3:
 113:Src/VFO/GUISetupView.cpp **** 	_header->downRight = { 10, 10, 10 };
 565              		.loc 2 113 21 discriminator 2 view .LVU128
 566 006e 05F11007 		add	r7, r5, #16
 115:Src/VFO/GUISetupView.cpp **** 	_header->upRight   = { 100, 100, 100};
 567              		.loc 2 115 21 discriminator 2 view .LVU129
 568 0072 3E46     		mov	r6, r7
 569 0074 36F8041F 		ldrh	r1, [r6, #4]!	@ unaligned
 113:Src/VFO/GUISetupView.cpp **** 	_header->downRight = { 10, 10, 10 };
 570              		.loc 2 113 21 discriminator 2 view .LVU130
 571 0078 2B69     		ldr	r3, [r5, #16]
 115:Src/VFO/GUISetupView.cpp **** 	_header->upRight   = { 100, 100, 100};
 572              		.loc 2 115 21 discriminator 2 view .LVU131
 573 007a B278     		ldrb	r2, [r6, #2]	@ zero_extendqisi2
 114:Src/VFO/GUISetupView.cpp **** 	_header->upLeft    = { 100, 100, 100 };
 574              		.loc 2 114 21 discriminator 2 view .LVU132
 575 007c B5F810E0 		ldrh	lr, [r5, #16]	@ unaligned
 576 0080 95F812C0 		ldrb	ip, [r5, #18]	@ zero_extendqisi2
 115:Src/VFO/GUISetupView.cpp **** 	_header->upRight   = { 100, 100, 100};
 577              		.loc 2 115 21 discriminator 2 view .LVU133
 578 0084 E180     		strh	r1, [r4, #6]	@ unaligned
 116:Src/VFO/GUISetupView.cpp **** 
 579              		.loc 2 116 21 discriminator 2 view .LVU134
 580 0086 A4F80910 		strh	r1, [r4, #9]	@ unaligned
 113:Src/VFO/GUISetupView.cpp **** 	_header->downRight = { 10, 10, 10 };
 581              		.loc 2 113 21 discriminator 2 view .LVU135
 582 008a 190C     		lsrs	r1, r3, #16
 115:Src/VFO/GUISetupView.cpp **** 	_header->upRight   = { 100, 100, 100};
 583              		.loc 2 115 21 discriminator 2 view .LVU136
 584 008c 2272     		strb	r2, [r4, #8]
 116:Src/VFO/GUISetupView.cpp **** 
 585              		.loc 2 116 21 discriminator 2 view .LVU137
 586 008e E272     		strb	r2, [r4, #11]
 113:Src/VFO/GUISetupView.cpp **** 	_header->downRight = { 10, 10, 10 };
 587              		.loc 2 113 21 discriminator 2 view .LVU138
 588 0090 A381     		strh	r3, [r4, #12]	@ movhi
 589 0092 A173     		strb	r1, [r4, #14]
 112:Src/VFO/GUISetupView.cpp **** 	_header->downLeft  = { 10, 10, 10 };
 590              		.loc 2 112 10 discriminator 2 view .LVU139
 591 0094 C8F80840 		str	r4, [r8, #8]
 113:Src/VFO/GUISetupView.cpp **** 	_header->downRight = { 10, 10, 10 };
 592              		.loc 2 113 2 is_stmt 1 discriminator 2 view .LVU140
 114:Src/VFO/GUISetupView.cpp **** 	_header->upLeft    = { 100, 100, 100 };
 593              		.loc 2 114 2 discriminator 2 view .LVU141
 115:Src/VFO/GUISetupView.cpp **** 	_header->upRight   = { 100, 100, 100};
 594              		.loc 2 115 2 discriminator 2 view .LVU142
 116:Src/VFO/GUISetupView.cpp **** 
 595              		.loc 2 116 2 discriminator 2 view .LVU143
 118:Src/VFO/GUISetupView.cpp **** 	_selection->upLeft  = { 10, 160, 10 };
 596              		.loc 2 118 2 discriminator 2 view .LVU144
 114:Src/VFO/GUISetupView.cpp **** 	_header->upLeft    = { 100, 100, 100 };
 597              		.loc 2 114 21 is_stmt 0 discriminator 2 view .LVU145
 598 0098 A4F80FE0 		strh	lr, [r4, #15]	@ unaligned
 599 009c 84F811C0 		strb	ip, [r4, #17]
 118:Src/VFO/GUISetupView.cpp **** 	_selection->upLeft  = { 10, 160, 10 };
 600              		.loc 2 118 44 discriminator 2 view .LVU146
ARM GAS  /var/folders/20/cstyxln53wn53rr40gj353bh0000gn/T//ccP2nhox.s 			page 17


 601 00a0 1820     		movs	r0, #24
 602              	.LEHB4:
 603 00a2 FFF7FEFF 		bl	_Znwj
 604              	.LVL40:
 605              	.LEHE4:
 606 00a6 0F23     		movs	r3, #15
 607 00a8 0222     		movs	r2, #2
 608 00aa 0093     		str	r3, [sp]
 609 00ac 1146     		mov	r1, r2
 610 00ae 9C23     		movs	r3, #156
 611 00b0 0446     		mov	r4, r0
 612              	.LEHB5:
 613 00b2 FFF7FEFF 		bl	_ZN3VFO11GradientBoxC1Ehhhh
 614              	.LVL41:
 615              	.LEHE5:
 119:Src/VFO/GUISetupView.cpp **** 	_selection->upRight = { 10, 160, 10 };
 616              		.loc 2 119 22 discriminator 2 view .LVU147
 617 00b6 05F11803 		add	r3, r5, #24
 121:Src/VFO/GUISetupView.cpp **** 	_selection->downRight = { 10, 10, 100 };
 618              		.loc 2 121 24 discriminator 2 view .LVU148
 619 00ba 1A46     		mov	r2, r3
 122:Src/VFO/GUISetupView.cpp **** 
 620              		.loc 2 122 24 discriminator 2 view .LVU149
 621 00bc 32F8040F 		ldrh	r0, [r2, #4]!	@ unaligned
 121:Src/VFO/GUISetupView.cpp **** 	_selection->downRight = { 10, 10, 100 };
 622              		.loc 2 121 24 discriminator 2 view .LVU150
 623 00c0 E969     		ldr	r1, [r5, #28]
 122:Src/VFO/GUISetupView.cpp **** 
 624              		.loc 2 122 24 discriminator 2 view .LVU151
 625 00c2 9278     		ldrb	r2, [r2, #2]	@ zero_extendqisi2
 119:Src/VFO/GUISetupView.cpp **** 	_selection->upRight = { 10, 160, 10 };
 626              		.loc 2 119 22 discriminator 2 view .LVU152
 627 00c4 AB7E     		ldrb	r3, [r5, #26]	@ zero_extendqisi2
 628 00c6 B5F818C0 		ldrh	ip, [r5, #24]	@ unaligned
 122:Src/VFO/GUISetupView.cpp **** 
 629              		.loc 2 122 24 discriminator 2 view .LVU153
 630 00ca 6274     		strb	r2, [r4, #17]
 121:Src/VFO/GUISetupView.cpp **** 	_selection->downRight = { 10, 10, 100 };
 631              		.loc 2 121 24 discriminator 2 view .LVU154
 632 00cc 0A0C     		lsrs	r2, r1, #16
 122:Src/VFO/GUISetupView.cpp **** 
 633              		.loc 2 122 24 discriminator 2 view .LVU155
 634 00ce A4F80F00 		strh	r0, [r4, #15]	@ unaligned
 119:Src/VFO/GUISetupView.cpp **** 	_selection->upRight = { 10, 160, 10 };
 635              		.loc 2 119 22 discriminator 2 view .LVU156
 636 00d2 2372     		strb	r3, [r4, #8]
 120:Src/VFO/GUISetupView.cpp **** 	_selection->downLeft  = { 10, 10, 100 };
 637              		.loc 2 120 22 discriminator 2 view .LVU157
 638 00d4 E372     		strb	r3, [r4, #11]
 121:Src/VFO/GUISetupView.cpp **** 	_selection->downRight = { 10, 10, 100 };
 639              		.loc 2 121 24 discriminator 2 view .LVU158
 640 00d6 A181     		strh	r1, [r4, #12]	@ movhi
 641 00d8 A273     		strb	r2, [r4, #14]
 118:Src/VFO/GUISetupView.cpp **** 	_selection->upLeft  = { 10, 160, 10 };
 642              		.loc 2 118 13 discriminator 2 view .LVU159
 643 00da C8F81040 		str	r4, [r8, #16]
 119:Src/VFO/GUISetupView.cpp **** 	_selection->upRight = { 10, 160, 10 };
ARM GAS  /var/folders/20/cstyxln53wn53rr40gj353bh0000gn/T//ccP2nhox.s 			page 18


 644              		.loc 2 119 2 is_stmt 1 discriminator 2 view .LVU160
 120:Src/VFO/GUISetupView.cpp **** 	_selection->downLeft  = { 10, 10, 100 };
 645              		.loc 2 120 2 discriminator 2 view .LVU161
 121:Src/VFO/GUISetupView.cpp **** 	_selection->downRight = { 10, 10, 100 };
 646              		.loc 2 121 2 discriminator 2 view .LVU162
 122:Src/VFO/GUISetupView.cpp **** 
 647              		.loc 2 122 2 discriminator 2 view .LVU163
 124:Src/VFO/GUISetupView.cpp **** 	_btnBack->downLeft  = { 10, 10, 10 };
 648              		.loc 2 124 2 discriminator 2 view .LVU164
 119:Src/VFO/GUISetupView.cpp **** 	_selection->upRight = { 10, 160, 10 };
 649              		.loc 2 119 22 is_stmt 0 discriminator 2 view .LVU165
 650 00de A4F806C0 		strh	ip, [r4, #6]	@ unaligned
 120:Src/VFO/GUISetupView.cpp **** 	_selection->downLeft  = { 10, 10, 100 };
 651              		.loc 2 120 22 discriminator 2 view .LVU166
 652 00e2 A4F809C0 		strh	ip, [r4, #9]	@ unaligned
 124:Src/VFO/GUISetupView.cpp **** 	_btnBack->downLeft  = { 10, 10, 10 };
 653              		.loc 2 124 43 discriminator 2 view .LVU167
 654 00e6 1820     		movs	r0, #24
 655              	.LEHB6:
 656 00e8 FFF7FEFF 		bl	_Znwj
 657              	.LVL42:
 658              	.LEHE6:
 659 00ec 1422     		movs	r2, #20
 660 00ee 3C23     		movs	r3, #60
 661 00f0 0092     		str	r2, [sp]
 662 00f2 0621     		movs	r1, #6
 663 00f4 6922     		movs	r2, #105
 664 00f6 0446     		mov	r4, r0
 665              	.LEHB7:
 666 00f8 FFF7FEFF 		bl	_ZN3VFO11GradientBoxC1Ehhhh
 667              	.LVL43:
 668              	.LEHE7:
 125:Src/VFO/GUISetupView.cpp **** 	_btnBack->downRight = { 10, 10, 10 };
 669              		.loc 2 125 22 discriminator 2 view .LVU168
 670 00fc 2B69     		ldr	r3, [r5, #16]
 127:Src/VFO/GUISetupView.cpp **** 	_btnBack->upRight   = { 100, 100, 100};
 671              		.loc 2 127 22 discriminator 2 view .LVU169
 672 00fe 3288     		ldrh	r2, [r6]	@ unaligned
 125:Src/VFO/GUISetupView.cpp **** 	_btnBack->downRight = { 10, 10, 10 };
 673              		.loc 2 125 22 discriminator 2 view .LVU170
 674 0100 A381     		strh	r3, [r4, #12]	@ movhi
 675 0102 1B0C     		lsrs	r3, r3, #16
 126:Src/VFO/GUISetupView.cpp **** 	_btnBack->upLeft    = { 100, 100, 100 };
 676              		.loc 2 126 22 discriminator 2 view .LVU171
 677 0104 288A     		ldrh	r0, [r5, #16]	@ unaligned
 678 0106 A97C     		ldrb	r1, [r5, #18]	@ zero_extendqisi2
 125:Src/VFO/GUISetupView.cpp **** 	_btnBack->downRight = { 10, 10, 10 };
 679              		.loc 2 125 22 discriminator 2 view .LVU172
 680 0108 A373     		strb	r3, [r4, #14]
 127:Src/VFO/GUISetupView.cpp **** 	_btnBack->upRight   = { 100, 100, 100};
 681              		.loc 2 127 22 discriminator 2 view .LVU173
 682 010a B378     		ldrb	r3, [r6, #2]	@ zero_extendqisi2
 124:Src/VFO/GUISetupView.cpp **** 	_btnBack->downLeft  = { 10, 10, 10 };
 683              		.loc 2 124 11 discriminator 2 view .LVU174
 684 010c C8F80C40 		str	r4, [r8, #12]
 125:Src/VFO/GUISetupView.cpp **** 	_btnBack->downRight = { 10, 10, 10 };
 685              		.loc 2 125 2 is_stmt 1 discriminator 2 view .LVU175
ARM GAS  /var/folders/20/cstyxln53wn53rr40gj353bh0000gn/T//ccP2nhox.s 			page 19


 126:Src/VFO/GUISetupView.cpp **** 	_btnBack->upLeft    = { 100, 100, 100 };
 686              		.loc 2 126 2 discriminator 2 view .LVU176
 126:Src/VFO/GUISetupView.cpp **** 	_btnBack->upLeft    = { 100, 100, 100 };
 687              		.loc 2 126 22 is_stmt 0 discriminator 2 view .LVU177
 688 0110 A4F80F00 		strh	r0, [r4, #15]	@ unaligned
 689 0114 6174     		strb	r1, [r4, #17]
 127:Src/VFO/GUISetupView.cpp **** 	_btnBack->upRight   = { 100, 100, 100};
 690              		.loc 2 127 2 is_stmt 1 discriminator 2 view .LVU178
 127:Src/VFO/GUISetupView.cpp **** 	_btnBack->upRight   = { 100, 100, 100};
 691              		.loc 2 127 22 is_stmt 0 discriminator 2 view .LVU179
 692 0116 E280     		strh	r2, [r4, #6]	@ unaligned
 128:Src/VFO/GUISetupView.cpp **** }
 693              		.loc 2 128 22 discriminator 2 view .LVU180
 694 0118 A4F80920 		strh	r2, [r4, #9]	@ unaligned
 127:Src/VFO/GUISetupView.cpp **** 	_btnBack->upRight   = { 100, 100, 100};
 695              		.loc 2 127 22 discriminator 2 view .LVU181
 696 011c 2372     		strb	r3, [r4, #8]
 128:Src/VFO/GUISetupView.cpp **** }
 697              		.loc 2 128 2 is_stmt 1 discriminator 2 view .LVU182
 128:Src/VFO/GUISetupView.cpp **** }
 698              		.loc 2 128 22 is_stmt 0 discriminator 2 view .LVU183
 699 011e E372     		strb	r3, [r4, #11]
 129:Src/VFO/GUISetupView.cpp **** 
 700              		.loc 2 129 1 discriminator 2 view .LVU184
 701 0120 02B0     		add	sp, sp, #8
 702              	.LCFI5:
 703              		.cfi_remember_state
 704              		.cfi_def_cfa_offset 24
 705              		@ sp needed
 706 0122 BDE8F081 		pop	{r4, r5, r6, r7, r8, pc}
 707              	.LVL44:
 708              	.L48:
 709              	.LCFI6:
 710              		.cfi_restore_state
 711              	.L54:
 112:Src/VFO/GUISetupView.cpp **** 	_header->downLeft  = { 10, 10, 10 };
 712              		.loc 2 112 41 view .LVU185
 713 0126 2046     		mov	r0, r4
 714 0128 1821     		movs	r1, #24
 715 012a FFF7FEFF 		bl	_ZdlPvj
 716              	.LVL45:
 717              	.LEHB8:
 718 012e FFF7FEFF 		bl	__cxa_end_cleanup
 719              	.LVL46:
 720              	.LEHE8:
 721              	.L51:
 722 0132 F8E7     		b	.L54
 723              	.L50:
 724 0134 F7E7     		b	.L54
 725              	.L49:
 726 0136 F6E7     		b	.L54
 727              	.L56:
 728              		.align	2
 729              	.L55:
 730 0138 00000000 		.word	.LANCHOR1
 731              		.cfi_endproc
 732              	.LFE124:
ARM GAS  /var/folders/20/cstyxln53wn53rr40gj353bh0000gn/T//ccP2nhox.s 			page 20


 733              		.global	__gxx_personality_v0
 734              		.personality	__gxx_personality_v0
 735              		.handlerdata
 736              	.LLSDA124:
 737 0008 FF       		.byte	0xff
 738 0009 FF       		.byte	0xff
 739 000a 01       		.byte	0x1
 740 000b 2D       		.uleb128 .LLSDACSE124-.LLSDACSB124
 741              	.LLSDACSB124:
 742 000c 0A       		.uleb128 .LEHB0-.LFB124
 743 000d 04       		.uleb128 .LEHE0-.LEHB0
 744 000e 00       		.uleb128 0
 745 000f 00       		.uleb128 0
 746 0010 1A       		.uleb128 .LEHB1-.LFB124
 747 0011 04       		.uleb128 .LEHE1-.LEHB1
 748 0012 A602     		.uleb128 .L48-.LFB124
 749 0014 00       		.uleb128 0
 750 0015 5A       		.uleb128 .LEHB2-.LFB124
 751 0016 04       		.uleb128 .LEHE2-.LEHB2
 752 0017 00       		.uleb128 0
 753 0018 00       		.uleb128 0
 754 0019 6A       		.uleb128 .LEHB3-.LFB124
 755 001a 04       		.uleb128 .LEHE3-.LEHB3
 756 001b B602     		.uleb128 .L49-.LFB124
 757 001d 00       		.uleb128 0
 758 001e A201     		.uleb128 .LEHB4-.LFB124
 759 0020 04       		.uleb128 .LEHE4-.LEHB4
 760 0021 00       		.uleb128 0
 761 0022 00       		.uleb128 0
 762 0023 B201     		.uleb128 .LEHB5-.LFB124
 763 0025 04       		.uleb128 .LEHE5-.LEHB5
 764 0026 B402     		.uleb128 .L50-.LFB124
 765 0028 00       		.uleb128 0
 766 0029 E801     		.uleb128 .LEHB6-.LFB124
 767 002b 04       		.uleb128 .LEHE6-.LEHB6
 768 002c 00       		.uleb128 0
 769 002d 00       		.uleb128 0
 770 002e F801     		.uleb128 .LEHB7-.LFB124
 771 0030 04       		.uleb128 .LEHE7-.LEHB7
 772 0031 B202     		.uleb128 .L51-.LFB124
 773 0033 00       		.uleb128 0
 774 0034 AE02     		.uleb128 .LEHB8-.LFB124
 775 0036 04       		.uleb128 .LEHE8-.LEHB8
 776 0037 00       		.uleb128 0
 777 0038 00       		.uleb128 0
 778              	.LLSDACSE124:
 779              		.section	.text._ZN3VFO12GUISetupView4initEv
 780              		.fnend
 782              		.section	.text._ZN3VFO12GUISetupViewC2Ev,"ax",%progbits
 783              		.align	1
 784              		.p2align 2,,3
 785              		.global	_ZN3VFO12GUISetupViewC2Ev
 786              		.syntax unified
 787              		.thumb
 788              		.thumb_func
 789              		.fpu softvfp
 791              	_ZN3VFO12GUISetupViewC2Ev:
ARM GAS  /var/folders/20/cstyxln53wn53rr40gj353bh0000gn/T//ccP2nhox.s 			page 21


 792              		.fnstart
 793              	.LVL47:
 794              	.LFB119:
  88:Src/VFO/GUISetupView.cpp **** {
 795              		.loc 2 88 1 is_stmt 1 view -0
 796              		.cfi_startproc
 797              		@ args = 0, pretend = 0, frame = 0
 798              		@ frame_needed = 0, uses_anonymous_args = 0
  88:Src/VFO/GUISetupView.cpp **** {
 799              		.loc 2 88 1 is_stmt 0 view .LVU187
 800 0000 10B5     		push	{r4, lr}
 801              		.save {r4, lr}
 802              	.LCFI7:
 803              		.cfi_def_cfa_offset 8
 804              		.cfi_offset 4, -8
 805              		.cfi_offset 14, -4
  88:Src/VFO/GUISetupView.cpp **** {
 806              		.loc 2 88 1 view .LVU188
 807 0002 0446     		mov	r4, r0
 808              	.LEHB9:
 809              	.LBB94:
  88:Src/VFO/GUISetupView.cpp **** {
 810              		.loc 2 88 28 view .LVU189
 811 0004 FFF7FEFF 		bl	_ZN3VFO7GUIViewC2Ev
 812              	.LVL48:
 813              	.LEHE9:
  88:Src/VFO/GUISetupView.cpp **** {
 814              		.loc 2 88 28 view .LVU190
 815 0008 0023     		movs	r3, #0
 816 000a 0949     		ldr	r1, .L62
  91:Src/VFO/GUISetupView.cpp **** 	_selectedChild = NULL;
 817              		.loc 2 91 15 view .LVU191
 818 000c 094A     		ldr	r2, .L62+4
  88:Src/VFO/GUISetupView.cpp **** {
 819              		.loc 2 88 28 view .LVU192
 820 000e 2160     		str	r1, [r4]
  91:Src/VFO/GUISetupView.cpp **** 	_selectedChild = NULL;
 821              		.loc 2 91 15 view .LVU193
 822 0010 A261     		str	r2, [r4, #24]
  88:Src/VFO/GUISetupView.cpp **** {
 823              		.loc 2 88 28 view .LVU194
 824 0012 A382     		strh	r3, [r4, #20]	@ movhi
 825 0014 A384     		strh	r3, [r4, #36]	@ movhi
  90:Src/VFO/GUISetupView.cpp **** 	_currentItem = &menu;
 826              		.loc 2 90 2 is_stmt 1 view .LVU195
  92:Src/VFO/GUISetupView.cpp **** 	init();
 827              		.loc 2 92 17 is_stmt 0 view .LVU196
 828 0016 C4E90733 		strd	r3, r3, [r4, #28]
  93:Src/VFO/GUISetupView.cpp **** }
 829              		.loc 2 93 2 is_stmt 1 view .LVU197
  93:Src/VFO/GUISetupView.cpp **** }
 830              		.loc 2 93 6 is_stmt 0 view .LVU198
 831 001a 2046     		mov	r0, r4
 832              	.LEHB10:
 833 001c FFF7FEFF 		bl	_ZN3VFO12GUISetupView4initEv
 834              	.LVL49:
 835              	.LEHE10:
ARM GAS  /var/folders/20/cstyxln53wn53rr40gj353bh0000gn/T//ccP2nhox.s 			page 22


 836              	.LBE94:
  94:Src/VFO/GUISetupView.cpp **** 
 837              		.loc 2 94 1 view .LVU199
 838 0020 2046     		mov	r0, r4
 839 0022 10BD     		pop	{r4, pc}
 840              	.LVL50:
 841              	.L59:
 842              	.LBB95:
  88:Src/VFO/GUISetupView.cpp **** {
 843              		.loc 2 88 28 view .LVU200
 844 0024 2046     		mov	r0, r4
 845 0026 FFF7FEFF 		bl	_ZN3VFO7GUIViewD2Ev
 846              	.LVL51:
 847              	.LEHB11:
 848 002a FFF7FEFF 		bl	__cxa_end_cleanup
 849              	.LVL52:
 850              	.LEHE11:
 851              	.L63:
 852 002e 00BF     		.align	2
 853              	.L62:
 854 0030 08000000 		.word	.LANCHOR0+8
 855 0034 00000000 		.word	.LANCHOR2
 856              	.LBE95:
 857              		.cfi_endproc
 858              	.LFE119:
 859              		.personality	__gxx_personality_v0
 860              		.handlerdata
 861              	.LLSDA119:
 862 0008 FF       		.byte	0xff
 863 0009 FF       		.byte	0xff
 864 000a 01       		.byte	0x1
 865 000b 0C       		.uleb128 .LLSDACSE119-.LLSDACSB119
 866              	.LLSDACSB119:
 867 000c 04       		.uleb128 .LEHB9-.LFB119
 868 000d 04       		.uleb128 .LEHE9-.LEHB9
 869 000e 00       		.uleb128 0
 870 000f 00       		.uleb128 0
 871 0010 1C       		.uleb128 .LEHB10-.LFB119
 872 0011 04       		.uleb128 .LEHE10-.LEHB10
 873 0012 24       		.uleb128 .L59-.LFB119
 874 0013 00       		.uleb128 0
 875 0014 2A       		.uleb128 .LEHB11-.LFB119
 876 0015 04       		.uleb128 .LEHE11-.LEHB11
 877 0016 00       		.uleb128 0
 878 0017 00       		.uleb128 0
 879              	.LLSDACSE119:
 880              		.section	.text._ZN3VFO12GUISetupViewC2Ev
 881              		.fnend
 883              		.global	_ZN3VFO12GUISetupViewC1Ev
 884              		.thumb_set _ZN3VFO12GUISetupViewC1Ev,_ZN3VFO12GUISetupViewC2Ev
 885              		.section	.text._ZN3VFO12GUISetupViewC2EPNS_9SetupItemEPS0_,"ax",%progbits
 886              		.align	1
 887              		.p2align 2,,3
 888              		.global	_ZN3VFO12GUISetupViewC2EPNS_9SetupItemEPS0_
 889              		.syntax unified
 890              		.thumb
 891              		.thumb_func
ARM GAS  /var/folders/20/cstyxln53wn53rr40gj353bh0000gn/T//ccP2nhox.s 			page 23


 892              		.fpu softvfp
 894              	_ZN3VFO12GUISetupViewC2EPNS_9SetupItemEPS0_:
 895              		.fnstart
 896              	.LVL53:
 897              	.LFB122:
  96:Src/VFO/GUISetupView.cpp **** {
 898              		.loc 2 96 1 is_stmt 1 view -0
 899              		.cfi_startproc
 900              		@ args = 0, pretend = 0, frame = 0
 901              		@ frame_needed = 0, uses_anonymous_args = 0
  96:Src/VFO/GUISetupView.cpp **** {
 902              		.loc 2 96 1 is_stmt 0 view .LVU202
 903 0000 70B5     		push	{r4, r5, r6, lr}
 904              		.save {r4, r5, r6, lr}
 905              	.LCFI8:
 906              		.cfi_def_cfa_offset 16
 907              		.cfi_offset 4, -16
 908              		.cfi_offset 5, -12
 909              		.cfi_offset 6, -8
 910              		.cfi_offset 14, -4
  96:Src/VFO/GUISetupView.cpp **** {
 911              		.loc 2 96 1 view .LVU203
 912 0002 0446     		mov	r4, r0
 913 0004 0D46     		mov	r5, r1
 914 0006 1646     		mov	r6, r2
 915              	.LEHB12:
 916              	.LBB97:
  96:Src/VFO/GUISetupView.cpp **** {
 917              		.loc 2 96 65 view .LVU204
 918 0008 FFF7FEFF 		bl	_ZN3VFO7GUIViewC2Ev
 919              	.LVL54:
 920              	.LEHE12:
  96:Src/VFO/GUISetupView.cpp **** {
 921              		.loc 2 96 65 view .LVU205
 922 000c 0023     		movs	r3, #0
 923 000e 0848     		ldr	r0, .L69
  99:Src/VFO/GUISetupView.cpp **** 	_selectedChild = NULL;
 924              		.loc 2 99 15 view .LVU206
 925 0010 C4E90656 		strd	r5, r6, [r4, #24]
  96:Src/VFO/GUISetupView.cpp **** {
 926              		.loc 2 96 65 view .LVU207
 927 0014 2060     		str	r0, [r4]
 928 0016 A382     		strh	r3, [r4, #20]	@ movhi
 929 0018 A384     		strh	r3, [r4, #36]	@ movhi
  98:Src/VFO/GUISetupView.cpp **** 	_currentItem = item;
 930              		.loc 2 98 2 is_stmt 1 view .LVU208
  99:Src/VFO/GUISetupView.cpp **** 	_selectedChild = NULL;
 931              		.loc 2 99 2 view .LVU209
 100:Src/VFO/GUISetupView.cpp **** 	init();
 932              		.loc 2 100 2 view .LVU210
 100:Src/VFO/GUISetupView.cpp **** 	init();
 933              		.loc 2 100 17 is_stmt 0 view .LVU211
 934 001a 2362     		str	r3, [r4, #32]
 101:Src/VFO/GUISetupView.cpp **** }
 935              		.loc 2 101 2 is_stmt 1 view .LVU212
 101:Src/VFO/GUISetupView.cpp **** }
 936              		.loc 2 101 6 is_stmt 0 view .LVU213
ARM GAS  /var/folders/20/cstyxln53wn53rr40gj353bh0000gn/T//ccP2nhox.s 			page 24


 937 001c 2046     		mov	r0, r4
 938              	.LEHB13:
 939 001e FFF7FEFF 		bl	_ZN3VFO12GUISetupView4initEv
 940              	.LVL55:
 941              	.LEHE13:
 942              	.LBE97:
 102:Src/VFO/GUISetupView.cpp **** 
 943              		.loc 2 102 1 view .LVU214
 944 0022 2046     		mov	r0, r4
 945 0024 70BD     		pop	{r4, r5, r6, pc}
 946              	.LVL56:
 947              	.L66:
 948              	.LBB98:
  96:Src/VFO/GUISetupView.cpp **** {
 949              		.loc 2 96 65 view .LVU215
 950 0026 2046     		mov	r0, r4
 951 0028 FFF7FEFF 		bl	_ZN3VFO7GUIViewD2Ev
 952              	.LVL57:
 953              	.LEHB14:
 954 002c FFF7FEFF 		bl	__cxa_end_cleanup
 955              	.LVL58:
 956              	.LEHE14:
 957              	.L70:
 958              		.align	2
 959              	.L69:
 960 0030 08000000 		.word	.LANCHOR0+8
 961              	.LBE98:
 962              		.cfi_endproc
 963              	.LFE122:
 964              		.personality	__gxx_personality_v0
 965              		.handlerdata
 966              	.LLSDA122:
 967 0008 FF       		.byte	0xff
 968 0009 FF       		.byte	0xff
 969 000a 01       		.byte	0x1
 970 000b 0C       		.uleb128 .LLSDACSE122-.LLSDACSB122
 971              	.LLSDACSB122:
 972 000c 08       		.uleb128 .LEHB12-.LFB122
 973 000d 04       		.uleb128 .LEHE12-.LEHB12
 974 000e 00       		.uleb128 0
 975 000f 00       		.uleb128 0
 976 0010 1E       		.uleb128 .LEHB13-.LFB122
 977 0011 04       		.uleb128 .LEHE13-.LEHB13
 978 0012 26       		.uleb128 .L66-.LFB122
 979 0013 00       		.uleb128 0
 980 0014 2C       		.uleb128 .LEHB14-.LFB122
 981 0015 04       		.uleb128 .LEHE14-.LEHB14
 982 0016 00       		.uleb128 0
 983 0017 00       		.uleb128 0
 984              	.LLSDACSE122:
 985              		.section	.text._ZN3VFO12GUISetupViewC2EPNS_9SetupItemEPS0_
 986              		.fnend
 988              		.global	_ZN3VFO12GUISetupViewC1EPNS_9SetupItemEPS0_
 989              		.thumb_set _ZN3VFO12GUISetupViewC1EPNS_9SetupItemEPS0_,_ZN3VFO12GUISetupViewC2EPNS_9SetupItemEPS0_
 990              		.section	.text._ZN3VFO12GUISetupView11setSelectedEh,"ax",%progbits
 991              		.align	1
 992              		.p2align 2,,3
ARM GAS  /var/folders/20/cstyxln53wn53rr40gj353bh0000gn/T//ccP2nhox.s 			page 25


 993              		.global	_ZN3VFO12GUISetupView11setSelectedEh
 994              		.syntax unified
 995              		.thumb
 996              		.thumb_func
 997              		.fpu softvfp
 999              	_ZN3VFO12GUISetupView11setSelectedEh:
 1000              		.fnstart
 1001              	.LVL59:
 1002              	.LFB131:
 137:Src/VFO/GUISetupView.cpp **** 
 138:Src/VFO/GUISetupView.cpp **** 
 139:Src/VFO/GUISetupView.cpp **** // Callbacks
 140:Src/VFO/GUISetupView.cpp **** 
 141:Src/VFO/GUISetupView.cpp **** void GUISetupView::pushEncoderIncrement(int16_t increment, uint16_t period)
 142:Src/VFO/GUISetupView.cpp **** {
 143:Src/VFO/GUISetupView.cpp **** 	if ( _selectedChild )
 144:Src/VFO/GUISetupView.cpp **** 	{
 145:Src/VFO/GUISetupView.cpp **** 		_selectedChild->pushEncoderIncrement(increment, period);
 146:Src/VFO/GUISetupView.cpp **** 		return;
 147:Src/VFO/GUISetupView.cpp **** 	}
 148:Src/VFO/GUISetupView.cpp **** 
 149:Src/VFO/GUISetupView.cpp **** 	if (!_editing)
 150:Src/VFO/GUISetupView.cpp **** 	{
 151:Src/VFO/GUISetupView.cpp **** 		_encCounter += increment;
 152:Src/VFO/GUISetupView.cpp **** 		if (abs(_encCounter) < _getEncoder() / 2) /* half rotation step */
 153:Src/VFO/GUISetupView.cpp **** 		{
 154:Src/VFO/GUISetupView.cpp **** 			return;
 155:Src/VFO/GUISetupView.cpp **** 		}
 156:Src/VFO/GUISetupView.cpp **** 		_encCounter = 0;
 157:Src/VFO/GUISetupView.cpp **** 
 158:Src/VFO/GUISetupView.cpp **** 		uint8_t selection;
 159:Src/VFO/GUISetupView.cpp **** 		if (increment < 0)
 160:Src/VFO/GUISetupView.cpp **** 		{
 161:Src/VFO/GUISetupView.cpp **** 			selection = _selectedItem == 0 ? _currentItem->numChildren : _selectedItem - 1;
 162:Src/VFO/GUISetupView.cpp **** 		}
 163:Src/VFO/GUISetupView.cpp **** 		else
 164:Src/VFO/GUISetupView.cpp **** 		{
 165:Src/VFO/GUISetupView.cpp **** 			selection = _selectedItem == _currentItem->numChildren ? 0 : _selectedItem + 1;
 166:Src/VFO/GUISetupView.cpp **** 		}
 167:Src/VFO/GUISetupView.cpp **** 		setSelected(selection);
 168:Src/VFO/GUISetupView.cpp **** 	}
 169:Src/VFO/GUISetupView.cpp **** 	else
 170:Src/VFO/GUISetupView.cpp **** 	{
 171:Src/VFO/GUISetupView.cpp **** 		uint32_t value = _currentItem->children[ _selectedItem ].getter();
 172:Src/VFO/GUISetupView.cpp **** 		value += increment;
 173:Src/VFO/GUISetupView.cpp **** 		_currentItem->children[ _selectedItem ].setter(value);
 174:Src/VFO/GUISetupView.cpp **** 		updateValues();
 175:Src/VFO/GUISetupView.cpp **** 	}
 176:Src/VFO/GUISetupView.cpp **** }
 177:Src/VFO/GUISetupView.cpp **** 
 178:Src/VFO/GUISetupView.cpp **** void GUISetupView::menuKeyPressed()
 179:Src/VFO/GUISetupView.cpp **** {
 180:Src/VFO/GUISetupView.cpp **** 	if ( _selectedChild )
 181:Src/VFO/GUISetupView.cpp **** 	{
 182:Src/VFO/GUISetupView.cpp **** 		_selectedChild->menuKeyPressed();
 183:Src/VFO/GUISetupView.cpp **** 		return;
 184:Src/VFO/GUISetupView.cpp **** 	}
ARM GAS  /var/folders/20/cstyxln53wn53rr40gj353bh0000gn/T//ccP2nhox.s 			page 26


 185:Src/VFO/GUISetupView.cpp **** 
 186:Src/VFO/GUISetupView.cpp **** 	if ( _selectedItem >= _currentItem->numChildren )
 187:Src/VFO/GUISetupView.cpp **** 	{
 188:Src/VFO/GUISetupView.cpp **** 		if ( _parent )
 189:Src/VFO/GUISetupView.cpp **** 		{
 190:Src/VFO/GUISetupView.cpp **** 			_parent->draw();
 191:Src/VFO/GUISetupView.cpp **** 			_parent->setSelectedChild(NULL);
 192:Src/VFO/GUISetupView.cpp **** 		}
 193:Src/VFO/GUISetupView.cpp **** 		else
 194:Src/VFO/GUISetupView.cpp **** 		{
 195:Src/VFO/GUISetupView.cpp **** 			_mainController->triggerMemoryWrite();
 196:Src/VFO/GUISetupView.cpp **** 			_mainController->showMain();
 197:Src/VFO/GUISetupView.cpp **** 			return;
 198:Src/VFO/GUISetupView.cpp **** 		}
 199:Src/VFO/GUISetupView.cpp **** 	}
 200:Src/VFO/GUISetupView.cpp **** 	else
 201:Src/VFO/GUISetupView.cpp **** 	{
 202:Src/VFO/GUISetupView.cpp **** 		if ( _currentItem->children[ _selectedItem ].getter == NULL && _currentItem->children[ _selectedI
 203:Src/VFO/GUISetupView.cpp **** 		{
 204:Src/VFO/GUISetupView.cpp **** 			GUISetupView *submenu = new GUISetupView( &_currentItem->children[ _selectedItem ], this );
 205:Src/VFO/GUISetupView.cpp **** 			setSelectedChild( submenu );
 206:Src/VFO/GUISetupView.cpp **** 			submenu->draw();
 207:Src/VFO/GUISetupView.cpp **** 		}
 208:Src/VFO/GUISetupView.cpp **** 		else if ( _currentItem->children[ _selectedItem ].cmd ) // command
 209:Src/VFO/GUISetupView.cpp **** 		{
 210:Src/VFO/GUISetupView.cpp **** 			_currentItem->children[ _selectedItem ].cmd();
 211:Src/VFO/GUISetupView.cpp **** 			updateValues();
 212:Src/VFO/GUISetupView.cpp **** 		}
 213:Src/VFO/GUISetupView.cpp **** 		else
 214:Src/VFO/GUISetupView.cpp **** 		{
 215:Src/VFO/GUISetupView.cpp **** 			_editing = !_editing;
 216:Src/VFO/GUISetupView.cpp **** 			updateValues();
 217:Src/VFO/GUISetupView.cpp **** 		}
 218:Src/VFO/GUISetupView.cpp **** 	}
 219:Src/VFO/GUISetupView.cpp **** }
 220:Src/VFO/GUISetupView.cpp **** 
 221:Src/VFO/GUISetupView.cpp **** 
 222:Src/VFO/GUISetupView.cpp **** // Utilities
 223:Src/VFO/GUISetupView.cpp **** 
 224:Src/VFO/GUISetupView.cpp **** void GUISetupView::setSelected(uint8_t selected)
 225:Src/VFO/GUISetupView.cpp **** {
 1003              		.loc 2 225 1 is_stmt 1 view -0
 1004              		.cfi_startproc
 1005              		@ args = 0, pretend = 0, frame = 24
 1006              		@ frame_needed = 0, uses_anonymous_args = 0
 226:Src/VFO/GUISetupView.cpp **** 	// clear old selection
 227:Src/VFO/GUISetupView.cpp **** 	if ( _selectedItem == _currentItem->numChildren )
 1007              		.loc 2 227 2 view .LVU217
 225:Src/VFO/GUISetupView.cpp **** 	// clear old selection
 1008              		.loc 2 225 1 is_stmt 0 view .LVU218
 1009 0000 2DE9F047 		push	{r4, r5, r6, r7, r8, r9, r10, lr}
 1010              		.save {r4, r5, r6, r7, r8, r9, r10, lr}
 1011              	.LCFI9:
 1012              		.cfi_def_cfa_offset 32
 1013              		.cfi_offset 4, -32
 1014              		.cfi_offset 5, -28
 1015              		.cfi_offset 6, -24
ARM GAS  /var/folders/20/cstyxln53wn53rr40gj353bh0000gn/T//ccP2nhox.s 			page 27


 1016              		.cfi_offset 7, -20
 1017              		.cfi_offset 8, -16
 1018              		.cfi_offset 9, -12
 1019              		.cfi_offset 10, -8
 1020              		.cfi_offset 14, -4
 1021              		.loc 2 227 38 view .LVU219
 1022 0004 8369     		ldr	r3, [r0, #24]
 1023              		.loc 2 227 7 view .LVU220
 1024 0006 467D     		ldrb	r6, [r0, #21]	@ zero_extendqisi2
 1025              		.loc 2 227 2 view .LVU221
 1026 0008 1B69     		ldr	r3, [r3, #16]
 225:Src/VFO/GUISetupView.cpp **** 	// clear old selection
 1027              		.loc 2 225 1 view .LVU222
 1028              		.pad #40
 1029 000a 8AB0     		sub	sp, sp, #40
 1030              	.LCFI10:
 1031              		.cfi_def_cfa_offset 72
 1032              		.loc 2 227 2 view .LVU223
 1033 000c 9E42     		cmp	r6, r3
 225:Src/VFO/GUISetupView.cpp **** 	// clear old selection
 1034              		.loc 2 225 1 view .LVU224
 1035 000e 0446     		mov	r4, r0
 1036 0010 0D46     		mov	r5, r1
 1037              		.loc 2 227 2 view .LVU225
 1038 0012 00F0DA80 		beq	.L96
 228:Src/VFO/GUISetupView.cpp **** 	{
 229:Src/VFO/GUISetupView.cpp **** 		drawBackButton(false);
 230:Src/VFO/GUISetupView.cpp **** 	}
 231:Src/VFO/GUISetupView.cpp **** 	else
 232:Src/VFO/GUISetupView.cpp **** 	{
 233:Src/VFO/GUISetupView.cpp **** 		drawItemTitle(_selectedItem, false);
 1039              		.loc 2 233 3 is_stmt 1 view .LVU226
 1040              	.LVL60:
 1041              	.LBB113:
 1042              	.LBI113:
 234:Src/VFO/GUISetupView.cpp **** 	}
 235:Src/VFO/GUISetupView.cpp **** 
 236:Src/VFO/GUISetupView.cpp **** 	_selectedItem = selected;
 237:Src/VFO/GUISetupView.cpp **** 
 238:Src/VFO/GUISetupView.cpp **** 	// draw new selection
 239:Src/VFO/GUISetupView.cpp **** 	if ( _selectedItem == _currentItem->numChildren )
 240:Src/VFO/GUISetupView.cpp **** 	{
 241:Src/VFO/GUISetupView.cpp **** 		drawBackButton(true);
 242:Src/VFO/GUISetupView.cpp **** 	}
 243:Src/VFO/GUISetupView.cpp **** 	else
 244:Src/VFO/GUISetupView.cpp **** 	{
 245:Src/VFO/GUISetupView.cpp **** 		drawItemTitle(_selectedItem, true);
 246:Src/VFO/GUISetupView.cpp **** 	}
 247:Src/VFO/GUISetupView.cpp **** 
 248:Src/VFO/GUISetupView.cpp **** 	this->updateValues();
 249:Src/VFO/GUISetupView.cpp **** }
 250:Src/VFO/GUISetupView.cpp **** 
 251:Src/VFO/GUISetupView.cpp **** 
 252:Src/VFO/GUISetupView.cpp **** void GUISetupView::updateValues()
 253:Src/VFO/GUISetupView.cpp **** {
 254:Src/VFO/GUISetupView.cpp **** 	uint8_t i = 0;
 255:Src/VFO/GUISetupView.cpp **** 	for (; i < _currentItem->numChildren; i++)
ARM GAS  /var/folders/20/cstyxln53wn53rr40gj353bh0000gn/T//ccP2nhox.s 			page 28


 256:Src/VFO/GUISetupView.cpp **** 	{
 257:Src/VFO/GUISetupView.cpp **** 		drawValue(i, _selectedItem == i, _editing);
 258:Src/VFO/GUISetupView.cpp **** 	}
 259:Src/VFO/GUISetupView.cpp **** }
 260:Src/VFO/GUISetupView.cpp **** 
 261:Src/VFO/GUISetupView.cpp **** void GUISetupView::setSelectedChild( GUISetupView *child )
 262:Src/VFO/GUISetupView.cpp **** {
 263:Src/VFO/GUISetupView.cpp **** 	if ( !child && _selectedChild )
 264:Src/VFO/GUISetupView.cpp **** 	{
 265:Src/VFO/GUISetupView.cpp **** 		delete _selectedChild;
 266:Src/VFO/GUISetupView.cpp **** 	}
 267:Src/VFO/GUISetupView.cpp **** 	_selectedChild = child;
 268:Src/VFO/GUISetupView.cpp **** }
 269:Src/VFO/GUISetupView.cpp **** 
 270:Src/VFO/GUISetupView.cpp **** // Drawing methods
 271:Src/VFO/GUISetupView.cpp **** 
 272:Src/VFO/GUISetupView.cpp **** void GUISetupView::draw()
 273:Src/VFO/GUISetupView.cpp **** {
 274:Src/VFO/GUISetupView.cpp **** 	this->drawBackground();
 275:Src/VFO/GUISetupView.cpp **** 	this->setSelected(_currentItem->numChildren);
 276:Src/VFO/GUISetupView.cpp **** 	drawBackButton(true);
 277:Src/VFO/GUISetupView.cpp **** }
 278:Src/VFO/GUISetupView.cpp **** 
 279:Src/VFO/GUISetupView.cpp **** void GUISetupView::drawBackground()
 280:Src/VFO/GUISetupView.cpp **** {
 281:Src/VFO/GUISetupView.cpp **** 	_window->draw();
 282:Src/VFO/GUISetupView.cpp **** 	_header->draw();
 283:Src/VFO/GUISetupView.cpp **** 	drawWindowTitle();
 284:Src/VFO/GUISetupView.cpp **** 
 285:Src/VFO/GUISetupView.cpp **** 	uint8_t i = 0;
 286:Src/VFO/GUISetupView.cpp **** 	for (; i < _currentItem->numChildren; i++)
 287:Src/VFO/GUISetupView.cpp **** 	{
 288:Src/VFO/GUISetupView.cpp **** 		drawItemTitle(i, false);
 289:Src/VFO/GUISetupView.cpp **** 	}
 290:Src/VFO/GUISetupView.cpp **** }
 291:Src/VFO/GUISetupView.cpp **** 
 292:Src/VFO/GUISetupView.cpp **** void GUISetupView::drawWindowTitle()
 293:Src/VFO/GUISetupView.cpp **** {
 294:Src/VFO/GUISetupView.cpp **** 	char str1[20];
 295:Src/VFO/GUISetupView.cpp **** 	VFO::utf8to1251Dest(_currentItem->name, str1, sizeof(str1));
 296:Src/VFO/GUISetupView.cpp **** 	uint8_t xpos = (160 - strlen(str1) * 8) / 2;
 297:Src/VFO/GUISetupView.cpp **** 	ST7735_PutStr7x11Ex(xpos, 8, str1, COLOR565_YELLOW, _header, VFO::backgroundColor);
 298:Src/VFO/GUISetupView.cpp **** }
 299:Src/VFO/GUISetupView.cpp **** 
 300:Src/VFO/GUISetupView.cpp **** void GUISetupView::drawItemTitle(uint8_t itemIndex, bool selected)
 1043              		.loc 2 300 6 view .LVU227
 1044              	.LBB114:
 301:Src/VFO/GUISetupView.cpp **** {
 302:Src/VFO/GUISetupView.cpp **** 	char str1[20];
 1045              		.loc 2 302 2 view .LVU228
 303:Src/VFO/GUISetupView.cpp **** 	if (selected)
 1046              		.loc 2 303 2 view .LVU229
 304:Src/VFO/GUISetupView.cpp **** 	{
 305:Src/VFO/GUISetupView.cpp **** 		_selection->draw(2, 36 + itemIndex * 15, 156, 15);
 306:Src/VFO/GUISetupView.cpp **** 	}
 307:Src/VFO/GUISetupView.cpp **** 	else
 308:Src/VFO/GUISetupView.cpp **** 	{
ARM GAS  /var/folders/20/cstyxln53wn53rr40gj353bh0000gn/T//ccP2nhox.s 			page 29


 309:Src/VFO/GUISetupView.cpp **** 		_window->clear(2, 36 + itemIndex * 15, 156, 15);
 1047              		.loc 2 309 3 view .LVU230
 1048              		.loc 2 309 17 is_stmt 0 view .LVU231
 1049 0016 0F23     		movs	r3, #15
 1050 0018 C6EB0619 		rsb	r9, r6, r6, lsl #4
 1051 001c 5FFA89F9 		uxtb	r9, r9
 1052 0020 0093     		str	r3, [sp]
 1053 0022 09F12402 		add	r2, r9, #36
 1054 0026 D2B2     		uxtb	r2, r2
 1055 0028 9C23     		movs	r3, #156
 1056 002a 0221     		movs	r1, #2
 1057              	.LVL61:
 1058              		.loc 2 309 17 view .LVU232
 1059 002c 4068     		ldr	r0, [r0, #4]
 1060              	.LVL62:
 1061              		.loc 2 309 17 view .LVU233
 1062 002e FFF7FEFF 		bl	_ZN3VFO11GradientBox5clearEhhhh
 1063              	.LVL63:
 310:Src/VFO/GUISetupView.cpp **** 	}
 311:Src/VFO/GUISetupView.cpp **** 	const SetupItem *item = &(_currentItem->children[itemIndex]);
 1064              		.loc 2 311 2 is_stmt 1 view .LVU234
 312:Src/VFO/GUISetupView.cpp **** 	ST7735_PutStr5x7Ex(1, 6, 40 + itemIndex * 15, VFO::utf8to1251Dest(item->name, str1, sizeof(str1)),
 1065              		.loc 2 312 2 view .LVU235
 311:Src/VFO/GUISetupView.cpp **** 	ST7735_PutStr5x7Ex(1, 6, 40 + itemIndex * 15, VFO::utf8to1251Dest(item->name, str1, sizeof(str1)),
 1066              		.loc 2 311 42 is_stmt 0 view .LVU236
 1067 0032 A369     		ldr	r3, [r4, #24]
 1068              		.loc 2 312 74 view .LVU237
 1069 0034 06EB4606 		add	r6, r6, r6, lsl #1
 1070              	.LVL64:
 1071              		.loc 2 312 74 view .LVU238
 1072 0038 5B69     		ldr	r3, [r3, #20]
 1073              		.loc 2 312 20 view .LVU239
 1074 003a 05AF     		add	r7, sp, #20
 1075 003c 53F83600 		ldr	r0, [r3, r6, lsl #3]
 1076 0040 3946     		mov	r1, r7
 1077 0042 1422     		movs	r2, #20
 1078 0044 FFF7FEFF 		bl	_ZN3VFO14utf8to1251DestEPKcPcj
 1079              	.LVL65:
 1080 0048 4FF6E076 		movw	r6, #65504
 1081 004c 6168     		ldr	r1, [r4, #4]
 1082 004e DFF8E081 		ldr	r8, .L101+8
 1083 0052 09F12802 		add	r2, r9, #40
 1084 0056 0346     		mov	r3, r0
 1085 0058 CDE90118 		strd	r1, r8, [sp, #4]
 1086 005c D2B2     		uxtb	r2, r2
 1087 005e 0096     		str	r6, [sp]
 1088 0060 0621     		movs	r1, #6
 1089 0062 0120     		movs	r0, #1
 1090 0064 FFF7FEFF 		bl	ST7735_PutStr5x7Ex
 1091              	.LVL66:
 1092              	.L73:
 1093              		.loc 2 312 20 view .LVU240
 1094              	.LBE114:
 1095              	.LBE113:
 236:Src/VFO/GUISetupView.cpp **** 
 1096              		.loc 2 236 2 is_stmt 1 view .LVU241
 239:Src/VFO/GUISetupView.cpp **** 	{
ARM GAS  /var/folders/20/cstyxln53wn53rr40gj353bh0000gn/T//ccP2nhox.s 			page 30


 1097              		.loc 2 239 38 is_stmt 0 view .LVU242
 1098 0068 A369     		ldr	r3, [r4, #24]
 236:Src/VFO/GUISetupView.cpp **** 
 1099              		.loc 2 236 16 view .LVU243
 1100 006a 6575     		strb	r5, [r4, #21]
 239:Src/VFO/GUISetupView.cpp **** 	{
 1101              		.loc 2 239 2 is_stmt 1 view .LVU244
 1102 006c 1B69     		ldr	r3, [r3, #16]
 1103 006e 9D42     		cmp	r5, r3
 1104 0070 00F08380 		beq	.L97
 245:Src/VFO/GUISetupView.cpp **** 	}
 1105              		.loc 2 245 3 view .LVU245
 1106              	.LVL67:
 1107              	.LBB115:
 1108              	.LBI115:
 300:Src/VFO/GUISetupView.cpp **** {
 1109              		.loc 2 300 6 view .LVU246
 1110              	.LBB116:
 302:Src/VFO/GUISetupView.cpp **** 	if (selected)
 1111              		.loc 2 302 2 view .LVU247
 303:Src/VFO/GUISetupView.cpp **** 	{
 1112              		.loc 2 303 2 view .LVU248
 305:Src/VFO/GUISetupView.cpp **** 	}
 1113              		.loc 2 305 3 view .LVU249
 305:Src/VFO/GUISetupView.cpp **** 	}
 1114              		.loc 2 305 19 is_stmt 0 view .LVU250
 1115 0074 0F23     		movs	r3, #15
 1116 0076 C5EB0516 		rsb	r6, r5, r5, lsl #4
 1117 007a F6B2     		uxtb	r6, r6
 1118 007c 0093     		str	r3, [sp]
 1119 007e 06F12402 		add	r2, r6, #36
 1120 0082 D2B2     		uxtb	r2, r2
 1121 0084 9C23     		movs	r3, #156
 1122 0086 0221     		movs	r1, #2
 1123 0088 2069     		ldr	r0, [r4, #16]
 1124 008a FFF7FEFF 		bl	_ZN3VFO11GradientBox4drawEhhhh
 1125              	.LVL68:
 311:Src/VFO/GUISetupView.cpp **** 	ST7735_PutStr5x7Ex(1, 6, 40 + itemIndex * 15, VFO::utf8to1251Dest(item->name, str1, sizeof(str1)),
 1126              		.loc 2 311 2 is_stmt 1 view .LVU251
 1127              		.loc 2 312 2 view .LVU252
 311:Src/VFO/GUISetupView.cpp **** 	ST7735_PutStr5x7Ex(1, 6, 40 + itemIndex * 15, VFO::utf8to1251Dest(item->name, str1, sizeof(str1)),
 1128              		.loc 2 311 42 is_stmt 0 view .LVU253
 1129 008e A369     		ldr	r3, [r4, #24]
 1130              		.loc 2 312 74 view .LVU254
 1131 0090 05EB4505 		add	r5, r5, r5, lsl #1
 1132              	.LVL69:
 1133              		.loc 2 312 74 view .LVU255
 1134 0094 5B69     		ldr	r3, [r3, #20]
 1135              		.loc 2 312 20 view .LVU256
 1136 0096 1422     		movs	r2, #20
 1137 0098 53F83500 		ldr	r0, [r3, r5, lsl #3]
 1138 009c 3946     		mov	r1, r7
 1139 009e FFF7FEFF 		bl	_ZN3VFO14utf8to1251DestEPKcPcj
 1140              	.LVL70:
 1141 00a2 4FF6FF75 		movw	r5, #65535
 1142 00a6 2169     		ldr	r1, [r4, #16]
 1143 00a8 06F12802 		add	r2, r6, #40
ARM GAS  /var/folders/20/cstyxln53wn53rr40gj353bh0000gn/T//ccP2nhox.s 			page 31


 1144 00ac 0346     		mov	r3, r0
 1145 00ae CDE90051 		strd	r5, r1, [sp]
 1146 00b2 D2B2     		uxtb	r2, r2
 1147 00b4 CDF80880 		str	r8, [sp, #8]
 1148 00b8 0621     		movs	r1, #6
 1149 00ba 0120     		movs	r0, #1
 1150 00bc FFF7FEFF 		bl	ST7735_PutStr5x7Ex
 1151              	.LVL71:
 1152              	.L75:
 1153              		.loc 2 312 20 view .LVU257
 1154              	.LBE116:
 1155              	.LBE115:
 1156              	.LBB117:
 1157              	.LBB118:
 255:Src/VFO/GUISetupView.cpp **** 	{
 1158              		.loc 2 255 2 is_stmt 1 view .LVU258
 255:Src/VFO/GUISetupView.cpp **** 	{
 1159              		.loc 2 255 13 is_stmt 0 view .LVU259
 1160 00c0 A369     		ldr	r3, [r4, #24]
 255:Src/VFO/GUISetupView.cpp **** 	{
 1161              		.loc 2 255 27 view .LVU260
 1162 00c2 1869     		ldr	r0, [r3, #16]
 255:Src/VFO/GUISetupView.cpp **** 	{
 1163              		.loc 2 255 11 view .LVU261
 1164 00c4 0028     		cmp	r0, #0
 1165 00c6 3DDD     		ble	.L71
 1166 00c8 2826     		movs	r6, #40
 1167 00ca 0025     		movs	r5, #0
 1168              	.LBB119:
 1169              	.LBB120:
 1170              	.LBB121:
 313:Src/VFO/GUISetupView.cpp **** 			selected ? COLOR565_WHITE : COLOR565_YELLOW, selected ? _selection : _window, VFO::backgroundCol
 314:Src/VFO/GUISetupView.cpp **** 
 315:Src/VFO/GUISetupView.cpp **** }
 316:Src/VFO/GUISetupView.cpp **** 
 317:Src/VFO/GUISetupView.cpp **** void GUISetupView::drawValue(uint8_t itemIndex, bool selected, bool edited)
 318:Src/VFO/GUISetupView.cpp **** {
 319:Src/VFO/GUISetupView.cpp **** 	char str[10];
 320:Src/VFO/GUISetupView.cpp **** 	uint16_t color = COLOR565_YELLOW;
 321:Src/VFO/GUISetupView.cpp **** 	if ( selected )
 322:Src/VFO/GUISetupView.cpp **** 	{
 323:Src/VFO/GUISetupView.cpp **** 		color = edited ? COLOR565_RED : COLOR565_WHITE;
 324:Src/VFO/GUISetupView.cpp **** 	}
 325:Src/VFO/GUISetupView.cpp **** 	const SetupItem *item = &(_currentItem->children[itemIndex]);
 326:Src/VFO/GUISetupView.cpp **** 	if ( item->getter )
 327:Src/VFO/GUISetupView.cpp **** 	{
 328:Src/VFO/GUISetupView.cpp **** 		uint32_t value = item->getter();
 329:Src/VFO/GUISetupView.cpp **** 		ST7735_PutStr5x7Ex(1, 100, 40 + itemIndex * 15, (char *) valToStr(value, str, sizeof(str), 0),
 330:Src/VFO/GUISetupView.cpp **** 			color,
 331:Src/VFO/GUISetupView.cpp **** 			selected ? _selection : _window,
 332:Src/VFO/GUISetupView.cpp **** 			VFO::backgroundColor);
 333:Src/VFO/GUISetupView.cpp **** 	}
 334:Src/VFO/GUISetupView.cpp **** 	else if (item->cmd ) // command
 335:Src/VFO/GUISetupView.cpp **** 	{
 336:Src/VFO/GUISetupView.cpp **** 
 337:Src/VFO/GUISetupView.cpp **** 	}
 338:Src/VFO/GUISetupView.cpp **** 	else // submenu
ARM GAS  /var/folders/20/cstyxln53wn53rr40gj353bh0000gn/T//ccP2nhox.s 			page 32


 339:Src/VFO/GUISetupView.cpp **** 	{
 340:Src/VFO/GUISetupView.cpp **** 		ST7735_PutStr5x7Ex(1, 148, 40 + itemIndex * 15, (char *)">",
 1171              		.loc 2 340 21 view .LVU262
 1172 00cc DFF864A1 		ldr	r10, .L101+12
 1173 00d0 23E0     		b	.L76
 1174              	.LVL72:
 1175              	.L99:
 1176              		.loc 2 340 21 view .LVU263
 1177              	.LBE121:
 323:Src/VFO/GUISetupView.cpp **** 	}
 1178              		.loc 2 323 3 is_stmt 1 view .LVU264
 323:Src/VFO/GUISetupView.cpp **** 	}
 1179              		.loc 2 323 9 is_stmt 0 view .LVU265
 1180 00d2 4FF6FF7C 		movw	ip, #65535
 1181 00d6 94F814E0 		ldrb	lr, [r4, #20]	@ zero_extendqisi2
 1182 00da BEF1000F 		cmp	lr, #0
 1183 00de 14BF     		ite	ne
 1184 00e0 4FF47849 		movne	r9, #63488
 1185 00e4 E146     		moveq	r9, ip
 1186              	.LVL73:
 325:Src/VFO/GUISetupView.cpp **** 	if ( item->getter )
 1187              		.loc 2 325 2 is_stmt 1 view .LVU266
 326:Src/VFO/GUISetupView.cpp **** 	{
 1188              		.loc 2 326 2 view .LVU267
 1189              	.LBB125:
 1190 00e6 81B3     		cbz	r1, .L98
 1191              	.LBB122:
 328:Src/VFO/GUISetupView.cpp **** 		ST7735_PutStr5x7Ex(1, 100, 40 + itemIndex * 15, (char *) valToStr(value, str, sizeof(str), 0),
 1192              		.loc 2 328 3 view .LVU268
 328:Src/VFO/GUISetupView.cpp **** 		ST7735_PutStr5x7Ex(1, 100, 40 + itemIndex * 15, (char *) valToStr(value, str, sizeof(str), 0),
 1193              		.loc 2 328 32 is_stmt 0 view .LVU269
 1194 00e8 8847     		blx	r1
 1195              	.LVL74:
 329:Src/VFO/GUISetupView.cpp **** 			color,
 1196              		.loc 2 329 3 is_stmt 1 view .LVU270
 329:Src/VFO/GUISetupView.cpp **** 			color,
 1197              		.loc 2 329 21 is_stmt 0 view .LVU271
 1198 00ea 0A22     		movs	r2, #10
 1199 00ec 0023     		movs	r3, #0
 1200 00ee 3946     		mov	r1, r7
 1201 00f0 FFF7FEFF 		bl	_ZN3VFO8valToStrElPcjc
 1202              	.LVL75:
 329:Src/VFO/GUISetupView.cpp **** 			color,
 1203              		.loc 2 329 21 view .LVU272
 1204 00f4 2269     		ldr	r2, [r4, #16]
 1205              	.LVL76:
 1206              	.L81:
 329:Src/VFO/GUISetupView.cpp **** 			color,
 1207              		.loc 2 329 21 view .LVU273
 1208 00f6 0346     		mov	r3, r0
 1209 00f8 CDE90128 		strd	r2, r8, [sp, #4]
 1210 00fc 0120     		movs	r0, #1
 1211 00fe CDF80090 		str	r9, [sp]
 1212 0102 3246     		mov	r2, r6
 1213 0104 6421     		movs	r1, #100
 1214 0106 FFF7FEFF 		bl	ST7735_PutStr5x7Ex
 1215              	.LVL77:
ARM GAS  /var/folders/20/cstyxln53wn53rr40gj353bh0000gn/T//ccP2nhox.s 			page 33


 1216 010a A369     		ldr	r3, [r4, #24]
 1217 010c 1869     		ldr	r0, [r3, #16]
 1218              	.L79:
 1219              	.LVL78:
 329:Src/VFO/GUISetupView.cpp **** 			color,
 1220              		.loc 2 329 21 view .LVU274
 1221              	.LBE122:
 1222              	.LBE125:
 1223              	.LBE120:
 1224              	.LBE119:
 255:Src/VFO/GUISetupView.cpp **** 	{
 1225              		.loc 2 255 2 view .LVU275
 1226 010e 0135     		adds	r5, r5, #1
 1227              	.LVL79:
 255:Src/VFO/GUISetupView.cpp **** 	{
 1228              		.loc 2 255 2 view .LVU276
 1229 0110 EDB2     		uxtb	r5, r5
 1230              	.LVL80:
 255:Src/VFO/GUISetupView.cpp **** 	{
 1231              		.loc 2 255 2 is_stmt 1 view .LVU277
 1232 0112 0F36     		adds	r6, r6, #15
 255:Src/VFO/GUISetupView.cpp **** 	{
 1233              		.loc 2 255 11 is_stmt 0 view .LVU278
 1234 0114 8542     		cmp	r5, r0
 1235 0116 F6B2     		uxtb	r6, r6
 1236 0118 14DA     		bge	.L71
 1237              	.LVL81:
 1238              	.L76:
 257:Src/VFO/GUISetupView.cpp **** 	}
 1239              		.loc 2 257 3 is_stmt 1 view .LVU279
 1240              	.LBB131:
 1241              	.LBI119:
 317:Src/VFO/GUISetupView.cpp **** {
 1242              		.loc 2 317 6 view .LVU280
 1243              	.LBB129:
 319:Src/VFO/GUISetupView.cpp **** 	uint16_t color = COLOR565_YELLOW;
 1244              		.loc 2 319 2 view .LVU281
 320:Src/VFO/GUISetupView.cpp **** 	if ( selected )
 1245              		.loc 2 320 2 view .LVU282
 321:Src/VFO/GUISetupView.cpp **** 	{
 1246              		.loc 2 321 2 view .LVU283
 1247 011a 5969     		ldr	r1, [r3, #20]
 1248 011c 94F815C0 		ldrb	ip, [r4, #21]	@ zero_extendqisi2
 1249 0120 05EB4502 		add	r2, r5, r5, lsl #1
 1250 0124 01EBC202 		add	r2, r1, r2, lsl #3
 1251 0128 AC45     		cmp	ip, r5
 1252 012a 5168     		ldr	r1, [r2, #4]
 1253 012c D1D0     		beq	.L99
 325:Src/VFO/GUISetupView.cpp **** 	if ( item->getter )
 1254              		.loc 2 325 2 view .LVU284
 1255              	.LVL82:
 326:Src/VFO/GUISetupView.cpp **** 	{
 1256              		.loc 2 326 2 view .LVU285
 1257              	.LBB126:
 1258 012e 91B1     		cbz	r1, .L100
 1259              	.LBB123:
 328:Src/VFO/GUISetupView.cpp **** 		ST7735_PutStr5x7Ex(1, 100, 40 + itemIndex * 15, (char *) valToStr(value, str, sizeof(str), 0),
ARM GAS  /var/folders/20/cstyxln53wn53rr40gj353bh0000gn/T//ccP2nhox.s 			page 34


 1260              		.loc 2 328 3 view .LVU286
 328:Src/VFO/GUISetupView.cpp **** 		ST7735_PutStr5x7Ex(1, 100, 40 + itemIndex * 15, (char *) valToStr(value, str, sizeof(str), 0),
 1261              		.loc 2 328 32 is_stmt 0 view .LVU287
 1262 0130 8847     		blx	r1
 1263              	.LVL83:
 329:Src/VFO/GUISetupView.cpp **** 			color,
 1264              		.loc 2 329 3 is_stmt 1 view .LVU288
 329:Src/VFO/GUISetupView.cpp **** 			color,
 1265              		.loc 2 329 21 is_stmt 0 view .LVU289
 1266 0132 0A22     		movs	r2, #10
 1267 0134 0023     		movs	r3, #0
 1268 0136 3946     		mov	r1, r7
 1269 0138 FFF7FEFF 		bl	_ZN3VFO8valToStrElPcjc
 1270              	.LVL84:
 329:Src/VFO/GUISetupView.cpp **** 			color,
 1271              		.loc 2 329 21 view .LVU290
 1272              	.LBE123:
 1273              	.LBE126:
 320:Src/VFO/GUISetupView.cpp **** 	if ( selected )
 1274              		.loc 2 320 11 view .LVU291
 1275 013c 4FF6E079 		movw	r9, #65504
 1276              	.LBB127:
 1277              	.LBB124:
 329:Src/VFO/GUISetupView.cpp **** 			color,
 1278              		.loc 2 329 21 view .LVU292
 1279 0140 6268     		ldr	r2, [r4, #4]
 1280 0142 D8E7     		b	.L81
 1281              	.LVL85:
 1282              	.L71:
 329:Src/VFO/GUISetupView.cpp **** 			color,
 1283              		.loc 2 329 21 view .LVU293
 1284              	.LBE124:
 1285              	.LBE127:
 1286              	.LBE129:
 1287              	.LBE131:
 1288              	.LBE118:
 1289              	.LBE117:
 249:Src/VFO/GUISetupView.cpp **** 
 1290              		.loc 2 249 1 view .LVU294
 1291 0144 0AB0     		add	sp, sp, #40
 1292              	.LCFI11:
 1293              		.cfi_remember_state
 1294              		.cfi_def_cfa_offset 32
 1295              		@ sp needed
 1296 0146 BDE8F087 		pop	{r4, r5, r6, r7, r8, r9, r10, pc}
 1297              	.LVL86:
 1298              	.L98:
 1299              	.LCFI12:
 1300              		.cfi_restore_state
 1301              	.LBB134:
 1302              	.LBB133:
 1303              	.LBB132:
 1304              	.LBB130:
 1305              	.LBB128:
 334:Src/VFO/GUISetupView.cpp **** 	{
 1306              		.loc 2 334 7 is_stmt 1 view .LVU295
 1307 014a D268     		ldr	r2, [r2, #12]
ARM GAS  /var/folders/20/cstyxln53wn53rr40gj353bh0000gn/T//ccP2nhox.s 			page 35


 1308 014c 002A     		cmp	r2, #0
 1309 014e DED1     		bne	.L79
 1310              		.loc 2 340 3 view .LVU296
 1311              		.loc 2 340 21 is_stmt 0 view .LVU297
 1312 0150 6346     		mov	r3, ip
 1313              	.LVL87:
 1314              		.loc 2 340 21 view .LVU298
 1315 0152 2269     		ldr	r2, [r4, #16]
 1316 0154 05E0     		b	.L86
 1317              	.LVL88:
 1318              	.L100:
 334:Src/VFO/GUISetupView.cpp **** 	{
 1319              		.loc 2 334 7 is_stmt 1 view .LVU299
 1320 0156 D268     		ldr	r2, [r2, #12]
 1321 0158 002A     		cmp	r2, #0
 1322 015a D8D1     		bne	.L79
 1323              		.loc 2 340 3 view .LVU300
 1324              		.loc 2 340 21 is_stmt 0 view .LVU301
 1325 015c 4FF6E073 		movw	r3, #65504
 1326              	.LVL89:
 1327              		.loc 2 340 21 view .LVU302
 1328 0160 6268     		ldr	r2, [r4, #4]
 1329              	.LVL90:
 1330              	.L86:
 1331              		.loc 2 340 21 view .LVU303
 1332 0162 CDE90128 		strd	r2, r8, [sp, #4]
 1333              	.LVL91:
 1334              		.loc 2 340 21 view .LVU304
 1335 0166 0093     		str	r3, [sp]
 1336 0168 0120     		movs	r0, #1
 1337 016a 5346     		mov	r3, r10
 1338 016c 3246     		mov	r2, r6
 1339 016e 9421     		movs	r1, #148
 1340 0170 FFF7FEFF 		bl	ST7735_PutStr5x7Ex
 1341              	.LVL92:
 1342 0174 A369     		ldr	r3, [r4, #24]
 1343 0176 1869     		ldr	r0, [r3, #16]
 1344 0178 C9E7     		b	.L79
 1345              	.LVL93:
 1346              	.L97:
 1347              		.loc 2 340 21 view .LVU305
 1348              	.LBE128:
 1349              	.LBE130:
 1350              	.LBE132:
 1351              	.LBE133:
 1352              	.LBE134:
 241:Src/VFO/GUISetupView.cpp **** 	}
 1353              		.loc 2 241 3 is_stmt 1 view .LVU306
 1354              	.LBB135:
 1355              	.LBI135:
 341:Src/VFO/GUISetupView.cpp **** 			selected ? COLOR565_WHITE : COLOR565_YELLOW,
 342:Src/VFO/GUISetupView.cpp **** 			selected ? _selection : _window,
 343:Src/VFO/GUISetupView.cpp **** 			VFO::backgroundColor);
 344:Src/VFO/GUISetupView.cpp **** 	}
 345:Src/VFO/GUISetupView.cpp **** }
 346:Src/VFO/GUISetupView.cpp **** 
 347:Src/VFO/GUISetupView.cpp **** void GUISetupView::drawBackButton(bool selected)
ARM GAS  /var/folders/20/cstyxln53wn53rr40gj353bh0000gn/T//ccP2nhox.s 			page 36


 1356              		.loc 2 347 6 view .LVU307
 1357              	.LBB136:
 348:Src/VFO/GUISetupView.cpp **** {
 349:Src/VFO/GUISetupView.cpp **** 	char str1[6];
 1358              		.loc 2 349 2 view .LVU308
 350:Src/VFO/GUISetupView.cpp **** 	uint16_t color = COLOR565_YELLOW;
 1359              		.loc 2 350 2 view .LVU309
 351:Src/VFO/GUISetupView.cpp **** 	if ( selected )
 1360              		.loc 2 351 2 view .LVU310
 352:Src/VFO/GUISetupView.cpp **** 	{
 353:Src/VFO/GUISetupView.cpp **** 		_btnBack->upLeft  = { 10, 160, 10 };
 1361              		.loc 2 353 3 view .LVU311
 1362              		.loc 2 353 21 is_stmt 0 view .LVU312
 1363 017a 2B4B     		ldr	r3, .L101
 1364              		.loc 2 353 3 view .LVU313
 1365 017c E068     		ldr	r0, [r4, #12]
 1366              		.loc 2 353 21 view .LVU314
 1367 017e 1A46     		mov	r2, r3
 1368 0180 32F8185F 		ldrh	r5, [r2, #24]!	@ unaligned
 354:Src/VFO/GUISetupView.cpp **** 		_btnBack->upRight = { 10, 160, 10 };
 355:Src/VFO/GUISetupView.cpp **** 		_btnBack->downLeft    = { 10, 10, 100 };
 1369              		.loc 2 355 25 view .LVU315
 1370 0184 D969     		ldr	r1, [r3, #28]
 356:Src/VFO/GUISetupView.cpp **** 		_btnBack->downRight   = { 10, 10, 100 };
 1371              		.loc 2 356 25 view .LVU316
 1372 0186 33F81C6F 		ldrh	r6, [r3, #28]!	@ unaligned
 353:Src/VFO/GUISetupView.cpp **** 		_btnBack->upRight = { 10, 160, 10 };
 1373              		.loc 2 353 21 view .LVU317
 1374 018a 9278     		ldrb	r2, [r2, #2]	@ zero_extendqisi2
 1375              		.loc 2 356 25 view .LVU318
 1376 018c 9B78     		ldrb	r3, [r3, #2]	@ zero_extendqisi2
 353:Src/VFO/GUISetupView.cpp **** 		_btnBack->upRight = { 10, 160, 10 };
 1377              		.loc 2 353 21 view .LVU319
 1378 018e 0272     		strb	r2, [r0, #8]
 354:Src/VFO/GUISetupView.cpp **** 		_btnBack->upRight = { 10, 160, 10 };
 1379              		.loc 2 354 3 is_stmt 1 view .LVU320
 354:Src/VFO/GUISetupView.cpp **** 		_btnBack->upRight = { 10, 160, 10 };
 1380              		.loc 2 354 21 is_stmt 0 view .LVU321
 1381 0190 C272     		strb	r2, [r0, #11]
 355:Src/VFO/GUISetupView.cpp **** 		_btnBack->downRight   = { 10, 10, 100 };
 1382              		.loc 2 355 3 is_stmt 1 view .LVU322
 355:Src/VFO/GUISetupView.cpp **** 		_btnBack->downRight   = { 10, 10, 100 };
 1383              		.loc 2 355 25 is_stmt 0 view .LVU323
 1384 0192 0A0C     		lsrs	r2, r1, #16
 1385              		.loc 2 356 25 view .LVU324
 1386 0194 4374     		strb	r3, [r0, #17]
 353:Src/VFO/GUISetupView.cpp **** 		_btnBack->upRight = { 10, 160, 10 };
 1387              		.loc 2 353 21 view .LVU325
 1388 0196 C580     		strh	r5, [r0, #6]	@ unaligned
 354:Src/VFO/GUISetupView.cpp **** 		_btnBack->downLeft    = { 10, 10, 100 };
 1389              		.loc 2 354 21 view .LVU326
 1390 0198 A0F80950 		strh	r5, [r0, #9]	@ unaligned
 355:Src/VFO/GUISetupView.cpp **** 		_btnBack->downRight   = { 10, 10, 100 };
 1391              		.loc 2 355 25 view .LVU327
 1392 019c 8181     		strh	r1, [r0, #12]	@ movhi
 1393 019e 8273     		strb	r2, [r0, #14]
 1394              		.loc 2 356 3 is_stmt 1 view .LVU328
ARM GAS  /var/folders/20/cstyxln53wn53rr40gj353bh0000gn/T//ccP2nhox.s 			page 37


 357:Src/VFO/GUISetupView.cpp **** 		color = COLOR565_WHITE;
 1395              		.loc 2 357 3 view .LVU329
 1396              	.LVL94:
 358:Src/VFO/GUISetupView.cpp **** 	}
 359:Src/VFO/GUISetupView.cpp **** 	else
 360:Src/VFO/GUISetupView.cpp **** 	{
 361:Src/VFO/GUISetupView.cpp **** 		_btnBack->downLeft  = { 10, 10, 10 };
 362:Src/VFO/GUISetupView.cpp **** 		_btnBack->downRight = { 10, 10, 10 };
 363:Src/VFO/GUISetupView.cpp **** 		_btnBack->upLeft    = { 100, 100, 100 };
 364:Src/VFO/GUISetupView.cpp **** 		_btnBack->upRight   = { 100, 100, 100};
 365:Src/VFO/GUISetupView.cpp **** 	}
 366:Src/VFO/GUISetupView.cpp **** 	_btnBack->draw();
 1397              		.loc 2 366 2 view .LVU330
 356:Src/VFO/GUISetupView.cpp **** 		color = COLOR565_WHITE;
 1398              		.loc 2 356 25 is_stmt 0 view .LVU331
 1399 01a0 A0F80F60 		strh	r6, [r0, #15]	@ unaligned
 1400              		.loc 2 366 16 view .LVU332
 1401 01a4 FFF7FEFF 		bl	_ZN3VFO11GradientBox4drawEv
 1402              	.LVL95:
 367:Src/VFO/GUISetupView.cpp **** 	ST7735_PutStr5x7Ex(1, 21, 111, VFO::utf8to1251Dest("Назад", str1, sizeof(str1)),
 1403              		.loc 2 367 2 is_stmt 1 view .LVU333
 1404              		.loc 2 367 20 is_stmt 0 view .LVU334
 1405 01a8 3946     		mov	r1, r7
 1406 01aa 0622     		movs	r2, #6
 1407 01ac 1F48     		ldr	r0, .L101+4
 1408 01ae FFF7FEFF 		bl	_ZN3VFO14utf8to1251DestEPKcPcj
 1409              	.LVL96:
 1410 01b2 4FF6FF71 		movw	r1, #65535
 1411 01b6 E268     		ldr	r2, [r4, #12]
 1412 01b8 0346     		mov	r3, r0
 1413 01ba 8DE80601 		stm	sp, {r1, r2, r8}
 1414 01be 0120     		movs	r0, #1
 1415 01c0 6F22     		movs	r2, #111
 1416 01c2 1521     		movs	r1, #21
 1417 01c4 FFF7FEFF 		bl	ST7735_PutStr5x7Ex
 1418              	.LVL97:
 1419 01c8 7AE7     		b	.L75
 1420              	.LVL98:
 1421              	.L96:
 1422              		.loc 2 367 20 view .LVU335
 1423              	.LBE136:
 1424              	.LBE135:
 229:Src/VFO/GUISetupView.cpp **** 	}
 1425              		.loc 2 229 3 is_stmt 1 view .LVU336
 1426              	.LBB137:
 1427              	.LBI137:
 347:Src/VFO/GUISetupView.cpp **** {
 1428              		.loc 2 347 6 view .LVU337
 1429              	.LBB138:
 349:Src/VFO/GUISetupView.cpp **** 	uint16_t color = COLOR565_YELLOW;
 1430              		.loc 2 349 2 view .LVU338
 350:Src/VFO/GUISetupView.cpp **** 	if ( selected )
 1431              		.loc 2 350 2 view .LVU339
 351:Src/VFO/GUISetupView.cpp **** 	{
 1432              		.loc 2 351 2 view .LVU340
 361:Src/VFO/GUISetupView.cpp **** 		_btnBack->downRight = { 10, 10, 10 };
 1433              		.loc 2 361 3 view .LVU341
ARM GAS  /var/folders/20/cstyxln53wn53rr40gj353bh0000gn/T//ccP2nhox.s 			page 38


 361:Src/VFO/GUISetupView.cpp **** 		_btnBack->downRight = { 10, 10, 10 };
 1434              		.loc 2 361 23 is_stmt 0 view .LVU342
 1435 01ca 174E     		ldr	r6, .L101
 361:Src/VFO/GUISetupView.cpp **** 		_btnBack->downRight = { 10, 10, 10 };
 1436              		.loc 2 361 3 view .LVU343
 1437 01cc C068     		ldr	r0, [r0, #12]
 1438              	.LVL99:
 361:Src/VFO/GUISetupView.cpp **** 		_btnBack->downRight = { 10, 10, 10 };
 1439              		.loc 2 361 23 view .LVU344
 1440 01ce 3346     		mov	r3, r6
 363:Src/VFO/GUISetupView.cpp **** 		_btnBack->upRight   = { 100, 100, 100};
 1441              		.loc 2 363 23 view .LVU345
 1442 01d0 3246     		mov	r2, r6
 362:Src/VFO/GUISetupView.cpp **** 		_btnBack->upLeft    = { 100, 100, 100 };
 1443              		.loc 2 362 23 view .LVU346
 1444 01d2 33F8107F 		ldrh	r7, [r3, #16]!	@ unaligned
 363:Src/VFO/GUISetupView.cpp **** 		_btnBack->upRight   = { 100, 100, 100};
 1445              		.loc 2 363 23 view .LVU347
 1446 01d6 32F8141F 		ldrh	r1, [r2, #20]!	@ unaligned
 1447              	.LVL100:
 361:Src/VFO/GUISetupView.cpp **** 		_btnBack->downRight = { 10, 10, 10 };
 1448              		.loc 2 361 23 view .LVU348
 1449 01da 3669     		ldr	r6, [r6, #16]
 362:Src/VFO/GUISetupView.cpp **** 		_btnBack->upLeft    = { 100, 100, 100 };
 1450              		.loc 2 362 23 view .LVU349
 1451 01dc 93F802C0 		ldrb	ip, [r3, #2]	@ zero_extendqisi2
 363:Src/VFO/GUISetupView.cpp **** 		_btnBack->upRight   = { 100, 100, 100};
 1452              		.loc 2 363 23 view .LVU350
 1453 01e0 9378     		ldrb	r3, [r2, #2]	@ zero_extendqisi2
 361:Src/VFO/GUISetupView.cpp **** 		_btnBack->downRight = { 10, 10, 10 };
 1454              		.loc 2 361 23 view .LVU351
 1455 01e2 320C     		lsrs	r2, r6, #16
 362:Src/VFO/GUISetupView.cpp **** 		_btnBack->upLeft    = { 100, 100, 100 };
 1456              		.loc 2 362 23 view .LVU352
 1457 01e4 80F811C0 		strb	ip, [r0, #17]
 363:Src/VFO/GUISetupView.cpp **** 		_btnBack->upRight   = { 100, 100, 100};
 1458              		.loc 2 363 23 view .LVU353
 1459 01e8 0372     		strb	r3, [r0, #8]
 364:Src/VFO/GUISetupView.cpp **** 	}
 1460              		.loc 2 364 23 view .LVU354
 1461 01ea C372     		strb	r3, [r0, #11]
 362:Src/VFO/GUISetupView.cpp **** 		_btnBack->upLeft    = { 100, 100, 100 };
 1462              		.loc 2 362 23 view .LVU355
 1463 01ec A0F80F70 		strh	r7, [r0, #15]	@ unaligned
 361:Src/VFO/GUISetupView.cpp **** 		_btnBack->downRight = { 10, 10, 10 };
 1464              		.loc 2 361 23 view .LVU356
 1465 01f0 8681     		strh	r6, [r0, #12]	@ movhi
 1466 01f2 8273     		strb	r2, [r0, #14]
 362:Src/VFO/GUISetupView.cpp **** 		_btnBack->upLeft    = { 100, 100, 100 };
 1467              		.loc 2 362 3 is_stmt 1 view .LVU357
 363:Src/VFO/GUISetupView.cpp **** 		_btnBack->upRight   = { 100, 100, 100};
 1468              		.loc 2 363 3 view .LVU358
 364:Src/VFO/GUISetupView.cpp **** 	}
 1469              		.loc 2 364 3 view .LVU359
 366:Src/VFO/GUISetupView.cpp **** 	ST7735_PutStr5x7Ex(1, 21, 111, VFO::utf8to1251Dest("Назад", str1, sizeof(str1)),
 1470              		.loc 2 366 2 view .LVU360
 363:Src/VFO/GUISetupView.cpp **** 		_btnBack->upRight   = { 100, 100, 100};
ARM GAS  /var/folders/20/cstyxln53wn53rr40gj353bh0000gn/T//ccP2nhox.s 			page 39


 1471              		.loc 2 363 23 is_stmt 0 view .LVU361
 1472 01f4 C180     		strh	r1, [r0, #6]	@ unaligned
 364:Src/VFO/GUISetupView.cpp **** 	}
 1473              		.loc 2 364 23 view .LVU362
 1474 01f6 A0F80910 		strh	r1, [r0, #9]	@ unaligned
 1475              		.loc 2 367 20 view .LVU363
 1476 01fa 05AF     		add	r7, sp, #20
 366:Src/VFO/GUISetupView.cpp **** 	ST7735_PutStr5x7Ex(1, 21, 111, VFO::utf8to1251Dest("Назад", str1, sizeof(str1)),
 1477              		.loc 2 366 16 view .LVU364
 1478 01fc FFF7FEFF 		bl	_ZN3VFO11GradientBox4drawEv
 1479              	.LVL101:
 1480              		.loc 2 367 2 is_stmt 1 view .LVU365
 1481              		.loc 2 367 20 is_stmt 0 view .LVU366
 1482 0200 3946     		mov	r1, r7
 1483 0202 0622     		movs	r2, #6
 1484 0204 0948     		ldr	r0, .L101+4
 1485 0206 FFF7FEFF 		bl	_ZN3VFO14utf8to1251DestEPKcPcj
 1486              	.LVL102:
 1487 020a 4FF6E071 		movw	r1, #65504
 1488 020e E268     		ldr	r2, [r4, #12]
 1489 0210 DFF81C80 		ldr	r8, .L101+8
 1490 0214 0346     		mov	r3, r0
 1491 0216 8DE80601 		stm	sp, {r1, r2, r8}
 1492 021a 0120     		movs	r0, #1
 1493 021c 6F22     		movs	r2, #111
 1494 021e 1521     		movs	r1, #21
 1495 0220 FFF7FEFF 		bl	ST7735_PutStr5x7Ex
 1496              	.LVL103:
 1497 0224 20E7     		b	.L73
 1498              	.L102:
 1499 0226 00BF     		.align	2
 1500              	.L101:
 1501 0228 00000000 		.word	.LANCHOR1
 1502 022c 00000000 		.word	.LC8
 1503 0230 00000000 		.word	_ZN3VFO15backgroundColorEPvhh
 1504 0234 0C000000 		.word	.LC9
 1505              	.LBE138:
 1506              	.LBE137:
 1507              		.cfi_endproc
 1508              	.LFE131:
 1509              		.fnend
 1511              		.section	.text._ZN3VFO12GUISetupView12updateValuesEv,"ax",%progbits
 1512              		.align	1
 1513              		.p2align 2,,3
 1514              		.global	_ZN3VFO12GUISetupView12updateValuesEv
 1515              		.syntax unified
 1516              		.thumb
 1517              		.thumb_func
 1518              		.fpu softvfp
 1520              	_ZN3VFO12GUISetupView12updateValuesEv:
 1521              		.fnstart
 1522              	.LVL104:
 1523              	.LFB132:
 253:Src/VFO/GUISetupView.cpp **** 	uint8_t i = 0;
 1524              		.loc 2 253 1 is_stmt 1 view -0
 1525              		.cfi_startproc
 1526              		@ args = 0, pretend = 0, frame = 16
ARM GAS  /var/folders/20/cstyxln53wn53rr40gj353bh0000gn/T//ccP2nhox.s 			page 40


 1527              		@ frame_needed = 0, uses_anonymous_args = 0
 254:Src/VFO/GUISetupView.cpp **** 	for (; i < _currentItem->numChildren; i++)
 1528              		.loc 2 254 2 view .LVU368
 255:Src/VFO/GUISetupView.cpp **** 	{
 1529              		.loc 2 255 2 view .LVU369
 253:Src/VFO/GUISetupView.cpp **** 	uint8_t i = 0;
 1530              		.loc 2 253 1 is_stmt 0 view .LVU370
 1531 0000 2DE9F043 		push	{r4, r5, r6, r7, r8, r9, lr}
 1532              		.save {r4, r5, r6, r7, r8, r9, lr}
 1533              	.LCFI13:
 1534              		.cfi_def_cfa_offset 28
 1535              		.cfi_offset 4, -28
 1536              		.cfi_offset 5, -24
 1537              		.cfi_offset 6, -20
 1538              		.cfi_offset 7, -16
 1539              		.cfi_offset 8, -12
 1540              		.cfi_offset 9, -8
 1541              		.cfi_offset 14, -4
 255:Src/VFO/GUISetupView.cpp **** 	{
 1542              		.loc 2 255 13 view .LVU371
 1543 0004 8169     		ldr	r1, [r0, #24]
 253:Src/VFO/GUISetupView.cpp **** 	uint8_t i = 0;
 1544              		.loc 2 253 1 view .LVU372
 1545              		.pad #36
 1546 0006 89B0     		sub	sp, sp, #36
 1547              	.LCFI14:
 1548              		.cfi_def_cfa_offset 64
 255:Src/VFO/GUISetupView.cpp **** 	{
 1549              		.loc 2 255 27 view .LVU373
 1550 0008 0D69     		ldr	r5, [r1, #16]
 255:Src/VFO/GUISetupView.cpp **** 	{
 1551              		.loc 2 255 11 view .LVU374
 1552 000a 002D     		cmp	r5, #0
 1553 000c 66DD     		ble	.L103
 1554 000e 0646     		mov	r6, r0
 254:Src/VFO/GUISetupView.cpp **** 	for (; i < _currentItem->numChildren; i++)
 1555              		.loc 2 254 10 view .LVU375
 1556 0010 0024     		movs	r4, #0
 1557              	.LBB143:
 1558              	.LBB144:
 1559              	.LBB145:
 340:Src/VFO/GUISetupView.cpp **** 			selected ? COLOR565_WHITE : COLOR565_YELLOW,
 1560              		.loc 2 340 21 view .LVU376
 1561 0012 344F     		ldr	r7, .L127
 1562 0014 DFF8D080 		ldr	r8, .L127+4
 1563 0018 26E0     		b	.L104
 1564              	.LVL105:
 1565              	.L125:
 340:Src/VFO/GUISetupView.cpp **** 			selected ? COLOR565_WHITE : COLOR565_YELLOW,
 1566              		.loc 2 340 21 view .LVU377
 1567              	.LBE145:
 323:Src/VFO/GUISetupView.cpp **** 	}
 1568              		.loc 2 323 3 is_stmt 1 view .LVU378
 323:Src/VFO/GUISetupView.cpp **** 	}
 1569              		.loc 2 323 9 is_stmt 0 view .LVU379
 1570 001a 4FF6FF70 		movw	r0, #65535
 1571 001e 96F814C0 		ldrb	ip, [r6, #20]	@ zero_extendqisi2
ARM GAS  /var/folders/20/cstyxln53wn53rr40gj353bh0000gn/T//ccP2nhox.s 			page 41


 1572 0022 BCF1000F 		cmp	ip, #0
 1573 0026 14BF     		ite	ne
 1574 0028 4FF47849 		movne	r9, #63488
 1575 002c 8146     		moveq	r9, r0
 1576              	.LVL106:
 325:Src/VFO/GUISetupView.cpp **** 	if ( item->getter )
 1577              		.loc 2 325 2 is_stmt 1 view .LVU380
 326:Src/VFO/GUISetupView.cpp **** 	{
 1578              		.loc 2 326 2 view .LVU381
 1579              	.LBB149:
 1580 002e 002A     		cmp	r2, #0
 1581 0030 33D0     		beq	.L124
 1582              	.LBB146:
 328:Src/VFO/GUISetupView.cpp **** 		ST7735_PutStr5x7Ex(1, 100, 40 + itemIndex * 15, (char *) valToStr(value, str, sizeof(str), 0),
 1583              		.loc 2 328 3 view .LVU382
 328:Src/VFO/GUISetupView.cpp **** 		ST7735_PutStr5x7Ex(1, 100, 40 + itemIndex * 15, (char *) valToStr(value, str, sizeof(str), 0),
 1584              		.loc 2 328 32 is_stmt 0 view .LVU383
 1585 0032 9047     		blx	r2
 1586              	.LVL107:
 329:Src/VFO/GUISetupView.cpp **** 			color,
 1587              		.loc 2 329 3 is_stmt 1 view .LVU384
 329:Src/VFO/GUISetupView.cpp **** 			color,
 1588              		.loc 2 329 21 is_stmt 0 view .LVU385
 1589 0034 0023     		movs	r3, #0
 1590 0036 0A22     		movs	r2, #10
 1591 0038 05A9     		add	r1, sp, #20
 1592 003a FFF7FEFF 		bl	_ZN3VFO8valToStrElPcjc
 1593              	.LVL108:
 329:Src/VFO/GUISetupView.cpp **** 			color,
 1594              		.loc 2 329 21 view .LVU386
 1595 003e 0346     		mov	r3, r0
 329:Src/VFO/GUISetupView.cpp **** 			color,
 1596              		.loc 2 329 21 view .LVU387
 1597 0040 C4EB0415 		rsb	r5, r4, r4, lsl #4
 1598 0044 2835     		adds	r5, r5, #40
 1599 0046 3269     		ldr	r2, [r6, #16]
 1600 0048 EDB2     		uxtb	r5, r5
 1601              	.LVL109:
 1602              	.L109:
 329:Src/VFO/GUISetupView.cpp **** 			color,
 1603              		.loc 2 329 21 view .LVU388
 1604 004a CDE90127 		strd	r2, r7, [sp, #4]
 1605 004e 6421     		movs	r1, #100
 1606 0050 2A46     		mov	r2, r5
 1607 0052 CDF80090 		str	r9, [sp]
 1608 0056 0120     		movs	r0, #1
 1609 0058 FFF7FEFF 		bl	ST7735_PutStr5x7Ex
 1610              	.LVL110:
 1611 005c B169     		ldr	r1, [r6, #24]
 1612 005e 0D69     		ldr	r5, [r1, #16]
 1613              	.L107:
 1614              	.LVL111:
 329:Src/VFO/GUISetupView.cpp **** 			color,
 1615              		.loc 2 329 21 view .LVU389
 1616              	.LBE146:
 1617              	.LBE149:
 1618              	.LBE144:
ARM GAS  /var/folders/20/cstyxln53wn53rr40gj353bh0000gn/T//ccP2nhox.s 			page 42


 1619              	.LBE143:
 255:Src/VFO/GUISetupView.cpp **** 	{
 1620              		.loc 2 255 2 view .LVU390
 1621 0060 0134     		adds	r4, r4, #1
 1622              	.LVL112:
 255:Src/VFO/GUISetupView.cpp **** 	{
 1623              		.loc 2 255 2 view .LVU391
 1624 0062 E4B2     		uxtb	r4, r4
 1625              	.LVL113:
 255:Src/VFO/GUISetupView.cpp **** 	{
 1626              		.loc 2 255 2 is_stmt 1 view .LVU392
 255:Src/VFO/GUISetupView.cpp **** 	{
 1627              		.loc 2 255 11 is_stmt 0 view .LVU393
 1628 0064 AC42     		cmp	r4, r5
 1629 0066 39DA     		bge	.L103
 1630              	.LVL114:
 1631              	.L104:
 257:Src/VFO/GUISetupView.cpp **** 	}
 1632              		.loc 2 257 3 is_stmt 1 discriminator 1 view .LVU394
 1633              	.LBB153:
 1634              	.LBI143:
 317:Src/VFO/GUISetupView.cpp **** {
 1635              		.loc 2 317 6 discriminator 1 view .LVU395
 1636              	.LBB152:
 319:Src/VFO/GUISetupView.cpp **** 	uint16_t color = COLOR565_YELLOW;
 1637              		.loc 2 319 2 discriminator 1 view .LVU396
 320:Src/VFO/GUISetupView.cpp **** 	if ( selected )
 1638              		.loc 2 320 2 discriminator 1 view .LVU397
 321:Src/VFO/GUISetupView.cpp **** 	{
 1639              		.loc 2 321 2 discriminator 1 view .LVU398
 1640 0068 4A69     		ldr	r2, [r1, #20]
 1641 006a 707D     		ldrb	r0, [r6, #21]	@ zero_extendqisi2
 1642 006c 04EB4403 		add	r3, r4, r4, lsl #1
 1643 0070 02EBC303 		add	r3, r2, r3, lsl #3
 1644 0074 A042     		cmp	r0, r4
 1645 0076 5A68     		ldr	r2, [r3, #4]
 1646 0078 CFD0     		beq	.L125
 325:Src/VFO/GUISetupView.cpp **** 	if ( item->getter )
 1647              		.loc 2 325 2 view .LVU399
 1648              	.LVL115:
 326:Src/VFO/GUISetupView.cpp **** 	{
 1649              		.loc 2 326 2 view .LVU400
 1650              	.LBB150:
 1651 007a BAB1     		cbz	r2, .L126
 1652              	.LBB147:
 328:Src/VFO/GUISetupView.cpp **** 		ST7735_PutStr5x7Ex(1, 100, 40 + itemIndex * 15, (char *) valToStr(value, str, sizeof(str), 0),
 1653              		.loc 2 328 3 view .LVU401
 328:Src/VFO/GUISetupView.cpp **** 		ST7735_PutStr5x7Ex(1, 100, 40 + itemIndex * 15, (char *) valToStr(value, str, sizeof(str), 0),
 1654              		.loc 2 328 32 is_stmt 0 view .LVU402
 1655 007c 9047     		blx	r2
 1656              	.LVL116:
 329:Src/VFO/GUISetupView.cpp **** 			color,
 1657              		.loc 2 329 3 is_stmt 1 view .LVU403
 329:Src/VFO/GUISetupView.cpp **** 			color,
 1658              		.loc 2 329 21 is_stmt 0 view .LVU404
 1659 007e 0023     		movs	r3, #0
 1660 0080 0A22     		movs	r2, #10
ARM GAS  /var/folders/20/cstyxln53wn53rr40gj353bh0000gn/T//ccP2nhox.s 			page 43


 1661 0082 05A9     		add	r1, sp, #20
 1662 0084 FFF7FEFF 		bl	_ZN3VFO8valToStrElPcjc
 1663              	.LVL117:
 329:Src/VFO/GUISetupView.cpp **** 			color,
 1664              		.loc 2 329 21 view .LVU405
 1665 0088 C4EB0415 		rsb	r5, r4, r4, lsl #4
 1666 008c 2835     		adds	r5, r5, #40
 1667 008e EDB2     		uxtb	r5, r5
 1668              	.LBE147:
 1669              	.LBE150:
 320:Src/VFO/GUISetupView.cpp **** 	if ( selected )
 1670              		.loc 2 320 11 view .LVU406
 1671 0090 4FF6E079 		movw	r9, #65504
 1672              	.LBB151:
 1673              	.LBB148:
 329:Src/VFO/GUISetupView.cpp **** 			color,
 1674              		.loc 2 329 21 view .LVU407
 1675 0094 0346     		mov	r3, r0
 329:Src/VFO/GUISetupView.cpp **** 			color,
 1676              		.loc 2 329 21 view .LVU408
 1677 0096 7268     		ldr	r2, [r6, #4]
 1678 0098 D7E7     		b	.L109
 1679              	.LVL118:
 1680              	.L124:
 329:Src/VFO/GUISetupView.cpp **** 			color,
 1681              		.loc 2 329 21 view .LVU409
 1682              	.LBE148:
 334:Src/VFO/GUISetupView.cpp **** 	{
 1683              		.loc 2 334 7 is_stmt 1 view .LVU410
 1684 009a DB68     		ldr	r3, [r3, #12]
 1685 009c 002B     		cmp	r3, #0
 1686 009e DFD1     		bne	.L107
 340:Src/VFO/GUISetupView.cpp **** 			selected ? COLOR565_WHITE : COLOR565_YELLOW,
 1687              		.loc 2 340 3 view .LVU411
 1688 00a0 C4EB0412 		rsb	r2, r4, r4, lsl #4
 1689 00a4 2832     		adds	r2, r2, #40
 1690 00a6 D2B2     		uxtb	r2, r2
 340:Src/VFO/GUISetupView.cpp **** 			selected ? COLOR565_WHITE : COLOR565_YELLOW,
 1691              		.loc 2 340 21 is_stmt 0 view .LVU412
 1692 00a8 3369     		ldr	r3, [r6, #16]
 1693 00aa 09E0     		b	.L114
 1694              	.LVL119:
 1695              	.L126:
 334:Src/VFO/GUISetupView.cpp **** 	{
 1696              		.loc 2 334 7 is_stmt 1 view .LVU413
 1697 00ac DB68     		ldr	r3, [r3, #12]
 1698 00ae 002B     		cmp	r3, #0
 1699 00b0 D6D1     		bne	.L107
 340:Src/VFO/GUISetupView.cpp **** 			selected ? COLOR565_WHITE : COLOR565_YELLOW,
 1700              		.loc 2 340 3 view .LVU414
 340:Src/VFO/GUISetupView.cpp **** 			selected ? COLOR565_WHITE : COLOR565_YELLOW,
 1701              		.loc 2 340 21 is_stmt 0 view .LVU415
 1702 00b2 4FF6E070 		movw	r0, #65504
 1703 00b6 C4EB0412 		rsb	r2, r4, r4, lsl #4
 1704 00ba 2832     		adds	r2, r2, #40
 1705 00bc 7368     		ldr	r3, [r6, #4]
 1706 00be D2B2     		uxtb	r2, r2
ARM GAS  /var/folders/20/cstyxln53wn53rr40gj353bh0000gn/T//ccP2nhox.s 			page 44


 1707              	.LVL120:
 1708              	.L114:
 340:Src/VFO/GUISetupView.cpp **** 			selected ? COLOR565_WHITE : COLOR565_YELLOW,
 1709              		.loc 2 340 21 view .LVU416
 1710 00c0 CDE90137 		strd	r3, r7, [sp, #4]
 1711              	.LVL121:
 340:Src/VFO/GUISetupView.cpp **** 			selected ? COLOR565_WHITE : COLOR565_YELLOW,
 1712              		.loc 2 340 21 view .LVU417
 1713 00c4 0090     		str	r0, [sp]
 1714 00c6 9421     		movs	r1, #148
 1715 00c8 4346     		mov	r3, r8
 1716 00ca 0120     		movs	r0, #1
 1717 00cc FFF7FEFF 		bl	ST7735_PutStr5x7Ex
 1718              	.LVL122:
 1719 00d0 B169     		ldr	r1, [r6, #24]
 1720              	.LBE151:
 1721              	.LBE152:
 1722              	.LBE153:
 255:Src/VFO/GUISetupView.cpp **** 	{
 1723              		.loc 2 255 2 view .LVU418
 1724 00d2 0134     		adds	r4, r4, #1
 1725              	.LVL123:
 255:Src/VFO/GUISetupView.cpp **** 	{
 1726              		.loc 2 255 2 view .LVU419
 1727 00d4 0D69     		ldr	r5, [r1, #16]
 1728              	.LVL124:
 255:Src/VFO/GUISetupView.cpp **** 	{
 1729              		.loc 2 255 2 view .LVU420
 1730 00d6 E4B2     		uxtb	r4, r4
 1731              	.LVL125:
 255:Src/VFO/GUISetupView.cpp **** 	{
 1732              		.loc 2 255 2 is_stmt 1 view .LVU421
 255:Src/VFO/GUISetupView.cpp **** 	{
 1733              		.loc 2 255 11 is_stmt 0 view .LVU422
 1734 00d8 AC42     		cmp	r4, r5
 1735 00da C5DB     		blt	.L104
 1736              	.LVL126:
 1737              	.L103:
 259:Src/VFO/GUISetupView.cpp **** 
 1738              		.loc 2 259 1 view .LVU423
 1739 00dc 09B0     		add	sp, sp, #36
 1740              	.LCFI15:
 1741              		.cfi_def_cfa_offset 28
 1742              		@ sp needed
 1743 00de BDE8F083 		pop	{r4, r5, r6, r7, r8, r9, pc}
 1744              	.L128:
 1745 00e2 00BF     		.align	2
 1746              	.L127:
 1747 00e4 00000000 		.word	_ZN3VFO15backgroundColorEPvhh
 1748 00e8 0C000000 		.word	.LC9
 1749              		.cfi_endproc
 1750              	.LFE132:
 1751              		.fnend
 1753              		.section	.text._ZN3VFO12GUISetupView20pushEncoderIncrementEst,"ax",%progbits
 1754              		.align	1
 1755              		.p2align 2,,3
 1756              		.global	_ZN3VFO12GUISetupView20pushEncoderIncrementEst
ARM GAS  /var/folders/20/cstyxln53wn53rr40gj353bh0000gn/T//ccP2nhox.s 			page 45


 1757              		.syntax unified
 1758              		.thumb
 1759              		.thumb_func
 1760              		.fpu softvfp
 1762              	_ZN3VFO12GUISetupView20pushEncoderIncrementEst:
 1763              		.fnstart
 1764              	.LVL127:
 1765              	.LFB129:
 142:Src/VFO/GUISetupView.cpp **** 	if ( _selectedChild )
 1766              		.loc 2 142 1 is_stmt 1 view -0
 1767              		.cfi_startproc
 1768              		@ args = 0, pretend = 0, frame = 0
 1769              		@ frame_needed = 0, uses_anonymous_args = 0
 143:Src/VFO/GUISetupView.cpp **** 	{
 1770              		.loc 2 143 7 is_stmt 0 view .LVU425
 1771 0000 036A     		ldr	r3, [r0, #32]
 143:Src/VFO/GUISetupView.cpp **** 	{
 1772              		.loc 2 143 2 is_stmt 1 view .LVU426
 142:Src/VFO/GUISetupView.cpp **** 	if ( _selectedChild )
 1773              		.loc 2 142 1 is_stmt 0 view .LVU427
 1774 0002 2DE9F041 		push	{r4, r5, r6, r7, r8, lr}
 1775              		.save {r4, r5, r6, r7, r8, lr}
 1776              	.LCFI16:
 1777              		.cfi_def_cfa_offset 24
 1778              		.cfi_offset 4, -24
 1779              		.cfi_offset 5, -20
 1780              		.cfi_offset 6, -16
 1781              		.cfi_offset 7, -12
 1782              		.cfi_offset 8, -8
 1783              		.cfi_offset 14, -4
 143:Src/VFO/GUISetupView.cpp **** 	{
 1784              		.loc 2 143 2 view .LVU428
 1785 0006 2BB1     		cbz	r3, .L130
 145:Src/VFO/GUISetupView.cpp **** 		return;
 1786              		.loc 2 145 3 is_stmt 1 view .LVU429
 145:Src/VFO/GUISetupView.cpp **** 		return;
 1787              		.loc 2 145 57 is_stmt 0 view .LVU430
 1788 0008 1C68     		ldr	r4, [r3]
 145:Src/VFO/GUISetupView.cpp **** 		return;
 1789              		.loc 2 145 39 view .LVU431
 1790 000a 1846     		mov	r0, r3
 1791              	.LVL128:
 145:Src/VFO/GUISetupView.cpp **** 		return;
 1792              		.loc 2 145 39 view .LVU432
 1793 000c E368     		ldr	r3, [r4, #12]
 176:Src/VFO/GUISetupView.cpp **** 
 1794              		.loc 2 176 1 view .LVU433
 1795 000e BDE8F041 		pop	{r4, r5, r6, r7, r8, lr}
 1796              	.LCFI17:
 1797              		.cfi_remember_state
 1798              		.cfi_restore 14
 1799              		.cfi_restore 8
 1800              		.cfi_restore 7
 1801              		.cfi_restore 6
 1802              		.cfi_restore 5
 1803              		.cfi_restore 4
 1804              		.cfi_def_cfa_offset 0
ARM GAS  /var/folders/20/cstyxln53wn53rr40gj353bh0000gn/T//ccP2nhox.s 			page 46


 145:Src/VFO/GUISetupView.cpp **** 		return;
 1805              		.loc 2 145 39 view .LVU434
 1806 0012 1847     		bx	r3	@ indirect register sibling call
 1807              	.LVL129:
 1808              	.L130:
 1809              	.LCFI18:
 1810              		.cfi_restore_state
 1811              	.LBB159:
 1812              	.LBI159:
 141:Src/VFO/GUISetupView.cpp **** {
 1813              		.loc 2 141 6 is_stmt 1 view .LVU435
 141:Src/VFO/GUISetupView.cpp **** {
 1814              		.loc 2 141 6 is_stmt 0 view .LVU436
 1815              	.LBE159:
 149:Src/VFO/GUISetupView.cpp **** 	{
 1816              		.loc 2 149 2 is_stmt 1 view .LVU437
 1817              	.LBB169:
 1818              	.LBB160:
 1819 0014 077D     		ldrb	r7, [r0, #20]	@ zero_extendqisi2
 1820 0016 0D46     		mov	r5, r1
 1821 0018 0446     		mov	r4, r0
 1822 001a BFB1     		cbz	r7, .L138
 1823              	.LBB161:
 171:Src/VFO/GUISetupView.cpp **** 		value += increment;
 1824              		.loc 2 171 3 view .LVU438
 171:Src/VFO/GUISetupView.cpp **** 		value += increment;
 1825              		.loc 2 171 34 is_stmt 0 view .LVU439
 1826 001c 8269     		ldr	r2, [r0, #24]
 1827              	.LVL130:
 171:Src/VFO/GUISetupView.cpp **** 		value += increment;
 1828              		.loc 2 171 44 view .LVU440
 1829 001e 437D     		ldrb	r3, [r0, #21]	@ zero_extendqisi2
 171:Src/VFO/GUISetupView.cpp **** 		value += increment;
 1830              		.loc 2 171 60 view .LVU441
 1831 0020 5269     		ldr	r2, [r2, #20]
 1832 0022 03EB4303 		add	r3, r3, r3, lsl #1
 1833 0026 02EBC303 		add	r3, r2, r3, lsl #3
 171:Src/VFO/GUISetupView.cpp **** 		value += increment;
 1834              		.loc 2 171 66 view .LVU442
 1835 002a 5B68     		ldr	r3, [r3, #4]
 1836 002c 9847     		blx	r3
 1837              	.LVL131:
 172:Src/VFO/GUISetupView.cpp **** 		_currentItem->children[ _selectedItem ].setter(value);
 1838              		.loc 2 172 3 is_stmt 1 view .LVU443
 173:Src/VFO/GUISetupView.cpp **** 		updateValues();
 1839              		.loc 2 173 3 view .LVU444
 173:Src/VFO/GUISetupView.cpp **** 		updateValues();
 1840              		.loc 2 173 17 is_stmt 0 view .LVU445
 1841 002e A269     		ldr	r2, [r4, #24]
 173:Src/VFO/GUISetupView.cpp **** 		updateValues();
 1842              		.loc 2 173 27 view .LVU446
 1843 0030 637D     		ldrb	r3, [r4, #21]	@ zero_extendqisi2
 173:Src/VFO/GUISetupView.cpp **** 		updateValues();
 1844              		.loc 2 173 43 view .LVU447
 1845 0032 5269     		ldr	r2, [r2, #20]
 1846 0034 03EB4303 		add	r3, r3, r3, lsl #1
 1847 0038 02EBC303 		add	r3, r2, r3, lsl #3
ARM GAS  /var/folders/20/cstyxln53wn53rr40gj353bh0000gn/T//ccP2nhox.s 			page 47


 173:Src/VFO/GUISetupView.cpp **** 		updateValues();
 1848              		.loc 2 173 49 view .LVU448
 1849 003c 2844     		add	r0, r0, r5
 1850              	.LVL132:
 173:Src/VFO/GUISetupView.cpp **** 		updateValues();
 1851              		.loc 2 173 49 view .LVU449
 1852 003e 9B68     		ldr	r3, [r3, #8]
 1853 0040 9847     		blx	r3
 1854              	.LVL133:
 174:Src/VFO/GUISetupView.cpp **** 	}
 1855              		.loc 2 174 3 is_stmt 1 view .LVU450
 174:Src/VFO/GUISetupView.cpp **** 	}
 1856              		.loc 2 174 15 is_stmt 0 view .LVU451
 1857 0042 2046     		mov	r0, r4
 1858              	.LBE161:
 1859              	.LBE160:
 1860              	.LBE169:
 176:Src/VFO/GUISetupView.cpp **** 
 1861              		.loc 2 176 1 view .LVU452
 1862 0044 BDE8F041 		pop	{r4, r5, r6, r7, r8, lr}
 1863              	.LCFI19:
 1864              		.cfi_remember_state
 1865              		.cfi_restore 14
 1866              		.cfi_restore 8
 1867              		.cfi_restore 7
 1868              		.cfi_restore 6
 1869              		.cfi_restore 5
 1870              		.cfi_restore 4
 1871              		.cfi_def_cfa_offset 0
 1872              	.LVL134:
 1873              	.LBB170:
 1874              	.LBB166:
 1875              	.LBB162:
 174:Src/VFO/GUISetupView.cpp **** 	}
 1876              		.loc 2 174 15 view .LVU453
 1877 0048 FFF7FEBF 		b	_ZN3VFO12GUISetupView12updateValuesEv
 1878              	.LVL135:
 1879              	.L138:
 1880              	.LCFI20:
 1881              		.cfi_restore_state
 174:Src/VFO/GUISetupView.cpp **** 	}
 1882              		.loc 2 174 15 view .LVU454
 1883              	.LBE162:
 1884              	.LBB163:
 151:Src/VFO/GUISetupView.cpp **** 		if (abs(_encCounter) < _getEncoder() / 2) /* half rotation step */
 1885              		.loc 2 151 3 is_stmt 1 view .LVU455
 151:Src/VFO/GUISetupView.cpp **** 		if (abs(_encCounter) < _getEncoder() / 2) /* half rotation step */
 1886              		.loc 2 151 15 is_stmt 0 view .LVU456
 1887 004c 868C     		ldrh	r6, [r0, #36]
 1888 004e 0E44     		add	r6, r6, r1
 1889 0050 36B2     		sxth	r6, r6
 1890 0052 8684     		strh	r6, [r0, #36]	@ movhi
 152:Src/VFO/GUISetupView.cpp **** 		{
 1891              		.loc 2 152 3 is_stmt 1 view .LVU457
 152:Src/VFO/GUISetupView.cpp **** 		{
 1892              		.loc 2 152 37 is_stmt 0 view .LVU458
 1893 0054 FFF7FEFF 		bl	_ZN3VFO11_getEncoderEv
ARM GAS  /var/folders/20/cstyxln53wn53rr40gj353bh0000gn/T//ccP2nhox.s 			page 48


 1894              	.LVL136:
 152:Src/VFO/GUISetupView.cpp **** 		{
 1895              		.loc 2 152 10 view .LVU459
 1896 0058 002E     		cmp	r6, #0
 1897 005a B8BF     		it	lt
 1898 005c 7642     		rsblt	r6, r6, #0
 152:Src/VFO/GUISetupView.cpp **** 		{
 1899              		.loc 2 152 40 view .LVU460
 1900 005e 00EBD070 		add	r0, r0, r0, lsr #31
 152:Src/VFO/GUISetupView.cpp **** 		{
 1901              		.loc 2 152 3 view .LVU461
 1902 0062 B6EB600F 		cmp	r6, r0, asr #1
 1903 0066 0FDB     		blt	.L129
 156:Src/VFO/GUISetupView.cpp **** 
 1904              		.loc 2 156 3 is_stmt 1 view .LVU462
 159:Src/VFO/GUISetupView.cpp **** 		{
 1905              		.loc 2 159 3 is_stmt 0 view .LVU463
 1906 0068 002D     		cmp	r5, #0
 156:Src/VFO/GUISetupView.cpp **** 
 1907              		.loc 2 156 15 view .LVU464
 1908 006a A784     		strh	r7, [r4, #36]	@ movhi
 158:Src/VFO/GUISetupView.cpp **** 		if (increment < 0)
 1909              		.loc 2 158 3 is_stmt 1 view .LVU465
 159:Src/VFO/GUISetupView.cpp **** 		{
 1910              		.loc 2 159 3 view .LVU466
 1911 006c 617D     		ldrb	r1, [r4, #21]	@ zero_extendqisi2
 1912 006e 0DDB     		blt	.L139
 165:Src/VFO/GUISetupView.cpp **** 		}
 1913              		.loc 2 165 4 view .LVU467
 165:Src/VFO/GUISetupView.cpp **** 		}
 1914              		.loc 2 165 47 is_stmt 0 view .LVU468
 1915 0070 A369     		ldr	r3, [r4, #24]
 165:Src/VFO/GUISetupView.cpp **** 		}
 1916              		.loc 2 165 14 view .LVU469
 1917 0072 1B69     		ldr	r3, [r3, #16]
 1918 0074 9942     		cmp	r1, r3
 1919 0076 0EBF     		itee	eq
 1920 0078 3946     		moveq	r1, r7
 1921 007a 0131     		addne	r1, r1, #1
 1922 007c C9B2     		uxtbne	r1, r1
 1923              	.L135:
 1924              	.LVL137:
 167:Src/VFO/GUISetupView.cpp **** 	}
 1925              		.loc 2 167 3 is_stmt 1 view .LVU470
 167:Src/VFO/GUISetupView.cpp **** 	}
 1926              		.loc 2 167 14 is_stmt 0 view .LVU471
 1927 007e 2046     		mov	r0, r4
 1928              	.LBE163:
 1929              	.LBE166:
 1930              	.LBE170:
 176:Src/VFO/GUISetupView.cpp **** 
 1931              		.loc 2 176 1 view .LVU472
 1932 0080 BDE8F041 		pop	{r4, r5, r6, r7, r8, lr}
 1933              	.LCFI21:
 1934              		.cfi_remember_state
 1935              		.cfi_restore 14
 1936              		.cfi_restore 8
ARM GAS  /var/folders/20/cstyxln53wn53rr40gj353bh0000gn/T//ccP2nhox.s 			page 49


 1937              		.cfi_restore 7
 1938              		.cfi_restore 6
 1939              		.cfi_restore 5
 1940              		.cfi_restore 4
 1941              		.cfi_def_cfa_offset 0
 1942              	.LVL138:
 1943              	.LBB171:
 1944              	.LBB167:
 1945              	.LBB164:
 167:Src/VFO/GUISetupView.cpp **** 	}
 1946              		.loc 2 167 14 view .LVU473
 1947 0084 FFF7FEBF 		b	_ZN3VFO12GUISetupView11setSelectedEh
 1948              	.LVL139:
 1949              	.L129:
 1950              	.LCFI22:
 1951              		.cfi_restore_state
 167:Src/VFO/GUISetupView.cpp **** 	}
 1952              		.loc 2 167 14 view .LVU474
 1953              	.LBE164:
 1954              	.LBE167:
 1955              	.LBE171:
 176:Src/VFO/GUISetupView.cpp **** 
 1956              		.loc 2 176 1 view .LVU475
 1957 0088 BDE8F081 		pop	{r4, r5, r6, r7, r8, pc}
 1958              	.LVL140:
 1959              	.L139:
 1960              	.LBB172:
 1961              	.LBB168:
 1962              	.LBB165:
 161:Src/VFO/GUISetupView.cpp **** 		}
 1963              		.loc 2 161 4 is_stmt 1 view .LVU476
 161:Src/VFO/GUISetupView.cpp **** 		}
 1964              		.loc 2 161 14 is_stmt 0 view .LVU477
 1965 008c 11B9     		cbnz	r1, .L134
 161:Src/VFO/GUISetupView.cpp **** 		}
 1966              		.loc 2 161 51 view .LVU478
 1967 008e A369     		ldr	r3, [r4, #24]
 161:Src/VFO/GUISetupView.cpp **** 		}
 1968              		.loc 2 161 14 view .LVU479
 1969 0090 197C     		ldrb	r1, [r3, #16]	@ zero_extendqisi2
 1970 0092 F4E7     		b	.L135
 1971              	.L134:
 161:Src/VFO/GUISetupView.cpp **** 		}
 1972              		.loc 2 161 14 view .LVU480
 1973 0094 0139     		subs	r1, r1, #1
 1974 0096 C9B2     		uxtb	r1, r1
 1975 0098 F1E7     		b	.L135
 1976              	.LBE165:
 1977              	.LBE168:
 1978              	.LBE172:
 1979              		.cfi_endproc
 1980              	.LFE129:
 1981              		.fnend
 1983 009a 00BF     		.section	.text._ZN3VFO12GUISetupView16setSelectedChildEPS0_,"ax",%progbits
 1984              		.align	1
 1985              		.p2align 2,,3
 1986              		.global	_ZN3VFO12GUISetupView16setSelectedChildEPS0_
ARM GAS  /var/folders/20/cstyxln53wn53rr40gj353bh0000gn/T//ccP2nhox.s 			page 50


 1987              		.syntax unified
 1988              		.thumb
 1989              		.thumb_func
 1990              		.fpu softvfp
 1992              	_ZN3VFO12GUISetupView16setSelectedChildEPS0_:
 1993              		.fnstart
 1994              	.LVL141:
 1995              	.LFB133:
 262:Src/VFO/GUISetupView.cpp **** 	if ( !child && _selectedChild )
 1996              		.loc 2 262 1 is_stmt 1 view -0
 1997              		.cfi_startproc
 1998              		@ args = 0, pretend = 0, frame = 0
 1999              		@ frame_needed = 0, uses_anonymous_args = 0
 263:Src/VFO/GUISetupView.cpp **** 	{
 2000              		.loc 2 263 2 view .LVU482
 262:Src/VFO/GUISetupView.cpp **** 	if ( !child && _selectedChild )
 2001              		.loc 2 262 1 is_stmt 0 view .LVU483
 2002 0000 70B5     		push	{r4, r5, r6, lr}
 2003              	.LCFI23:
 2004              		.cfi_def_cfa_offset 16
 2005              		.cfi_offset 4, -16
 2006              		.cfi_offset 5, -12
 2007              		.cfi_offset 6, -8
 2008              		.cfi_offset 14, -4
 262:Src/VFO/GUISetupView.cpp **** 	if ( !child && _selectedChild )
 2009              		.loc 2 262 1 view .LVU484
 2010 0002 0546     		mov	r5, r0
 263:Src/VFO/GUISetupView.cpp **** 	{
 2011              		.loc 2 263 2 view .LVU485
 2012 0004 0C46     		mov	r4, r1
 2013 0006 09B1     		cbz	r1, .L147
 2014              	.LVL142:
 2015              	.L141:
 267:Src/VFO/GUISetupView.cpp **** }
 2016              		.loc 2 267 2 is_stmt 1 view .LVU486
 267:Src/VFO/GUISetupView.cpp **** }
 2017              		.loc 2 267 17 is_stmt 0 view .LVU487
 2018 0008 2C62     		str	r4, [r5, #32]
 268:Src/VFO/GUISetupView.cpp **** 
 2019              		.loc 2 268 1 view .LVU488
 2020 000a 70BD     		pop	{r4, r5, r6, pc}
 2021              	.LVL143:
 2022              	.L147:
 263:Src/VFO/GUISetupView.cpp **** 	{
 2023              		.loc 2 263 17 discriminator 1 view .LVU489
 2024 000c 066A     		ldr	r6, [r0, #32]
 263:Src/VFO/GUISetupView.cpp **** 	{
 2025              		.loc 2 263 14 discriminator 1 view .LVU490
 2026 000e 002E     		cmp	r6, #0
 2027 0010 FAD0     		beq	.L141
 265:Src/VFO/GUISetupView.cpp **** 	}
 2028              		.loc 2 265 3 is_stmt 1 discriminator 1 view .LVU491
 265:Src/VFO/GUISetupView.cpp **** 	}
 2029              		.loc 2 265 10 is_stmt 0 discriminator 1 view .LVU492
 2030 0012 3368     		ldr	r3, [r6]
 2031 0014 074A     		ldr	r2, .L148
 2032 0016 5B68     		ldr	r3, [r3, #4]
ARM GAS  /var/folders/20/cstyxln53wn53rr40gj353bh0000gn/T//ccP2nhox.s 			page 51


 2033              	.LBB175:
 2034              	.LBB176:
 136:Src/VFO/GUISetupView.cpp **** 
 2035              		.loc 2 136 1 discriminator 1 view .LVU493
 2036 0018 3046     		mov	r0, r6
 2037              	.LVL144:
 136:Src/VFO/GUISetupView.cpp **** 
 2038              		.loc 2 136 1 discriminator 1 view .LVU494
 2039 001a 9342     		cmp	r3, r2
 2040 001c 07D1     		bne	.L142
 2041              	.LVL145:
 136:Src/VFO/GUISetupView.cpp **** 
 2042              		.loc 2 136 1 discriminator 1 view .LVU495
 2043              	.LBE176:
 2044              	.LBI175:
 131:Src/VFO/GUISetupView.cpp **** {
 2045              		.loc 2 131 1 is_stmt 1 view .LVU496
 2046              	.LBB177:
 136:Src/VFO/GUISetupView.cpp **** 
 2047              		.loc 2 136 1 is_stmt 0 view .LVU497
 2048 001e FFF7FEFF 		bl	_ZN3VFO12GUISetupViewD1Ev
 2049              	.LVL146:
 136:Src/VFO/GUISetupView.cpp **** 
 2050              		.loc 2 136 1 view .LVU498
 2051 0022 3046     		mov	r0, r6
 2052 0024 2821     		movs	r1, #40
 2053 0026 FFF7FEFF 		bl	_ZdlPvj
 2054              	.LVL147:
 2055              	.LBE177:
 2056              	.LBE175:
 267:Src/VFO/GUISetupView.cpp **** }
 2057              		.loc 2 267 2 is_stmt 1 view .LVU499
 267:Src/VFO/GUISetupView.cpp **** }
 2058              		.loc 2 267 17 is_stmt 0 view .LVU500
 2059 002a 2C62     		str	r4, [r5, #32]
 268:Src/VFO/GUISetupView.cpp **** 
 2060              		.loc 2 268 1 view .LVU501
 2061 002c 70BD     		pop	{r4, r5, r6, pc}
 2062              	.LVL148:
 2063              	.L142:
 265:Src/VFO/GUISetupView.cpp **** 	}
 2064              		.loc 2 265 10 discriminator 1 view .LVU502
 2065 002e 9847     		blx	r3
 2066              	.LVL149:
 265:Src/VFO/GUISetupView.cpp **** 	}
 2067              		.loc 2 265 10 discriminator 1 view .LVU503
 2068 0030 EAE7     		b	.L141
 2069              	.L149:
 2070 0032 00BF     		.align	2
 2071              	.L148:
 2072 0034 00000000 		.word	_ZN3VFO12GUISetupViewD0Ev
 2073              		.cfi_endproc
 2074              	.LFE133:
 2075              		.cantunwind
 2076              		.fnend
 2078              		.section	.text._ZN3VFO12GUISetupView14drawBackgroundEv,"ax",%progbits
 2079              		.align	1
ARM GAS  /var/folders/20/cstyxln53wn53rr40gj353bh0000gn/T//ccP2nhox.s 			page 52


 2080              		.p2align 2,,3
 2081              		.global	_ZN3VFO12GUISetupView14drawBackgroundEv
 2082              		.syntax unified
 2083              		.thumb
 2084              		.thumb_func
 2085              		.fpu softvfp
 2087              	_ZN3VFO12GUISetupView14drawBackgroundEv:
 2088              		.fnstart
 2089              	.LVL150:
 2090              	.LFB135:
 280:Src/VFO/GUISetupView.cpp **** 	_window->draw();
 2091              		.loc 2 280 1 is_stmt 1 view -0
 2092              		.cfi_startproc
 2093              		@ args = 0, pretend = 0, frame = 24
 2094              		@ frame_needed = 0, uses_anonymous_args = 0
 281:Src/VFO/GUISetupView.cpp **** 	_header->draw();
 2095              		.loc 2 281 2 view .LVU505
 280:Src/VFO/GUISetupView.cpp **** 	_window->draw();
 2096              		.loc 2 280 1 is_stmt 0 view .LVU506
 2097 0000 2DE9F041 		push	{r4, r5, r6, r7, r8, lr}
 2098              		.save {r4, r5, r6, r7, r8, lr}
 2099              	.LCFI24:
 2100              		.cfi_def_cfa_offset 24
 2101              		.cfi_offset 4, -24
 2102              		.cfi_offset 5, -20
 2103              		.cfi_offset 6, -16
 2104              		.cfi_offset 7, -12
 2105              		.cfi_offset 8, -8
 2106              		.cfi_offset 14, -4
 2107 0004 0646     		mov	r6, r0
 2108              		.pad #40
 2109 0006 8AB0     		sub	sp, sp, #40
 2110              	.LCFI25:
 2111              		.cfi_def_cfa_offset 64
 281:Src/VFO/GUISetupView.cpp **** 	_header->draw();
 2112              		.loc 2 281 15 view .LVU507
 2113 0008 4068     		ldr	r0, [r0, #4]
 2114              	.LVL151:
 281:Src/VFO/GUISetupView.cpp **** 	_header->draw();
 2115              		.loc 2 281 15 view .LVU508
 2116 000a FFF7FEFF 		bl	_ZN3VFO11GradientBox4drawEv
 2117              	.LVL152:
 282:Src/VFO/GUISetupView.cpp **** 	drawWindowTitle();
 2118              		.loc 2 282 2 is_stmt 1 view .LVU509
 282:Src/VFO/GUISetupView.cpp **** 	drawWindowTitle();
 2119              		.loc 2 282 15 is_stmt 0 view .LVU510
 2120 000e B068     		ldr	r0, [r6, #8]
 2121 0010 FFF7FEFF 		bl	_ZN3VFO11GradientBox4drawEv
 2122              	.LVL153:
 283:Src/VFO/GUISetupView.cpp **** 
 2123              		.loc 2 283 2 is_stmt 1 view .LVU511
 2124              	.LBB182:
 2125              	.LBI182:
 292:Src/VFO/GUISetupView.cpp **** {
 2126              		.loc 2 292 6 view .LVU512
 2127              	.LBB183:
 294:Src/VFO/GUISetupView.cpp **** 	VFO::utf8to1251Dest(_currentItem->name, str1, sizeof(str1));
ARM GAS  /var/folders/20/cstyxln53wn53rr40gj353bh0000gn/T//ccP2nhox.s 			page 53


 2128              		.loc 2 294 2 view .LVU513
 295:Src/VFO/GUISetupView.cpp **** 	uint8_t xpos = (160 - strlen(str1) * 8) / 2;
 2129              		.loc 2 295 2 view .LVU514
 295:Src/VFO/GUISetupView.cpp **** 	uint8_t xpos = (160 - strlen(str1) * 8) / 2;
 2130              		.loc 2 295 36 is_stmt 0 view .LVU515
 2131 0014 B369     		ldr	r3, [r6, #24]
 295:Src/VFO/GUISetupView.cpp **** 	uint8_t xpos = (160 - strlen(str1) * 8) / 2;
 2132              		.loc 2 295 21 view .LVU516
 2133 0016 05A9     		add	r1, sp, #20
 2134 0018 1868     		ldr	r0, [r3]
 2135 001a 1422     		movs	r2, #20
 2136 001c FFF7FEFF 		bl	_ZN3VFO14utf8to1251DestEPKcPcj
 2137              	.LVL154:
 296:Src/VFO/GUISetupView.cpp **** 	ST7735_PutStr7x11Ex(xpos, 8, str1, COLOR565_YELLOW, _header, VFO::backgroundColor);
 2138              		.loc 2 296 2 is_stmt 1 view .LVU517
 296:Src/VFO/GUISetupView.cpp **** 	ST7735_PutStr7x11Ex(xpos, 8, str1, COLOR565_YELLOW, _header, VFO::backgroundColor);
 2139              		.loc 2 296 30 is_stmt 0 view .LVU518
 2140 0020 05A8     		add	r0, sp, #20
 2141 0022 FFF7FEFF 		bl	strlen
 2142              	.LVL155:
 297:Src/VFO/GUISetupView.cpp **** }
 2143              		.loc 2 297 2 is_stmt 1 view .LVU519
 296:Src/VFO/GUISetupView.cpp **** 	ST7735_PutStr7x11Ex(xpos, 8, str1, COLOR565_YELLOW, _header, VFO::backgroundColor);
 2144              		.loc 2 296 42 is_stmt 0 view .LVU520
 2145 0026 C0EB4070 		rsb	r0, r0, r0, lsl #29
 2146              	.LVL156:
 296:Src/VFO/GUISetupView.cpp **** 	ST7735_PutStr7x11Ex(xpos, 8, str1, COLOR565_YELLOW, _header, VFO::backgroundColor);
 2147              		.loc 2 296 42 view .LVU521
 2148 002a C000     		lsls	r0, r0, #3
 297:Src/VFO/GUISetupView.cpp **** }
 2149              		.loc 2 297 21 view .LVU522
 2150 002c B368     		ldr	r3, [r6, #8]
 296:Src/VFO/GUISetupView.cpp **** 	ST7735_PutStr7x11Ex(xpos, 8, str1, COLOR565_YELLOW, _header, VFO::backgroundColor);
 2151              		.loc 2 296 42 view .LVU523
 2152 002e A030     		adds	r0, r0, #160
 297:Src/VFO/GUISetupView.cpp **** }
 2153              		.loc 2 297 21 view .LVU524
 2154 0030 1F4F     		ldr	r7, .L155
 296:Src/VFO/GUISetupView.cpp **** 	ST7735_PutStr7x11Ex(xpos, 8, str1, COLOR565_YELLOW, _header, VFO::backgroundColor);
 2155              		.loc 2 296 42 view .LVU525
 2156 0032 4008     		lsrs	r0, r0, #1
 297:Src/VFO/GUISetupView.cpp **** }
 2157              		.loc 2 297 21 view .LVU526
 2158 0034 0093     		str	r3, [sp]
 2159 0036 00F0FC00 		and	r0, r0, #252
 2160 003a 4FF6E073 		movw	r3, #65504
 2161 003e 05AA     		add	r2, sp, #20
 2162 0040 0197     		str	r7, [sp, #4]
 2163 0042 0821     		movs	r1, #8
 2164 0044 FFF7FEFF 		bl	ST7735_PutStr7x11Ex
 2165              	.LVL157:
 297:Src/VFO/GUISetupView.cpp **** }
 2166              		.loc 2 297 21 view .LVU527
 2167              	.LBE183:
 2168              	.LBE182:
 286:Src/VFO/GUISetupView.cpp **** 	{
 2169              		.loc 2 286 2 is_stmt 1 view .LVU528
ARM GAS  /var/folders/20/cstyxln53wn53rr40gj353bh0000gn/T//ccP2nhox.s 			page 54


 286:Src/VFO/GUISetupView.cpp **** 	{
 2170              		.loc 2 286 27 is_stmt 0 view .LVU529
 2171 0048 B369     		ldr	r3, [r6, #24]
 286:Src/VFO/GUISetupView.cpp **** 	{
 2172              		.loc 2 286 11 view .LVU530
 2173 004a 1B69     		ldr	r3, [r3, #16]
 2174 004c 002B     		cmp	r3, #0
 2175 004e 2CDD     		ble	.L150
 2176 0050 2425     		movs	r5, #36
 285:Src/VFO/GUISetupView.cpp **** 	for (; i < _currentItem->numChildren; i++)
 2177              		.loc 2 285 10 view .LVU531
 2178 0052 0024     		movs	r4, #0
 2179              	.LBB184:
 2180              	.LBB185:
 309:Src/VFO/GUISetupView.cpp **** 	}
 2181              		.loc 2 309 17 view .LVU532
 2182 0054 4FF00F08 		mov	r8, #15
 2183              	.LVL158:
 2184              	.L152:
 309:Src/VFO/GUISetupView.cpp **** 	}
 2185              		.loc 2 309 17 view .LVU533
 2186              	.LBE185:
 2187              	.LBE184:
 288:Src/VFO/GUISetupView.cpp **** 	}
 2188              		.loc 2 288 3 is_stmt 1 view .LVU534
 2189              	.LBB188:
 2190              	.LBI184:
 300:Src/VFO/GUISetupView.cpp **** {
 2191              		.loc 2 300 6 view .LVU535
 2192              	.LBB186:
 302:Src/VFO/GUISetupView.cpp **** 	if (selected)
 2193              		.loc 2 302 2 view .LVU536
 303:Src/VFO/GUISetupView.cpp **** 	{
 2194              		.loc 2 303 2 view .LVU537
 309:Src/VFO/GUISetupView.cpp **** 	}
 2195              		.loc 2 309 3 view .LVU538
 309:Src/VFO/GUISetupView.cpp **** 	}
 2196              		.loc 2 309 17 is_stmt 0 view .LVU539
 2197 0058 CDF80080 		str	r8, [sp]
 2198 005c 2A46     		mov	r2, r5
 2199 005e 9C23     		movs	r3, #156
 2200 0060 0221     		movs	r1, #2
 2201 0062 7068     		ldr	r0, [r6, #4]
 2202 0064 FFF7FEFF 		bl	_ZN3VFO11GradientBox5clearEhhhh
 2203              	.LVL159:
 311:Src/VFO/GUISetupView.cpp **** 	ST7735_PutStr5x7Ex(1, 6, 40 + itemIndex * 15, VFO::utf8to1251Dest(item->name, str1, sizeof(str1)),
 2204              		.loc 2 311 2 is_stmt 1 view .LVU540
 312:Src/VFO/GUISetupView.cpp **** 			selected ? COLOR565_WHITE : COLOR565_YELLOW, selected ? _selection : _window, VFO::backgroundCol
 2205              		.loc 2 312 2 view .LVU541
 312:Src/VFO/GUISetupView.cpp **** 			selected ? COLOR565_WHITE : COLOR565_YELLOW, selected ? _selection : _window, VFO::backgroundCol
 2206              		.loc 2 312 20 is_stmt 0 view .LVU542
 2207 0068 1422     		movs	r2, #20
 311:Src/VFO/GUISetupView.cpp **** 	ST7735_PutStr5x7Ex(1, 6, 40 + itemIndex * 15, VFO::utf8to1251Dest(item->name, str1, sizeof(str1)),
 2208              		.loc 2 311 42 view .LVU543
 2209 006a B369     		ldr	r3, [r6, #24]
 312:Src/VFO/GUISetupView.cpp **** 			selected ? COLOR565_WHITE : COLOR565_YELLOW, selected ? _selection : _window, VFO::backgroundCol
 2210              		.loc 2 312 74 view .LVU544
ARM GAS  /var/folders/20/cstyxln53wn53rr40gj353bh0000gn/T//ccP2nhox.s 			page 55


 2211 006c 04EB4401 		add	r1, r4, r4, lsl #1
 2212 0070 5B69     		ldr	r3, [r3, #20]
 2213              	.LBE186:
 2214              	.LBE188:
 286:Src/VFO/GUISetupView.cpp **** 	{
 2215              		.loc 2 286 2 view .LVU545
 2216 0072 0134     		adds	r4, r4, #1
 2217              	.LVL160:
 2218              	.LBB189:
 2219              	.LBB187:
 312:Src/VFO/GUISetupView.cpp **** 			selected ? COLOR565_WHITE : COLOR565_YELLOW, selected ? _selection : _window, VFO::backgroundCol
 2220              		.loc 2 312 20 view .LVU546
 2221 0074 53F83100 		ldr	r0, [r3, r1, lsl #3]
 2222 0078 0DEB0201 		add	r1, sp, r2
 2223 007c FFF7FEFF 		bl	_ZN3VFO14utf8to1251DestEPKcPcj
 2224              	.LVL161:
 2225 0080 4FF6E071 		movw	r1, #65504
 2226 0084 7368     		ldr	r3, [r6, #4]
 2227 0086 2A1D     		adds	r2, r5, #4
 2228 0088 0193     		str	r3, [sp, #4]
 2229 008a 0091     		str	r1, [sp]
 2230 008c 0346     		mov	r3, r0
 2231 008e D2B2     		uxtb	r2, r2
 2232 0090 0297     		str	r7, [sp, #8]
 2233 0092 0621     		movs	r1, #6
 2234 0094 0120     		movs	r0, #1
 2235 0096 FFF7FEFF 		bl	ST7735_PutStr5x7Ex
 2236              	.LVL162:
 312:Src/VFO/GUISetupView.cpp **** 			selected ? COLOR565_WHITE : COLOR565_YELLOW, selected ? _selection : _window, VFO::backgroundCol
 2237              		.loc 2 312 20 view .LVU547
 2238              	.LBE187:
 2239              	.LBE189:
 286:Src/VFO/GUISetupView.cpp **** 	{
 2240              		.loc 2 286 27 view .LVU548
 2241 009a B369     		ldr	r3, [r6, #24]
 286:Src/VFO/GUISetupView.cpp **** 	{
 2242              		.loc 2 286 2 view .LVU549
 2243 009c E4B2     		uxtb	r4, r4
 2244              	.LVL163:
 286:Src/VFO/GUISetupView.cpp **** 	{
 2245              		.loc 2 286 2 is_stmt 1 view .LVU550
 286:Src/VFO/GUISetupView.cpp **** 	{
 2246              		.loc 2 286 11 is_stmt 0 view .LVU551
 2247 009e 1B69     		ldr	r3, [r3, #16]
 2248 00a0 05F10F02 		add	r2, r5, #15
 2249 00a4 9C42     		cmp	r4, r3
 2250 00a6 D5B2     		uxtb	r5, r2
 2251 00a8 D6DB     		blt	.L152
 2252              	.LVL164:
 2253              	.L150:
 290:Src/VFO/GUISetupView.cpp **** 
 2254              		.loc 2 290 1 view .LVU552
 2255 00aa 0AB0     		add	sp, sp, #40
 2256              	.LCFI26:
 2257              		.cfi_def_cfa_offset 24
 2258              		@ sp needed
 2259 00ac BDE8F081 		pop	{r4, r5, r6, r7, r8, pc}
ARM GAS  /var/folders/20/cstyxln53wn53rr40gj353bh0000gn/T//ccP2nhox.s 			page 56


 2260              	.LVL165:
 2261              	.L156:
 290:Src/VFO/GUISetupView.cpp **** 
 2262              		.loc 2 290 1 view .LVU553
 2263              		.align	2
 2264              	.L155:
 2265 00b0 00000000 		.word	_ZN3VFO15backgroundColorEPvhh
 2266              		.cfi_endproc
 2267              	.LFE135:
 2268              		.fnend
 2270              		.section	.text._ZN3VFO12GUISetupView4drawEv,"ax",%progbits
 2271              		.align	1
 2272              		.p2align 2,,3
 2273              		.global	_ZN3VFO12GUISetupView4drawEv
 2274              		.syntax unified
 2275              		.thumb
 2276              		.thumb_func
 2277              		.fpu softvfp
 2279              	_ZN3VFO12GUISetupView4drawEv:
 2280              		.fnstart
 2281              	.LVL166:
 2282              	.LFB134:
 273:Src/VFO/GUISetupView.cpp **** 	this->drawBackground();
 2283              		.loc 2 273 1 is_stmt 1 view -0
 2284              		.cfi_startproc
 2285              		@ args = 0, pretend = 0, frame = 8
 2286              		@ frame_needed = 0, uses_anonymous_args = 0
 274:Src/VFO/GUISetupView.cpp **** 	this->setSelected(_currentItem->numChildren);
 2287              		.loc 2 274 2 view .LVU555
 273:Src/VFO/GUISetupView.cpp **** 	this->drawBackground();
 2288              		.loc 2 273 1 is_stmt 0 view .LVU556
 2289 0000 70B5     		push	{r4, r5, r6, lr}
 2290              		.save {r4, r5, r6, lr}
 2291              	.LCFI27:
 2292              		.cfi_def_cfa_offset 16
 2293              		.cfi_offset 4, -16
 2294              		.cfi_offset 5, -12
 2295              		.cfi_offset 6, -8
 2296              		.cfi_offset 14, -4
 2297 0002 0446     		mov	r4, r0
 2298              		.pad #24
 2299 0004 86B0     		sub	sp, sp, #24
 2300              	.LCFI28:
 2301              		.cfi_def_cfa_offset 40
 274:Src/VFO/GUISetupView.cpp **** 	this->setSelected(_currentItem->numChildren);
 2302              		.loc 2 274 22 view .LVU557
 2303 0006 FFF7FEFF 		bl	_ZN3VFO12GUISetupView14drawBackgroundEv
 2304              	.LVL167:
 275:Src/VFO/GUISetupView.cpp **** 	drawBackButton(true);
 2305              		.loc 2 275 2 is_stmt 1 view .LVU558
 275:Src/VFO/GUISetupView.cpp **** 	drawBackButton(true);
 2306              		.loc 2 275 34 is_stmt 0 view .LVU559
 2307 000a A369     		ldr	r3, [r4, #24]
 275:Src/VFO/GUISetupView.cpp **** 	drawBackButton(true);
 2308              		.loc 2 275 19 view .LVU560
 2309 000c 2046     		mov	r0, r4
 2310 000e 197C     		ldrb	r1, [r3, #16]	@ zero_extendqisi2
ARM GAS  /var/folders/20/cstyxln53wn53rr40gj353bh0000gn/T//ccP2nhox.s 			page 57


 2311 0010 FFF7FEFF 		bl	_ZN3VFO12GUISetupView11setSelectedEh
 2312              	.LVL168:
 276:Src/VFO/GUISetupView.cpp **** }
 2313              		.loc 2 276 2 is_stmt 1 view .LVU561
 2314              	.LBB192:
 2315              	.LBI192:
 347:Src/VFO/GUISetupView.cpp **** {
 2316              		.loc 2 347 6 view .LVU562
 2317              	.LBB193:
 349:Src/VFO/GUISetupView.cpp **** 	uint16_t color = COLOR565_YELLOW;
 2318              		.loc 2 349 2 view .LVU563
 350:Src/VFO/GUISetupView.cpp **** 	if ( selected )
 2319              		.loc 2 350 2 view .LVU564
 351:Src/VFO/GUISetupView.cpp **** 	{
 2320              		.loc 2 351 2 view .LVU565
 353:Src/VFO/GUISetupView.cpp **** 		_btnBack->upRight = { 10, 160, 10 };
 2321              		.loc 2 353 3 view .LVU566
 353:Src/VFO/GUISetupView.cpp **** 		_btnBack->upRight = { 10, 160, 10 };
 2322              		.loc 2 353 21 is_stmt 0 view .LVU567
 2323 0014 154B     		ldr	r3, .L159
 353:Src/VFO/GUISetupView.cpp **** 		_btnBack->upRight = { 10, 160, 10 };
 2324              		.loc 2 353 3 view .LVU568
 2325 0016 E068     		ldr	r0, [r4, #12]
 353:Src/VFO/GUISetupView.cpp **** 		_btnBack->upRight = { 10, 160, 10 };
 2326              		.loc 2 353 21 view .LVU569
 2327 0018 1A46     		mov	r2, r3
 2328 001a 32F8185F 		ldrh	r5, [r2, #24]!	@ unaligned
 355:Src/VFO/GUISetupView.cpp **** 		_btnBack->downRight   = { 10, 10, 100 };
 2329              		.loc 2 355 25 view .LVU570
 2330 001e D969     		ldr	r1, [r3, #28]
 356:Src/VFO/GUISetupView.cpp **** 		color = COLOR565_WHITE;
 2331              		.loc 2 356 25 view .LVU571
 2332 0020 33F81C6F 		ldrh	r6, [r3, #28]!	@ unaligned
 353:Src/VFO/GUISetupView.cpp **** 		_btnBack->upRight = { 10, 160, 10 };
 2333              		.loc 2 353 21 view .LVU572
 2334 0024 9278     		ldrb	r2, [r2, #2]	@ zero_extendqisi2
 356:Src/VFO/GUISetupView.cpp **** 		color = COLOR565_WHITE;
 2335              		.loc 2 356 25 view .LVU573
 2336 0026 9B78     		ldrb	r3, [r3, #2]	@ zero_extendqisi2
 353:Src/VFO/GUISetupView.cpp **** 		_btnBack->upRight = { 10, 160, 10 };
 2337              		.loc 2 353 21 view .LVU574
 2338 0028 0272     		strb	r2, [r0, #8]
 354:Src/VFO/GUISetupView.cpp **** 		_btnBack->downLeft    = { 10, 10, 100 };
 2339              		.loc 2 354 3 is_stmt 1 view .LVU575
 354:Src/VFO/GUISetupView.cpp **** 		_btnBack->downLeft    = { 10, 10, 100 };
 2340              		.loc 2 354 21 is_stmt 0 view .LVU576
 2341 002a C272     		strb	r2, [r0, #11]
 355:Src/VFO/GUISetupView.cpp **** 		_btnBack->downRight   = { 10, 10, 100 };
 2342              		.loc 2 355 3 is_stmt 1 view .LVU577
 355:Src/VFO/GUISetupView.cpp **** 		_btnBack->downRight   = { 10, 10, 100 };
 2343              		.loc 2 355 25 is_stmt 0 view .LVU578
 2344 002c 0A0C     		lsrs	r2, r1, #16
 356:Src/VFO/GUISetupView.cpp **** 		color = COLOR565_WHITE;
 2345              		.loc 2 356 25 view .LVU579
 2346 002e 4374     		strb	r3, [r0, #17]
 353:Src/VFO/GUISetupView.cpp **** 		_btnBack->upRight = { 10, 160, 10 };
 2347              		.loc 2 353 21 view .LVU580
ARM GAS  /var/folders/20/cstyxln53wn53rr40gj353bh0000gn/T//ccP2nhox.s 			page 58


 2348 0030 C580     		strh	r5, [r0, #6]	@ unaligned
 354:Src/VFO/GUISetupView.cpp **** 		_btnBack->downLeft    = { 10, 10, 100 };
 2349              		.loc 2 354 21 view .LVU581
 2350 0032 A0F80950 		strh	r5, [r0, #9]	@ unaligned
 355:Src/VFO/GUISetupView.cpp **** 		_btnBack->downRight   = { 10, 10, 100 };
 2351              		.loc 2 355 25 view .LVU582
 2352 0036 8181     		strh	r1, [r0, #12]	@ movhi
 2353 0038 8273     		strb	r2, [r0, #14]
 356:Src/VFO/GUISetupView.cpp **** 		color = COLOR565_WHITE;
 2354              		.loc 2 356 3 is_stmt 1 view .LVU583
 357:Src/VFO/GUISetupView.cpp **** 	}
 2355              		.loc 2 357 3 view .LVU584
 2356              	.LVL169:
 366:Src/VFO/GUISetupView.cpp **** 	ST7735_PutStr5x7Ex(1, 21, 111, VFO::utf8to1251Dest("Назад", str1, sizeof(str1)),
 2357              		.loc 2 366 2 view .LVU585
 356:Src/VFO/GUISetupView.cpp **** 		color = COLOR565_WHITE;
 2358              		.loc 2 356 25 is_stmt 0 view .LVU586
 2359 003a A0F80F60 		strh	r6, [r0, #15]	@ unaligned
 366:Src/VFO/GUISetupView.cpp **** 	ST7735_PutStr5x7Ex(1, 21, 111, VFO::utf8to1251Dest("Назад", str1, sizeof(str1)),
 2360              		.loc 2 366 16 view .LVU587
 2361 003e FFF7FEFF 		bl	_ZN3VFO11GradientBox4drawEv
 2362              	.LVL170:
 2363              		.loc 2 367 2 is_stmt 1 view .LVU588
 2364              		.loc 2 367 20 is_stmt 0 view .LVU589
 2365 0042 04A9     		add	r1, sp, #16
 2366 0044 0622     		movs	r2, #6
 2367 0046 0A48     		ldr	r0, .L159+4
 2368 0048 FFF7FEFF 		bl	_ZN3VFO14utf8to1251DestEPKcPcj
 2369              	.LVL171:
 2370 004c 4FF6FF71 		movw	r1, #65535
 2371 0050 E468     		ldr	r4, [r4, #12]
 2372              	.LVL172:
 2373              		.loc 2 367 20 view .LVU590
 2374 0052 084A     		ldr	r2, .L159+8
 2375 0054 0346     		mov	r3, r0
 2376 0056 CDE90014 		strd	r1, r4, [sp]
 2377 005a 0292     		str	r2, [sp, #8]
 2378 005c 1521     		movs	r1, #21
 2379 005e 6F22     		movs	r2, #111
 2380 0060 0120     		movs	r0, #1
 2381 0062 FFF7FEFF 		bl	ST7735_PutStr5x7Ex
 2382              	.LVL173:
 2383              		.loc 2 367 20 view .LVU591
 2384              	.LBE193:
 2385              	.LBE192:
 277:Src/VFO/GUISetupView.cpp **** 
 2386              		.loc 2 277 1 view .LVU592
 2387 0066 06B0     		add	sp, sp, #24
 2388              	.LCFI29:
 2389              		.cfi_def_cfa_offset 16
 2390              		@ sp needed
 2391 0068 70BD     		pop	{r4, r5, r6, pc}
 2392              	.L160:
 2393 006a 00BF     		.align	2
 2394              	.L159:
 2395 006c 00000000 		.word	.LANCHOR1
 2396 0070 00000000 		.word	.LC8
ARM GAS  /var/folders/20/cstyxln53wn53rr40gj353bh0000gn/T//ccP2nhox.s 			page 59


 2397 0074 00000000 		.word	_ZN3VFO15backgroundColorEPvhh
 2398              		.cfi_endproc
 2399              	.LFE134:
 2400              		.fnend
 2402              		.section	.text._ZN3VFO12GUISetupView14menuKeyPressedEv,"ax",%progbits
 2403              		.align	1
 2404              		.p2align 2,,3
 2405              		.global	_ZN3VFO12GUISetupView14menuKeyPressedEv
 2406              		.syntax unified
 2407              		.thumb
 2408              		.thumb_func
 2409              		.fpu softvfp
 2411              	_ZN3VFO12GUISetupView14menuKeyPressedEv:
 2412              		.fnstart
 2413              	.LVL174:
 2414              	.LFB130:
 179:Src/VFO/GUISetupView.cpp **** 	if ( _selectedChild )
 2415              		.loc 2 179 1 is_stmt 1 view -0
 2416              		.cfi_startproc
 2417              		@ args = 0, pretend = 0, frame = 8
 2418              		@ frame_needed = 0, uses_anonymous_args = 0
 180:Src/VFO/GUISetupView.cpp **** 	{
 2419              		.loc 2 180 2 view .LVU594
 179:Src/VFO/GUISetupView.cpp **** 	if ( _selectedChild )
 2420              		.loc 2 179 1 is_stmt 0 view .LVU595
 2421 0000 F0B5     		push	{r4, r5, r6, r7, lr}
 2422              		.save {r4, r5, r6, r7, lr}
 2423              	.LCFI30:
 2424              		.cfi_def_cfa_offset 20
 2425              		.cfi_offset 4, -20
 2426              		.cfi_offset 5, -16
 2427              		.cfi_offset 6, -12
 2428              		.cfi_offset 7, -8
 2429              		.cfi_offset 14, -4
 180:Src/VFO/GUISetupView.cpp **** 	{
 2430              		.loc 2 180 7 view .LVU596
 2431 0002 036A     		ldr	r3, [r0, #32]
 179:Src/VFO/GUISetupView.cpp **** 	if ( _selectedChild )
 2432              		.loc 2 179 1 view .LVU597
 2433              		.pad #28
 2434 0004 87B0     		sub	sp, sp, #28
 2435              	.LCFI31:
 2436              		.cfi_def_cfa_offset 48
 180:Src/VFO/GUISetupView.cpp **** 	{
 2437              		.loc 2 180 2 view .LVU598
 2438 0006 2BB1     		cbz	r3, .L162
 182:Src/VFO/GUISetupView.cpp **** 		return;
 2439              		.loc 2 182 3 is_stmt 1 view .LVU599
 182:Src/VFO/GUISetupView.cpp **** 		return;
 2440              		.loc 2 182 34 is_stmt 0 view .LVU600
 2441 0008 1A68     		ldr	r2, [r3]
 182:Src/VFO/GUISetupView.cpp **** 		return;
 2442              		.loc 2 182 33 view .LVU601
 2443 000a 1846     		mov	r0, r3
 2444              	.LVL175:
 182:Src/VFO/GUISetupView.cpp **** 		return;
 2445              		.loc 2 182 33 view .LVU602
ARM GAS  /var/folders/20/cstyxln53wn53rr40gj353bh0000gn/T//ccP2nhox.s 			page 60


 2446 000c 1369     		ldr	r3, [r2, #16]
 2447              	.LEHB15:
 2448 000e 9847     		blx	r3
 2449              	.LVL176:
 183:Src/VFO/GUISetupView.cpp **** 	}
 2450              		.loc 2 183 3 is_stmt 1 view .LVU603
 2451              	.L161:
 219:Src/VFO/GUISetupView.cpp **** 
 2452              		.loc 2 219 1 is_stmt 0 view .LVU604
 2453 0010 07B0     		add	sp, sp, #28
 2454              	.LCFI32:
 2455              		.cfi_remember_state
 2456              		.cfi_def_cfa_offset 20
 2457              		@ sp needed
 2458 0012 F0BD     		pop	{r4, r5, r6, r7, pc}
 2459              	.LVL177:
 2460              	.L162:
 2461              	.LCFI33:
 2462              		.cfi_restore_state
 2463              	.LBB214:
 186:Src/VFO/GUISetupView.cpp **** 	{
 2464              		.loc 2 186 24 view .LVU605
 2465 0014 8269     		ldr	r2, [r0, #24]
 186:Src/VFO/GUISetupView.cpp **** 	{
 2466              		.loc 2 186 7 view .LVU606
 2467 0016 437D     		ldrb	r3, [r0, #21]	@ zero_extendqisi2
 186:Src/VFO/GUISetupView.cpp **** 	{
 2468              		.loc 2 186 2 view .LVU607
 2469 0018 1169     		ldr	r1, [r2, #16]
 2470 001a 0446     		mov	r4, r0
 2471              	.LBE214:
 186:Src/VFO/GUISetupView.cpp **** 	{
 2472              		.loc 2 186 2 is_stmt 1 view .LVU608
 2473              	.LBB243:
 2474 001c 8B42     		cmp	r3, r1
 2475 001e 4DDB     		blt	.L164
 188:Src/VFO/GUISetupView.cpp **** 		{
 2476              		.loc 2 188 3 view .LVU609
 188:Src/VFO/GUISetupView.cpp **** 		{
 2477              		.loc 2 188 8 is_stmt 0 view .LVU610
 2478 0020 C569     		ldr	r5, [r0, #28]
 188:Src/VFO/GUISetupView.cpp **** 		{
 2479              		.loc 2 188 3 view .LVU611
 2480 0022 002D     		cmp	r5, #0
 2481 0024 00F0B280 		beq	.L165
 190:Src/VFO/GUISetupView.cpp **** 			_parent->setSelectedChild(NULL);
 2482              		.loc 2 190 4 is_stmt 1 view .LVU612
 190:Src/VFO/GUISetupView.cpp **** 			_parent->setSelectedChild(NULL);
 2483              		.loc 2 190 18 is_stmt 0 view .LVU613
 2484 0028 2B68     		ldr	r3, [r5]
 2485 002a 614A     		ldr	r2, .L182
 2486 002c 9B68     		ldr	r3, [r3, #8]
 2487              	.LBB215:
 2488              	.LBB216:
 274:Src/VFO/GUISetupView.cpp **** 	this->setSelected(_currentItem->numChildren);
 2489              		.loc 2 274 22 view .LVU614
 2490 002e 2846     		mov	r0, r5
ARM GAS  /var/folders/20/cstyxln53wn53rr40gj353bh0000gn/T//ccP2nhox.s 			page 61


 2491              	.LVL178:
 274:Src/VFO/GUISetupView.cpp **** 	this->setSelected(_currentItem->numChildren);
 2492              		.loc 2 274 22 view .LVU615
 2493 0030 9342     		cmp	r3, r2
 2494 0032 40F0A080 		bne	.L166
 2495              	.LVL179:
 274:Src/VFO/GUISetupView.cpp **** 	this->setSelected(_currentItem->numChildren);
 2496              		.loc 2 274 22 view .LVU616
 2497              	.LBE216:
 2498              	.LBI215:
 272:Src/VFO/GUISetupView.cpp **** {
 2499              		.loc 2 272 6 is_stmt 1 view .LVU617
 2500              	.LBB219:
 274:Src/VFO/GUISetupView.cpp **** 	this->setSelected(_currentItem->numChildren);
 2501              		.loc 2 274 2 view .LVU618
 274:Src/VFO/GUISetupView.cpp **** 	this->setSelected(_currentItem->numChildren);
 2502              		.loc 2 274 22 is_stmt 0 view .LVU619
 2503 0036 FFF7FEFF 		bl	_ZN3VFO12GUISetupView14drawBackgroundEv
 2504              	.LVL180:
 275:Src/VFO/GUISetupView.cpp **** 	drawBackButton(true);
 2505              		.loc 2 275 2 is_stmt 1 view .LVU620
 275:Src/VFO/GUISetupView.cpp **** 	drawBackButton(true);
 2506              		.loc 2 275 34 is_stmt 0 view .LVU621
 2507 003a AB69     		ldr	r3, [r5, #24]
 275:Src/VFO/GUISetupView.cpp **** 	drawBackButton(true);
 2508              		.loc 2 275 19 view .LVU622
 2509 003c 2846     		mov	r0, r5
 2510 003e 197C     		ldrb	r1, [r3, #16]	@ zero_extendqisi2
 2511 0040 FFF7FEFF 		bl	_ZN3VFO12GUISetupView11setSelectedEh
 2512              	.LVL181:
 276:Src/VFO/GUISetupView.cpp **** }
 2513              		.loc 2 276 2 is_stmt 1 view .LVU623
 2514              	.LBB217:
 2515              	.LBI217:
 347:Src/VFO/GUISetupView.cpp **** {
 2516              		.loc 2 347 6 view .LVU624
 2517              	.LBB218:
 349:Src/VFO/GUISetupView.cpp **** 	uint16_t color = COLOR565_YELLOW;
 2518              		.loc 2 349 2 view .LVU625
 350:Src/VFO/GUISetupView.cpp **** 	if ( selected )
 2519              		.loc 2 350 2 view .LVU626
 351:Src/VFO/GUISetupView.cpp **** 	{
 2520              		.loc 2 351 2 view .LVU627
 353:Src/VFO/GUISetupView.cpp **** 		_btnBack->upRight = { 10, 160, 10 };
 2521              		.loc 2 353 3 view .LVU628
 353:Src/VFO/GUISetupView.cpp **** 		_btnBack->upRight = { 10, 160, 10 };
 2522              		.loc 2 353 21 is_stmt 0 view .LVU629
 2523 0044 5B4B     		ldr	r3, .L182+4
 353:Src/VFO/GUISetupView.cpp **** 		_btnBack->upRight = { 10, 160, 10 };
 2524              		.loc 2 353 3 view .LVU630
 2525 0046 E868     		ldr	r0, [r5, #12]
 353:Src/VFO/GUISetupView.cpp **** 		_btnBack->upRight = { 10, 160, 10 };
 2526              		.loc 2 353 21 view .LVU631
 2527 0048 1A46     		mov	r2, r3
 2528 004a 32F8186F 		ldrh	r6, [r2, #24]!	@ unaligned
 355:Src/VFO/GUISetupView.cpp **** 		_btnBack->downRight   = { 10, 10, 100 };
 2529              		.loc 2 355 25 view .LVU632
ARM GAS  /var/folders/20/cstyxln53wn53rr40gj353bh0000gn/T//ccP2nhox.s 			page 62


 2530 004e D969     		ldr	r1, [r3, #28]
 356:Src/VFO/GUISetupView.cpp **** 		color = COLOR565_WHITE;
 2531              		.loc 2 356 25 view .LVU633
 2532 0050 33F81C7F 		ldrh	r7, [r3, #28]!	@ unaligned
 353:Src/VFO/GUISetupView.cpp **** 		_btnBack->upRight = { 10, 160, 10 };
 2533              		.loc 2 353 21 view .LVU634
 2534 0054 9278     		ldrb	r2, [r2, #2]	@ zero_extendqisi2
 356:Src/VFO/GUISetupView.cpp **** 		color = COLOR565_WHITE;
 2535              		.loc 2 356 25 view .LVU635
 2536 0056 9B78     		ldrb	r3, [r3, #2]	@ zero_extendqisi2
 353:Src/VFO/GUISetupView.cpp **** 		_btnBack->upRight = { 10, 160, 10 };
 2537              		.loc 2 353 21 view .LVU636
 2538 0058 0272     		strb	r2, [r0, #8]
 354:Src/VFO/GUISetupView.cpp **** 		_btnBack->downLeft    = { 10, 10, 100 };
 2539              		.loc 2 354 3 is_stmt 1 view .LVU637
 354:Src/VFO/GUISetupView.cpp **** 		_btnBack->downLeft    = { 10, 10, 100 };
 2540              		.loc 2 354 21 is_stmt 0 view .LVU638
 2541 005a C272     		strb	r2, [r0, #11]
 355:Src/VFO/GUISetupView.cpp **** 		_btnBack->downRight   = { 10, 10, 100 };
 2542              		.loc 2 355 3 is_stmt 1 view .LVU639
 355:Src/VFO/GUISetupView.cpp **** 		_btnBack->downRight   = { 10, 10, 100 };
 2543              		.loc 2 355 25 is_stmt 0 view .LVU640
 2544 005c 0A0C     		lsrs	r2, r1, #16
 356:Src/VFO/GUISetupView.cpp **** 		color = COLOR565_WHITE;
 2545              		.loc 2 356 25 view .LVU641
 2546 005e 4374     		strb	r3, [r0, #17]
 355:Src/VFO/GUISetupView.cpp **** 		_btnBack->downRight   = { 10, 10, 100 };
 2547              		.loc 2 355 25 view .LVU642
 2548 0060 8181     		strh	r1, [r0, #12]	@ movhi
 2549 0062 8273     		strb	r2, [r0, #14]
 356:Src/VFO/GUISetupView.cpp **** 		color = COLOR565_WHITE;
 2550              		.loc 2 356 3 is_stmt 1 view .LVU643
 357:Src/VFO/GUISetupView.cpp **** 	}
 2551              		.loc 2 357 3 view .LVU644
 2552              	.LVL182:
 366:Src/VFO/GUISetupView.cpp **** 	ST7735_PutStr5x7Ex(1, 21, 111, VFO::utf8to1251Dest("Назад", str1, sizeof(str1)),
 2553              		.loc 2 366 2 view .LVU645
 353:Src/VFO/GUISetupView.cpp **** 		_btnBack->upRight = { 10, 160, 10 };
 2554              		.loc 2 353 21 is_stmt 0 view .LVU646
 2555 0064 C680     		strh	r6, [r0, #6]	@ unaligned
 354:Src/VFO/GUISetupView.cpp **** 		_btnBack->downLeft    = { 10, 10, 100 };
 2556              		.loc 2 354 21 view .LVU647
 2557 0066 A0F80960 		strh	r6, [r0, #9]	@ unaligned
 356:Src/VFO/GUISetupView.cpp **** 		color = COLOR565_WHITE;
 2558              		.loc 2 356 25 view .LVU648
 2559 006a A0F80F70 		strh	r7, [r0, #15]	@ unaligned
 366:Src/VFO/GUISetupView.cpp **** 	ST7735_PutStr5x7Ex(1, 21, 111, VFO::utf8to1251Dest("Назад", str1, sizeof(str1)),
 2560              		.loc 2 366 16 view .LVU649
 2561 006e FFF7FEFF 		bl	_ZN3VFO11GradientBox4drawEv
 2562              	.LVL183:
 2563              		.loc 2 367 2 is_stmt 1 view .LVU650
 2564              		.loc 2 367 20 is_stmt 0 view .LVU651
 2565 0072 0622     		movs	r2, #6
 2566 0074 04A9     		add	r1, sp, #16
 2567 0076 5048     		ldr	r0, .L182+8
 2568 0078 FFF7FEFF 		bl	_ZN3VFO14utf8to1251DestEPKcPcj
 2569              	.LVL184:
ARM GAS  /var/folders/20/cstyxln53wn53rr40gj353bh0000gn/T//ccP2nhox.s 			page 63


 2570 007c 4FF6FF71 		movw	r1, #65535
 2571 0080 4E4A     		ldr	r2, .L182+12
 2572 0082 0346     		mov	r3, r0
 2573 0084 0292     		str	r2, [sp, #8]
 2574 0086 E868     		ldr	r0, [r5, #12]
 2575 0088 6F22     		movs	r2, #111
 2576 008a CDE90010 		strd	r1, r0, [sp]
 2577 008e 1521     		movs	r1, #21
 2578 0090 0120     		movs	r0, #1
 2579 0092 FFF7FEFF 		bl	ST7735_PutStr5x7Ex
 2580              	.LVL185:
 2581              	.L167:
 2582              		.loc 2 367 20 view .LVU652
 2583              	.LBE218:
 2584              	.LBE217:
 2585              	.LBE219:
 2586              	.LBE215:
 191:Src/VFO/GUISetupView.cpp **** 		}
 2587              		.loc 2 191 4 is_stmt 1 view .LVU653
 2588 0096 E569     		ldr	r5, [r4, #28]
 2589              	.LVL186:
 2590              	.LBB220:
 2591              	.LBI220:
 261:Src/VFO/GUISetupView.cpp **** {
 2592              		.loc 2 261 6 view .LVU654
 2593              	.LBB221:
 263:Src/VFO/GUISetupView.cpp **** 	{
 2594              		.loc 2 263 2 view .LVU655
 263:Src/VFO/GUISetupView.cpp **** 	{
 2595              		.loc 2 263 17 is_stmt 0 view .LVU656
 2596 0098 2C6A     		ldr	r4, [r5, #32]
 2597              	.LVL187:
 263:Src/VFO/GUISetupView.cpp **** 	{
 2598              		.loc 2 263 14 view .LVU657
 2599 009a 5CB1     		cbz	r4, .L168
 265:Src/VFO/GUISetupView.cpp **** 	}
 2600              		.loc 2 265 3 is_stmt 1 view .LVU658
 265:Src/VFO/GUISetupView.cpp **** 	}
 2601              		.loc 2 265 10 is_stmt 0 view .LVU659
 2602 009c 2368     		ldr	r3, [r4]
 2603 009e 484A     		ldr	r2, .L182+16
 2604 00a0 5B68     		ldr	r3, [r3, #4]
 2605              	.LBB222:
 2606              	.LBB223:
 136:Src/VFO/GUISetupView.cpp **** 
 2607              		.loc 2 136 1 view .LVU660
 2608 00a2 2046     		mov	r0, r4
 2609 00a4 9342     		cmp	r3, r2
 2610 00a6 6FD1     		bne	.L169
 2611              	.LVL188:
 136:Src/VFO/GUISetupView.cpp **** 
 2612              		.loc 2 136 1 view .LVU661
 2613              	.LBE223:
 2614              	.LBI222:
 131:Src/VFO/GUISetupView.cpp **** {
 2615              		.loc 2 131 1 is_stmt 1 view .LVU662
 2616              	.LBB224:
ARM GAS  /var/folders/20/cstyxln53wn53rr40gj353bh0000gn/T//ccP2nhox.s 			page 64


 136:Src/VFO/GUISetupView.cpp **** 
 2617              		.loc 2 136 1 is_stmt 0 view .LVU663
 2618 00a8 FFF7FEFF 		bl	_ZN3VFO12GUISetupViewD1Ev
 2619              	.LVL189:
 136:Src/VFO/GUISetupView.cpp **** 
 2620              		.loc 2 136 1 view .LVU664
 2621 00ac 2046     		mov	r0, r4
 2622 00ae 2821     		movs	r1, #40
 2623 00b0 FFF7FEFF 		bl	_ZdlPvj
 2624              	.LVL190:
 2625              	.L168:
 136:Src/VFO/GUISetupView.cpp **** 
 2626              		.loc 2 136 1 view .LVU665
 2627              	.LBE224:
 2628              	.LBE222:
 267:Src/VFO/GUISetupView.cpp **** }
 2629              		.loc 2 267 2 is_stmt 1 view .LVU666
 267:Src/VFO/GUISetupView.cpp **** }
 2630              		.loc 2 267 17 is_stmt 0 view .LVU667
 2631 00b4 0023     		movs	r3, #0
 2632 00b6 2B62     		str	r3, [r5, #32]
 2633              	.LBE221:
 2634              	.LBE220:
 2635              	.LBE243:
 219:Src/VFO/GUISetupView.cpp **** 
 2636              		.loc 2 219 1 view .LVU668
 2637 00b8 07B0     		add	sp, sp, #28
 2638              	.LCFI34:
 2639              		.cfi_remember_state
 2640              		.cfi_def_cfa_offset 20
 2641              		@ sp needed
 2642 00ba F0BD     		pop	{r4, r5, r6, r7, pc}
 2643              	.LVL191:
 2644              	.L164:
 2645              	.LCFI35:
 2646              		.cfi_restore_state
 202:Src/VFO/GUISetupView.cpp **** 		{
 2647              		.loc 2 202 3 is_stmt 1 view .LVU669
 2648              	.LBB244:
 2649              	.LBB226:
 202:Src/VFO/GUISetupView.cpp **** 		{
 2650              		.loc 2 202 46 is_stmt 0 view .LVU670
 2651 00bc 5269     		ldr	r2, [r2, #20]
 2652 00be 03EB4303 		add	r3, r3, r3, lsl #1
 2653 00c2 02EBC303 		add	r3, r2, r3, lsl #3
 202:Src/VFO/GUISetupView.cpp **** 		{
 2654              		.loc 2 202 3 view .LVU671
 2655 00c6 5A68     		ldr	r2, [r3, #4]
 2656 00c8 DB68     		ldr	r3, [r3, #12]
 2657 00ca 3AB1     		cbz	r2, .L181
 208:Src/VFO/GUISetupView.cpp **** 		{
 2658              		.loc 2 208 8 is_stmt 1 view .LVU672
 2659 00cc 002B     		cmp	r3, #0
 2660 00ce 54D0     		beq	.L174
 2661              	.L171:
 210:Src/VFO/GUISetupView.cpp **** 			updateValues();
 2662              		.loc 2 210 4 view .LVU673
ARM GAS  /var/folders/20/cstyxln53wn53rr40gj353bh0000gn/T//ccP2nhox.s 			page 65


 210:Src/VFO/GUISetupView.cpp **** 			updateValues();
 2663              		.loc 2 210 47 is_stmt 0 view .LVU674
 2664 00d0 9847     		blx	r3
 2665              	.LVL192:
 211:Src/VFO/GUISetupView.cpp **** 		}
 2666              		.loc 2 211 4 is_stmt 1 view .LVU675
 211:Src/VFO/GUISetupView.cpp **** 		}
 2667              		.loc 2 211 16 is_stmt 0 view .LVU676
 2668 00d2 2046     		mov	r0, r4
 2669 00d4 FFF7FEFF 		bl	_ZN3VFO12GUISetupView12updateValuesEv
 2670              	.LVL193:
 2671              	.LBE226:
 2672              	.LBE244:
 219:Src/VFO/GUISetupView.cpp **** 
 2673              		.loc 2 219 1 view .LVU677
 2674 00d8 07B0     		add	sp, sp, #28
 2675              	.LCFI36:
 2676              		.cfi_remember_state
 2677              		.cfi_def_cfa_offset 20
 2678              		@ sp needed
 2679 00da F0BD     		pop	{r4, r5, r6, r7, pc}
 2680              	.LVL194:
 2681              	.L181:
 2682              	.LCFI37:
 2683              		.cfi_restore_state
 2684              	.LBB245:
 2685              	.LBB239:
 202:Src/VFO/GUISetupView.cpp **** 		{
 2686              		.loc 2 202 63 discriminator 1 view .LVU678
 2687 00dc 002B     		cmp	r3, #0
 2688 00de F7D1     		bne	.L171
 2689              	.LBB227:
 204:Src/VFO/GUISetupView.cpp **** 			setSelectedChild( submenu );
 2690              		.loc 2 204 4 is_stmt 1 view .LVU679
 204:Src/VFO/GUISetupView.cpp **** 			setSelectedChild( submenu );
 2691              		.loc 2 204 93 is_stmt 0 view .LVU680
 2692 00e0 2820     		movs	r0, #40
 2693              	.LVL195:
 204:Src/VFO/GUISetupView.cpp **** 			setSelectedChild( submenu );
 2694              		.loc 2 204 93 view .LVU681
 2695 00e2 FFF7FEFF 		bl	_Znwj
 2696              	.LVL196:
 2697              	.LEHE15:
 204:Src/VFO/GUISetupView.cpp **** 			setSelectedChild( submenu );
 2698              		.loc 2 204 61 view .LVU682
 2699 00e6 A269     		ldr	r2, [r4, #24]
 204:Src/VFO/GUISetupView.cpp **** 			setSelectedChild( submenu );
 2700              		.loc 2 204 71 view .LVU683
 2701 00e8 637D     		ldrb	r3, [r4, #21]	@ zero_extendqisi2
 204:Src/VFO/GUISetupView.cpp **** 			setSelectedChild( submenu );
 2702              		.loc 2 204 93 view .LVU684
 2703 00ea 5669     		ldr	r6, [r2, #20]
 204:Src/VFO/GUISetupView.cpp **** 			setSelectedChild( submenu );
 2704              		.loc 2 204 85 view .LVU685
 2705 00ec 03EB4303 		add	r3, r3, r3, lsl #1
 204:Src/VFO/GUISetupView.cpp **** 			setSelectedChild( submenu );
 2706              		.loc 2 204 93 view .LVU686
ARM GAS  /var/folders/20/cstyxln53wn53rr40gj353bh0000gn/T//ccP2nhox.s 			page 66


 2707 00f0 0546     		mov	r5, r0
 2708 00f2 06EBC306 		add	r6, r6, r3, lsl #3
 2709              	.LVL197:
 2710              	.LBB228:
 2711              	.LBI228:
  96:Src/VFO/GUISetupView.cpp **** {
 2712              		.loc 2 96 1 is_stmt 1 view .LVU687
 2713              	.LEHB16:
 2714              	.LBB229:
  96:Src/VFO/GUISetupView.cpp **** {
 2715              		.loc 2 96 65 is_stmt 0 view .LVU688
 2716 00f6 FFF7FEFF 		bl	_ZN3VFO7GUIViewC2Ev
 2717              	.LVL198:
 2718              	.LEHE16:
  96:Src/VFO/GUISetupView.cpp **** {
 2719              		.loc 2 96 65 view .LVU689
 2720 00fa 0023     		movs	r3, #0
 2721 00fc 314A     		ldr	r2, .L182+20
 101:Src/VFO/GUISetupView.cpp **** }
 2722              		.loc 2 101 6 view .LVU690
 2723 00fe 2846     		mov	r0, r5
  99:Src/VFO/GUISetupView.cpp **** 	_selectedChild = NULL;
 2724              		.loc 2 99 15 view .LVU691
 2725 0100 C5E90664 		strd	r6, r4, [r5, #24]
  96:Src/VFO/GUISetupView.cpp **** {
 2726              		.loc 2 96 65 view .LVU692
 2727 0104 AB82     		strh	r3, [r5, #20]	@ movhi
 2728 0106 AB84     		strh	r3, [r5, #36]	@ movhi
  98:Src/VFO/GUISetupView.cpp **** 	_currentItem = item;
 2729              		.loc 2 98 2 is_stmt 1 view .LVU693
  99:Src/VFO/GUISetupView.cpp **** 	_selectedChild = NULL;
 2730              		.loc 2 99 2 view .LVU694
 100:Src/VFO/GUISetupView.cpp **** 	init();
 2731              		.loc 2 100 2 view .LVU695
 100:Src/VFO/GUISetupView.cpp **** 	init();
 2732              		.loc 2 100 17 is_stmt 0 view .LVU696
 2733 0108 2B62     		str	r3, [r5, #32]
 101:Src/VFO/GUISetupView.cpp **** }
 2734              		.loc 2 101 2 is_stmt 1 view .LVU697
  96:Src/VFO/GUISetupView.cpp **** {
 2735              		.loc 2 96 65 is_stmt 0 view .LVU698
 2736 010a 2A60     		str	r2, [r5]
 2737              	.LEHB17:
 101:Src/VFO/GUISetupView.cpp **** }
 2738              		.loc 2 101 6 view .LVU699
 2739 010c FFF7FEFF 		bl	_ZN3VFO12GUISetupView4initEv
 2740              	.LVL199:
 2741              	.LEHE17:
 101:Src/VFO/GUISetupView.cpp **** }
 2742              		.loc 2 101 6 view .LVU700
 2743              	.LBE229:
 2744              	.LBE228:
 205:Src/VFO/GUISetupView.cpp **** 			submenu->draw();
 2745              		.loc 2 205 4 is_stmt 1 view .LVU701
 2746              	.LBB231:
 2747              	.LBI231:
 261:Src/VFO/GUISetupView.cpp **** {
ARM GAS  /var/folders/20/cstyxln53wn53rr40gj353bh0000gn/T//ccP2nhox.s 			page 67


 2748              		.loc 2 261 6 view .LVU702
 2749              	.LBB232:
 263:Src/VFO/GUISetupView.cpp **** 	{
 2750              		.loc 2 263 2 view .LVU703
 267:Src/VFO/GUISetupView.cpp **** }
 2751              		.loc 2 267 2 view .LVU704
 267:Src/VFO/GUISetupView.cpp **** }
 2752              		.loc 2 267 17 is_stmt 0 view .LVU705
 2753 0110 2562     		str	r5, [r4, #32]
 2754              	.LVL200:
 267:Src/VFO/GUISetupView.cpp **** }
 2755              		.loc 2 267 17 view .LVU706
 2756              	.LBE232:
 2757              	.LBE231:
 206:Src/VFO/GUISetupView.cpp **** 		}
 2758              		.loc 2 206 4 is_stmt 1 view .LVU707
 2759              	.LBB233:
 2760              	.LBI233:
 272:Src/VFO/GUISetupView.cpp **** {
 2761              		.loc 2 272 6 view .LVU708
 2762              	.LBB234:
 274:Src/VFO/GUISetupView.cpp **** 	this->setSelected(_currentItem->numChildren);
 2763              		.loc 2 274 2 view .LVU709
 274:Src/VFO/GUISetupView.cpp **** 	this->setSelected(_currentItem->numChildren);
 2764              		.loc 2 274 22 is_stmt 0 view .LVU710
 2765 0112 2846     		mov	r0, r5
 2766              	.LEHB18:
 2767 0114 FFF7FEFF 		bl	_ZN3VFO12GUISetupView14drawBackgroundEv
 2768              	.LVL201:
 275:Src/VFO/GUISetupView.cpp **** 	drawBackButton(true);
 2769              		.loc 2 275 2 is_stmt 1 view .LVU711
 275:Src/VFO/GUISetupView.cpp **** 	drawBackButton(true);
 2770              		.loc 2 275 34 is_stmt 0 view .LVU712
 2771 0118 AB69     		ldr	r3, [r5, #24]
 275:Src/VFO/GUISetupView.cpp **** 	drawBackButton(true);
 2772              		.loc 2 275 19 view .LVU713
 2773 011a 2846     		mov	r0, r5
 2774 011c 197C     		ldrb	r1, [r3, #16]	@ zero_extendqisi2
 2775 011e FFF7FEFF 		bl	_ZN3VFO12GUISetupView11setSelectedEh
 2776              	.LVL202:
 276:Src/VFO/GUISetupView.cpp **** }
 2777              		.loc 2 276 2 is_stmt 1 view .LVU714
 2778              	.LBB235:
 2779              	.LBI235:
 347:Src/VFO/GUISetupView.cpp **** {
 2780              		.loc 2 347 6 view .LVU715
 2781              	.LBB236:
 349:Src/VFO/GUISetupView.cpp **** 	uint16_t color = COLOR565_YELLOW;
 2782              		.loc 2 349 2 view .LVU716
 350:Src/VFO/GUISetupView.cpp **** 	if ( selected )
 2783              		.loc 2 350 2 view .LVU717
 351:Src/VFO/GUISetupView.cpp **** 	{
 2784              		.loc 2 351 2 view .LVU718
 353:Src/VFO/GUISetupView.cpp **** 		_btnBack->upRight = { 10, 160, 10 };
 2785              		.loc 2 353 3 view .LVU719
 353:Src/VFO/GUISetupView.cpp **** 		_btnBack->upRight = { 10, 160, 10 };
 2786              		.loc 2 353 21 is_stmt 0 view .LVU720
ARM GAS  /var/folders/20/cstyxln53wn53rr40gj353bh0000gn/T//ccP2nhox.s 			page 68


 2787 0122 244B     		ldr	r3, .L182+4
 353:Src/VFO/GUISetupView.cpp **** 		_btnBack->upRight = { 10, 160, 10 };
 2788              		.loc 2 353 3 view .LVU721
 2789 0124 E868     		ldr	r0, [r5, #12]
 353:Src/VFO/GUISetupView.cpp **** 		_btnBack->upRight = { 10, 160, 10 };
 2790              		.loc 2 353 21 view .LVU722
 2791 0126 1A46     		mov	r2, r3
 2792 0128 32F8184F 		ldrh	r4, [r2, #24]!	@ unaligned
 2793              	.LVL203:
 355:Src/VFO/GUISetupView.cpp **** 		_btnBack->downRight   = { 10, 10, 100 };
 2794              		.loc 2 355 25 view .LVU723
 2795 012c D969     		ldr	r1, [r3, #28]
 356:Src/VFO/GUISetupView.cpp **** 		color = COLOR565_WHITE;
 2796              		.loc 2 356 25 view .LVU724
 2797 012e 33F81C6F 		ldrh	r6, [r3, #28]!	@ unaligned
 353:Src/VFO/GUISetupView.cpp **** 		_btnBack->upRight = { 10, 160, 10 };
 2798              		.loc 2 353 21 view .LVU725
 2799 0132 9278     		ldrb	r2, [r2, #2]	@ zero_extendqisi2
 356:Src/VFO/GUISetupView.cpp **** 		color = COLOR565_WHITE;
 2800              		.loc 2 356 25 view .LVU726
 2801 0134 9B78     		ldrb	r3, [r3, #2]	@ zero_extendqisi2
 353:Src/VFO/GUISetupView.cpp **** 		_btnBack->upRight = { 10, 160, 10 };
 2802              		.loc 2 353 21 view .LVU727
 2803 0136 0272     		strb	r2, [r0, #8]
 354:Src/VFO/GUISetupView.cpp **** 		_btnBack->downLeft    = { 10, 10, 100 };
 2804              		.loc 2 354 3 is_stmt 1 view .LVU728
 354:Src/VFO/GUISetupView.cpp **** 		_btnBack->downLeft    = { 10, 10, 100 };
 2805              		.loc 2 354 21 is_stmt 0 view .LVU729
 2806 0138 C272     		strb	r2, [r0, #11]
 355:Src/VFO/GUISetupView.cpp **** 		_btnBack->downRight   = { 10, 10, 100 };
 2807              		.loc 2 355 3 is_stmt 1 view .LVU730
 355:Src/VFO/GUISetupView.cpp **** 		_btnBack->downRight   = { 10, 10, 100 };
 2808              		.loc 2 355 25 is_stmt 0 view .LVU731
 2809 013a 0A0C     		lsrs	r2, r1, #16
 356:Src/VFO/GUISetupView.cpp **** 		color = COLOR565_WHITE;
 2810              		.loc 2 356 25 view .LVU732
 2811 013c 4374     		strb	r3, [r0, #17]
 353:Src/VFO/GUISetupView.cpp **** 		_btnBack->upRight = { 10, 160, 10 };
 2812              		.loc 2 353 21 view .LVU733
 2813 013e C480     		strh	r4, [r0, #6]	@ unaligned
 354:Src/VFO/GUISetupView.cpp **** 		_btnBack->downLeft    = { 10, 10, 100 };
 2814              		.loc 2 354 21 view .LVU734
 2815 0140 A0F80940 		strh	r4, [r0, #9]	@ unaligned
 355:Src/VFO/GUISetupView.cpp **** 		_btnBack->downRight   = { 10, 10, 100 };
 2816              		.loc 2 355 25 view .LVU735
 2817 0144 8181     		strh	r1, [r0, #12]	@ movhi
 2818 0146 8273     		strb	r2, [r0, #14]
 356:Src/VFO/GUISetupView.cpp **** 		color = COLOR565_WHITE;
 2819              		.loc 2 356 3 is_stmt 1 view .LVU736
 357:Src/VFO/GUISetupView.cpp **** 	}
 2820              		.loc 2 357 3 view .LVU737
 2821              	.LVL204:
 366:Src/VFO/GUISetupView.cpp **** 	ST7735_PutStr5x7Ex(1, 21, 111, VFO::utf8to1251Dest("Назад", str1, sizeof(str1)),
 2822              		.loc 2 366 2 view .LVU738
 356:Src/VFO/GUISetupView.cpp **** 		color = COLOR565_WHITE;
 2823              		.loc 2 356 25 is_stmt 0 view .LVU739
 2824 0148 A0F80F60 		strh	r6, [r0, #15]	@ unaligned
ARM GAS  /var/folders/20/cstyxln53wn53rr40gj353bh0000gn/T//ccP2nhox.s 			page 69


 366:Src/VFO/GUISetupView.cpp **** 	ST7735_PutStr5x7Ex(1, 21, 111, VFO::utf8to1251Dest("Назад", str1, sizeof(str1)),
 2825              		.loc 2 366 16 view .LVU740
 2826 014c FFF7FEFF 		bl	_ZN3VFO11GradientBox4drawEv
 2827              	.LVL205:
 2828              		.loc 2 367 2 is_stmt 1 view .LVU741
 2829              		.loc 2 367 20 is_stmt 0 view .LVU742
 2830 0150 04A9     		add	r1, sp, #16
 2831 0152 0622     		movs	r2, #6
 2832 0154 1848     		ldr	r0, .L182+8
 2833 0156 FFF7FEFF 		bl	_ZN3VFO14utf8to1251DestEPKcPcj
 2834              	.LVL206:
 2835 015a 4FF6FF71 		movw	r1, #65535
 2836 015e EC68     		ldr	r4, [r5, #12]
 2837 0160 164A     		ldr	r2, .L182+12
 2838 0162 0346     		mov	r3, r0
 2839 0164 CDE90014 		strd	r1, r4, [sp]
 2840 0168 0292     		str	r2, [sp, #8]
 2841 016a 1521     		movs	r1, #21
 2842 016c 6F22     		movs	r2, #111
 2843 016e 0120     		movs	r0, #1
 2844 0170 FFF7FEFF 		bl	ST7735_PutStr5x7Ex
 2845              	.LVL207:
 2846 0174 4CE7     		b	.L161
 2847              	.LVL208:
 2848              	.L166:
 2849              		.loc 2 367 20 view .LVU743
 2850              	.LBE236:
 2851              	.LBE235:
 2852              	.LBE234:
 2853              	.LBE233:
 2854              	.LBE227:
 2855              	.LBE239:
 190:Src/VFO/GUISetupView.cpp **** 			_parent->setSelectedChild(NULL);
 2856              		.loc 2 190 17 view .LVU744
 2857 0176 9847     		blx	r3
 2858              	.LVL209:
 2859 0178 8DE7     		b	.L167
 2860              	.LVL210:
 2861              	.L174:
 2862              	.LBB240:
 215:Src/VFO/GUISetupView.cpp **** 			updateValues();
 2863              		.loc 2 215 4 is_stmt 1 view .LVU745
 215:Src/VFO/GUISetupView.cpp **** 			updateValues();
 2864              		.loc 2 215 15 is_stmt 0 view .LVU746
 2865 017a 037D     		ldrb	r3, [r0, #20]	@ zero_extendqisi2
 2866 017c 83F00103 		eor	r3, r3, #1
 215:Src/VFO/GUISetupView.cpp **** 			updateValues();
 2867              		.loc 2 215 13 view .LVU747
 2868 0180 0375     		strb	r3, [r0, #20]
 216:Src/VFO/GUISetupView.cpp **** 		}
 2869              		.loc 2 216 4 is_stmt 1 view .LVU748
 216:Src/VFO/GUISetupView.cpp **** 		}
 2870              		.loc 2 216 16 is_stmt 0 view .LVU749
 2871 0182 FFF7FEFF 		bl	_ZN3VFO12GUISetupView12updateValuesEv
 2872              	.LVL211:
 216:Src/VFO/GUISetupView.cpp **** 		}
 2873              		.loc 2 216 16 view .LVU750
ARM GAS  /var/folders/20/cstyxln53wn53rr40gj353bh0000gn/T//ccP2nhox.s 			page 70


 2874 0186 43E7     		b	.L161
 2875              	.LVL212:
 2876              	.L169:
 216:Src/VFO/GUISetupView.cpp **** 		}
 2877              		.loc 2 216 16 view .LVU751
 2878              	.LBE240:
 2879              	.LBB241:
 2880              	.LBB225:
 265:Src/VFO/GUISetupView.cpp **** 	}
 2881              		.loc 2 265 10 view .LVU752
 2882 0188 9847     		blx	r3
 2883              	.LVL213:
 2884 018a 93E7     		b	.L168
 2885              	.LVL214:
 2886              	.L165:
 265:Src/VFO/GUISetupView.cpp **** 	}
 2887              		.loc 2 265 10 view .LVU753
 2888              	.LBE225:
 2889              	.LBE241:
 195:Src/VFO/GUISetupView.cpp **** 			_mainController->showMain();
 2890              		.loc 2 195 4 is_stmt 1 view .LVU754
 195:Src/VFO/GUISetupView.cpp **** 			_mainController->showMain();
 2891              		.loc 2 195 39 is_stmt 0 view .LVU755
 2892 018c 0E4C     		ldr	r4, .L182+24
 2893 018e 2068     		ldr	r0, [r4]
 2894              	.LVL215:
 195:Src/VFO/GUISetupView.cpp **** 			_mainController->showMain();
 2895              		.loc 2 195 39 view .LVU756
 2896 0190 FFF7FEFF 		bl	_ZN3VFO13VFOController18triggerMemoryWriteEv
 2897              	.LVL216:
 196:Src/VFO/GUISetupView.cpp **** 			return;
 2898              		.loc 2 196 4 is_stmt 1 view .LVU757
 196:Src/VFO/GUISetupView.cpp **** 			return;
 2899              		.loc 2 196 29 is_stmt 0 view .LVU758
 2900 0194 2068     		ldr	r0, [r4]
 2901 0196 FFF7FEFF 		bl	_ZN3VFO13VFOController8showMainEv
 2902              	.LVL217:
 197:Src/VFO/GUISetupView.cpp **** 		}
 2903              		.loc 2 197 4 is_stmt 1 view .LVU759
 2904 019a 39E7     		b	.L161
 2905              	.LVL218:
 2906              	.L176:
 2907              	.LBB242:
 2908              	.LBB238:
 2909              	.LBB237:
 2910              	.LBB230:
  96:Src/VFO/GUISetupView.cpp **** {
 2911              		.loc 2 96 65 is_stmt 0 view .LVU760
 2912 019c 2846     		mov	r0, r5
 2913 019e FFF7FEFF 		bl	_ZN3VFO7GUIViewD2Ev
 2914              	.LVL219:
 2915              	.L173:
  96:Src/VFO/GUISetupView.cpp **** {
 2916              		.loc 2 96 65 view .LVU761
 2917              	.LBE230:
 2918              	.LBE237:
 204:Src/VFO/GUISetupView.cpp **** 			setSelectedChild( submenu );
ARM GAS  /var/folders/20/cstyxln53wn53rr40gj353bh0000gn/T//ccP2nhox.s 			page 71


 2919              		.loc 2 204 93 discriminator 1 view .LVU762
 2920 01a2 2846     		mov	r0, r5
 2921 01a4 2821     		movs	r1, #40
 2922 01a6 FFF7FEFF 		bl	_ZdlPvj
 2923              	.LVL220:
 2924 01aa FFF7FEFF 		bl	__cxa_end_cleanup
 2925              	.LVL221:
 2926              	.LEHE18:
 2927              	.L175:
 204:Src/VFO/GUISetupView.cpp **** 			setSelectedChild( submenu );
 2928              		.loc 2 204 93 discriminator 1 view .LVU763
 2929 01ae F8E7     		b	.L173
 2930              	.L183:
 2931              		.align	2
 2932              	.L182:
 2933 01b0 00000000 		.word	_ZN3VFO12GUISetupView4drawEv
 2934 01b4 00000000 		.word	.LANCHOR1
 2935 01b8 00000000 		.word	.LC8
 2936 01bc 00000000 		.word	_ZN3VFO15backgroundColorEPvhh
 2937 01c0 00000000 		.word	_ZN3VFO12GUISetupViewD0Ev
 2938 01c4 08000000 		.word	.LANCHOR0+8
 2939 01c8 00000000 		.word	_mainController
 2940              	.LBE238:
 2941              	.LBE242:
 2942              	.LBE245:
 2943              		.cfi_endproc
 2944              	.LFE130:
 2945              		.personality	__gxx_personality_v0
 2946              		.handlerdata
 2947              	.LLSDA130:
 2948 0008 FF       		.byte	0xff
 2949 0009 FF       		.byte	0xff
 2950 000a 01       		.byte	0x1
 2951 000b 17       		.uleb128 .LLSDACSE130-.LLSDACSB130
 2952              	.LLSDACSB130:
 2953 000c 0E       		.uleb128 .LEHB15-.LFB130
 2954 000d D801     		.uleb128 .LEHE15-.LEHB15
 2955 000f 00       		.uleb128 0
 2956 0010 00       		.uleb128 0
 2957 0011 F601     		.uleb128 .LEHB16-.LFB130
 2958 0013 04       		.uleb128 .LEHE16-.LEHB16
 2959 0014 AE03     		.uleb128 .L175-.LFB130
 2960 0016 00       		.uleb128 0
 2961 0017 8C02     		.uleb128 .LEHB17-.LFB130
 2962 0019 04       		.uleb128 .LEHE17-.LEHB17
 2963 001a 9C03     		.uleb128 .L176-.LFB130
 2964 001c 00       		.uleb128 0
 2965 001d 9402     		.uleb128 .LEHB18-.LFB130
 2966 001f 9A01     		.uleb128 .LEHE18-.LEHB18
 2967 0021 00       		.uleb128 0
 2968 0022 00       		.uleb128 0
 2969              	.LLSDACSE130:
 2970              		.section	.text._ZN3VFO12GUISetupView14menuKeyPressedEv
 2971              		.fnend
 2973              		.section	.text._ZN3VFO12GUISetupView15drawWindowTitleEv,"ax",%progbits
 2974              		.align	1
 2975              		.p2align 2,,3
ARM GAS  /var/folders/20/cstyxln53wn53rr40gj353bh0000gn/T//ccP2nhox.s 			page 72


 2976              		.global	_ZN3VFO12GUISetupView15drawWindowTitleEv
 2977              		.syntax unified
 2978              		.thumb
 2979              		.thumb_func
 2980              		.fpu softvfp
 2982              	_ZN3VFO12GUISetupView15drawWindowTitleEv:
 2983              		.fnstart
 2984              	.LVL222:
 2985              	.LFB136:
 293:Src/VFO/GUISetupView.cpp **** 	char str1[20];
 2986              		.loc 2 293 1 is_stmt 1 view -0
 2987              		.cfi_startproc
 2988              		@ args = 0, pretend = 0, frame = 24
 2989              		@ frame_needed = 0, uses_anonymous_args = 0
 294:Src/VFO/GUISetupView.cpp **** 	VFO::utf8to1251Dest(_currentItem->name, str1, sizeof(str1));
 2990              		.loc 2 294 2 view .LVU765
 295:Src/VFO/GUISetupView.cpp **** 	uint8_t xpos = (160 - strlen(str1) * 8) / 2;
 2991              		.loc 2 295 2 view .LVU766
 293:Src/VFO/GUISetupView.cpp **** 	char str1[20];
 2992              		.loc 2 293 1 is_stmt 0 view .LVU767
 2993 0000 10B5     		push	{r4, lr}
 2994              		.save {r4, lr}
 2995              	.LCFI38:
 2996              		.cfi_def_cfa_offset 8
 2997              		.cfi_offset 4, -8
 2998              		.cfi_offset 14, -4
 295:Src/VFO/GUISetupView.cpp **** 	uint8_t xpos = (160 - strlen(str1) * 8) / 2;
 2999              		.loc 2 295 36 view .LVU768
 3000 0002 8369     		ldr	r3, [r0, #24]
 293:Src/VFO/GUISetupView.cpp **** 	char str1[20];
 3001              		.loc 2 293 1 view .LVU769
 3002              		.pad #32
 3003 0004 88B0     		sub	sp, sp, #32
 3004              	.LCFI39:
 3005              		.cfi_def_cfa_offset 40
 295:Src/VFO/GUISetupView.cpp **** 	uint8_t xpos = (160 - strlen(str1) * 8) / 2;
 3006              		.loc 2 295 21 view .LVU770
 3007 0006 03A9     		add	r1, sp, #12
 293:Src/VFO/GUISetupView.cpp **** 	char str1[20];
 3008              		.loc 2 293 1 view .LVU771
 3009 0008 0446     		mov	r4, r0
 295:Src/VFO/GUISetupView.cpp **** 	uint8_t xpos = (160 - strlen(str1) * 8) / 2;
 3010              		.loc 2 295 21 view .LVU772
 3011 000a 1422     		movs	r2, #20
 3012 000c 1868     		ldr	r0, [r3]
 3013              	.LVL223:
 295:Src/VFO/GUISetupView.cpp **** 	uint8_t xpos = (160 - strlen(str1) * 8) / 2;
 3014              		.loc 2 295 21 view .LVU773
 3015 000e FFF7FEFF 		bl	_ZN3VFO14utf8to1251DestEPKcPcj
 3016              	.LVL224:
 296:Src/VFO/GUISetupView.cpp **** 	ST7735_PutStr7x11Ex(xpos, 8, str1, COLOR565_YELLOW, _header, VFO::backgroundColor);
 3017              		.loc 2 296 2 is_stmt 1 view .LVU774
 296:Src/VFO/GUISetupView.cpp **** 	ST7735_PutStr7x11Ex(xpos, 8, str1, COLOR565_YELLOW, _header, VFO::backgroundColor);
 3018              		.loc 2 296 30 is_stmt 0 view .LVU775
 3019 0012 03A8     		add	r0, sp, #12
 3020 0014 FFF7FEFF 		bl	strlen
 3021              	.LVL225:
ARM GAS  /var/folders/20/cstyxln53wn53rr40gj353bh0000gn/T//ccP2nhox.s 			page 73


 297:Src/VFO/GUISetupView.cpp **** }
 3022              		.loc 2 297 2 is_stmt 1 view .LVU776
 296:Src/VFO/GUISetupView.cpp **** 	ST7735_PutStr7x11Ex(xpos, 8, str1, COLOR565_YELLOW, _header, VFO::backgroundColor);
 3023              		.loc 2 296 42 is_stmt 0 view .LVU777
 3024 0018 C0EB4070 		rsb	r0, r0, r0, lsl #29
 3025              	.LVL226:
 296:Src/VFO/GUISetupView.cpp **** 	ST7735_PutStr7x11Ex(xpos, 8, str1, COLOR565_YELLOW, _header, VFO::backgroundColor);
 3026              		.loc 2 296 42 view .LVU778
 3027 001c C000     		lsls	r0, r0, #3
 297:Src/VFO/GUISetupView.cpp **** }
 3028              		.loc 2 297 21 view .LVU779
 3029 001e A268     		ldr	r2, [r4, #8]
 3030 0020 074B     		ldr	r3, .L186
 296:Src/VFO/GUISetupView.cpp **** 	ST7735_PutStr7x11Ex(xpos, 8, str1, COLOR565_YELLOW, _header, VFO::backgroundColor);
 3031              		.loc 2 296 42 view .LVU780
 3032 0022 A030     		adds	r0, r0, #160
 3033 0024 4008     		lsrs	r0, r0, #1
 297:Src/VFO/GUISetupView.cpp **** }
 3034              		.loc 2 297 21 view .LVU781
 3035 0026 0092     		str	r2, [sp]
 3036 0028 0193     		str	r3, [sp, #4]
 3037 002a 00F0FC00 		and	r0, r0, #252
 3038 002e 03AA     		add	r2, sp, #12
 3039 0030 4FF6E073 		movw	r3, #65504
 3040 0034 0821     		movs	r1, #8
 3041 0036 FFF7FEFF 		bl	ST7735_PutStr7x11Ex
 3042              	.LVL227:
 298:Src/VFO/GUISetupView.cpp **** 
 3043              		.loc 2 298 1 view .LVU782
 3044 003a 08B0     		add	sp, sp, #32
 3045              	.LCFI40:
 3046              		.cfi_def_cfa_offset 8
 3047              		@ sp needed
 3048 003c 10BD     		pop	{r4, pc}
 3049              	.LVL228:
 3050              	.L187:
 298:Src/VFO/GUISetupView.cpp **** 
 3051              		.loc 2 298 1 view .LVU783
 3052 003e 00BF     		.align	2
 3053              	.L186:
 3054 0040 00000000 		.word	_ZN3VFO15backgroundColorEPvhh
 3055              		.cfi_endproc
 3056              	.LFE136:
 3057              		.fnend
 3059              		.section	.text._ZN3VFO12GUISetupView13drawItemTitleEhb,"ax",%progbits
 3060              		.align	1
 3061              		.p2align 2,,3
 3062              		.global	_ZN3VFO12GUISetupView13drawItemTitleEhb
 3063              		.syntax unified
 3064              		.thumb
 3065              		.thumb_func
 3066              		.fpu softvfp
 3068              	_ZN3VFO12GUISetupView13drawItemTitleEhb:
 3069              		.fnstart
 3070              	.LVL229:
 3071              	.LFB137:
 301:Src/VFO/GUISetupView.cpp **** 	char str1[20];
ARM GAS  /var/folders/20/cstyxln53wn53rr40gj353bh0000gn/T//ccP2nhox.s 			page 74


 3072              		.loc 2 301 1 is_stmt 1 view -0
 3073              		.cfi_startproc
 3074              		@ args = 0, pretend = 0, frame = 24
 3075              		@ frame_needed = 0, uses_anonymous_args = 0
 302:Src/VFO/GUISetupView.cpp **** 	if (selected)
 3076              		.loc 2 302 2 view .LVU785
 303:Src/VFO/GUISetupView.cpp **** 	{
 3077              		.loc 2 303 2 view .LVU786
 301:Src/VFO/GUISetupView.cpp **** 	char str1[20];
 3078              		.loc 2 301 1 is_stmt 0 view .LVU787
 3079 0000 70B5     		push	{r4, r5, r6, lr}
 3080              		.save {r4, r5, r6, lr}
 3081              	.LCFI41:
 3082              		.cfi_def_cfa_offset 16
 3083              		.cfi_offset 4, -16
 3084              		.cfi_offset 5, -12
 3085              		.cfi_offset 6, -8
 3086              		.cfi_offset 14, -4
 3087 0002 C1EB0113 		rsb	r3, r1, r1, lsl #4
 3088 0006 DBB2     		uxtb	r3, r3
 3089 0008 03F12404 		add	r4, r3, #36
 3090 000c 01EB4101 		add	r1, r1, r1, lsl #1
 3091              	.LVL230:
 301:Src/VFO/GUISetupView.cpp **** 	char str1[20];
 3092              		.loc 2 301 1 view .LVU788
 3093 0010 2833     		adds	r3, r3, #40
 3094 0012 CD00     		lsls	r5, r1, #3
 3095              		.pad #40
 3096 0014 8AB0     		sub	sp, sp, #40
 3097              	.LCFI42:
 3098              		.cfi_def_cfa_offset 56
 3099 0016 E1B2     		uxtb	r1, r4
 301:Src/VFO/GUISetupView.cpp **** 	char str1[20];
 3100              		.loc 2 301 1 view .LVU789
 3101 0018 0646     		mov	r6, r0
 3102 001a DCB2     		uxtb	r4, r3
 305:Src/VFO/GUISetupView.cpp **** 	}
 3103              		.loc 2 305 19 view .LVU790
 3104 001c 0F23     		movs	r3, #15
 303:Src/VFO/GUISetupView.cpp **** 	{
 3105              		.loc 2 303 2 view .LVU791
 3106 001e EAB1     		cbz	r2, .L189
 305:Src/VFO/GUISetupView.cpp **** 	}
 3107              		.loc 2 305 3 is_stmt 1 view .LVU792
 305:Src/VFO/GUISetupView.cpp **** 	}
 3108              		.loc 2 305 19 is_stmt 0 view .LVU793
 3109 0020 0093     		str	r3, [sp]
 3110 0022 0A46     		mov	r2, r1
 3111              	.LVL231:
 305:Src/VFO/GUISetupView.cpp **** 	}
 3112              		.loc 2 305 19 view .LVU794
 3113 0024 9C23     		movs	r3, #156
 3114 0026 0221     		movs	r1, #2
 3115 0028 0069     		ldr	r0, [r0, #16]
 3116              	.LVL232:
 305:Src/VFO/GUISetupView.cpp **** 	}
 3117              		.loc 2 305 19 view .LVU795
ARM GAS  /var/folders/20/cstyxln53wn53rr40gj353bh0000gn/T//ccP2nhox.s 			page 75


 3118 002a FFF7FEFF 		bl	_ZN3VFO11GradientBox4drawEhhhh
 3119              	.LVL233:
 311:Src/VFO/GUISetupView.cpp **** 	ST7735_PutStr5x7Ex(1, 6, 40 + itemIndex * 15, VFO::utf8to1251Dest(item->name, str1, sizeof(str1)),
 3120              		.loc 2 311 2 is_stmt 1 view .LVU796
 312:Src/VFO/GUISetupView.cpp **** 			selected ? COLOR565_WHITE : COLOR565_YELLOW, selected ? _selection : _window, VFO::backgroundCol
 3121              		.loc 2 312 2 view .LVU797
 312:Src/VFO/GUISetupView.cpp **** 			selected ? COLOR565_WHITE : COLOR565_YELLOW, selected ? _selection : _window, VFO::backgroundCol
 3122              		.loc 2 312 20 is_stmt 0 view .LVU798
 3123 002e 1422     		movs	r2, #20
 311:Src/VFO/GUISetupView.cpp **** 	ST7735_PutStr5x7Ex(1, 6, 40 + itemIndex * 15, VFO::utf8to1251Dest(item->name, str1, sizeof(str1)),
 3124              		.loc 2 311 42 view .LVU799
 3125 0030 B369     		ldr	r3, [r6, #24]
 312:Src/VFO/GUISetupView.cpp **** 			selected ? COLOR565_WHITE : COLOR565_YELLOW, selected ? _selection : _window, VFO::backgroundCol
 3126              		.loc 2 312 20 view .LVU800
 3127 0032 0DEB0201 		add	r1, sp, r2
 312:Src/VFO/GUISetupView.cpp **** 			selected ? COLOR565_WHITE : COLOR565_YELLOW, selected ? _selection : _window, VFO::backgroundCol
 3128              		.loc 2 312 74 view .LVU801
 3129 0036 5B69     		ldr	r3, [r3, #20]
 312:Src/VFO/GUISetupView.cpp **** 			selected ? COLOR565_WHITE : COLOR565_YELLOW, selected ? _selection : _window, VFO::backgroundCol
 3130              		.loc 2 312 20 view .LVU802
 3131 0038 5859     		ldr	r0, [r3, r5]
 3132 003a FFF7FEFF 		bl	_ZN3VFO14utf8to1251DestEPKcPcj
 3133              	.LVL234:
 312:Src/VFO/GUISetupView.cpp **** 			selected ? COLOR565_WHITE : COLOR565_YELLOW, selected ? _selection : _window, VFO::backgroundCol
 3134              		.loc 2 312 20 view .LVU803
 3135 003e 4FF6FF72 		movw	r2, #65535
 3136 0042 0346     		mov	r3, r0
 312:Src/VFO/GUISetupView.cpp **** 			selected ? COLOR565_WHITE : COLOR565_YELLOW, selected ? _selection : _window, VFO::backgroundCol
 3137              		.loc 2 312 20 view .LVU804
 3138 0044 3069     		ldr	r0, [r6, #16]
 3139              	.L190:
 312:Src/VFO/GUISetupView.cpp **** 			selected ? COLOR565_WHITE : COLOR565_YELLOW, selected ? _selection : _window, VFO::backgroundCol
 3140              		.loc 2 312 20 discriminator 9 view .LVU805
 3141 0046 0F49     		ldr	r1, .L192
 3142 0048 CDE90020 		strd	r2, r0, [sp]
 3143 004c 0291     		str	r1, [sp, #8]
 3144 004e 2246     		mov	r2, r4
 3145 0050 0621     		movs	r1, #6
 3146 0052 0120     		movs	r0, #1
 3147 0054 FFF7FEFF 		bl	ST7735_PutStr5x7Ex
 3148              	.LVL235:
 315:Src/VFO/GUISetupView.cpp **** 
 3149              		.loc 2 315 1 discriminator 9 view .LVU806
 3150 0058 0AB0     		add	sp, sp, #40
 3151              	.LCFI43:
 3152              		.cfi_remember_state
 3153              		.cfi_def_cfa_offset 16
 3154              		@ sp needed
 3155 005a 70BD     		pop	{r4, r5, r6, pc}
 3156              	.LVL236:
 3157              	.L189:
 3158              	.LCFI44:
 3159              		.cfi_restore_state
 309:Src/VFO/GUISetupView.cpp **** 	}
 3160              		.loc 2 309 3 is_stmt 1 view .LVU807
 309:Src/VFO/GUISetupView.cpp **** 	}
 3161              		.loc 2 309 17 is_stmt 0 view .LVU808
ARM GAS  /var/folders/20/cstyxln53wn53rr40gj353bh0000gn/T//ccP2nhox.s 			page 76


 3162 005c 0093     		str	r3, [sp]
 3163 005e 0A46     		mov	r2, r1
 3164              	.LVL237:
 309:Src/VFO/GUISetupView.cpp **** 	}
 3165              		.loc 2 309 17 view .LVU809
 3166 0060 9C23     		movs	r3, #156
 3167 0062 0221     		movs	r1, #2
 3168 0064 4068     		ldr	r0, [r0, #4]
 3169              	.LVL238:
 309:Src/VFO/GUISetupView.cpp **** 	}
 3170              		.loc 2 309 17 view .LVU810
 3171 0066 FFF7FEFF 		bl	_ZN3VFO11GradientBox5clearEhhhh
 3172              	.LVL239:
 311:Src/VFO/GUISetupView.cpp **** 	ST7735_PutStr5x7Ex(1, 6, 40 + itemIndex * 15, VFO::utf8to1251Dest(item->name, str1, sizeof(str1)),
 3173              		.loc 2 311 2 is_stmt 1 view .LVU811
 312:Src/VFO/GUISetupView.cpp **** 			selected ? COLOR565_WHITE : COLOR565_YELLOW, selected ? _selection : _window, VFO::backgroundCol
 3174              		.loc 2 312 2 view .LVU812
 312:Src/VFO/GUISetupView.cpp **** 			selected ? COLOR565_WHITE : COLOR565_YELLOW, selected ? _selection : _window, VFO::backgroundCol
 3175              		.loc 2 312 20 is_stmt 0 view .LVU813
 3176 006a 1422     		movs	r2, #20
 311:Src/VFO/GUISetupView.cpp **** 	ST7735_PutStr5x7Ex(1, 6, 40 + itemIndex * 15, VFO::utf8to1251Dest(item->name, str1, sizeof(str1)),
 3177              		.loc 2 311 42 view .LVU814
 3178 006c B369     		ldr	r3, [r6, #24]
 312:Src/VFO/GUISetupView.cpp **** 			selected ? COLOR565_WHITE : COLOR565_YELLOW, selected ? _selection : _window, VFO::backgroundCol
 3179              		.loc 2 312 20 view .LVU815
 3180 006e 0DEB0201 		add	r1, sp, r2
 312:Src/VFO/GUISetupView.cpp **** 			selected ? COLOR565_WHITE : COLOR565_YELLOW, selected ? _selection : _window, VFO::backgroundCol
 3181              		.loc 2 312 74 view .LVU816
 3182 0072 5B69     		ldr	r3, [r3, #20]
 312:Src/VFO/GUISetupView.cpp **** 			selected ? COLOR565_WHITE : COLOR565_YELLOW, selected ? _selection : _window, VFO::backgroundCol
 3183              		.loc 2 312 20 view .LVU817
 3184 0074 5859     		ldr	r0, [r3, r5]
 3185 0076 FFF7FEFF 		bl	_ZN3VFO14utf8to1251DestEPKcPcj
 3186              	.LVL240:
 312:Src/VFO/GUISetupView.cpp **** 			selected ? COLOR565_WHITE : COLOR565_YELLOW, selected ? _selection : _window, VFO::backgroundCol
 3187              		.loc 2 312 20 view .LVU818
 3188 007a 4FF6E072 		movw	r2, #65504
 3189 007e 0346     		mov	r3, r0
 312:Src/VFO/GUISetupView.cpp **** 			selected ? COLOR565_WHITE : COLOR565_YELLOW, selected ? _selection : _window, VFO::backgroundCol
 3190              		.loc 2 312 20 view .LVU819
 3191 0080 7068     		ldr	r0, [r6, #4]
 3192 0082 E0E7     		b	.L190
 3193              	.L193:
 3194              		.align	2
 3195              	.L192:
 3196 0084 00000000 		.word	_ZN3VFO15backgroundColorEPvhh
 3197              		.cfi_endproc
 3198              	.LFE137:
 3199              		.fnend
 3201              		.section	.text._ZN3VFO12GUISetupView9drawValueEhbb,"ax",%progbits
 3202              		.align	1
 3203              		.p2align 2,,3
 3204              		.global	_ZN3VFO12GUISetupView9drawValueEhbb
 3205              		.syntax unified
 3206              		.thumb
 3207              		.thumb_func
 3208              		.fpu softvfp
ARM GAS  /var/folders/20/cstyxln53wn53rr40gj353bh0000gn/T//ccP2nhox.s 			page 77


 3210              	_ZN3VFO12GUISetupView9drawValueEhbb:
 3211              		.fnstart
 3212              	.LVL241:
 3213              	.LFB138:
 318:Src/VFO/GUISetupView.cpp **** 	char str[10];
 3214              		.loc 2 318 1 is_stmt 1 view -0
 3215              		.cfi_startproc
 3216              		@ args = 0, pretend = 0, frame = 16
 3217              		@ frame_needed = 0, uses_anonymous_args = 0
 319:Src/VFO/GUISetupView.cpp **** 	uint16_t color = COLOR565_YELLOW;
 3218              		.loc 2 319 2 view .LVU821
 320:Src/VFO/GUISetupView.cpp **** 	if ( selected )
 3219              		.loc 2 320 2 view .LVU822
 321:Src/VFO/GUISetupView.cpp **** 	{
 3220              		.loc 2 321 2 view .LVU823
 318:Src/VFO/GUISetupView.cpp **** 	char str[10];
 3221              		.loc 2 318 1 is_stmt 0 view .LVU824
 3222 0000 F0B5     		push	{r4, r5, r6, r7, lr}
 3223              		.save {r4, r5, r6, r7, lr}
 3224              	.LCFI45:
 3225              		.cfi_def_cfa_offset 20
 3226              		.cfi_offset 4, -20
 3227              		.cfi_offset 5, -16
 3228              		.cfi_offset 6, -12
 3229              		.cfi_offset 7, -8
 3230              		.cfi_offset 14, -4
 3231 0002 0C46     		mov	r4, r1
 3232 0004 8169     		ldr	r1, [r0, #24]
 3233              	.LVL242:
 318:Src/VFO/GUISetupView.cpp **** 	char str[10];
 3234              		.loc 2 318 1 view .LVU825
 3235 0006 0546     		mov	r5, r0
 3236 0008 4969     		ldr	r1, [r1, #20]
 3237 000a 04EB4400 		add	r0, r4, r4, lsl #1
 3238              	.LVL243:
 318:Src/VFO/GUISetupView.cpp **** 	char str[10];
 3239              		.loc 2 318 1 view .LVU826
 3240 000e 01EBC001 		add	r1, r1, r0, lsl #3
 3241              		.pad #36
 3242 0012 89B0     		sub	sp, sp, #36
 3243              	.LCFI46:
 3244              		.cfi_def_cfa_offset 56
 3245 0014 4868     		ldr	r0, [r1, #4]
 321:Src/VFO/GUISetupView.cpp **** 	{
 3246              		.loc 2 321 2 view .LVU827
 3247 0016 1646     		mov	r6, r2
 3248 0018 A2B1     		cbz	r2, .L195
 323:Src/VFO/GUISetupView.cpp **** 	}
 3249              		.loc 2 323 3 is_stmt 1 view .LVU828
 323:Src/VFO/GUISetupView.cpp **** 	}
 3250              		.loc 2 323 9 is_stmt 0 view .LVU829
 3251 001a 4FF6FF77 		movw	r7, #65535
 3252 001e 002B     		cmp	r3, #0
 3253 0020 14BF     		ite	ne
 3254 0022 4FF47846 		movne	r6, #63488
 3255 0026 3E46     		moveq	r6, r7
 3256              	.LVL244:
ARM GAS  /var/folders/20/cstyxln53wn53rr40gj353bh0000gn/T//ccP2nhox.s 			page 78


 325:Src/VFO/GUISetupView.cpp **** 	if ( item->getter )
 3257              		.loc 2 325 2 is_stmt 1 view .LVU830
 326:Src/VFO/GUISetupView.cpp **** 	{
 3258              		.loc 2 326 2 view .LVU831
 3259              	.LBB246:
 3260 0028 30B3     		cbz	r0, .L212
 3261              	.LBB247:
 328:Src/VFO/GUISetupView.cpp **** 		ST7735_PutStr5x7Ex(1, 100, 40 + itemIndex * 15, (char *) valToStr(value, str, sizeof(str), 0),
 3262              		.loc 2 328 3 view .LVU832
 328:Src/VFO/GUISetupView.cpp **** 		ST7735_PutStr5x7Ex(1, 100, 40 + itemIndex * 15, (char *) valToStr(value, str, sizeof(str), 0),
 3263              		.loc 2 328 32 is_stmt 0 view .LVU833
 3264 002a 8047     		blx	r0
 3265              	.LVL245:
 329:Src/VFO/GUISetupView.cpp **** 			color,
 3266              		.loc 2 329 3 is_stmt 1 view .LVU834
 329:Src/VFO/GUISetupView.cpp **** 			color,
 3267              		.loc 2 329 21 is_stmt 0 view .LVU835
 3268 002c 0023     		movs	r3, #0
 3269 002e 0A22     		movs	r2, #10
 3270 0030 05A9     		add	r1, sp, #20
 3271 0032 FFF7FEFF 		bl	_ZN3VFO8valToStrElPcjc
 3272              	.LVL246:
 329:Src/VFO/GUISetupView.cpp **** 			color,
 3273              		.loc 2 329 21 view .LVU836
 3274 0036 C4EB0414 		rsb	r4, r4, r4, lsl #4
 3275 003a 2834     		adds	r4, r4, #40
 3276 003c E4B2     		uxtb	r4, r4
 3277 003e 0346     		mov	r3, r0
 329:Src/VFO/GUISetupView.cpp **** 			color,
 3278              		.loc 2 329 21 view .LVU837
 3279 0040 2A69     		ldr	r2, [r5, #16]
 3280 0042 0EE0     		b	.L198
 3281              	.LVL247:
 3282              	.L195:
 329:Src/VFO/GUISetupView.cpp **** 			color,
 3283              		.loc 2 329 21 view .LVU838
 3284              	.LBE247:
 3285              	.LBE246:
 325:Src/VFO/GUISetupView.cpp **** 	if ( item->getter )
 3286              		.loc 2 325 2 is_stmt 1 view .LVU839
 326:Src/VFO/GUISetupView.cpp **** 	{
 3287              		.loc 2 326 2 view .LVU840
 3288              	.LBB250:
 3289 0044 08B3     		cbz	r0, .L213
 3290              	.LBB248:
 328:Src/VFO/GUISetupView.cpp **** 		ST7735_PutStr5x7Ex(1, 100, 40 + itemIndex * 15, (char *) valToStr(value, str, sizeof(str), 0),
 3291              		.loc 2 328 3 view .LVU841
 328:Src/VFO/GUISetupView.cpp **** 		ST7735_PutStr5x7Ex(1, 100, 40 + itemIndex * 15, (char *) valToStr(value, str, sizeof(str), 0),
 3292              		.loc 2 328 32 is_stmt 0 view .LVU842
 3293 0046 8047     		blx	r0
 3294              	.LVL248:
 329:Src/VFO/GUISetupView.cpp **** 			color,
 3295              		.loc 2 329 3 is_stmt 1 view .LVU843
 329:Src/VFO/GUISetupView.cpp **** 			color,
 3296              		.loc 2 329 21 is_stmt 0 view .LVU844
 3297 0048 3346     		mov	r3, r6
 3298 004a 0A22     		movs	r2, #10
ARM GAS  /var/folders/20/cstyxln53wn53rr40gj353bh0000gn/T//ccP2nhox.s 			page 79


 3299 004c 05A9     		add	r1, sp, #20
 3300 004e FFF7FEFF 		bl	_ZN3VFO8valToStrElPcjc
 3301              	.LVL249:
 329:Src/VFO/GUISetupView.cpp **** 			color,
 3302              		.loc 2 329 21 view .LVU845
 3303              	.LBE248:
 3304              	.LBE250:
 320:Src/VFO/GUISetupView.cpp **** 	if ( selected )
 3305              		.loc 2 320 11 view .LVU846
 3306 0052 4FF6E076 		movw	r6, #65504
 3307              	.LBB251:
 3308              	.LBB249:
 329:Src/VFO/GUISetupView.cpp **** 			color,
 3309              		.loc 2 329 21 view .LVU847
 3310 0056 0346     		mov	r3, r0
 329:Src/VFO/GUISetupView.cpp **** 			color,
 3311              		.loc 2 329 21 view .LVU848
 3312 0058 C4EB0414 		rsb	r4, r4, r4, lsl #4
 3313 005c 2834     		adds	r4, r4, #40
 3314 005e 6A68     		ldr	r2, [r5, #4]
 3315 0060 E4B2     		uxtb	r4, r4
 3316              	.LVL250:
 3317              	.L198:
 329:Src/VFO/GUISetupView.cpp **** 			color,
 3318              		.loc 2 329 21 discriminator 5 view .LVU849
 3319 0062 1449     		ldr	r1, .L214
 3320 0064 CDE90062 		strd	r6, r2, [sp]
 3321 0068 0291     		str	r1, [sp, #8]
 3322 006a 2246     		mov	r2, r4
 3323 006c 6421     		movs	r1, #100
 3324 006e 0120     		movs	r0, #1
 3325 0070 FFF7FEFF 		bl	ST7735_PutStr5x7Ex
 3326              	.LVL251:
 3327              	.L194:
 3328              	.LBE249:
 3329              	.LBE251:
 345:Src/VFO/GUISetupView.cpp **** 
 3330              		.loc 2 345 1 view .LVU850
 3331 0074 09B0     		add	sp, sp, #36
 3332              	.LCFI47:
 3333              		.cfi_remember_state
 3334              		.cfi_def_cfa_offset 20
 3335              		@ sp needed
 3336 0076 F0BD     		pop	{r4, r5, r6, r7, pc}
 3337              	.LVL252:
 3338              	.L212:
 3339              	.LCFI48:
 3340              		.cfi_restore_state
 3341              	.LBB252:
 334:Src/VFO/GUISetupView.cpp **** 	{
 3342              		.loc 2 334 7 is_stmt 1 view .LVU851
 3343 0078 CB68     		ldr	r3, [r1, #12]
 3344              	.LVL253:
 334:Src/VFO/GUISetupView.cpp **** 	{
 3345              		.loc 2 334 7 is_stmt 0 view .LVU852
 3346 007a 002B     		cmp	r3, #0
 3347 007c FAD1     		bne	.L194
ARM GAS  /var/folders/20/cstyxln53wn53rr40gj353bh0000gn/T//ccP2nhox.s 			page 80


 340:Src/VFO/GUISetupView.cpp **** 			selected ? COLOR565_WHITE : COLOR565_YELLOW,
 3348              		.loc 2 340 3 is_stmt 1 view .LVU853
 340:Src/VFO/GUISetupView.cpp **** 			selected ? COLOR565_WHITE : COLOR565_YELLOW,
 3349              		.loc 2 340 21 is_stmt 0 view .LVU854
 3350 007e C4EB0412 		rsb	r2, r4, r4, lsl #4
 3351              	.LVL254:
 340:Src/VFO/GUISetupView.cpp **** 			selected ? COLOR565_WHITE : COLOR565_YELLOW,
 3352              		.loc 2 340 21 view .LVU855
 3353 0082 2832     		adds	r2, r2, #40
 3354 0084 D2B2     		uxtb	r2, r2
 3355 0086 2B69     		ldr	r3, [r5, #16]
 3356 0088 09E0     		b	.L203
 3357              	.LVL255:
 3358              	.L213:
 334:Src/VFO/GUISetupView.cpp **** 	{
 3359              		.loc 2 334 7 is_stmt 1 view .LVU856
 3360 008a CB68     		ldr	r3, [r1, #12]
 3361              	.LVL256:
 334:Src/VFO/GUISetupView.cpp **** 	{
 3362              		.loc 2 334 7 is_stmt 0 view .LVU857
 3363 008c 002B     		cmp	r3, #0
 3364 008e F1D1     		bne	.L194
 340:Src/VFO/GUISetupView.cpp **** 			selected ? COLOR565_WHITE : COLOR565_YELLOW,
 3365              		.loc 2 340 3 is_stmt 1 view .LVU858
 340:Src/VFO/GUISetupView.cpp **** 			selected ? COLOR565_WHITE : COLOR565_YELLOW,
 3366              		.loc 2 340 21 is_stmt 0 view .LVU859
 3367 0090 4FF6E077 		movw	r7, #65504
 3368 0094 C4EB0412 		rsb	r2, r4, r4, lsl #4
 3369              	.LVL257:
 340:Src/VFO/GUISetupView.cpp **** 			selected ? COLOR565_WHITE : COLOR565_YELLOW,
 3370              		.loc 2 340 21 view .LVU860
 3371 0098 2832     		adds	r2, r2, #40
 3372 009a 6B68     		ldr	r3, [r5, #4]
 3373 009c D2B2     		uxtb	r2, r2
 3374              	.LVL258:
 3375              	.L203:
 340:Src/VFO/GUISetupView.cpp **** 			selected ? COLOR565_WHITE : COLOR565_YELLOW,
 3376              		.loc 2 340 21 discriminator 8 view .LVU861
 3377 009e 0549     		ldr	r1, .L214
 3378 00a0 CDE90073 		strd	r7, r3, [sp]
 3379 00a4 0291     		str	r1, [sp, #8]
 3380 00a6 044B     		ldr	r3, .L214+4
 3381 00a8 9421     		movs	r1, #148
 3382 00aa 0120     		movs	r0, #1
 3383 00ac FFF7FEFF 		bl	ST7735_PutStr5x7Ex
 3384              	.LVL259:
 3385              	.LBE252:
 345:Src/VFO/GUISetupView.cpp **** 
 3386              		.loc 2 345 1 discriminator 8 view .LVU862
 3387 00b0 E0E7     		b	.L194
 3388              	.L215:
 3389 00b2 00BF     		.align	2
 3390              	.L214:
 3391 00b4 00000000 		.word	_ZN3VFO15backgroundColorEPvhh
 3392 00b8 0C000000 		.word	.LC9
 3393              		.cfi_endproc
 3394              	.LFE138:
ARM GAS  /var/folders/20/cstyxln53wn53rr40gj353bh0000gn/T//ccP2nhox.s 			page 81


 3395              		.fnend
 3397              		.section	.text._ZN3VFO12GUISetupView14drawBackButtonEb,"ax",%progbits
 3398              		.align	1
 3399              		.p2align 2,,3
 3400              		.global	_ZN3VFO12GUISetupView14drawBackButtonEb
 3401              		.syntax unified
 3402              		.thumb
 3403              		.thumb_func
 3404              		.fpu softvfp
 3406              	_ZN3VFO12GUISetupView14drawBackButtonEb:
 3407              		.fnstart
 3408              	.LVL260:
 3409              	.LFB139:
 348:Src/VFO/GUISetupView.cpp **** 	char str1[6];
 3410              		.loc 2 348 1 is_stmt 1 view -0
 3411              		.cfi_startproc
 3412              		@ args = 0, pretend = 0, frame = 8
 3413              		@ frame_needed = 0, uses_anonymous_args = 0
 349:Src/VFO/GUISetupView.cpp **** 	uint16_t color = COLOR565_YELLOW;
 3414              		.loc 2 349 2 view .LVU864
 350:Src/VFO/GUISetupView.cpp **** 	if ( selected )
 3415              		.loc 2 350 2 view .LVU865
 351:Src/VFO/GUISetupView.cpp **** 	{
 3416              		.loc 2 351 2 view .LVU866
 348:Src/VFO/GUISetupView.cpp **** 	char str1[6];
 3417              		.loc 2 348 1 is_stmt 0 view .LVU867
 3418 0000 F0B5     		push	{r4, r5, r6, r7, lr}
 3419              		.save {r4, r5, r6, r7, lr}
 3420              	.LCFI49:
 3421              		.cfi_def_cfa_offset 20
 3422              		.cfi_offset 4, -20
 3423              		.cfi_offset 5, -16
 3424              		.cfi_offset 6, -12
 3425              		.cfi_offset 7, -8
 3426              		.cfi_offset 14, -4
 353:Src/VFO/GUISetupView.cpp **** 		_btnBack->upRight = { 10, 160, 10 };
 3427              		.loc 2 353 21 view .LVU868
 3428 0002 224B     		ldr	r3, .L220
 348:Src/VFO/GUISetupView.cpp **** 	char str1[6];
 3429              		.loc 2 348 1 view .LVU869
 3430 0004 0446     		mov	r4, r0
 3431              		.pad #28
 3432 0006 87B0     		sub	sp, sp, #28
 3433              	.LCFI50:
 3434              		.cfi_def_cfa_offset 48
 3435 0008 C068     		ldr	r0, [r0, #12]
 3436              	.LVL261:
 351:Src/VFO/GUISetupView.cpp **** 	{
 3437              		.loc 2 351 2 view .LVU870
 3438 000a 41B3     		cbz	r1, .L217
 353:Src/VFO/GUISetupView.cpp **** 		_btnBack->upRight = { 10, 160, 10 };
 3439              		.loc 2 353 3 is_stmt 1 view .LVU871
 353:Src/VFO/GUISetupView.cpp **** 		_btnBack->upRight = { 10, 160, 10 };
 3440              		.loc 2 353 21 is_stmt 0 view .LVU872
 3441 000c 1946     		mov	r1, r3
 3442              	.LVL262:
 357:Src/VFO/GUISetupView.cpp **** 	}
ARM GAS  /var/folders/20/cstyxln53wn53rr40gj353bh0000gn/T//ccP2nhox.s 			page 82


 3443              		.loc 2 357 9 view .LVU873
 3444 000e 4FF6FF75 		movw	r5, #65535
 355:Src/VFO/GUISetupView.cpp **** 		_btnBack->downRight   = { 10, 10, 100 };
 3445              		.loc 2 355 25 view .LVU874
 3446 0012 DA69     		ldr	r2, [r3, #28]
 353:Src/VFO/GUISetupView.cpp **** 		_btnBack->upRight = { 10, 160, 10 };
 3447              		.loc 2 353 21 view .LVU875
 3448 0014 31F8186F 		ldrh	r6, [r1, #24]!	@ unaligned
 356:Src/VFO/GUISetupView.cpp **** 		color = COLOR565_WHITE;
 3449              		.loc 2 356 25 view .LVU876
 3450 0018 33F81C7F 		ldrh	r7, [r3, #28]!	@ unaligned
 353:Src/VFO/GUISetupView.cpp **** 		_btnBack->upRight = { 10, 160, 10 };
 3451              		.loc 2 353 21 view .LVU877
 3452 001c 8978     		ldrb	r1, [r1, #2]	@ zero_extendqisi2
 356:Src/VFO/GUISetupView.cpp **** 		color = COLOR565_WHITE;
 3453              		.loc 2 356 25 view .LVU878
 3454 001e 9B78     		ldrb	r3, [r3, #2]	@ zero_extendqisi2
 355:Src/VFO/GUISetupView.cpp **** 		_btnBack->downRight   = { 10, 10, 100 };
 3455              		.loc 2 355 25 view .LVU879
 3456 0020 8281     		strh	r2, [r0, #12]	@ movhi
 3457 0022 120C     		lsrs	r2, r2, #16
 353:Src/VFO/GUISetupView.cpp **** 		_btnBack->upRight = { 10, 160, 10 };
 3458              		.loc 2 353 21 view .LVU880
 3459 0024 0172     		strb	r1, [r0, #8]
 354:Src/VFO/GUISetupView.cpp **** 		_btnBack->downLeft    = { 10, 10, 100 };
 3460              		.loc 2 354 3 is_stmt 1 view .LVU881
 354:Src/VFO/GUISetupView.cpp **** 		_btnBack->downLeft    = { 10, 10, 100 };
 3461              		.loc 2 354 21 is_stmt 0 view .LVU882
 3462 0026 C172     		strb	r1, [r0, #11]
 355:Src/VFO/GUISetupView.cpp **** 		_btnBack->downRight   = { 10, 10, 100 };
 3463              		.loc 2 355 3 is_stmt 1 view .LVU883
 353:Src/VFO/GUISetupView.cpp **** 		_btnBack->upRight = { 10, 160, 10 };
 3464              		.loc 2 353 21 is_stmt 0 view .LVU884
 3465 0028 C680     		strh	r6, [r0, #6]	@ unaligned
 354:Src/VFO/GUISetupView.cpp **** 		_btnBack->downLeft    = { 10, 10, 100 };
 3466              		.loc 2 354 21 view .LVU885
 3467 002a A0F80960 		strh	r6, [r0, #9]	@ unaligned
 355:Src/VFO/GUISetupView.cpp **** 		_btnBack->downRight   = { 10, 10, 100 };
 3468              		.loc 2 355 25 view .LVU886
 3469 002e 8273     		strb	r2, [r0, #14]
 356:Src/VFO/GUISetupView.cpp **** 		color = COLOR565_WHITE;
 3470              		.loc 2 356 3 is_stmt 1 view .LVU887
 356:Src/VFO/GUISetupView.cpp **** 		color = COLOR565_WHITE;
 3471              		.loc 2 356 25 is_stmt 0 view .LVU888
 3472 0030 4374     		strb	r3, [r0, #17]
 357:Src/VFO/GUISetupView.cpp **** 	}
 3473              		.loc 2 357 3 is_stmt 1 view .LVU889
 3474              	.LVL263:
 356:Src/VFO/GUISetupView.cpp **** 		color = COLOR565_WHITE;
 3475              		.loc 2 356 25 is_stmt 0 view .LVU890
 3476 0032 A0F80F70 		strh	r7, [r0, #15]	@ unaligned
 3477              	.LVL264:
 3478              	.L218:
 366:Src/VFO/GUISetupView.cpp **** 	ST7735_PutStr5x7Ex(1, 21, 111, VFO::utf8to1251Dest("Назад", str1, sizeof(str1)),
 3479              		.loc 2 366 2 is_stmt 1 view .LVU891
 366:Src/VFO/GUISetupView.cpp **** 	ST7735_PutStr5x7Ex(1, 21, 111, VFO::utf8to1251Dest("Назад", str1, sizeof(str1)),
 3480              		.loc 2 366 16 is_stmt 0 view .LVU892
ARM GAS  /var/folders/20/cstyxln53wn53rr40gj353bh0000gn/T//ccP2nhox.s 			page 83


 3481 0036 FFF7FEFF 		bl	_ZN3VFO11GradientBox4drawEv
 3482              	.LVL265:
 3483              		.loc 2 367 2 is_stmt 1 view .LVU893
 3484              		.loc 2 367 20 is_stmt 0 view .LVU894
 3485 003a 04A9     		add	r1, sp, #16
 3486 003c 0622     		movs	r2, #6
 3487 003e 1448     		ldr	r0, .L220+4
 3488 0040 FFF7FEFF 		bl	_ZN3VFO14utf8to1251DestEPKcPcj
 3489              	.LVL266:
 3490 0044 E168     		ldr	r1, [r4, #12]
 3491 0046 134A     		ldr	r2, .L220+8
 3492 0048 0346     		mov	r3, r0
 3493 004a CDE90051 		strd	r5, r1, [sp]
 3494 004e 0292     		str	r2, [sp, #8]
 3495 0050 1521     		movs	r1, #21
 3496 0052 6F22     		movs	r2, #111
 3497 0054 0120     		movs	r0, #1
 3498 0056 FFF7FEFF 		bl	ST7735_PutStr5x7Ex
 3499              	.LVL267:
 368:Src/VFO/GUISetupView.cpp **** 			color, _btnBack, VFO::backgroundColor);
 369:Src/VFO/GUISetupView.cpp **** }
 3500              		.loc 2 369 1 view .LVU895
 3501 005a 07B0     		add	sp, sp, #28
 3502              	.LCFI51:
 3503              		.cfi_remember_state
 3504              		.cfi_def_cfa_offset 20
 3505              		@ sp needed
 3506 005c F0BD     		pop	{r4, r5, r6, r7, pc}
 3507              	.LVL268:
 3508              	.L217:
 3509              	.LCFI52:
 3510              		.cfi_restore_state
 361:Src/VFO/GUISetupView.cpp **** 		_btnBack->downRight = { 10, 10, 10 };
 3511              		.loc 2 361 3 is_stmt 1 view .LVU896
 361:Src/VFO/GUISetupView.cpp **** 		_btnBack->downRight = { 10, 10, 10 };
 3512              		.loc 2 361 23 is_stmt 0 view .LVU897
 3513 005e 1A46     		mov	r2, r3
 363:Src/VFO/GUISetupView.cpp **** 		_btnBack->upRight   = { 100, 100, 100};
 3514              		.loc 2 363 23 view .LVU898
 3515 0060 1946     		mov	r1, r3
 3516              	.LVL269:
 362:Src/VFO/GUISetupView.cpp **** 		_btnBack->upLeft    = { 100, 100, 100 };
 3517              		.loc 2 362 23 view .LVU899
 3518 0062 32F8106F 		ldrh	r6, [r2, #16]!	@ unaligned
 361:Src/VFO/GUISetupView.cpp **** 		_btnBack->downRight = { 10, 10, 10 };
 3519              		.loc 2 361 23 view .LVU900
 3520 0066 1B69     		ldr	r3, [r3, #16]
 362:Src/VFO/GUISetupView.cpp **** 		_btnBack->upLeft    = { 100, 100, 100 };
 3521              		.loc 2 362 23 view .LVU901
 3522 0068 9778     		ldrb	r7, [r2, #2]	@ zero_extendqisi2
 363:Src/VFO/GUISetupView.cpp **** 		_btnBack->upRight   = { 100, 100, 100};
 3523              		.loc 2 363 23 view .LVU902
 3524 006a 31F8142F 		ldrh	r2, [r1, #20]!	@ unaligned
 361:Src/VFO/GUISetupView.cpp **** 		_btnBack->downRight = { 10, 10, 10 };
 3525              		.loc 2 361 23 view .LVU903
 3526 006e 8381     		strh	r3, [r0, #12]	@ movhi
 363:Src/VFO/GUISetupView.cpp **** 		_btnBack->upRight   = { 100, 100, 100};
ARM GAS  /var/folders/20/cstyxln53wn53rr40gj353bh0000gn/T//ccP2nhox.s 			page 84


 3527              		.loc 2 363 23 view .LVU904
 3528 0070 8978     		ldrb	r1, [r1, #2]	@ zero_extendqisi2
 361:Src/VFO/GUISetupView.cpp **** 		_btnBack->downRight = { 10, 10, 10 };
 3529              		.loc 2 361 23 view .LVU905
 3530 0072 1B0C     		lsrs	r3, r3, #16
 350:Src/VFO/GUISetupView.cpp **** 	if ( selected )
 3531              		.loc 2 350 11 view .LVU906
 3532 0074 4FF6E075 		movw	r5, #65504
 362:Src/VFO/GUISetupView.cpp **** 		_btnBack->upLeft    = { 100, 100, 100 };
 3533              		.loc 2 362 23 view .LVU907
 3534 0078 4774     		strb	r7, [r0, #17]
 3535 007a A0F80F60 		strh	r6, [r0, #15]	@ unaligned
 361:Src/VFO/GUISetupView.cpp **** 		_btnBack->downRight = { 10, 10, 10 };
 3536              		.loc 2 361 23 view .LVU908
 3537 007e 8373     		strb	r3, [r0, #14]
 362:Src/VFO/GUISetupView.cpp **** 		_btnBack->upLeft    = { 100, 100, 100 };
 3538              		.loc 2 362 3 is_stmt 1 view .LVU909
 363:Src/VFO/GUISetupView.cpp **** 		_btnBack->upRight   = { 100, 100, 100};
 3539              		.loc 2 363 3 view .LVU910
 363:Src/VFO/GUISetupView.cpp **** 		_btnBack->upRight   = { 100, 100, 100};
 3540              		.loc 2 363 23 is_stmt 0 view .LVU911
 3541 0080 0172     		strb	r1, [r0, #8]
 364:Src/VFO/GUISetupView.cpp **** 	}
 3542              		.loc 2 364 3 is_stmt 1 view .LVU912
 364:Src/VFO/GUISetupView.cpp **** 	}
 3543              		.loc 2 364 23 is_stmt 0 view .LVU913
 3544 0082 C172     		strb	r1, [r0, #11]
 363:Src/VFO/GUISetupView.cpp **** 		_btnBack->upRight   = { 100, 100, 100};
 3545              		.loc 2 363 23 view .LVU914
 3546 0084 C280     		strh	r2, [r0, #6]	@ unaligned
 364:Src/VFO/GUISetupView.cpp **** 	}
 3547              		.loc 2 364 23 view .LVU915
 3548 0086 A0F80920 		strh	r2, [r0, #9]	@ unaligned
 3549 008a D4E7     		b	.L218
 3550              	.L221:
 3551              		.align	2
 3552              	.L220:
 3553 008c 00000000 		.word	.LANCHOR1
 3554 0090 00000000 		.word	.LC8
 3555 0094 00000000 		.word	_ZN3VFO15backgroundColorEPvhh
 3556              		.cfi_endproc
 3557              	.LFE139:
 3558              		.fnend
 3560              		.global	_ZTSN3VFO12GUISetupViewE
 3561              		.global	_ZTIN3VFO12GUISetupViewE
 3562              		.global	_ZTVN3VFO12GUISetupViewE
 3563              		.section	.rodata
 3564              		.align	2
 3565              		.set	.LANCHOR1,. + 0
 3566              	.LC0:
 3567 0000 C8       		.byte	-56
 3568 0001 0A       		.byte	10
 3569 0002 14       		.byte	20
 3570 0003 00       		.space	1
 3571              	.LC1:
 3572 0004 96       		.byte	-106
 3573 0005 00       		.byte	0
ARM GAS  /var/folders/20/cstyxln53wn53rr40gj353bh0000gn/T//ccP2nhox.s 			page 85


 3574 0006 C8       		.byte	-56
 3575 0007 00       		.space	1
 3576              	.LC2:
 3577 0008 3C       		.byte	60
 3578 0009 00       		.byte	0
 3579 000a 28       		.byte	40
 3580 000b 00       		.space	1
 3581              	.LC3:
 3582 000c C8       		.byte	-56
 3583 000d A0       		.byte	-96
 3584 000e 14       		.byte	20
 3585 000f 00       		.space	1
 3586              	.LC4:
 3587 0010 0A       		.byte	10
 3588 0011 0A       		.byte	10
 3589 0012 0A       		.byte	10
 3590 0013 00       		.space	1
 3591              	.LC5:
 3592 0014 64       		.byte	100
 3593 0015 64       		.byte	100
 3594 0016 64       		.byte	100
 3595 0017 00       		.space	1
 3596              	.LC6:
 3597 0018 0A       		.byte	10
 3598 0019 A0       		.byte	-96
 3599 001a 0A       		.byte	10
 3600 001b 00       		.space	1
 3601              	.LC7:
 3602 001c 0A       		.byte	10
 3603 001d 0A       		.byte	10
 3604 001e 64       		.byte	100
 3605              		.section	.data.._95,"aw"
 3606              		.align	2
 3609              	._95:
 3610 0000 54000000 		.word	.LC14
 3611 0004 00000000 		.word	_ZN3VFO14_getBrightnessEv
 3612 0008 00000000 		.word	_ZN3VFO14_setBrightnessEl
 3613 000c 00000000 		.word	0
 3614 0010 00000000 		.word	0
 3615 0014 00000000 		.word	0
 3616 0018 70000000 		.word	.LC15
 3617 001c 00000000 		.word	_ZN3VFO11_getEncoderEv
 3618 0020 00000000 		.word	_ZN3VFO11_setEncoderEl
 3619 0024 00000000 		.word	0
 3620 0028 00000000 		.word	0
 3621 002c 00000000 		.word	0
 3622 0030 80000000 		.word	.LC16
 3623 0034 00000000 		.word	0
 3624 0038 00000000 		.word	0
 3625 003c 00000000 		.word	_ZN3VFO12_resetConfigEv
 3626 0040 00000000 		.word	0
 3627 0044 00000000 		.word	0
 3628              		.section	.data.._96,"aw"
 3629              		.align	2
 3632              	._96:
 3633 0000 00000000 		.word	.LC10
 3634 0004 00000000 		.word	_ZN3VFO15_getCalibrationEv
ARM GAS  /var/folders/20/cstyxln53wn53rr40gj353bh0000gn/T//ccP2nhox.s 			page 86


 3635 0008 00000000 		.word	_ZN3VFO15_setCalibrationEl
 3636 000c 00000000 		.word	0
 3637 0010 00000000 		.word	0
 3638 0014 00000000 		.word	0
 3639 0018 18000000 		.word	.LC11
 3640 001c 00000000 		.word	_ZN3VFO14_getIFrequencyEv
 3641 0020 00000000 		.word	_ZN3VFO14_setIFrequencyEl
 3642 0024 00000000 		.word	0
 3643 0028 00000000 		.word	0
 3644 002c 00000000 		.word	0
 3645 0030 34000000 		.word	.LC12
 3646 0034 00000000 		.word	_ZN3VFO14_getBFrequencyEv
 3647 0038 00000000 		.word	_ZN3VFO14_setBFrequencyEl
 3648 003c 00000000 		.word	0
 3649 0040 00000000 		.word	0
 3650 0044 00000000 		.word	0
 3651 0048 44000000 		.word	.LC13
 3652 004c 00000000 		.word	0
 3653 0050 00000000 		.word	0
 3654 0054 00000000 		.word	0
 3655 0058 03000000 		.word	3
 3656 005c 00000000 		.word	._95
 3657              		.section	.rodata._ZN3VFO12GUISetupView11setSelectedEh.str1.4,"aMS",%progbits,1
 3658              		.align	2
 3659              	.LC8:
 3660 0000 D09DD0B0 		.ascii	"\320\235\320\260\320\267\320\260\320\264\000"
 3660      D0B7D0B0 
 3660      D0B400
 3661 000b 00       		.space	1
 3662              	.LC9:
 3663 000c 3E00     		.ascii	">\000"
 3664              		.section	.rodata._ZN3VFOL4menuE,"a"
 3665              		.align	2
 3666              		.set	.LANCHOR2,. + 0
 3669              	_ZN3VFOL4menuE:
 3670 0000 9C000000 		.word	.LC17
 3671 0004 00000000 		.word	0
 3672 0008 00000000 		.word	0
 3673 000c 00000000 		.word	0
 3674 0010 04000000 		.word	4
 3675 0014 00000000 		.word	._96
 3676              		.section	.rodata._ZTIN3VFO12GUISetupViewE,"a"
 3677              		.align	2
 3680              	_ZTIN3VFO12GUISetupViewE:
 3681 0000 08000000 		.word	_ZTVN10__cxxabiv120__si_class_type_infoE+8
 3682 0004 00000000 		.word	_ZTSN3VFO12GUISetupViewE
 3683 0008 00000000 		.word	_ZTIN3VFO7GUIViewE
 3684              		.section	.rodata._ZTSN3VFO12GUISetupViewE,"a"
 3685              		.align	2
 3688              	_ZTSN3VFO12GUISetupViewE:
 3689 0000 4E335646 		.ascii	"N3VFO12GUISetupViewE\000"
 3689      4F313247 
 3689      55495365 
 3689      74757056 
 3689      69657745 
 3690              		.section	.rodata._ZTVN3VFO12GUISetupViewE,"a"
 3691              		.align	2
ARM GAS  /var/folders/20/cstyxln53wn53rr40gj353bh0000gn/T//ccP2nhox.s 			page 87


 3692              		.set	.LANCHOR0,. + 0
 3695              	_ZTVN3VFO12GUISetupViewE:
 3696 0000 00000000 		.word	0
 3697 0004 00000000 		.word	_ZTIN3VFO12GUISetupViewE
 3698 0008 00000000 		.word	_ZN3VFO12GUISetupViewD1Ev
 3699 000c 00000000 		.word	_ZN3VFO12GUISetupViewD0Ev
 3700 0010 00000000 		.word	_ZN3VFO12GUISetupView4drawEv
 3701 0014 00000000 		.word	_ZN3VFO12GUISetupView20pushEncoderIncrementEst
 3702 0018 00000000 		.word	_ZN3VFO12GUISetupView14menuKeyPressedEv
 3703              		.section	.rodata.str1.4,"aMS",%progbits,1
 3704              		.align	2
 3705              	.LC10:
 3706 0000 D09AD0B0 		.ascii	"\320\232\320\260\320\273\320\270\320\261\321\200\320"
 3706      D0BBD0B8 
 3706      D0B1D180 
 3706      D0
 3707 000d BED0B2D0 		.ascii	"\276\320\262\320\272\320\260\000"
 3707      BAD0B000 
 3708 0015 000000   		.space	3
 3709              	.LC11:
 3710 0018 D09FD180 		.ascii	"\320\237\321\200\320\276\320\274\320\265\320\266\321"
 3710      D0BED0BC 
 3710      D0B5D0B6 
 3710      D1
 3711 0025 83D182D0 		.ascii	"\203\321\202\320\276\321\207\320\275\320\260\321\217"
 3711      BED187D0 
 3711      BDD0B0D1 
 3711      8F
 3712 0032 00       		.ascii	"\000"
 3713 0033 00       		.space	1
 3714              	.LC12:
 3715 0034 D09ED0BF 		.ascii	"\320\236\320\277\320\276\321\200\320\275\320\260\321"
 3715      D0BED180 
 3715      D0BDD0B0 
 3715      D1
 3716 0041 8F00     		.ascii	"\217\000"
 3717 0043 00       		.space	1
 3718              	.LC13:
 3719 0044 D0A0D0B0 		.ascii	"\320\240\320\260\320\267\320\275\320\276\320\265\000"
 3719      D0B7D0BD 
 3719      D0BED0B5 
 3719      00
 3720 0051 000000   		.space	3
 3721              	.LC14:
 3722 0054 D0AFD180 		.ascii	"\320\257\321\200\320\272\320\276\321\201\321\202\321"
 3722      D0BAD0BE 
 3722      D181D182 
 3722      D1
 3723 0061 8C20D18D 		.ascii	"\214 \321\215\320\272\321\200\320\260\320\275\320\260"
 3723      D0BAD180 
 3723      D0B0D0BD 
 3723      D0B0
 3724 006f 00       		.ascii	"\000"
 3725              	.LC15:
 3726 0070 D0ADD0BD 		.ascii	"\320\255\320\275\320\272\320\276\320\264\320\265\321"
 3726      D0BAD0BE 
 3726      D0B4D0B5 
ARM GAS  /var/folders/20/cstyxln53wn53rr40gj353bh0000gn/T//ccP2nhox.s 			page 88


 3726      D1
 3727 007d 8000     		.ascii	"\200\000"
 3728 007f 00       		.space	1
 3729              	.LC16:
 3730 0080 D0A1D0B1 		.ascii	"\320\241\320\261\321\200\320\276\321\201 \320\275\320"
 3730      D180D0BE 
 3730      D18120D0 
 3730      BDD0
 3731 008e B0D181D1 		.ascii	"\260\321\201\321\202\321\200\320\276\320\265\320\272"
 3731      82D180D0 
 3731      BED0B5D0 
 3731      BA
 3732 009b 00       		.ascii	"\000"
 3733              	.LC17:
 3734 009c D0A3D181 		.ascii	"\320\243\321\201\321\202\320\260\320\275\320\276\320"
 3734      D182D0B0 
 3734      D0BDD0BE 
 3734      D0
 3735 00a9 B2D0BAD0 		.ascii	"\262\320\272\320\270\000"
 3735      B800
 3736              		.text
 3737              	.Letext0:
 3738              		.file 3 "/usr/local/gcc-arm-none-eabi-8-2019-q3-update/arm-none-eabi/include/machine/_default_type
 3739              		.file 4 "/usr/local/gcc-arm-none-eabi-8-2019-q3-update/arm-none-eabi/include/sys/_stdint.h"
 3740              		.file 5 "Drivers/CMSIS/Include/core_cm3.h"
 3741              		.file 6 "Drivers/CMSIS/Device/ST/STM32F1xx/Include/system_stm32f1xx.h"
 3742              		.file 7 "/usr/local/gcc-arm-none-eabi-8-2019-q3-update/lib/gcc/arm-none-eabi/8.3.1/include/stddef.
 3743              		.file 8 "Drivers/STM32F1xx_HAL_Driver/Inc/stm32f1xx_hal.h"
 3744              		.file 9 "/usr/local/gcc-arm-none-eabi-8-2019-q3-update/arm-none-eabi/include/sys/_types.h"
 3745              		.file 10 "/usr/local/gcc-arm-none-eabi-8-2019-q3-update/arm-none-eabi/include/sys/reent.h"
 3746              		.file 11 "/usr/local/gcc-arm-none-eabi-8-2019-q3-update/arm-none-eabi/include/sys/lock.h"
 3747              		.file 12 "Inc/st7735/font5x7.h"
 3748              		.file 13 "Inc/st7735/font7x11.h"
 3749              		.file 14 "Inc/st7735/st7735.h"
 3750              		.file 15 "/usr/local/gcc-arm-none-eabi-8-2019-q3-update/arm-none-eabi/include/c++/8.3.1/cstdlib"
 3751              		.file 16 "/usr/local/gcc-arm-none-eabi-8-2019-q3-update/arm-none-eabi/include/c++/8.3.1/bits/std_a
 3752              		.file 17 "/usr/local/gcc-arm-none-eabi-8-2019-q3-update/arm-none-eabi/include/c++/8.3.1/arm-none-e
 3753              		.file 18 "/usr/local/gcc-arm-none-eabi-8-2019-q3-update/arm-none-eabi/include/stdlib.h"
 3754              		.file 19 "/usr/local/gcc-arm-none-eabi-8-2019-q3-update/arm-none-eabi/include/c++/8.3.1/stdlib.h"
 3755              		.file 20 "Src/VFO/GUISetupView.h"
 3756              		.file 21 "Src/VFO/VFOController.h"
 3757              		.file 22 "Src/VFO/GUI/Utils.h"
 3758              		.file 23 "Src/VFO/ConfigHelpers.h"
 3759              		.file 24 "/usr/local/gcc-arm-none-eabi-8-2019-q3-update/arm-none-eabi/include/string.h"
 3760              		.file 25 "<built-in>"
 3761              		.file 26 "Src/VFO/GuiView.h"
ARM GAS  /var/folders/20/cstyxln53wn53rr40gj353bh0000gn/T//ccP2nhox.s 			page 89

