ARM GAS  /var/folders/20/cstyxln53wn53rr40gj353bh0000gn/T//cc8cRXxB.s 			page 1


   1              		.cpu cortex-m3
   2              		.eabi_attribute 20, 1
   3              		.eabi_attribute 21, 1
   4              		.eabi_attribute 23, 3
   5              		.eabi_attribute 24, 1
   6              		.eabi_attribute 25, 1
   7              		.eabi_attribute 26, 1
   8              		.eabi_attribute 30, 2
   9              		.eabi_attribute 34, 1
  10              		.eabi_attribute 18, 4
  11              		.file	"kbd.cpp"
  12              		.text
  13              	.Ltext0:
  14              		.cfi_sections	.debug_frame
  15              		.section	.text._Z10KBD_addKeyP12GPIO_TypeDefiiPFviiE,"ax",%progbits
  16              		.align	1
  17              		.p2align 2,,3
  18              		.global	_Z10KBD_addKeyP12GPIO_TypeDefiiPFviiE
  19              		.arch armv7-m
  20              		.syntax unified
  21              		.thumb
  22              		.thumb_func
  23              		.fpu softvfp
  25              	_Z10KBD_addKeyP12GPIO_TypeDefiiPFviiE:
  26              		.fnstart
  27              	.LVL0:
  28              	.LFB66:
  29              		.file 1 "Src/kbd/kbd.cpp"
   1:Src/kbd/kbd.cpp **** /*
   2:Src/kbd/kbd.cpp ****  * kbd.c
   3:Src/kbd/kbd.cpp ****  *
   4:Src/kbd/kbd.cpp ****  *  Created on: 6 Sep 2017
   5:Src/kbd/kbd.cpp ****  *      Author: PJ
   6:Src/kbd/kbd.cpp ****  */
   7:Src/kbd/kbd.cpp **** 
   8:Src/kbd/kbd.cpp **** #include <stdint.h>
   9:Src/kbd/kbd.cpp **** #include "stm32f1xx.h"
  10:Src/kbd/kbd.cpp **** #include "kbd.h"
  11:Src/kbd/kbd.cpp **** 
  12:Src/kbd/kbd.cpp **** volatile static BUTTON_Status_T Buttons[NKEYS];
  13:Src/kbd/kbd.cpp **** 
  14:Src/kbd/kbd.cpp **** static inline void _CALLBACK(int k, char st)
  15:Src/kbd/kbd.cpp **** {
  16:Src/kbd/kbd.cpp **** #if KBDCALLBACKENABLED == 1
  17:Src/kbd/kbd.cpp **** 	if (Buttons[k].callback != NULL)
  18:Src/kbd/kbd.cpp **** 	{
  19:Src/kbd/kbd.cpp **** 		Buttons[k].callback(k, st);
  20:Src/kbd/kbd.cpp **** 	}
  21:Src/kbd/kbd.cpp **** #endif
  22:Src/kbd/kbd.cpp **** }
  23:Src/kbd/kbd.cpp **** 
  24:Src/kbd/kbd.cpp **** #if KBDCALLBACKENABLED == 0
  25:Src/kbd/kbd.cpp **** int KBD_addKey(GPIO_TypeDef *gpio, int pin, int type)
  26:Src/kbd/kbd.cpp **** {
  27:Src/kbd/kbd.cpp **** 	int result = -1;
  28:Src/kbd/kbd.cpp **** 
  29:Src/kbd/kbd.cpp **** 	for(int i = 0; i < NKEYS; i ++)
ARM GAS  /var/folders/20/cstyxln53wn53rr40gj353bh0000gn/T//cc8cRXxB.s 			page 2


  30:Src/kbd/kbd.cpp **** 	{
  31:Src/kbd/kbd.cpp **** 		if(Buttons[i].gpio == NULL)
  32:Src/kbd/kbd.cpp **** 		{
  33:Src/kbd/kbd.cpp **** 			Buttons[i].gpio = gpio;
  34:Src/kbd/kbd.cpp **** 			Buttons[i].pinmask = (1 << pin);
  35:Src/kbd/kbd.cpp **** 			Buttons[i].status_data = 0;
  36:Src/kbd/kbd.cpp **** 			Buttons[i].type = type;
  37:Src/kbd/kbd.cpp **** 			Buttons[i].debouncing = 0;
  38:Src/kbd/kbd.cpp **** 			Buttons[i].counter = DEBOUNCE;
  39:Src/kbd/kbd.cpp **** 			result = i;
  40:Src/kbd/kbd.cpp **** 			break;
  41:Src/kbd/kbd.cpp **** 		}
  42:Src/kbd/kbd.cpp **** 	}
  43:Src/kbd/kbd.cpp **** 	return result;
  44:Src/kbd/kbd.cpp **** }
  45:Src/kbd/kbd.cpp **** 
  46:Src/kbd/kbd.cpp **** #else
  47:Src/kbd/kbd.cpp **** 
  48:Src/kbd/kbd.cpp **** int KBD_addKey(GPIO_TypeDef *gpio, int pin, int type, void (*cb)(int, int))
  49:Src/kbd/kbd.cpp **** {
  30              		.loc 1 49 1 view -0
  31              		.cfi_startproc
  32              		@ args = 0, pretend = 0, frame = 0
  33              		@ frame_needed = 0, uses_anonymous_args = 0
  34              		@ link register save eliminated.
  50:Src/kbd/kbd.cpp **** 	int result = -1;
  35              		.loc 1 50 2 view .LVU1
  51:Src/kbd/kbd.cpp **** 
  52:Src/kbd/kbd.cpp **** 	for (int i = 0; i < NKEYS; i++)
  36              		.loc 1 52 2 view .LVU2
  37              	.LBB15:
  53:Src/kbd/kbd.cpp **** 	{
  54:Src/kbd/kbd.cpp **** 		if (Buttons[i].gpio == NULL)
  38              		.loc 1 54 3 view .LVU3
  39              	.LBE15:
  49:Src/kbd/kbd.cpp **** 	int result = -1;
  40              		.loc 1 49 1 is_stmt 0 view .LVU4
  41 0000 F0B4     		push	{r4, r5, r6, r7}
  42              	.LCFI0:
  43              		.cfi_def_cfa_offset 16
  44              		.cfi_offset 4, -16
  45              		.cfi_offset 5, -12
  46              		.cfi_offset 6, -8
  47              		.cfi_offset 7, -4
  48              	.LBB16:
  49              		.loc 1 54 18 view .LVU5
  50 0002 164C     		ldr	r4, .L11
  51              	.LBE16:
  49:Src/kbd/kbd.cpp **** 	int result = -1;
  52              		.loc 1 49 1 view .LVU6
  53 0004 0646     		mov	r6, r0
  54              	.LBB17:
  55              		.loc 1 54 18 view .LVU7
  56 0006 2068     		ldr	r0, [r4]
  57              	.LVL1:
  58              		.loc 1 54 3 view .LVU8
  59 0008 68B1     		cbz	r0, .L2
ARM GAS  /var/folders/20/cstyxln53wn53rr40gj353bh0000gn/T//cc8cRXxB.s 			page 3


  60              	.LVL2:
  61              		.loc 1 54 3 is_stmt 1 view .LVU9
  62              		.loc 1 54 18 is_stmt 0 view .LVU10
  63 000a 2569     		ldr	r5, [r4, #16]
  64              		.loc 1 54 3 view .LVU11
  65 000c 0DB3     		cbz	r5, .L5
  66              	.LVL3:
  67              		.loc 1 54 3 is_stmt 1 view .LVU12
  68              		.loc 1 54 18 is_stmt 0 view .LVU13
  69 000e 256A     		ldr	r5, [r4, #32]
  70              		.loc 1 54 3 view .LVU14
  71 0010 0DB3     		cbz	r5, .L6
  72              	.LVL4:
  73              		.loc 1 54 3 is_stmt 1 view .LVU15
  74              		.loc 1 54 18 is_stmt 0 view .LVU16
  75 0012 256B     		ldr	r5, [r4, #48]
  76              		.loc 1 54 3 view .LVU17
  77 0014 35B1     		cbz	r5, .L7
  78              	.LVL5:
  79              		.loc 1 54 3 is_stmt 1 view .LVU18
  80              		.loc 1 54 18 is_stmt 0 view .LVU19
  81 0016 256C     		ldr	r5, [r4, #64]
  52:Src/kbd/kbd.cpp **** 	{
  82              		.loc 1 52 2 view .LVU20
  83 0018 0420     		movs	r0, #4
  84              		.loc 1 54 3 view .LVU21
  85 001a 25B1     		cbz	r5, .L2
  86              	.LBE17:
  55:Src/kbd/kbd.cpp **** 		{
  56:Src/kbd/kbd.cpp **** 			Buttons[i].gpio = gpio;
  57:Src/kbd/kbd.cpp **** 			Buttons[i].pinmask = (1 << pin);
  58:Src/kbd/kbd.cpp **** 			Buttons[i].status_data = 0;
  59:Src/kbd/kbd.cpp **** 			Buttons[i].type = type;
  60:Src/kbd/kbd.cpp **** 			Buttons[i].debouncing = 0;
  61:Src/kbd/kbd.cpp **** 			Buttons[i].counter = DEBOUNCE;
  62:Src/kbd/kbd.cpp **** 			Buttons[i].callback = cb;
  63:Src/kbd/kbd.cpp **** 			result = i;
  64:Src/kbd/kbd.cpp **** 			break;
  65:Src/kbd/kbd.cpp **** 		}
  66:Src/kbd/kbd.cpp **** 	}
  67:Src/kbd/kbd.cpp **** 	return result;
  68:Src/kbd/kbd.cpp **** }
  87              		.loc 1 68 1 view .LVU22
  88 001c F0BC     		pop	{r4, r5, r6, r7}
  89              	.LCFI1:
  90              		.cfi_remember_state
  91              		.cfi_restore 7
  92              		.cfi_restore 6
  93              		.cfi_restore 5
  94              		.cfi_restore 4
  95              		.cfi_def_cfa_offset 0
  96              	.LVL6:
  50:Src/kbd/kbd.cpp **** 
  97              		.loc 1 50 6 view .LVU23
  98 001e 4FF0FF30 		mov	r0, #-1
  67:Src/kbd/kbd.cpp **** }
  99              		.loc 1 67 2 is_stmt 1 view .LVU24
ARM GAS  /var/folders/20/cstyxln53wn53rr40gj353bh0000gn/T//cc8cRXxB.s 			page 4


 100              		.loc 1 68 1 is_stmt 0 view .LVU25
 101 0022 7047     		bx	lr
 102              	.LVL7:
 103              	.L7:
 104              	.LCFI2:
 105              		.cfi_restore_state
 106              	.LBB18:
  52:Src/kbd/kbd.cpp **** 	{
 107              		.loc 1 52 2 view .LVU26
 108 0024 0320     		movs	r0, #3
 109              	.LVL8:
 110              	.L2:
  56:Src/kbd/kbd.cpp **** 			Buttons[i].pinmask = (1 << pin);
 111              		.loc 1 56 4 is_stmt 1 view .LVU27
  57:Src/kbd/kbd.cpp **** 			Buttons[i].status_data = 0;
 112              		.loc 1 57 28 is_stmt 0 view .LVU28
 113 0026 0125     		movs	r5, #1
  58:Src/kbd/kbd.cpp **** 			Buttons[i].type = type;
 114              		.loc 1 58 27 view .LVU29
 115 0028 0027     		movs	r7, #0
  57:Src/kbd/kbd.cpp **** 			Buttons[i].status_data = 0;
 116              		.loc 1 57 28 view .LVU30
 117 002a 8D40     		lsls	r5, r5, r1
  56:Src/kbd/kbd.cpp **** 			Buttons[i].pinmask = (1 << pin);
 118              		.loc 1 56 20 view .LVU31
 119 002c 0101     		lsls	r1, r0, #4
 120              	.LVL9:
  56:Src/kbd/kbd.cpp **** 			Buttons[i].pinmask = (1 << pin);
 121              		.loc 1 56 20 view .LVU32
 122 002e 6650     		str	r6, [r4, r1]
  57:Src/kbd/kbd.cpp **** 			Buttons[i].status_data = 0;
 123              		.loc 1 57 4 is_stmt 1 view .LVU33
  57:Src/kbd/kbd.cpp **** 			Buttons[i].status_data = 0;
 124              		.loc 1 57 23 is_stmt 0 view .LVU34
 125 0030 EDB2     		uxtb	r5, r5
  56:Src/kbd/kbd.cpp **** 			Buttons[i].pinmask = (1 << pin);
 126              		.loc 1 56 20 view .LVU35
 127 0032 0C44     		add	r4, r4, r1
  57:Src/kbd/kbd.cpp **** 			Buttons[i].status_data = 0;
 128              		.loc 1 57 23 view .LVU36
 129 0034 6571     		strb	r5, [r4, #5]
  58:Src/kbd/kbd.cpp **** 			Buttons[i].type = type;
 130              		.loc 1 58 4 is_stmt 1 view .LVU37
  61:Src/kbd/kbd.cpp **** 			Buttons[i].callback = cb;
 131              		.loc 1 61 23 is_stmt 0 view .LVU38
 132 0036 0625     		movs	r5, #6
  58:Src/kbd/kbd.cpp **** 			Buttons[i].type = type;
 133              		.loc 1 58 27 view .LVU39
 134 0038 2771     		strb	r7, [r4, #4]
  59:Src/kbd/kbd.cpp **** 			Buttons[i].debouncing = 0;
 135              		.loc 1 59 4 is_stmt 1 view .LVU40
  59:Src/kbd/kbd.cpp **** 			Buttons[i].debouncing = 0;
 136              		.loc 1 59 20 is_stmt 0 view .LVU41
 137 003a 2179     		ldrb	r1, [r4, #4]	@ zero_extendqisi2
 138 003c 62F30001 		bfi	r1, r2, #0, #1
 139 0040 2171     		strb	r1, [r4, #4]
  60:Src/kbd/kbd.cpp **** 			Buttons[i].counter = DEBOUNCE;
ARM GAS  /var/folders/20/cstyxln53wn53rr40gj353bh0000gn/T//cc8cRXxB.s 			page 5


 140              		.loc 1 60 4 is_stmt 1 view .LVU42
  60:Src/kbd/kbd.cpp **** 			Buttons[i].counter = DEBOUNCE;
 141              		.loc 1 60 26 is_stmt 0 view .LVU43
 142 0042 2279     		ldrb	r2, [r4, #4]	@ zero_extendqisi2
 143              	.LVL10:
  60:Src/kbd/kbd.cpp **** 			Buttons[i].counter = DEBOUNCE;
 144              		.loc 1 60 26 view .LVU44
 145 0044 67F38612 		bfi	r2, r7, #6, #1
 146 0048 2271     		strb	r2, [r4, #4]
  61:Src/kbd/kbd.cpp **** 			Buttons[i].callback = cb;
 147              		.loc 1 61 4 is_stmt 1 view .LVU45
  61:Src/kbd/kbd.cpp **** 			Buttons[i].callback = cb;
 148              		.loc 1 61 23 is_stmt 0 view .LVU46
 149 004a E580     		strh	r5, [r4, #6]	@ movhi
  62:Src/kbd/kbd.cpp **** 			result = i;
 150              		.loc 1 62 4 is_stmt 1 view .LVU47
  62:Src/kbd/kbd.cpp **** 			result = i;
 151              		.loc 1 62 24 is_stmt 0 view .LVU48
 152 004c E360     		str	r3, [r4, #12]
  63:Src/kbd/kbd.cpp **** 			break;
 153              		.loc 1 63 4 is_stmt 1 view .LVU49
 154              	.LVL11:
  64:Src/kbd/kbd.cpp **** 		}
 155              		.loc 1 64 4 view .LVU50
 156              	.LBE18:
 157              		.loc 1 68 1 is_stmt 0 view .LVU51
 158 004e F0BC     		pop	{r4, r5, r6, r7}
 159              	.LCFI3:
 160              		.cfi_remember_state
 161              		.cfi_restore 7
 162              		.cfi_restore 6
 163              		.cfi_restore 5
 164              		.cfi_restore 4
 165              		.cfi_def_cfa_offset 0
 166              	.LVL12:
 167              		.loc 1 68 1 view .LVU52
 168 0050 7047     		bx	lr
 169              	.LVL13:
 170              	.L5:
 171              	.LCFI4:
 172              		.cfi_restore_state
 173              	.LBB19:
  52:Src/kbd/kbd.cpp **** 	{
 174              		.loc 1 52 2 view .LVU53
 175 0052 0120     		movs	r0, #1
 176 0054 E7E7     		b	.L2
 177              	.LVL14:
 178              	.L6:
  52:Src/kbd/kbd.cpp **** 	{
 179              		.loc 1 52 2 view .LVU54
 180 0056 0220     		movs	r0, #2
 181 0058 E5E7     		b	.L2
 182              	.L12:
 183 005a 00BF     		.align	2
 184              	.L11:
 185 005c 00000000 		.word	.LANCHOR0
 186              	.LBE19:
ARM GAS  /var/folders/20/cstyxln53wn53rr40gj353bh0000gn/T//cc8cRXxB.s 			page 6


 187              		.cfi_endproc
 188              	.LFE66:
 189              		.cantunwind
 190              		.fnend
 192              		.section	.text._Z10KBD_GetKeyi,"ax",%progbits
 193              		.align	1
 194              		.p2align 2,,3
 195              		.global	_Z10KBD_GetKeyi
 196              		.syntax unified
 197              		.thumb
 198              		.thumb_func
 199              		.fpu softvfp
 201              	_Z10KBD_GetKeyi:
 202              		.fnstart
 203              	.LVL15:
 204              	.LFB68:
  69:Src/kbd/kbd.cpp **** #endif
  70:Src/kbd/kbd.cpp **** 
  71:Src/kbd/kbd.cpp **** static inline int KBD_GetPIN(int key)
  72:Src/kbd/kbd.cpp **** {
  73:Src/kbd/kbd.cpp **** 	int st = Buttons[key].gpio->IDR & Buttons[key].pinmask;
  74:Src/kbd/kbd.cpp **** 
  75:Src/kbd/kbd.cpp **** 	return Buttons[key].type ? !st : !!st;
  76:Src/kbd/kbd.cpp **** }
  77:Src/kbd/kbd.cpp **** 
  78:Src/kbd/kbd.cpp **** int KBD_GetKey(int k)
  79:Src/kbd/kbd.cpp **** {
 205              		.loc 1 79 1 is_stmt 1 view -0
 206              		.cfi_startproc
 207              		@ args = 0, pretend = 0, frame = 0
 208              		@ frame_needed = 0, uses_anonymous_args = 0
 209              		@ link register save eliminated.
  80:Src/kbd/kbd.cpp **** 	int result = NOKEY;
 210              		.loc 1 80 2 view .LVU56
  81:Src/kbd/kbd.cpp **** 
  82:Src/kbd/kbd.cpp **** 	if (Buttons[k].gpio != NULL)
 211              		.loc 1 82 2 view .LVU57
 212              		.loc 1 82 17 is_stmt 0 view .LVU58
 213 0000 054B     		ldr	r3, .L19
 214 0002 0201     		lsls	r2, r0, #4
 215 0004 9858     		ldr	r0, [r3, r2]
 216              	.LVL16:
 217              		.loc 1 82 17 view .LVU59
 218 0006 1344     		add	r3, r3, r2
 219              		.loc 1 82 2 view .LVU60
 220 0008 28B1     		cbz	r0, .L13
  83:Src/kbd/kbd.cpp **** 	{
  84:Src/kbd/kbd.cpp **** 		result = Buttons[k].status;
 221              		.loc 1 84 3 is_stmt 1 view .LVU61
 222              		.loc 1 84 23 is_stmt 0 view .LVU62
 223 000a 1A7A     		ldrb	r2, [r3, #8]	@ zero_extendqisi2
 224              	.LVL17:
  85:Src/kbd/kbd.cpp **** 		if (result != NOKEY)
 225              		.loc 1 85 3 is_stmt 1 view .LVU63
 226 000c 02F0FF00 		and	r0, r2, #255
 227 0010 0AB1     		cbz	r2, .L13
  86:Src/kbd/kbd.cpp **** 			Buttons[k].status = NOKEY;
ARM GAS  /var/folders/20/cstyxln53wn53rr40gj353bh0000gn/T//cc8cRXxB.s 			page 7


 228              		.loc 1 86 4 view .LVU64
 229              		.loc 1 86 22 is_stmt 0 view .LVU65
 230 0012 0022     		movs	r2, #0
 231              	.LVL18:
 232              		.loc 1 86 22 view .LVU66
 233 0014 1A72     		strb	r2, [r3, #8]
 234              	.L13:
  87:Src/kbd/kbd.cpp **** 	}
  88:Src/kbd/kbd.cpp **** 	return result;
  89:Src/kbd/kbd.cpp **** }
 235              		.loc 1 89 1 view .LVU67
 236 0016 7047     		bx	lr
 237              	.L20:
 238              		.align	2
 239              	.L19:
 240 0018 00000000 		.word	.LANCHOR0
 241              		.cfi_endproc
 242              	.LFE68:
 243              		.cantunwind
 244              		.fnend
 246              		.section	.text._Z10KBD_SetKeyii,"ax",%progbits
 247              		.align	1
 248              		.p2align 2,,3
 249              		.global	_Z10KBD_SetKeyii
 250              		.syntax unified
 251              		.thumb
 252              		.thumb_func
 253              		.fpu softvfp
 255              	_Z10KBD_SetKeyii:
 256              		.fnstart
 257              	.LVL19:
 258              	.LFB70:
  90:Src/kbd/kbd.cpp **** 
  91:Src/kbd/kbd.cpp **** static inline void _KBDSetKey(int k, int st)
  92:Src/kbd/kbd.cpp **** {
  93:Src/kbd/kbd.cpp **** 	Buttons[k].status = st;
  94:Src/kbd/kbd.cpp **** }
  95:Src/kbd/kbd.cpp **** 
  96:Src/kbd/kbd.cpp **** void KBD_SetKey(int k, int st)
  97:Src/kbd/kbd.cpp **** {
 259              		.loc 1 97 1 is_stmt 1 view -0
 260              		.cfi_startproc
 261              		@ args = 0, pretend = 0, frame = 0
 262              		@ frame_needed = 0, uses_anonymous_args = 0
 263              		@ link register save eliminated.
  98:Src/kbd/kbd.cpp **** 	_KBDSetKey(k, st);
 264              		.loc 1 98 2 view .LVU69
 265              	.LBB20:
 266              	.LBI20:
  91:Src/kbd/kbd.cpp **** {
 267              		.loc 1 91 20 view .LVU70
 268              	.LBB21:
  93:Src/kbd/kbd.cpp **** }
 269              		.loc 1 93 2 view .LVU71
  93:Src/kbd/kbd.cpp **** }
 270              		.loc 1 93 20 is_stmt 0 view .LVU72
 271 0000 024B     		ldr	r3, .L22
ARM GAS  /var/folders/20/cstyxln53wn53rr40gj353bh0000gn/T//cc8cRXxB.s 			page 8


 272 0002 C9B2     		uxtb	r1, r1
 273              	.LVL20:
  93:Src/kbd/kbd.cpp **** }
 274              		.loc 1 93 20 view .LVU73
 275 0004 03EB0010 		add	r0, r3, r0, lsl #4
 276              	.LVL21:
  93:Src/kbd/kbd.cpp **** }
 277              		.loc 1 93 20 view .LVU74
 278 0008 0172     		strb	r1, [r0, #8]
 279              	.LVL22:
  93:Src/kbd/kbd.cpp **** }
 280              		.loc 1 93 20 view .LVU75
 281              	.LBE21:
 282              	.LBE20:
  99:Src/kbd/kbd.cpp **** }
 283              		.loc 1 99 1 view .LVU76
 284 000a 7047     		bx	lr
 285              	.L23:
 286              		.align	2
 287              	.L22:
 288 000c 00000000 		.word	.LANCHOR0
 289              		.cfi_endproc
 290              	.LFE70:
 291              		.cantunwind
 292              		.fnend
 294              		.section	.text._Z16KBD_ISR_Callbackv,"ax",%progbits
 295              		.align	1
 296              		.p2align 2,,3
 297              		.global	_Z16KBD_ISR_Callbackv
 298              		.syntax unified
 299              		.thumb
 300              		.thumb_func
 301              		.fpu softvfp
 303              	_Z16KBD_ISR_Callbackv:
 304              		.fnstart
 305              	.LFB71:
 100:Src/kbd/kbd.cpp **** 
 101:Src/kbd/kbd.cpp **** #ifdef USE_HAL_DRIVER
 102:Src/kbd/kbd.cpp **** #define GetTick()     HAL_GetTick()
 103:Src/kbd/kbd.cpp **** #else
 104:Src/kbd/kbd.cpp **** static volatile unit32_t _kbd_ticks;
 105:Src/kbd/kbd.cpp **** 
 106:Src/kbd/kbd.cpp **** static inline uint32_t KBD_GetTick(void)
 107:Src/kbd/kbd.cpp **** {
 108:Src/kbd/kbd.cpp **** 	return ++_kbd_ticks;
 109:Src/kbd/kbd.cpp **** }
 110:Src/kbd/kbd.cpp **** #endif
 111:Src/kbd/kbd.cpp **** 
 112:Src/kbd/kbd.cpp **** void KBD_ISR_Callback(void)
 113:Src/kbd/kbd.cpp **** {
 306              		.loc 1 113 1 is_stmt 1 view -0
 307              		.cfi_startproc
 308              		@ args = 0, pretend = 0, frame = 0
 309              		@ frame_needed = 0, uses_anonymous_args = 0
 114:Src/kbd/kbd.cpp **** 	int key;
 310              		.loc 1 114 2 view .LVU78
 115:Src/kbd/kbd.cpp **** 
ARM GAS  /var/folders/20/cstyxln53wn53rr40gj353bh0000gn/T//cc8cRXxB.s 			page 9


 116:Src/kbd/kbd.cpp **** 	if ((GetTick() & (__KBD_DIVIDER - 1)))
 311              		.loc 1 116 2 view .LVU79
 113:Src/kbd/kbd.cpp **** 	int key;
 312              		.loc 1 113 1 is_stmt 0 view .LVU80
 313 0000 2DE9F843 		push	{r3, r4, r5, r6, r7, r8, r9, lr}
 314              		.save {r3, r4, r5, r6, r7, r8, r9, lr}
 315              	.LCFI5:
 316              		.cfi_def_cfa_offset 32
 317              		.cfi_offset 3, -32
 318              		.cfi_offset 4, -28
 319              		.cfi_offset 5, -24
 320              		.cfi_offset 6, -20
 321              		.cfi_offset 7, -16
 322              		.cfi_offset 8, -12
 323              		.cfi_offset 9, -8
 324              		.cfi_offset 14, -4
 325              		.loc 1 116 7 view .LVU81
 326 0004 FFF7FEFF 		bl	HAL_GetTick
 327              	.LVL23:
 328              		.loc 1 116 2 view .LVU82
 329 0008 10F00706 		ands	r6, r0, #7
 330 000c 37D1     		bne	.L24
 331              	.LBB22:
 117:Src/kbd/kbd.cpp **** 		return;	// every __KBD_DIVIDER interrupt served to save the processor time
 118:Src/kbd/kbd.cpp **** 	for (int i = 0; i < NKEYS; i++)
 119:Src/kbd/kbd.cpp **** 	{
 120:Src/kbd/kbd.cpp **** 		if (Buttons[i].gpio == NULL)
 121:Src/kbd/kbd.cpp **** 			continue;							//look for the configured ketys
 122:Src/kbd/kbd.cpp **** 		if ((key = KBD_GetPIN(i)) && !Buttons[i].status_data)
 123:Src/kbd/kbd.cpp **** 			continue;                 //wait for the key release after the reset
 124:Src/kbd/kbd.cpp **** 		if (key != Buttons[i].previous_key)
 125:Src/kbd/kbd.cpp **** 		{
 126:Src/kbd/kbd.cpp **** 			if (!Buttons[i].debounced && --Buttons[i].counter)
 127:Src/kbd/kbd.cpp **** 				continue;					//debounce
 128:Src/kbd/kbd.cpp **** 			Buttons[i].debounced = 1;
 129:Src/kbd/kbd.cpp **** 			if (key)
 130:Src/kbd/kbd.cpp **** 				Buttons[i].wait_for_realease = 1;
 131:Src/kbd/kbd.cpp **** 			Buttons[i].previous_key = key;
 132:Src/kbd/kbd.cpp **** 		}
 133:Src/kbd/kbd.cpp **** 		else
 134:Src/kbd/kbd.cpp **** 		{
 135:Src/kbd/kbd.cpp **** 			if (Buttons[i].debounced)
 136:Src/kbd/kbd.cpp **** 			{
 137:Src/kbd/kbd.cpp **** 				if (key)
 138:Src/kbd/kbd.cpp **** 				{
 139:Src/kbd/kbd.cpp **** 					if (++Buttons[i].counter >= LONGCLICK)
 140:Src/kbd/kbd.cpp **** 					{
 141:Src/kbd/kbd.cpp **** 						_CALLBACK(i, LONGKEY);
 142:Src/kbd/kbd.cpp **** 						_KBDSetKey(i, LONGKEY);
 143:Src/kbd/kbd.cpp **** 						Buttons[i].debounced = 0;
 144:Src/kbd/kbd.cpp **** 						Buttons[i].debouncing = 0;
 145:Src/kbd/kbd.cpp **** 						Buttons[i].wait_for_realease = 0;
 146:Src/kbd/kbd.cpp **** 						Buttons[i].wait_for_DC = 0;
 147:Src/kbd/kbd.cpp **** 						Buttons[i].counter = DEBOUNCE;
 148:Src/kbd/kbd.cpp **** 						continue;
 149:Src/kbd/kbd.cpp **** 					}
 150:Src/kbd/kbd.cpp **** 				}
ARM GAS  /var/folders/20/cstyxln53wn53rr40gj353bh0000gn/T//cc8cRXxB.s 			page 10


 151:Src/kbd/kbd.cpp **** 				else
 152:Src/kbd/kbd.cpp **** 				{
 153:Src/kbd/kbd.cpp **** 					//Buttons[i].debounced = 0;
 154:Src/kbd/kbd.cpp **** 					if (Buttons[i].wait_for_realease)
 155:Src/kbd/kbd.cpp **** 					{
 156:Src/kbd/kbd.cpp **** 						_CALLBACK(i, KEY);
 157:Src/kbd/kbd.cpp **** 						_KBDSetKey(i, KEY);
 158:Src/kbd/kbd.cpp **** 						Buttons[i].debounced = 0;
 159:Src/kbd/kbd.cpp **** 						Buttons[i].debouncing = 0;
 160:Src/kbd/kbd.cpp **** 						Buttons[i].wait_for_realease = 0;
 161:Src/kbd/kbd.cpp **** 						Buttons[i].counter = DEBOUNCE;
 162:Src/kbd/kbd.cpp **** 						continue;
 163:Src/kbd/kbd.cpp **** 					}
 164:Src/kbd/kbd.cpp **** 					else
 165:Src/kbd/kbd.cpp **** 					{
 166:Src/kbd/kbd.cpp **** 						Buttons[i].counter = DEBOUNCE;
 332              		.loc 1 166 26 view .LVU83
 333 000e 0627     		movs	r7, #6
 334              	.LBB23:
 335              	.LBB24:
  93:Src/kbd/kbd.cpp **** }
 336              		.loc 1 93 20 view .LVU84
 337 0010 4FF00108 		mov	r8, #1
 338              	.LBE24:
 339              	.LBE23:
 340              	.LBB26:
 341              	.LBB27:
 342 0014 4FF00209 		mov	r9, #2
 343 0018 3C4D     		ldr	r5, .L63
 344              	.L25:
 345              	.LVL24:
  93:Src/kbd/kbd.cpp **** }
 346              		.loc 1 93 20 view .LVU85
 347              	.LBE27:
 348              	.LBE26:
 120:Src/kbd/kbd.cpp **** 			continue;							//look for the configured ketys
 349              		.loc 1 120 3 is_stmt 1 view .LVU86
 120:Src/kbd/kbd.cpp **** 			continue;							//look for the configured ketys
 350              		.loc 1 120 18 is_stmt 0 view .LVU87
 351 001a 3401     		lsls	r4, r6, #4
 352 001c 2B59     		ldr	r3, [r5, r4]
 353 001e 2A19     		adds	r2, r5, r4
 120:Src/kbd/kbd.cpp **** 			continue;							//look for the configured ketys
 354              		.loc 1 120 3 view .LVU88
 355 0020 53B3     		cbz	r3, .L27
 122:Src/kbd/kbd.cpp **** 			continue;                 //wait for the key release after the reset
 356              		.loc 1 122 3 is_stmt 1 view .LVU89
 357              	.LVL25:
 358              	.LBB29:
 359              	.LBI29:
  71:Src/kbd/kbd.cpp **** {
 360              		.loc 1 71 19 view .LVU90
 361              	.LBB30:
  73:Src/kbd/kbd.cpp **** 
 362              		.loc 1 73 2 view .LVU91
  73:Src/kbd/kbd.cpp **** 
 363              		.loc 1 73 24 is_stmt 0 view .LVU92
ARM GAS  /var/folders/20/cstyxln53wn53rr40gj353bh0000gn/T//cc8cRXxB.s 			page 11


 364 0022 2B59     		ldr	r3, [r5, r4]
  73:Src/kbd/kbd.cpp **** 
 365              		.loc 1 73 30 view .LVU93
 366 0024 9968     		ldr	r1, [r3, #8]
  73:Src/kbd/kbd.cpp **** 
 367              		.loc 1 73 49 view .LVU94
 368 0026 5379     		ldrb	r3, [r2, #5]	@ zero_extendqisi2
  75:Src/kbd/kbd.cpp **** }
 369              		.loc 1 75 22 view .LVU95
 370 0028 1279     		ldrb	r2, [r2, #4]	@ zero_extendqisi2
  73:Src/kbd/kbd.cpp **** 
 371              		.loc 1 73 34 view .LVU96
 372 002a 0B40     		ands	r3, r3, r1
 373              	.LVL26:
  75:Src/kbd/kbd.cpp **** }
 374              		.loc 1 75 2 is_stmt 1 view .LVU97
  75:Src/kbd/kbd.cpp **** }
 375              		.loc 1 75 27 is_stmt 0 view .LVU98
 376 002c D207     		lsls	r2, r2, #31
 377 002e 28D5     		bpl	.L28
  75:Src/kbd/kbd.cpp **** }
 378              		.loc 1 75 29 view .LVU99
 379 0030 B3FA83F3 		clz	r3, r3
 380              	.LVL27:
  75:Src/kbd/kbd.cpp **** }
 381              		.loc 1 75 29 view .LVU100
 382 0034 5B09     		lsrs	r3, r3, #5
 383              	.L29:
 384              	.LVL28:
  75:Src/kbd/kbd.cpp **** }
 385              		.loc 1 75 29 view .LVU101
 386              	.LBE30:
 387              	.LBE29:
 122:Src/kbd/kbd.cpp **** 			continue;                 //wait for the key release after the reset
 388              		.loc 1 122 29 view .LVU102
 389 0036 13B1     		cbz	r3, .L30
 122:Src/kbd/kbd.cpp **** 			continue;                 //wait for the key release after the reset
 390              		.loc 1 122 44 discriminator 1 view .LVU103
 391 0038 2A19     		adds	r2, r5, r4
 392 003a 1279     		ldrb	r2, [r2, #4]	@ zero_extendqisi2
 122:Src/kbd/kbd.cpp **** 			continue;                 //wait for the key release after the reset
 393              		.loc 1 122 29 discriminator 1 view .LVU104
 394 003c E2B1     		cbz	r2, .L27
 395              	.L30:
 124:Src/kbd/kbd.cpp **** 		{
 396              		.loc 1 124 3 is_stmt 1 view .LVU105
 124:Src/kbd/kbd.cpp **** 		{
 397              		.loc 1 124 25 is_stmt 0 view .LVU106
 398 003e 2A19     		adds	r2, r5, r4
 399 0040 1179     		ldrb	r1, [r2, #4]	@ zero_extendqisi2
 400 0042 C1F34011 		ubfx	r1, r1, #5, #1
 124:Src/kbd/kbd.cpp **** 		{
 401              		.loc 1 124 3 view .LVU107
 402 0046 9942     		cmp	r1, r3
 126:Src/kbd/kbd.cpp **** 				continue;					//debounce
 403              		.loc 1 126 20 view .LVU108
 404 0048 1179     		ldrb	r1, [r2, #4]	@ zero_extendqisi2
ARM GAS  /var/folders/20/cstyxln53wn53rr40gj353bh0000gn/T//cc8cRXxB.s 			page 12


 124:Src/kbd/kbd.cpp **** 		{
 405              		.loc 1 124 3 view .LVU109
 406 004a 1ED0     		beq	.L32
 126:Src/kbd/kbd.cpp **** 				continue;					//debounce
 407              		.loc 1 126 4 is_stmt 1 view .LVU110
 126:Src/kbd/kbd.cpp **** 				continue;					//debounce
 408              		.loc 1 126 30 is_stmt 0 view .LVU111
 409 004c C909     		lsrs	r1, r1, #7
 410 004e 04D1     		bne	.L36
 126:Src/kbd/kbd.cpp **** 				continue;					//debounce
 411              		.loc 1 126 46 discriminator 1 view .LVU112
 412 0050 D188     		ldrh	r1, [r2, #6]
 126:Src/kbd/kbd.cpp **** 				continue;					//debounce
 413              		.loc 1 126 33 discriminator 1 view .LVU113
 414 0052 0139     		subs	r1, r1, #1
 415 0054 89B2     		uxth	r1, r1
 126:Src/kbd/kbd.cpp **** 				continue;					//debounce
 416              		.loc 1 126 30 discriminator 1 view .LVU114
 417 0056 D180     		strh	r1, [r2, #6]	@ movhi
 418 0058 71B9     		cbnz	r1, .L27
 419              	.L36:
 128:Src/kbd/kbd.cpp **** 			if (key)
 420              		.loc 1 128 4 is_stmt 1 view .LVU115
 128:Src/kbd/kbd.cpp **** 			if (key)
 421              		.loc 1 128 25 is_stmt 0 view .LVU116
 422 005a 2A19     		adds	r2, r5, r4
 423 005c 1179     		ldrb	r1, [r2, #4]	@ zero_extendqisi2
 424 005e 41F08001 		orr	r1, r1, #128
 425 0062 1171     		strb	r1, [r2, #4]
 129:Src/kbd/kbd.cpp **** 				Buttons[i].wait_for_realease = 1;
 426              		.loc 1 129 4 is_stmt 1 view .LVU117
 427 0064 1BB1     		cbz	r3, .L35
 130:Src/kbd/kbd.cpp **** 			Buttons[i].previous_key = key;
 428              		.loc 1 130 5 view .LVU118
 130:Src/kbd/kbd.cpp **** 			Buttons[i].previous_key = key;
 429              		.loc 1 130 34 is_stmt 0 view .LVU119
 430 0066 1179     		ldrb	r1, [r2, #4]	@ zero_extendqisi2
 431 0068 41F00401 		orr	r1, r1, #4
 432 006c 1171     		strb	r1, [r2, #4]
 433              	.L35:
 131:Src/kbd/kbd.cpp **** 		}
 434              		.loc 1 131 4 is_stmt 1 view .LVU120
 131:Src/kbd/kbd.cpp **** 		}
 435              		.loc 1 131 28 is_stmt 0 view .LVU121
 436 006e 2C44     		add	r4, r4, r5
 437 0070 2279     		ldrb	r2, [r4, #4]	@ zero_extendqisi2
 438 0072 63F34512 		bfi	r2, r3, #5, #1
 439 0076 2271     		strb	r2, [r4, #4]
 440              	.LVL29:
 441              	.L27:
 118:Src/kbd/kbd.cpp **** 	{
 442              		.loc 1 118 2 discriminator 2 view .LVU122
 443 0078 0136     		adds	r6, r6, #1
 444              	.LVL30:
 118:Src/kbd/kbd.cpp **** 	{
 445              		.loc 1 118 20 discriminator 2 view .LVU123
 446 007a 052E     		cmp	r6, #5
ARM GAS  /var/folders/20/cstyxln53wn53rr40gj353bh0000gn/T//cc8cRXxB.s 			page 13


 447 007c CDD1     		bne	.L25
 448              	.LVL31:
 449              	.L24:
 118:Src/kbd/kbd.cpp **** 	{
 450              		.loc 1 118 20 discriminator 2 view .LVU124
 451              	.LBE22:
 167:Src/kbd/kbd.cpp **** 						continue;
 168:Src/kbd/kbd.cpp **** 					}
 169:Src/kbd/kbd.cpp **** 
 170:Src/kbd/kbd.cpp **** 				}
 171:Src/kbd/kbd.cpp **** 			}
 172:Src/kbd/kbd.cpp **** 		}
 173:Src/kbd/kbd.cpp **** 	}
 174:Src/kbd/kbd.cpp **** }
 452              		.loc 1 174 1 view .LVU125
 453 007e BDE8F883 		pop	{r3, r4, r5, r6, r7, r8, r9, pc}
 454              	.LVL32:
 455              	.L28:
 456              	.LBB39:
 457              	.LBB32:
 458              	.LBB31:
  75:Src/kbd/kbd.cpp **** }
 459              		.loc 1 75 35 view .LVU126
 460 0082 0033     		adds	r3, r3, #0
  75:Src/kbd/kbd.cpp **** }
 461              		.loc 1 75 35 view .LVU127
 462 0084 18BF     		it	ne
 463 0086 0123     		movne	r3, #1
 464              	.LVL33:
  75:Src/kbd/kbd.cpp **** }
 465              		.loc 1 75 35 view .LVU128
 466 0088 D5E7     		b	.L29
 467              	.LVL34:
 468              	.L32:
  75:Src/kbd/kbd.cpp **** }
 469              		.loc 1 75 35 view .LVU129
 470              	.LBE31:
 471              	.LBE32:
 135:Src/kbd/kbd.cpp **** 			{
 472              		.loc 1 135 4 is_stmt 1 view .LVU130
 473 008a C909     		lsrs	r1, r1, #7
 474 008c F4D0     		beq	.L27
 137:Src/kbd/kbd.cpp **** 				{
 475              		.loc 1 137 5 view .LVU131
 476 008e CBB9     		cbnz	r3, .L62
 154:Src/kbd/kbd.cpp **** 					{
 477              		.loc 1 154 6 view .LVU132
 154:Src/kbd/kbd.cpp **** 					{
 478              		.loc 1 154 21 is_stmt 0 view .LVU133
 479 0090 1379     		ldrb	r3, [r2, #4]	@ zero_extendqisi2
 480              	.LVL35:
 154:Src/kbd/kbd.cpp **** 					{
 481              		.loc 1 154 6 view .LVU134
 482 0092 5B07     		lsls	r3, r3, #29
 483 0094 37D5     		bpl	.L39
 156:Src/kbd/kbd.cpp **** 						_KBDSetKey(i, KEY);
 484              		.loc 1 156 7 is_stmt 1 view .LVU135
ARM GAS  /var/folders/20/cstyxln53wn53rr40gj353bh0000gn/T//cc8cRXxB.s 			page 14


 485              	.LVL36:
 486              	.LBB33:
 487              	.LBI33:
  14:Src/kbd/kbd.cpp **** {
 488              		.loc 1 14 20 view .LVU136
 489              	.LBB34:
  17:Src/kbd/kbd.cpp **** 	{
 490              		.loc 1 17 2 view .LVU137
  17:Src/kbd/kbd.cpp **** 	{
 491              		.loc 1 17 17 is_stmt 0 view .LVU138
 492 0096 D368     		ldr	r3, [r2, #12]
  17:Src/kbd/kbd.cpp **** 	{
 493              		.loc 1 17 2 view .LVU139
 494 0098 1BB1     		cbz	r3, .L40
  19:Src/kbd/kbd.cpp **** 	}
 495              		.loc 1 19 3 is_stmt 1 view .LVU140
  19:Src/kbd/kbd.cpp **** 	}
 496              		.loc 1 19 14 is_stmt 0 view .LVU141
 497 009a D368     		ldr	r3, [r2, #12]
  19:Src/kbd/kbd.cpp **** 	}
 498              		.loc 1 19 22 view .LVU142
 499 009c 0121     		movs	r1, #1
 500 009e 3046     		mov	r0, r6
 501 00a0 9847     		blx	r3
 502              	.LVL37:
 503              	.L40:
  19:Src/kbd/kbd.cpp **** 	}
 504              		.loc 1 19 22 view .LVU143
 505              	.LBE34:
 506              	.LBE33:
 157:Src/kbd/kbd.cpp **** 						Buttons[i].debounced = 0;
 507              		.loc 1 157 7 is_stmt 1 view .LVU144
 508              	.LBB35:
 509              	.LBI23:
  91:Src/kbd/kbd.cpp **** {
 510              		.loc 1 91 20 view .LVU145
 511              	.LBB25:
  93:Src/kbd/kbd.cpp **** }
 512              		.loc 1 93 2 view .LVU146
  93:Src/kbd/kbd.cpp **** }
 513              		.loc 1 93 20 is_stmt 0 view .LVU147
 514 00a2 2B19     		adds	r3, r5, r4
 515 00a4 83F80880 		strb	r8, [r3, #8]
 516              	.LVL38:
  93:Src/kbd/kbd.cpp **** }
 517              		.loc 1 93 20 view .LVU148
 518              	.LBE25:
 519              	.LBE35:
 158:Src/kbd/kbd.cpp **** 						Buttons[i].debouncing = 0;
 520              		.loc 1 158 7 is_stmt 1 view .LVU149
 158:Src/kbd/kbd.cpp **** 						Buttons[i].debouncing = 0;
 521              		.loc 1 158 28 is_stmt 0 view .LVU150
 522 00a8 1A79     		ldrb	r2, [r3, #4]	@ zero_extendqisi2
 523 00aa 6FF3C712 		bfc	r2, #7, #1
 524 00ae 1A71     		strb	r2, [r3, #4]
 159:Src/kbd/kbd.cpp **** 						Buttons[i].wait_for_realease = 0;
 525              		.loc 1 159 7 is_stmt 1 view .LVU151
ARM GAS  /var/folders/20/cstyxln53wn53rr40gj353bh0000gn/T//cc8cRXxB.s 			page 15


 159:Src/kbd/kbd.cpp **** 						Buttons[i].wait_for_realease = 0;
 526              		.loc 1 159 29 is_stmt 0 view .LVU152
 527 00b0 1A79     		ldrb	r2, [r3, #4]	@ zero_extendqisi2
 528 00b2 6FF38612 		bfc	r2, #6, #1
 529 00b6 1A71     		strb	r2, [r3, #4]
 160:Src/kbd/kbd.cpp **** 						Buttons[i].counter = DEBOUNCE;
 530              		.loc 1 160 7 is_stmt 1 view .LVU153
 160:Src/kbd/kbd.cpp **** 						Buttons[i].counter = DEBOUNCE;
 531              		.loc 1 160 36 is_stmt 0 view .LVU154
 532 00b8 1A79     		ldrb	r2, [r3, #4]	@ zero_extendqisi2
 533 00ba 6FF38202 		bfc	r2, #2, #1
 534 00be 1A71     		strb	r2, [r3, #4]
 161:Src/kbd/kbd.cpp **** 						continue;
 535              		.loc 1 161 7 is_stmt 1 view .LVU155
 161:Src/kbd/kbd.cpp **** 						continue;
 536              		.loc 1 161 26 is_stmt 0 view .LVU156
 537 00c0 DF80     		strh	r7, [r3, #6]	@ movhi
 162:Src/kbd/kbd.cpp **** 					}
 538              		.loc 1 162 7 is_stmt 1 view .LVU157
 539 00c2 D9E7     		b	.L27
 540              	.LVL39:
 541              	.L62:
 139:Src/kbd/kbd.cpp **** 					{
 542              		.loc 1 139 6 view .LVU158
 139:Src/kbd/kbd.cpp **** 					{
 543              		.loc 1 139 23 is_stmt 0 view .LVU159
 544 00c4 D388     		ldrh	r3, [r2, #6]
 545              	.LVL40:
 139:Src/kbd/kbd.cpp **** 					{
 546              		.loc 1 139 10 view .LVU160
 547 00c6 0133     		adds	r3, r3, #1
 548 00c8 9BB2     		uxth	r3, r3
 139:Src/kbd/kbd.cpp **** 					{
 549              		.loc 1 139 6 view .LVU161
 550 00ca BA2B     		cmp	r3, #186
 139:Src/kbd/kbd.cpp **** 					{
 551              		.loc 1 139 31 view .LVU162
 552 00cc D380     		strh	r3, [r2, #6]	@ movhi
 139:Src/kbd/kbd.cpp **** 					{
 553              		.loc 1 139 6 view .LVU163
 554 00ce D3D9     		bls	.L27
 141:Src/kbd/kbd.cpp **** 						_KBDSetKey(i, LONGKEY);
 555              		.loc 1 141 7 is_stmt 1 view .LVU164
 556              	.LVL41:
 557              	.LBB36:
 558              	.LBI36:
  14:Src/kbd/kbd.cpp **** {
 559              		.loc 1 14 20 view .LVU165
 560              	.LBB37:
  17:Src/kbd/kbd.cpp **** 	{
 561              		.loc 1 17 2 view .LVU166
  17:Src/kbd/kbd.cpp **** 	{
 562              		.loc 1 17 17 is_stmt 0 view .LVU167
 563 00d0 D368     		ldr	r3, [r2, #12]
  17:Src/kbd/kbd.cpp **** 	{
 564              		.loc 1 17 2 view .LVU168
 565 00d2 1BB1     		cbz	r3, .L38
ARM GAS  /var/folders/20/cstyxln53wn53rr40gj353bh0000gn/T//cc8cRXxB.s 			page 16


  19:Src/kbd/kbd.cpp **** 	}
 566              		.loc 1 19 3 is_stmt 1 view .LVU169
  19:Src/kbd/kbd.cpp **** 	}
 567              		.loc 1 19 14 is_stmt 0 view .LVU170
 568 00d4 D368     		ldr	r3, [r2, #12]
  19:Src/kbd/kbd.cpp **** 	}
 569              		.loc 1 19 22 view .LVU171
 570 00d6 0221     		movs	r1, #2
 571 00d8 3046     		mov	r0, r6
 572 00da 9847     		blx	r3
 573              	.LVL42:
 574              	.L38:
  19:Src/kbd/kbd.cpp **** 	}
 575              		.loc 1 19 22 view .LVU172
 576              	.LBE37:
 577              	.LBE36:
 142:Src/kbd/kbd.cpp **** 						Buttons[i].debounced = 0;
 578              		.loc 1 142 7 is_stmt 1 view .LVU173
 579              	.LBB38:
 580              	.LBI26:
  91:Src/kbd/kbd.cpp **** {
 581              		.loc 1 91 20 view .LVU174
 582              	.LBB28:
  93:Src/kbd/kbd.cpp **** }
 583              		.loc 1 93 2 view .LVU175
  93:Src/kbd/kbd.cpp **** }
 584              		.loc 1 93 20 is_stmt 0 view .LVU176
 585 00dc 2B19     		adds	r3, r5, r4
 586 00de 83F80890 		strb	r9, [r3, #8]
 587              	.LVL43:
  93:Src/kbd/kbd.cpp **** }
 588              		.loc 1 93 20 view .LVU177
 589              	.LBE28:
 590              	.LBE38:
 143:Src/kbd/kbd.cpp **** 						Buttons[i].debouncing = 0;
 591              		.loc 1 143 7 is_stmt 1 view .LVU178
 143:Src/kbd/kbd.cpp **** 						Buttons[i].debouncing = 0;
 592              		.loc 1 143 28 is_stmt 0 view .LVU179
 593 00e2 1A79     		ldrb	r2, [r3, #4]	@ zero_extendqisi2
 594 00e4 6FF3C712 		bfc	r2, #7, #1
 595 00e8 1A71     		strb	r2, [r3, #4]
 144:Src/kbd/kbd.cpp **** 						Buttons[i].wait_for_realease = 0;
 596              		.loc 1 144 7 is_stmt 1 view .LVU180
 144:Src/kbd/kbd.cpp **** 						Buttons[i].wait_for_realease = 0;
 597              		.loc 1 144 29 is_stmt 0 view .LVU181
 598 00ea 1A79     		ldrb	r2, [r3, #4]	@ zero_extendqisi2
 599 00ec 6FF38612 		bfc	r2, #6, #1
 600 00f0 1A71     		strb	r2, [r3, #4]
 145:Src/kbd/kbd.cpp **** 						Buttons[i].wait_for_DC = 0;
 601              		.loc 1 145 7 is_stmt 1 view .LVU182
 145:Src/kbd/kbd.cpp **** 						Buttons[i].wait_for_DC = 0;
 602              		.loc 1 145 36 is_stmt 0 view .LVU183
 603 00f2 1A79     		ldrb	r2, [r3, #4]	@ zero_extendqisi2
 604 00f4 6FF38202 		bfc	r2, #2, #1
 605 00f8 1A71     		strb	r2, [r3, #4]
 146:Src/kbd/kbd.cpp **** 						Buttons[i].counter = DEBOUNCE;
 606              		.loc 1 146 7 is_stmt 1 view .LVU184
ARM GAS  /var/folders/20/cstyxln53wn53rr40gj353bh0000gn/T//cc8cRXxB.s 			page 17


 146:Src/kbd/kbd.cpp **** 						Buttons[i].counter = DEBOUNCE;
 607              		.loc 1 146 30 is_stmt 0 view .LVU185
 608 00fa 1A79     		ldrb	r2, [r3, #4]	@ zero_extendqisi2
 609 00fc 6FF30412 		bfc	r2, #4, #1
 610 0100 1A71     		strb	r2, [r3, #4]
 147:Src/kbd/kbd.cpp **** 						continue;
 611              		.loc 1 147 7 is_stmt 1 view .LVU186
 147:Src/kbd/kbd.cpp **** 						continue;
 612              		.loc 1 147 26 is_stmt 0 view .LVU187
 613 0102 DF80     		strh	r7, [r3, #6]	@ movhi
 148:Src/kbd/kbd.cpp **** 					}
 614              		.loc 1 148 7 is_stmt 1 view .LVU188
 615 0104 B8E7     		b	.L27
 616              	.L39:
 166:Src/kbd/kbd.cpp **** 						continue;
 617              		.loc 1 166 7 discriminator 2 view .LVU189
 166:Src/kbd/kbd.cpp **** 						continue;
 618              		.loc 1 166 26 is_stmt 0 discriminator 2 view .LVU190
 619 0106 D780     		strh	r7, [r2, #6]	@ movhi
 167:Src/kbd/kbd.cpp **** 					}
 620              		.loc 1 167 7 is_stmt 1 discriminator 2 view .LVU191
 621 0108 B6E7     		b	.L27
 622              	.L64:
 623 010a 00BF     		.align	2
 624              	.L63:
 625 010c 00000000 		.word	.LANCHOR0
 626              	.LBE39:
 627              		.cfi_endproc
 628              	.LFE71:
 629              		.fnend
 631              		.section	.bss._ZL7Buttons,"aw",%nobits
 632              		.align	2
 633              		.set	.LANCHOR0,. + 0
 636              	_ZL7Buttons:
 637 0000 00000000 		.space	80
 637      00000000 
 637      00000000 
 637      00000000 
 637      00000000 
 638              		.text
 639              	.Letext0:
 640              		.file 2 "/usr/local/gcc-arm-none-eabi-8-2019-q3-update/arm-none-eabi/include/machine/_default_type
 641              		.file 3 "/usr/local/gcc-arm-none-eabi-8-2019-q3-update/arm-none-eabi/include/sys/_stdint.h"
 642              		.file 4 "Drivers/CMSIS/Include/core_cm3.h"
 643              		.file 5 "Drivers/CMSIS/Device/ST/STM32F1xx/Include/system_stm32f1xx.h"
 644              		.file 6 "Drivers/CMSIS/Device/ST/STM32F1xx/Include/stm32f103xb.h"
 645              		.file 7 "Drivers/CMSIS/Device/ST/STM32F1xx/Include/stm32f1xx.h"
 646              		.file 8 "Drivers/STM32F1xx_HAL_Driver/Inc/stm32f1xx_hal.h"
 647              		.file 9 "Src/kbd/kbd.h"
ARM GAS  /var/folders/20/cstyxln53wn53rr40gj353bh0000gn/T//cc8cRXxB.s 			page 18

