ARM GAS  /var/folders/20/cstyxln53wn53rr40gj353bh0000gn/T//ccSZWiEf.s 			page 1


   1              		.cpu cortex-m3
   2              		.eabi_attribute 20, 1
   3              		.eabi_attribute 21, 1
   4              		.eabi_attribute 23, 3
   5              		.eabi_attribute 24, 1
   6              		.eabi_attribute 25, 1
   7              		.eabi_attribute 26, 1
   8              		.eabi_attribute 30, 2
   9              		.eabi_attribute 34, 1
  10              		.eabi_attribute 18, 4
  11              		.file	"main.cpp"
  12              		.text
  13              	.Ltext0:
  14              		.cfi_sections	.debug_frame
  15              		.section	.text._Z18SystemClock_Configv,"ax",%progbits
  16              		.align	1
  17              		.p2align 2,,3
  18              		.global	_Z18SystemClock_Configv
  19              		.arch armv7-m
  20              		.syntax unified
  21              		.thumb
  22              		.thumb_func
  23              		.fpu softvfp
  25              	_Z18SystemClock_Configv:
  26              		.fnstart
  27              	.LFB534:
  28              		.file 1 "Src/main.cpp"
   1:Src/main.cpp  **** /* USER CODE BEGIN Header */
   2:Src/main.cpp  **** /**
   3:Src/main.cpp  ****   ******************************************************************************
   4:Src/main.cpp  ****   * @file           : main.c
   5:Src/main.cpp  ****   * @brief          : Main program body
   6:Src/main.cpp  ****   ******************************************************************************
   7:Src/main.cpp  ****   * @attention
   8:Src/main.cpp  ****   *
   9:Src/main.cpp  ****   * <h2><center>&copy; Copyright (c) 2019 STMicroelectronics.
  10:Src/main.cpp  ****   * All rights reserved.</center></h2>
  11:Src/main.cpp  ****   *
  12:Src/main.cpp  ****   * This software component is licensed by ST under BSD 3-Clause license,
  13:Src/main.cpp  ****   * the "License"; You may not use this file except in compliance with the
  14:Src/main.cpp  ****   * License. You may obtain a copy of the License at:
  15:Src/main.cpp  ****   *                        opensource.org/licenses/BSD-3-Clause
  16:Src/main.cpp  ****   *
  17:Src/main.cpp  ****   ******************************************************************************
  18:Src/main.cpp  ****   */
  19:Src/main.cpp  **** /* USER CODE END Header */
  20:Src/main.cpp  **** 
  21:Src/main.cpp  **** /* Includes ------------------------------------------------------------------*/
  22:Src/main.cpp  **** #include "main.h"
  23:Src/main.cpp  **** 
  24:Src/main.cpp  **** /* Private includes ----------------------------------------------------------*/
  25:Src/main.cpp  **** /* USER CODE BEGIN Includes */
  26:Src/main.cpp  **** #include "VFO.h"
  27:Src/main.cpp  **** /* USER CODE END Includes */
  28:Src/main.cpp  **** 
  29:Src/main.cpp  **** /* Private typedef -----------------------------------------------------------*/
  30:Src/main.cpp  **** /* USER CODE BEGIN PTD */
ARM GAS  /var/folders/20/cstyxln53wn53rr40gj353bh0000gn/T//ccSZWiEf.s 			page 2


  31:Src/main.cpp  **** 
  32:Src/main.cpp  **** /* USER CODE END PTD */
  33:Src/main.cpp  **** 
  34:Src/main.cpp  **** /* Private define ------------------------------------------------------------*/
  35:Src/main.cpp  **** /* USER CODE BEGIN PD */
  36:Src/main.cpp  **** 
  37:Src/main.cpp  **** /* USER CODE END PD */
  38:Src/main.cpp  **** 
  39:Src/main.cpp  **** /* Private macro -------------------------------------------------------------*/
  40:Src/main.cpp  **** /* USER CODE BEGIN PM */
  41:Src/main.cpp  **** 
  42:Src/main.cpp  **** /* USER CODE END PM */
  43:Src/main.cpp  **** 
  44:Src/main.cpp  **** /* Private variables ---------------------------------------------------------*/
  45:Src/main.cpp  **** 
  46:Src/main.cpp  **** I2C_HandleTypeDef hi2c2;
  47:Src/main.cpp  **** 
  48:Src/main.cpp  **** TIM_HandleTypeDef htim3;
  49:Src/main.cpp  **** TIM_HandleTypeDef htim4;
  50:Src/main.cpp  **** 
  51:Src/main.cpp  **** /* USER CODE BEGIN PV */
  52:Src/main.cpp  **** 
  53:Src/main.cpp  **** /* USER CODE END PV */
  54:Src/main.cpp  **** 
  55:Src/main.cpp  **** /* Private function prototypes -----------------------------------------------*/
  56:Src/main.cpp  **** void SystemClock_Config(void);
  57:Src/main.cpp  **** static void MX_GPIO_Init(void);
  58:Src/main.cpp  **** static void MX_TIM4_Init(void);
  59:Src/main.cpp  **** static void MX_SPI2_Init(void);
  60:Src/main.cpp  **** static void MX_I2C2_Init(void);
  61:Src/main.cpp  **** static void MX_ADC1_Init(void);
  62:Src/main.cpp  **** static void MX_TIM3_Init(void);
  63:Src/main.cpp  **** /* USER CODE BEGIN PFP */
  64:Src/main.cpp  **** 
  65:Src/main.cpp  **** /* USER CODE END PFP */
  66:Src/main.cpp  **** 
  67:Src/main.cpp  **** /* Private user code ---------------------------------------------------------*/
  68:Src/main.cpp  **** /* USER CODE BEGIN 0 */
  69:Src/main.cpp  **** 
  70:Src/main.cpp  **** 
  71:Src/main.cpp  **** /* USER CODE END 0 */
  72:Src/main.cpp  **** 
  73:Src/main.cpp  **** /**
  74:Src/main.cpp  ****   * @brief  The application entry point.
  75:Src/main.cpp  ****   * @retval int
  76:Src/main.cpp  ****   */
  77:Src/main.cpp  **** int main(void)
  78:Src/main.cpp  **** {
  79:Src/main.cpp  ****   /* USER CODE BEGIN 1 */
  80:Src/main.cpp  **** 
  81:Src/main.cpp  ****   /* USER CODE END 1 */
  82:Src/main.cpp  ****   
  83:Src/main.cpp  **** 
  84:Src/main.cpp  ****   /* MCU Configuration--------------------------------------------------------*/
  85:Src/main.cpp  **** 
  86:Src/main.cpp  ****   /* Reset of all peripherals, Initializes the Flash interface and the Systick. */
  87:Src/main.cpp  ****   HAL_Init();
ARM GAS  /var/folders/20/cstyxln53wn53rr40gj353bh0000gn/T//ccSZWiEf.s 			page 3


  88:Src/main.cpp  **** 
  89:Src/main.cpp  ****   /* USER CODE BEGIN Init */
  90:Src/main.cpp  **** 
  91:Src/main.cpp  ****   /* USER CODE END Init */
  92:Src/main.cpp  **** 
  93:Src/main.cpp  ****   /* Configure the system clock */
  94:Src/main.cpp  ****   SystemClock_Config();
  95:Src/main.cpp  **** 
  96:Src/main.cpp  ****   /* USER CODE BEGIN SysInit */
  97:Src/main.cpp  **** 
  98:Src/main.cpp  ****   /* USER CODE END SysInit */
  99:Src/main.cpp  **** 
 100:Src/main.cpp  ****   /* Initialize all configured peripherals */
 101:Src/main.cpp  ****   MX_GPIO_Init();
 102:Src/main.cpp  ****   MX_TIM4_Init();
 103:Src/main.cpp  ****   MX_SPI2_Init();
 104:Src/main.cpp  ****   MX_I2C2_Init();
 105:Src/main.cpp  ****   MX_ADC1_Init();
 106:Src/main.cpp  ****   MX_TIM3_Init();
 107:Src/main.cpp  ****   /* USER CODE BEGIN 2 */
 108:Src/main.cpp  **** 
 109:Src/main.cpp  ****   vfoSetup();
 110:Src/main.cpp  **** 
 111:Src/main.cpp  ****   /* USER CODE END 2 */
 112:Src/main.cpp  **** 
 113:Src/main.cpp  ****   /* Infinite loop */
 114:Src/main.cpp  ****   /* USER CODE BEGIN WHILE */
 115:Src/main.cpp  ****   while (1)
 116:Src/main.cpp  ****   {
 117:Src/main.cpp  **** 	  vfoLoopIteration();
 118:Src/main.cpp  **** 
 119:Src/main.cpp  ****     /* USER CODE END WHILE */
 120:Src/main.cpp  **** 
 121:Src/main.cpp  ****     /* USER CODE BEGIN 3 */
 122:Src/main.cpp  ****   }
 123:Src/main.cpp  ****   /* USER CODE END 3 */
 124:Src/main.cpp  **** }
 125:Src/main.cpp  **** 
 126:Src/main.cpp  **** 
 127:Src/main.cpp  **** /**
 128:Src/main.cpp  ****   * @brief System Clock Configuration
 129:Src/main.cpp  ****   * @retval None
 130:Src/main.cpp  ****   */
 131:Src/main.cpp  **** void SystemClock_Config(void)
 132:Src/main.cpp  **** {
  29              		.loc 1 132 1 view -0
  30              		.cfi_startproc
  31              		@ args = 0, pretend = 0, frame = 80
  32              		@ frame_needed = 0, uses_anonymous_args = 0
 133:Src/main.cpp  ****   RCC_OscInitTypeDef RCC_OscInitStruct = {0};
  33              		.loc 1 133 3 view .LVU1
 132:Src/main.cpp  ****   RCC_OscInitTypeDef RCC_OscInitStruct = {0};
  34              		.loc 1 132 1 is_stmt 0 view .LVU2
  35 0000 F0B5     		push	{r4, r5, r6, r7, lr}
  36              		.save {r4, r5, r6, r7, lr}
  37              	.LCFI0:
  38              		.cfi_def_cfa_offset 20
ARM GAS  /var/folders/20/cstyxln53wn53rr40gj353bh0000gn/T//ccSZWiEf.s 			page 4


  39              		.cfi_offset 4, -20
  40              		.cfi_offset 5, -16
  41              		.cfi_offset 6, -12
  42              		.cfi_offset 7, -8
  43              		.cfi_offset 14, -4
 134:Src/main.cpp  ****   RCC_ClkInitTypeDef RCC_ClkInitStruct = {0};
 135:Src/main.cpp  ****   RCC_PeriphCLKInitTypeDef PeriphClkInit = {0};
 136:Src/main.cpp  **** 
 137:Src/main.cpp  ****   /** Initializes the CPU, AHB and APB busses clocks 
 138:Src/main.cpp  ****   */
 139:Src/main.cpp  ****   RCC_OscInitStruct.OscillatorType = RCC_OSCILLATORTYPE_HSE;
 140:Src/main.cpp  ****   RCC_OscInitStruct.HSEState = RCC_HSE_ON;
 141:Src/main.cpp  ****   RCC_OscInitStruct.HSEPredivValue = RCC_HSE_PREDIV_DIV1;
 142:Src/main.cpp  ****   RCC_OscInitStruct.HSIState = RCC_HSI_ON;
  44              		.loc 1 142 30 view .LVU3
  45 0002 0121     		movs	r1, #1
 133:Src/main.cpp  ****   RCC_ClkInitTypeDef RCC_ClkInitStruct = {0};
  46              		.loc 1 133 22 view .LVU4
  47 0004 0024     		movs	r4, #0
 143:Src/main.cpp  ****   RCC_OscInitStruct.PLL.PLLState = RCC_PLL_ON;
  48              		.loc 1 143 34 view .LVU5
  49 0006 0225     		movs	r5, #2
 144:Src/main.cpp  ****   RCC_OscInitStruct.PLL.PLLSource = RCC_PLLSOURCE_HSE;
  50              		.loc 1 144 35 view .LVU6
  51 0008 4FF48032 		mov	r2, #65536
 145:Src/main.cpp  ****   RCC_OscInitStruct.PLL.PLLMUL = RCC_PLL_MUL9;
  52              		.loc 1 145 32 view .LVU7
  53 000c 4FF4E013 		mov	r3, #1835008
 139:Src/main.cpp  ****   RCC_OscInitStruct.HSEState = RCC_HSE_ON;
  54              		.loc 1 139 36 view .LVU8
  55 0010 0126     		movs	r6, #1
  56 0012 4FF48037 		mov	r7, #65536
 132:Src/main.cpp  ****   RCC_OscInitTypeDef RCC_OscInitStruct = {0};
  57              		.loc 1 132 1 view .LVU9
  58              		.pad #84
  59 0016 95B0     		sub	sp, sp, #84
  60              	.LCFI1:
  61              		.cfi_def_cfa_offset 104
 146:Src/main.cpp  ****   if (HAL_RCC_OscConfig(&RCC_OscInitStruct) != HAL_OK)
  62              		.loc 1 146 24 view .LVU10
  63 0018 0AA8     		add	r0, sp, #40
 139:Src/main.cpp  ****   RCC_OscInitStruct.HSEState = RCC_HSE_ON;
  64              		.loc 1 139 36 view .LVU11
  65 001a CDE90A67 		strd	r6, [sp, #40]
 142:Src/main.cpp  ****   RCC_OscInitStruct.PLL.PLLState = RCC_PLL_ON;
  66              		.loc 1 142 30 view .LVU12
  67 001e 0E91     		str	r1, [sp, #56]
 144:Src/main.cpp  ****   RCC_OscInitStruct.PLL.PLLMUL = RCC_PLL_MUL9;
  68              		.loc 1 144 35 view .LVU13
  69 0020 CDE91152 		strd	r5, r2, [sp, #68]
 145:Src/main.cpp  ****   if (HAL_RCC_OscConfig(&RCC_OscInitStruct) != HAL_OK)
  70              		.loc 1 145 32 view .LVU14
  71 0024 1393     		str	r3, [sp, #76]
 133:Src/main.cpp  ****   RCC_ClkInitTypeDef RCC_ClkInitStruct = {0};
  72              		.loc 1 133 22 view .LVU15
  73 0026 0C94     		str	r4, [sp, #48]
 134:Src/main.cpp  ****   RCC_PeriphCLKInitTypeDef PeriphClkInit = {0};
ARM GAS  /var/folders/20/cstyxln53wn53rr40gj353bh0000gn/T//ccSZWiEf.s 			page 5


  74              		.loc 1 134 22 view .LVU16
  75 0028 0494     		str	r4, [sp, #16]
 135:Src/main.cpp  **** 
  76              		.loc 1 135 28 view .LVU17
  77 002a 0094     		str	r4, [sp]
 133:Src/main.cpp  ****   RCC_ClkInitTypeDef RCC_ClkInitStruct = {0};
  78              		.loc 1 133 22 view .LVU18
  79 002c 0D94     		str	r4, [sp, #52]
  80 002e CDE90F44 		strd	r4, r4, [sp, #60]
 134:Src/main.cpp  ****   RCC_PeriphCLKInitTypeDef PeriphClkInit = {0};
  81              		.loc 1 134 3 is_stmt 1 view .LVU19
 134:Src/main.cpp  ****   RCC_PeriphCLKInitTypeDef PeriphClkInit = {0};
  82              		.loc 1 134 22 is_stmt 0 view .LVU20
  83 0032 CDE90544 		strd	r4, r4, [sp, #20]
  84 0036 CDE90744 		strd	r4, r4, [sp, #28]
 135:Src/main.cpp  **** 
  85              		.loc 1 135 3 is_stmt 1 view .LVU21
 135:Src/main.cpp  **** 
  86              		.loc 1 135 28 is_stmt 0 view .LVU22
  87 003a CDE90144 		strd	r4, r4, [sp, #4]
  88 003e 0394     		str	r4, [sp, #12]
 139:Src/main.cpp  ****   RCC_OscInitStruct.HSEState = RCC_HSE_ON;
  89              		.loc 1 139 3 is_stmt 1 view .LVU23
 140:Src/main.cpp  ****   RCC_OscInitStruct.HSEPredivValue = RCC_HSE_PREDIV_DIV1;
  90              		.loc 1 140 3 view .LVU24
 141:Src/main.cpp  ****   RCC_OscInitStruct.HSIState = RCC_HSI_ON;
  91              		.loc 1 141 3 view .LVU25
 142:Src/main.cpp  ****   RCC_OscInitStruct.PLL.PLLState = RCC_PLL_ON;
  92              		.loc 1 142 3 view .LVU26
 143:Src/main.cpp  ****   RCC_OscInitStruct.PLL.PLLSource = RCC_PLLSOURCE_HSE;
  93              		.loc 1 143 3 view .LVU27
 145:Src/main.cpp  ****   if (HAL_RCC_OscConfig(&RCC_OscInitStruct) != HAL_OK)
  94              		.loc 1 145 3 view .LVU28
  95              		.loc 1 146 3 view .LVU29
 147:Src/main.cpp  ****   {
 148:Src/main.cpp  ****     Error_Handler();
 149:Src/main.cpp  ****   }
 150:Src/main.cpp  ****   /** Initializes the CPU, AHB and APB busses clocks 
 151:Src/main.cpp  ****   */
 152:Src/main.cpp  ****   RCC_ClkInitStruct.ClockType = RCC_CLOCKTYPE_HCLK|RCC_CLOCKTYPE_SYSCLK
  96              		.loc 1 152 31 is_stmt 0 view .LVU30
  97 0040 0F26     		movs	r6, #15
 146:Src/main.cpp  ****   {
  98              		.loc 1 146 24 view .LVU31
  99 0042 FFF7FEFF 		bl	HAL_RCC_OscConfig
 100              	.LVL0:
 101              		.loc 1 152 3 is_stmt 1 view .LVU32
 153:Src/main.cpp  ****                               |RCC_CLOCKTYPE_PCLK1|RCC_CLOCKTYPE_PCLK2;
 154:Src/main.cpp  ****   RCC_ClkInitStruct.SYSCLKSource = RCC_SYSCLKSOURCE_PLLCLK;
 102              		.loc 1 154 3 view .LVU33
 155:Src/main.cpp  ****   RCC_ClkInitStruct.AHBCLKDivider = RCC_SYSCLK_DIV1;
 103              		.loc 1 155 3 view .LVU34
 156:Src/main.cpp  ****   RCC_ClkInitStruct.APB1CLKDivider = RCC_HCLK_DIV2;
 104              		.loc 1 156 3 view .LVU35
 152:Src/main.cpp  ****                               |RCC_CLOCKTYPE_PCLK1|RCC_CLOCKTYPE_PCLK2;
 105              		.loc 1 152 31 is_stmt 0 view .LVU36
 106 0046 0227     		movs	r7, #2
ARM GAS  /var/folders/20/cstyxln53wn53rr40gj353bh0000gn/T//ccSZWiEf.s 			page 6


 107 0048 0022     		movs	r2, #0
 108 004a 4FF48063 		mov	r3, #1024
 157:Src/main.cpp  ****   RCC_ClkInitStruct.APB2CLKDivider = RCC_HCLK_DIV1;
 158:Src/main.cpp  **** 
 159:Src/main.cpp  ****   if (HAL_RCC_ClockConfig(&RCC_ClkInitStruct, FLASH_LATENCY_2) != HAL_OK)
 109              		.loc 1 159 26 view .LVU37
 110 004e 2946     		mov	r1, r5
 111 0050 04A8     		add	r0, sp, #16
 152:Src/main.cpp  ****                               |RCC_CLOCKTYPE_PCLK1|RCC_CLOCKTYPE_PCLK2;
 112              		.loc 1 152 31 view .LVU38
 113 0052 CDE90623 		strd	r2, [sp, #24]
 157:Src/main.cpp  ****   RCC_ClkInitStruct.APB2CLKDivider = RCC_HCLK_DIV1;
 114              		.loc 1 157 3 is_stmt 1 view .LVU39
 115              		.loc 1 159 3 view .LVU40
 157:Src/main.cpp  ****   RCC_ClkInitStruct.APB2CLKDivider = RCC_HCLK_DIV1;
 116              		.loc 1 157 36 is_stmt 0 view .LVU41
 117 0056 0894     		str	r4, [sp, #32]
 152:Src/main.cpp  ****                               |RCC_CLOCKTYPE_PCLK1|RCC_CLOCKTYPE_PCLK2;
 118              		.loc 1 152 31 view .LVU42
 119 0058 CDE90467 		strd	r6, [sp, #16]
 120              		.loc 1 159 26 view .LVU43
 121 005c FFF7FEFF 		bl	HAL_RCC_ClockConfig
 122              	.LVL1:
 160:Src/main.cpp  ****   {
 161:Src/main.cpp  ****     Error_Handler();
 162:Src/main.cpp  ****   }
 163:Src/main.cpp  ****   PeriphClkInit.PeriphClockSelection = RCC_PERIPHCLK_ADC;
 123              		.loc 1 163 3 is_stmt 1 view .LVU44
 164:Src/main.cpp  ****   PeriphClkInit.AdcClockSelection = RCC_ADCPCLK2_DIV8;
 124              		.loc 1 164 35 is_stmt 0 view .LVU45
 125 0060 4FF44043 		mov	r3, #49152
 165:Src/main.cpp  ****   if (HAL_RCCEx_PeriphCLKConfig(&PeriphClkInit) != HAL_OK)
 126              		.loc 1 165 32 view .LVU46
 127 0064 6846     		mov	r0, sp
 163:Src/main.cpp  ****   PeriphClkInit.AdcClockSelection = RCC_ADCPCLK2_DIV8;
 128              		.loc 1 163 38 view .LVU47
 129 0066 0095     		str	r5, [sp]
 164:Src/main.cpp  ****   PeriphClkInit.AdcClockSelection = RCC_ADCPCLK2_DIV8;
 130              		.loc 1 164 3 is_stmt 1 view .LVU48
 164:Src/main.cpp  ****   PeriphClkInit.AdcClockSelection = RCC_ADCPCLK2_DIV8;
 131              		.loc 1 164 35 is_stmt 0 view .LVU49
 132 0068 0293     		str	r3, [sp, #8]
 133              		.loc 1 165 3 is_stmt 1 view .LVU50
 134              		.loc 1 165 32 is_stmt 0 view .LVU51
 135 006a FFF7FEFF 		bl	HAL_RCCEx_PeriphCLKConfig
 136              	.LVL2:
 166:Src/main.cpp  ****   {
 167:Src/main.cpp  ****     Error_Handler();
 168:Src/main.cpp  ****   }
 169:Src/main.cpp  **** }
 137              		.loc 1 169 1 view .LVU52
 138 006e 15B0     		add	sp, sp, #84
 139              	.LCFI2:
 140              		.cfi_def_cfa_offset 20
 141              		@ sp needed
 142 0070 F0BD     		pop	{r4, r5, r6, r7, pc}
 143              		.cfi_endproc
ARM GAS  /var/folders/20/cstyxln53wn53rr40gj353bh0000gn/T//ccSZWiEf.s 			page 7


 144              	.LFE534:
 145              		.fnend
 147 0072 00BF     		.section	.text.startup.main,"ax",%progbits
 148              		.align	1
 149              		.p2align 2,,3
 150              		.global	main
 151              		.syntax unified
 152              		.thumb
 153              		.thumb_func
 154              		.fpu softvfp
 156              	main:
 157              		.fnstart
 158              	.LFB533:
  78:Src/main.cpp  ****   /* USER CODE BEGIN 1 */
 159              		.loc 1 78 1 is_stmt 1 view -0
 160              		.cfi_startproc
 161              		@ args = 0, pretend = 0, frame = 112
 162              		@ frame_needed = 0, uses_anonymous_args = 0
  87:Src/main.cpp  **** 
 163              		.loc 1 87 3 view .LVU54
  78:Src/main.cpp  ****   /* USER CODE BEGIN 1 */
 164              		.loc 1 78 1 is_stmt 0 view .LVU55
 165 0000 2DE9F04F 		push	{r4, r5, r6, r7, r8, r9, r10, fp, lr}
 166              		.save {r4, r5, r6, r7, r8, r9, r10, fp, lr}
 167              	.LCFI3:
 168              		.cfi_def_cfa_offset 36
 169              		.cfi_offset 4, -36
 170              		.cfi_offset 5, -32
 171              		.cfi_offset 6, -28
 172              		.cfi_offset 7, -24
 173              		.cfi_offset 8, -20
 174              		.cfi_offset 9, -16
 175              		.cfi_offset 10, -12
 176              		.cfi_offset 11, -8
 177              		.cfi_offset 14, -4
 178              	.LBB87:
 179              	.LBB88:
 170:Src/main.cpp  **** 
 171:Src/main.cpp  **** /**
 172:Src/main.cpp  ****   * @brief ADC1 Initialization Function
 173:Src/main.cpp  ****   * @param None
 174:Src/main.cpp  ****   * @retval None
 175:Src/main.cpp  ****   */
 176:Src/main.cpp  **** static void MX_ADC1_Init(void)
 177:Src/main.cpp  **** {
 178:Src/main.cpp  **** 
 179:Src/main.cpp  ****   /* USER CODE BEGIN ADC1_Init 0 */
 180:Src/main.cpp  **** 
 181:Src/main.cpp  ****   /* USER CODE END ADC1_Init 0 */
 182:Src/main.cpp  **** 
 183:Src/main.cpp  ****   LL_ADC_InitTypeDef ADC_InitStruct = {0};
 184:Src/main.cpp  ****   LL_ADC_CommonInitTypeDef ADC_CommonInitStruct = {0};
 185:Src/main.cpp  ****   LL_ADC_REG_InitTypeDef ADC_REG_InitStruct = {0};
 186:Src/main.cpp  **** 
 187:Src/main.cpp  ****   LL_GPIO_InitTypeDef GPIO_InitStruct = {0};
 188:Src/main.cpp  **** 
 189:Src/main.cpp  ****   /* Peripheral clock enable */
ARM GAS  /var/folders/20/cstyxln53wn53rr40gj353bh0000gn/T//ccSZWiEf.s 			page 8


 190:Src/main.cpp  ****   LL_APB2_GRP1_EnableClock(LL_APB2_GRP1_PERIPH_ADC1);
 191:Src/main.cpp  ****   
 192:Src/main.cpp  ****   LL_APB2_GRP1_EnableClock(LL_APB2_GRP1_PERIPH_GPIOA);
 193:Src/main.cpp  ****   /**ADC1 GPIO Configuration  
 194:Src/main.cpp  ****   PA3   ------> ADC1_IN3
 195:Src/main.cpp  ****   PA4   ------> ADC1_IN4 
 196:Src/main.cpp  ****   */
 197:Src/main.cpp  ****   GPIO_InitStruct.Pin = LL_GPIO_PIN_3|LL_GPIO_PIN_4;
 198:Src/main.cpp  ****   GPIO_InitStruct.Mode = LL_GPIO_MODE_ANALOG;
 199:Src/main.cpp  ****   LL_GPIO_Init(GPIOA, &GPIO_InitStruct);
 200:Src/main.cpp  **** 
 201:Src/main.cpp  ****   /* USER CODE BEGIN ADC1_Init 1 */
 202:Src/main.cpp  **** 
 203:Src/main.cpp  ****   /* USER CODE END ADC1_Init 1 */
 204:Src/main.cpp  ****   /** Common config 
 205:Src/main.cpp  ****   */
 206:Src/main.cpp  ****   ADC_InitStruct.DataAlignment = LL_ADC_DATA_ALIGN_RIGHT;
 207:Src/main.cpp  ****   ADC_InitStruct.SequencersScanMode = LL_ADC_SEQ_SCAN_DISABLE;
 208:Src/main.cpp  ****   LL_ADC_Init(ADC1, &ADC_InitStruct);
 209:Src/main.cpp  ****   ADC_CommonInitStruct.Multimode = LL_ADC_MULTI_INDEPENDENT;
 210:Src/main.cpp  ****   LL_ADC_CommonInit(__LL_ADC_COMMON_INSTANCE(ADC1), &ADC_CommonInitStruct);
 211:Src/main.cpp  ****   ADC_REG_InitStruct.TriggerSource = LL_ADC_REG_TRIG_SOFTWARE;
 212:Src/main.cpp  ****   ADC_REG_InitStruct.SequencerLength = LL_ADC_REG_SEQ_SCAN_DISABLE;
 213:Src/main.cpp  ****   ADC_REG_InitStruct.SequencerDiscont = LL_ADC_REG_SEQ_DISCONT_DISABLE;
 214:Src/main.cpp  ****   ADC_REG_InitStruct.ContinuousMode = LL_ADC_REG_CONV_SINGLE;
 215:Src/main.cpp  ****   ADC_REG_InitStruct.DMATransfer = LL_ADC_REG_DMA_TRANSFER_NONE;
 216:Src/main.cpp  ****   LL_ADC_REG_Init(ADC1, &ADC_REG_InitStruct);
 217:Src/main.cpp  ****   /** Configure Regular Channel 
 218:Src/main.cpp  ****   */
 219:Src/main.cpp  ****   LL_ADC_REG_SetSequencerRanks(ADC1, LL_ADC_REG_RANK_1, LL_ADC_CHANNEL_3);
 220:Src/main.cpp  ****   LL_ADC_SetChannelSamplingTime(ADC1, LL_ADC_CHANNEL_3, LL_ADC_SAMPLINGTIME_1CYCLE_5);
 221:Src/main.cpp  ****   /* USER CODE BEGIN ADC1_Init 2 */
 222:Src/main.cpp  **** 
 223:Src/main.cpp  ****   /* USER CODE END ADC1_Init 2 */
 224:Src/main.cpp  **** }
 225:Src/main.cpp  **** 
 226:Src/main.cpp  **** /**
 227:Src/main.cpp  ****   * @brief I2C2 Initialization Function
 228:Src/main.cpp  ****   * @param None
 229:Src/main.cpp  ****   * @retval None
 230:Src/main.cpp  ****   */
 231:Src/main.cpp  **** static void MX_I2C2_Init(void)
 232:Src/main.cpp  **** {
 233:Src/main.cpp  **** 	/* Peripheral clock enable */
 234:Src/main.cpp  **** 	__HAL_RCC_I2C2_CLK_ENABLE();
 235:Src/main.cpp  **** 
 236:Src/main.cpp  **** 	/* DMA1 clock enable */
 237:Src/main.cpp  **** 	__HAL_RCC_DMA1_CLK_ENABLE();
 238:Src/main.cpp  **** 
 239:Src/main.cpp  ****   /* USER CODE BEGIN I2C2_Init 0 */
 240:Src/main.cpp  ****   GPIO_InitTypeDef GPIO_InitStruct = {0};
 241:Src/main.cpp  ****   GPIO_InitStruct.Pin = I2C2_SCL_Pin|I2C2_SDA_Pin;
 242:Src/main.cpp  ****   GPIO_InitStruct.Mode = GPIO_MODE_AF_PP;
 243:Src/main.cpp  ****   GPIO_InitStruct.Speed = GPIO_SPEED_FREQ_LOW;
 244:Src/main.cpp  ****   HAL_GPIO_Init(GPIOB, &GPIO_InitStruct);
 245:Src/main.cpp  **** 
 246:Src/main.cpp  ****   /* USER CODE END I2C2_Init 0 */
ARM GAS  /var/folders/20/cstyxln53wn53rr40gj353bh0000gn/T//ccSZWiEf.s 			page 9


 247:Src/main.cpp  **** 
 248:Src/main.cpp  ****   /* USER CODE BEGIN I2C2_Init 1 */
 249:Src/main.cpp  **** 
 250:Src/main.cpp  ****   /* USER CODE END I2C2_Init 1 */
 251:Src/main.cpp  ****   hi2c2.Instance = I2C2;
 252:Src/main.cpp  ****   hi2c2.Init.ClockSpeed = 100000;
 253:Src/main.cpp  ****   hi2c2.Init.DutyCycle = I2C_DUTYCYCLE_2;
 254:Src/main.cpp  ****   hi2c2.Init.OwnAddress1 = 0;
 255:Src/main.cpp  ****   hi2c2.Init.AddressingMode = I2C_ADDRESSINGMODE_7BIT;
 256:Src/main.cpp  ****   hi2c2.Init.DualAddressMode = I2C_DUALADDRESS_DISABLE;
 257:Src/main.cpp  ****   hi2c2.Init.OwnAddress2 = 0;
 258:Src/main.cpp  ****   hi2c2.Init.GeneralCallMode = I2C_GENERALCALL_DISABLE;
 259:Src/main.cpp  ****   hi2c2.Init.NoStretchMode = I2C_NOSTRETCH_DISABLE;
 260:Src/main.cpp  ****   if (HAL_I2C_Init(&hi2c2) != HAL_OK)
 261:Src/main.cpp  ****   {
 262:Src/main.cpp  ****     Error_Handler();
 263:Src/main.cpp  ****   }
 264:Src/main.cpp  ****   /* USER CODE BEGIN I2C2_Init 2 */
 265:Src/main.cpp  **** 
 266:Src/main.cpp  ****   /* USER CODE END I2C2_Init 2 */
 267:Src/main.cpp  **** 
 268:Src/main.cpp  **** }
 269:Src/main.cpp  **** 
 270:Src/main.cpp  **** /**
 271:Src/main.cpp  ****   * @brief SPI2 Initialization Function
 272:Src/main.cpp  ****   * @param None
 273:Src/main.cpp  ****   * @retval None
 274:Src/main.cpp  ****   */
 275:Src/main.cpp  **** static void MX_SPI2_Init(void)
 276:Src/main.cpp  **** {
 277:Src/main.cpp  **** 
 278:Src/main.cpp  ****   /* USER CODE BEGIN SPI2_Init 0 */
 279:Src/main.cpp  **** 
 280:Src/main.cpp  ****   /* USER CODE END SPI2_Init 0 */
 281:Src/main.cpp  **** 
 282:Src/main.cpp  ****   LL_SPI_InitTypeDef SPI_InitStruct = {0};
 283:Src/main.cpp  **** 
 284:Src/main.cpp  ****   LL_GPIO_InitTypeDef GPIO_InitStruct = {0};
 285:Src/main.cpp  **** 
 286:Src/main.cpp  ****   /* Peripheral clock enable */
 287:Src/main.cpp  ****   LL_APB1_GRP1_EnableClock(LL_APB1_GRP1_PERIPH_SPI2);
 288:Src/main.cpp  **** 
 289:Src/main.cpp  ****   LL_APB2_GRP1_EnableClock(LL_APB2_GRP1_PERIPH_GPIOB);
 290:Src/main.cpp  ****   /**SPI2 GPIO Configuration
 291:Src/main.cpp  ****   PB13   ------> SPI2_SCK
 292:Src/main.cpp  ****   PB15   ------> SPI2_MOSI
 293:Src/main.cpp  ****   */
 294:Src/main.cpp  ****   GPIO_InitStruct.Pin = LL_GPIO_PIN_13|LL_GPIO_PIN_15;
 295:Src/main.cpp  ****   GPIO_InitStruct.Mode = LL_GPIO_MODE_ALTERNATE;
 296:Src/main.cpp  ****   GPIO_InitStruct.Speed = LL_GPIO_SPEED_FREQ_HIGH;
 297:Src/main.cpp  ****   GPIO_InitStruct.OutputType = LL_GPIO_OUTPUT_PUSHPULL;
 298:Src/main.cpp  ****   LL_GPIO_Init(GPIOB, &GPIO_InitStruct);
 299:Src/main.cpp  **** 
 300:Src/main.cpp  ****   /* USER CODE BEGIN SPI2_Init 1 */
 301:Src/main.cpp  **** 
 302:Src/main.cpp  ****   /* USER CODE END SPI2_Init 1 */
 303:Src/main.cpp  ****   /* SPI2 parameter configuration*/
ARM GAS  /var/folders/20/cstyxln53wn53rr40gj353bh0000gn/T//ccSZWiEf.s 			page 10


 304:Src/main.cpp  ****   SPI_InitStruct.TransferDirection = LL_SPI_FULL_DUPLEX;
 305:Src/main.cpp  ****   SPI_InitStruct.Mode = LL_SPI_MODE_MASTER;
 306:Src/main.cpp  ****   SPI_InitStruct.DataWidth = LL_SPI_DATAWIDTH_8BIT;
 307:Src/main.cpp  ****   SPI_InitStruct.ClockPolarity = LL_SPI_POLARITY_LOW;
 308:Src/main.cpp  ****   SPI_InitStruct.ClockPhase = LL_SPI_PHASE_1EDGE;
 309:Src/main.cpp  ****   SPI_InitStruct.NSS = LL_SPI_NSS_SOFT;
 310:Src/main.cpp  ****   SPI_InitStruct.BaudRate = LL_SPI_BAUDRATEPRESCALER_DIV2;
 311:Src/main.cpp  ****   SPI_InitStruct.BitOrder = LL_SPI_MSB_FIRST;
 312:Src/main.cpp  ****   SPI_InitStruct.CRCCalculation = LL_SPI_CRCCALCULATION_DISABLE;
 313:Src/main.cpp  ****   SPI_InitStruct.CRCPoly = 10;
 314:Src/main.cpp  ****   LL_SPI_Init(SPI2, &SPI_InitStruct);
 315:Src/main.cpp  ****   /* USER CODE BEGIN SPI2_Init 2 */
 316:Src/main.cpp  **** 
 317:Src/main.cpp  ****   /* USER CODE END SPI2_Init 2 */
 318:Src/main.cpp  **** 
 319:Src/main.cpp  **** }
 320:Src/main.cpp  **** 
 321:Src/main.cpp  **** /**
 322:Src/main.cpp  ****   * @brief TIM3 Initialization Function
 323:Src/main.cpp  ****   * @param None
 324:Src/main.cpp  ****   * @retval None
 325:Src/main.cpp  ****   */
 326:Src/main.cpp  **** static void MX_TIM3_Init(void)
 327:Src/main.cpp  **** {
 328:Src/main.cpp  **** 
 329:Src/main.cpp  ****   /* USER CODE BEGIN TIM3_Init 0 */
 330:Src/main.cpp  ****   GPIO_InitTypeDef GPIO_InitStruct = {0};
 331:Src/main.cpp  ****   GPIO_InitStruct.Pin = TFT_LED_Pin;
 332:Src/main.cpp  ****   GPIO_InitStruct.Mode = GPIO_MODE_AF_PP;
 333:Src/main.cpp  ****   GPIO_InitStruct.Speed = GPIO_SPEED_FREQ_LOW;
 334:Src/main.cpp  ****   HAL_GPIO_Init(TFT_LED_GPIO_Port, &GPIO_InitStruct);
 335:Src/main.cpp  **** 
 336:Src/main.cpp  ****   /* USER CODE END TIM3_Init 0 */
 337:Src/main.cpp  **** 
 338:Src/main.cpp  ****   TIM_MasterConfigTypeDef sMasterConfig = {0};
 339:Src/main.cpp  ****   TIM_OC_InitTypeDef sConfigOC = {0};
 340:Src/main.cpp  **** 
 341:Src/main.cpp  ****   /* USER CODE BEGIN TIM3_Init 1 */
 342:Src/main.cpp  **** 
 343:Src/main.cpp  ****   /* USER CODE END TIM3_Init 1 */
 344:Src/main.cpp  ****   htim3.Instance = TIM3;
 345:Src/main.cpp  ****   htim3.Init.Prescaler = 100;
 346:Src/main.cpp  ****   htim3.Init.CounterMode = TIM_COUNTERMODE_UP;
 347:Src/main.cpp  ****   htim3.Init.Period = 255;
 348:Src/main.cpp  ****   htim3.Init.ClockDivision = TIM_CLOCKDIVISION_DIV1;
 349:Src/main.cpp  ****   htim3.Init.AutoReloadPreload = TIM_AUTORELOAD_PRELOAD_DISABLE;
 350:Src/main.cpp  ****   if (HAL_TIM_PWM_Init(&htim3) != HAL_OK)
 351:Src/main.cpp  ****   {
 352:Src/main.cpp  ****     Error_Handler();
 353:Src/main.cpp  ****   }
 354:Src/main.cpp  ****   sMasterConfig.MasterOutputTrigger = TIM_TRGO_RESET;
 355:Src/main.cpp  ****   sMasterConfig.MasterSlaveMode = TIM_MASTERSLAVEMODE_DISABLE;
 356:Src/main.cpp  ****   if (HAL_TIMEx_MasterConfigSynchronization(&htim3, &sMasterConfig) != HAL_OK)
 357:Src/main.cpp  ****   {
 358:Src/main.cpp  ****     Error_Handler();
 359:Src/main.cpp  ****   }
 360:Src/main.cpp  ****   sConfigOC.OCMode = TIM_OCMODE_PWM1;
ARM GAS  /var/folders/20/cstyxln53wn53rr40gj353bh0000gn/T//ccSZWiEf.s 			page 11


 361:Src/main.cpp  ****   sConfigOC.Pulse = 0;
 362:Src/main.cpp  ****   sConfigOC.OCPolarity = TIM_OCPOLARITY_HIGH;
 363:Src/main.cpp  ****   sConfigOC.OCFastMode = TIM_OCFAST_DISABLE;
 364:Src/main.cpp  ****   if (HAL_TIM_PWM_ConfigChannel(&htim3, &sConfigOC, TIM_CHANNEL_1) != HAL_OK)
 365:Src/main.cpp  ****   {
 366:Src/main.cpp  ****     Error_Handler();
 367:Src/main.cpp  ****   }
 368:Src/main.cpp  ****   /* USER CODE BEGIN TIM3_Init 2 */
 369:Src/main.cpp  **** 
 370:Src/main.cpp  ****   /* USER CODE END TIM3_Init 2 */
 371:Src/main.cpp  ****   HAL_TIM_MspPostInit(&htim3);
 372:Src/main.cpp  **** 
 373:Src/main.cpp  **** }
 374:Src/main.cpp  **** 
 375:Src/main.cpp  **** /**
 376:Src/main.cpp  ****   * @brief TIM4 Initialization Function
 377:Src/main.cpp  ****   * @param None
 378:Src/main.cpp  ****   * @retval None
 379:Src/main.cpp  ****   */
 380:Src/main.cpp  **** static void MX_TIM4_Init(void)
 381:Src/main.cpp  **** {
 382:Src/main.cpp  **** 
 383:Src/main.cpp  ****   /* USER CODE BEGIN TIM4_Init 0 */
 384:Src/main.cpp  **** 
 385:Src/main.cpp  ****   /* USER CODE END TIM4_Init 0 */
 386:Src/main.cpp  **** 
 387:Src/main.cpp  ****   TIM_Encoder_InitTypeDef sConfig = {0};
 388:Src/main.cpp  ****   TIM_MasterConfigTypeDef sMasterConfig = {0};
 389:Src/main.cpp  **** 
 390:Src/main.cpp  ****   /* USER CODE BEGIN TIM4_Init 1 */
 391:Src/main.cpp  **** 
 392:Src/main.cpp  ****   /* USER CODE END TIM4_Init 1 */
 393:Src/main.cpp  ****   htim4.Instance = TIM4;
 394:Src/main.cpp  ****   htim4.Init.Prescaler = 0;
 395:Src/main.cpp  ****   htim4.Init.CounterMode = TIM_COUNTERMODE_UP;
 396:Src/main.cpp  ****   htim4.Init.Period = 1000;
 397:Src/main.cpp  ****   htim4.Init.ClockDivision = TIM_CLOCKDIVISION_DIV1;
 398:Src/main.cpp  ****   htim4.Init.AutoReloadPreload = TIM_AUTORELOAD_PRELOAD_DISABLE;
 399:Src/main.cpp  ****   sConfig.EncoderMode = TIM_ENCODERMODE_TI12;
 400:Src/main.cpp  ****   sConfig.IC1Polarity = TIM_ICPOLARITY_RISING;
 401:Src/main.cpp  ****   sConfig.IC1Selection = TIM_ICSELECTION_DIRECTTI;
 402:Src/main.cpp  ****   sConfig.IC1Prescaler = TIM_ICPSC_DIV1;
 403:Src/main.cpp  ****   sConfig.IC1Filter = 0;
 404:Src/main.cpp  ****   sConfig.IC2Polarity = TIM_ICPOLARITY_RISING;
 405:Src/main.cpp  ****   sConfig.IC2Selection = TIM_ICSELECTION_DIRECTTI;
 406:Src/main.cpp  ****   sConfig.IC2Prescaler = TIM_ICPSC_DIV1;
 407:Src/main.cpp  ****   sConfig.IC2Filter = 0;
 408:Src/main.cpp  ****   if (HAL_TIM_Encoder_Init(&htim4, &sConfig) != HAL_OK)
 409:Src/main.cpp  ****   {
 410:Src/main.cpp  ****     Error_Handler();
 411:Src/main.cpp  ****   }
 412:Src/main.cpp  ****   sMasterConfig.MasterOutputTrigger = TIM_TRGO_RESET;
 413:Src/main.cpp  ****   sMasterConfig.MasterSlaveMode = TIM_MASTERSLAVEMODE_DISABLE;
 414:Src/main.cpp  ****   if (HAL_TIMEx_MasterConfigSynchronization(&htim4, &sMasterConfig) != HAL_OK)
 415:Src/main.cpp  ****   {
 416:Src/main.cpp  ****     Error_Handler();
 417:Src/main.cpp  ****   }
ARM GAS  /var/folders/20/cstyxln53wn53rr40gj353bh0000gn/T//ccSZWiEf.s 			page 12


 418:Src/main.cpp  ****   /* USER CODE BEGIN TIM4_Init 2 */
 419:Src/main.cpp  **** 
 420:Src/main.cpp  ****   /* USER CODE END TIM4_Init 2 */
 421:Src/main.cpp  **** 
 422:Src/main.cpp  **** }
 423:Src/main.cpp  **** 
 424:Src/main.cpp  **** /**
 425:Src/main.cpp  ****   * @brief GPIO Initialization Function
 426:Src/main.cpp  ****   * @param None
 427:Src/main.cpp  ****   * @retval None
 428:Src/main.cpp  ****   */
 429:Src/main.cpp  **** static void MX_GPIO_Init(void)
 430:Src/main.cpp  **** {
 431:Src/main.cpp  ****   GPIO_InitTypeDef GPIO_InitStruct = {0};
 180              		.loc 1 431 20 view .LVU56
 181 0004 0024     		movs	r4, #0
 182              	.LBE88:
 183              	.LBE87:
  78:Src/main.cpp  ****   /* USER CODE BEGIN 1 */
 184              		.loc 1 78 1 view .LVU57
 185              		.pad #116
 186 0006 9DB0     		sub	sp, sp, #116
 187              	.LCFI4:
 188              		.cfi_def_cfa_offset 152
  87:Src/main.cpp  **** 
 189              		.loc 1 87 11 view .LVU58
 190 0008 FFF7FEFF 		bl	HAL_Init
 191              	.LVL3:
  94:Src/main.cpp  **** 
 192              		.loc 1 94 3 is_stmt 1 view .LVU59
  94:Src/main.cpp  **** 
 193              		.loc 1 94 21 is_stmt 0 view .LVU60
 194 000c FFF7FEFF 		bl	_Z18SystemClock_Configv
 195              	.LVL4:
 101:Src/main.cpp  ****   MX_TIM4_Init();
 196              		.loc 1 101 3 is_stmt 1 view .LVU61
 197              	.LBB101:
 198              	.LBI87:
 429:Src/main.cpp  **** {
 199              		.loc 1 429 13 view .LVU62
 200              	.LBB99:
 201              		.loc 1 431 3 view .LVU63
 202              		.loc 1 431 20 is_stmt 0 view .LVU64
 203 0010 CDE91244 		strd	r4, r4, [sp, #72]
 204 0014 CDE91444 		strd	r4, r4, [sp, #80]
 432:Src/main.cpp  **** 
 433:Src/main.cpp  ****   /* GPIO Ports Clock Enable */
 434:Src/main.cpp  ****   __HAL_RCC_GPIOD_CLK_ENABLE();
 205              		.loc 1 434 3 is_stmt 1 view .LVU65
 206              	.LBB89:
 207              		.loc 1 434 3 view .LVU66
 208              		.loc 1 434 3 view .LVU67
 209 0018 BC4D     		ldr	r5, .L7
 210              	.LBE89:
 435:Src/main.cpp  ****   __HAL_RCC_GPIOA_CLK_ENABLE();
 436:Src/main.cpp  ****   __HAL_RCC_GPIOB_CLK_ENABLE();
 437:Src/main.cpp  **** 
ARM GAS  /var/folders/20/cstyxln53wn53rr40gj353bh0000gn/T//ccSZWiEf.s 			page 13


 438:Src/main.cpp  ****   /*Configure GPIO pin Output Level */
 439:Src/main.cpp  ****   HAL_GPIO_WritePin(GPIOA, TFT_A0_Pin|TFT_RESET_Pin|TFT_CS_Pin, GPIO_PIN_RESET);
 211              		.loc 1 439 20 is_stmt 0 view .LVU68
 212 001a 2246     		mov	r2, r4
 213              	.LBB90:
 434:Src/main.cpp  ****   __HAL_RCC_GPIOA_CLK_ENABLE();
 214              		.loc 1 434 3 view .LVU69
 215 001c AB69     		ldr	r3, [r5, #24]
 216              	.LBE90:
 217              		.loc 1 439 20 view .LVU70
 218 001e 4FF4B051 		mov	r1, #5632
 219              	.LBB91:
 434:Src/main.cpp  ****   __HAL_RCC_GPIOA_CLK_ENABLE();
 220              		.loc 1 434 3 view .LVU71
 221 0022 43F02003 		orr	r3, r3, #32
 222 0026 AB61     		str	r3, [r5, #24]
 434:Src/main.cpp  ****   __HAL_RCC_GPIOA_CLK_ENABLE();
 223              		.loc 1 434 3 is_stmt 1 view .LVU72
 224 0028 AB69     		ldr	r3, [r5, #24]
 225              	.LBE91:
 226              		.loc 1 439 20 is_stmt 0 view .LVU73
 227 002a B948     		ldr	r0, .L7+4
 228              	.LBB92:
 434:Src/main.cpp  ****   __HAL_RCC_GPIOA_CLK_ENABLE();
 229              		.loc 1 434 3 view .LVU74
 230 002c 03F02003 		and	r3, r3, #32
 231 0030 0793     		str	r3, [sp, #28]
 434:Src/main.cpp  ****   __HAL_RCC_GPIOA_CLK_ENABLE();
 232              		.loc 1 434 3 is_stmt 1 view .LVU75
 233 0032 079B     		ldr	r3, [sp, #28]
 234              	.LBE92:
 435:Src/main.cpp  ****   __HAL_RCC_GPIOA_CLK_ENABLE();
 235              		.loc 1 435 3 view .LVU76
 236              	.LBB93:
 435:Src/main.cpp  ****   __HAL_RCC_GPIOA_CLK_ENABLE();
 237              		.loc 1 435 3 view .LVU77
 435:Src/main.cpp  ****   __HAL_RCC_GPIOA_CLK_ENABLE();
 238              		.loc 1 435 3 view .LVU78
 239 0034 AB69     		ldr	r3, [r5, #24]
 240              	.LBE93:
 440:Src/main.cpp  **** 
 441:Src/main.cpp  ****   /*Configure GPIO pins : TFT_A0_Pin TFT_RESET_Pin TFT_CS_Pin */
 442:Src/main.cpp  ****   GPIO_InitStruct.Pin = TFT_A0_Pin|TFT_RESET_Pin|TFT_CS_Pin;
 241              		.loc 1 442 23 is_stmt 0 view .LVU79
 242 0036 0026     		movs	r6, #0
 243              	.LBB94:
 435:Src/main.cpp  ****   __HAL_RCC_GPIOB_CLK_ENABLE();
 244              		.loc 1 435 3 view .LVU80
 245 0038 43F00403 		orr	r3, r3, #4
 246 003c AB61     		str	r3, [r5, #24]
 435:Src/main.cpp  ****   __HAL_RCC_GPIOB_CLK_ENABLE();
 247              		.loc 1 435 3 is_stmt 1 view .LVU81
 248 003e AB69     		ldr	r3, [r5, #24]
 249              	.LBE94:
 250              		.loc 1 442 23 is_stmt 0 view .LVU82
 251 0040 0327     		movs	r7, #3
 252              	.LBB95:
ARM GAS  /var/folders/20/cstyxln53wn53rr40gj353bh0000gn/T//ccSZWiEf.s 			page 14


 435:Src/main.cpp  ****   __HAL_RCC_GPIOB_CLK_ENABLE();
 253              		.loc 1 435 3 view .LVU83
 254 0042 03F00403 		and	r3, r3, #4
 255 0046 0893     		str	r3, [sp, #32]
 435:Src/main.cpp  ****   __HAL_RCC_GPIOB_CLK_ENABLE();
 256              		.loc 1 435 3 is_stmt 1 view .LVU84
 257 0048 089B     		ldr	r3, [sp, #32]
 258              	.LBE95:
 436:Src/main.cpp  **** 
 259              		.loc 1 436 3 view .LVU85
 260              	.LBB96:
 436:Src/main.cpp  **** 
 261              		.loc 1 436 3 view .LVU86
 436:Src/main.cpp  **** 
 262              		.loc 1 436 3 view .LVU87
 263 004a AB69     		ldr	r3, [r5, #24]
 264              	.LBE96:
 443:Src/main.cpp  ****   GPIO_InitStruct.Mode = GPIO_MODE_OUTPUT_PP;
 444:Src/main.cpp  ****   GPIO_InitStruct.Pull = GPIO_NOPULL;
 445:Src/main.cpp  ****   GPIO_InitStruct.Speed = GPIO_SPEED_FREQ_HIGH;
 446:Src/main.cpp  ****   HAL_GPIO_Init(GPIOA, &GPIO_InitStruct);
 447:Src/main.cpp  **** 
 448:Src/main.cpp  ****   /*Configure GPIO pin : BTN_STP_Pin */
 449:Src/main.cpp  ****   GPIO_InitStruct.Pin = BTN_STP_Pin;
 450:Src/main.cpp  ****   GPIO_InitStruct.Mode = GPIO_MODE_INPUT;
 451:Src/main.cpp  ****   GPIO_InitStruct.Pull = GPIO_PULLUP;
 265              		.loc 1 451 24 is_stmt 0 view .LVU88
 266 004c 4FF00108 		mov	r8, #1
 267              	.LBB97:
 436:Src/main.cpp  **** 
 268              		.loc 1 436 3 view .LVU89
 269 0050 43F00803 		orr	r3, r3, #8
 270 0054 AB61     		str	r3, [r5, #24]
 436:Src/main.cpp  **** 
 271              		.loc 1 436 3 is_stmt 1 view .LVU90
 272 0056 AB69     		ldr	r3, [r5, #24]
 273              	.LBE97:
 274              	.LBE99:
 275              	.LBE101:
 276              	.LBB102:
 277              	.LBB103:
 399:Src/main.cpp  ****   sConfig.IC1Polarity = TIM_ICPOLARITY_RISING;
 278              		.loc 1 399 23 is_stmt 0 view .LVU91
 279 0058 4FF00309 		mov	r9, #3
 280              	.LBE103:
 281              	.LBE102:
 282              	.LBB105:
 283              	.LBB100:
 284              	.LBB98:
 436:Src/main.cpp  **** 
 285              		.loc 1 436 3 view .LVU92
 286 005c 03F00803 		and	r3, r3, #8
 287 0060 0993     		str	r3, [sp, #36]
 436:Src/main.cpp  **** 
 288              		.loc 1 436 3 is_stmt 1 view .LVU93
 289 0062 099B     		ldr	r3, [sp, #36]
 290              	.LBE98:
ARM GAS  /var/folders/20/cstyxln53wn53rr40gj353bh0000gn/T//ccSZWiEf.s 			page 15


 439:Src/main.cpp  **** 
 291              		.loc 1 439 3 view .LVU94
 439:Src/main.cpp  **** 
 292              		.loc 1 439 20 is_stmt 0 view .LVU95
 293 0064 FFF7FEFF 		bl	HAL_GPIO_WritePin
 294              	.LVL5:
 442:Src/main.cpp  ****   GPIO_InitStruct.Mode = GPIO_MODE_OUTPUT_PP;
 295              		.loc 1 442 3 is_stmt 1 view .LVU96
 443:Src/main.cpp  ****   GPIO_InitStruct.Pull = GPIO_NOPULL;
 296              		.loc 1 443 3 view .LVU97
 444:Src/main.cpp  ****   GPIO_InitStruct.Speed = GPIO_SPEED_FREQ_HIGH;
 297              		.loc 1 444 3 view .LVU98
 445:Src/main.cpp  ****   HAL_GPIO_Init(GPIOA, &GPIO_InitStruct);
 298              		.loc 1 445 3 view .LVU99
 442:Src/main.cpp  ****   GPIO_InitStruct.Mode = GPIO_MODE_OUTPUT_PP;
 299              		.loc 1 442 23 is_stmt 0 view .LVU100
 300 0068 4FF4B052 		mov	r2, #5632
 301 006c 0123     		movs	r3, #1
 446:Src/main.cpp  **** 
 302              		.loc 1 446 16 view .LVU101
 303 006e 12A9     		add	r1, sp, #72
 304 0070 A748     		ldr	r0, .L7+4
 442:Src/main.cpp  ****   GPIO_InitStruct.Mode = GPIO_MODE_OUTPUT_PP;
 305              		.loc 1 442 23 view .LVU102
 306 0072 CDE91223 		strd	r2, [sp, #72]
 307 0076 CDE91467 		strd	r6, [sp, #80]
 446:Src/main.cpp  **** 
 308              		.loc 1 446 3 is_stmt 1 view .LVU103
 446:Src/main.cpp  **** 
 309              		.loc 1 446 16 is_stmt 0 view .LVU104
 310 007a FFF7FEFF 		bl	HAL_GPIO_Init
 311              	.LVL6:
 449:Src/main.cpp  ****   GPIO_InitStruct.Mode = GPIO_MODE_INPUT;
 312              		.loc 1 449 3 is_stmt 1 view .LVU105
 450:Src/main.cpp  ****   GPIO_InitStruct.Pull = GPIO_PULLUP;
 313              		.loc 1 450 3 view .LVU106
 449:Src/main.cpp  ****   GPIO_InitStruct.Mode = GPIO_MODE_INPUT;
 314              		.loc 1 449 23 is_stmt 0 view .LVU107
 315 007e 0023     		movs	r3, #0
 316 0080 2022     		movs	r2, #32
 452:Src/main.cpp  ****   HAL_GPIO_Init(BTN_STP_GPIO_Port, &GPIO_InitStruct);
 317              		.loc 1 452 16 view .LVU108
 318 0082 12A9     		add	r1, sp, #72
 319 0084 A348     		ldr	r0, .L7+8
 449:Src/main.cpp  ****   GPIO_InitStruct.Mode = GPIO_MODE_INPUT;
 320              		.loc 1 449 23 view .LVU109
 321 0086 CDE91223 		strd	r2, [sp, #72]
 451:Src/main.cpp  ****   HAL_GPIO_Init(BTN_STP_GPIO_Port, &GPIO_InitStruct);
 322              		.loc 1 451 3 is_stmt 1 view .LVU110
 451:Src/main.cpp  ****   HAL_GPIO_Init(BTN_STP_GPIO_Port, &GPIO_InitStruct);
 323              		.loc 1 451 24 is_stmt 0 view .LVU111
 324 008a CDF85080 		str	r8, [sp, #80]
 325              		.loc 1 452 3 is_stmt 1 view .LVU112
 326              		.loc 1 452 16 is_stmt 0 view .LVU113
 327 008e FFF7FEFF 		bl	HAL_GPIO_Init
 328              	.LVL7:
 329              	.LBE100:
ARM GAS  /var/folders/20/cstyxln53wn53rr40gj353bh0000gn/T//ccSZWiEf.s 			page 16


 330              	.LBE105:
 102:Src/main.cpp  ****   MX_SPI2_Init();
 331              		.loc 1 102 3 is_stmt 1 view .LVU114
 332              	.LBB106:
 333              	.LBI102:
 380:Src/main.cpp  **** {
 334              		.loc 1 380 13 view .LVU115
 335              	.LBB104:
 387:Src/main.cpp  ****   TIM_MasterConfigTypeDef sMasterConfig = {0};
 336              		.loc 1 387 3 view .LVU116
 387:Src/main.cpp  ****   TIM_MasterConfigTypeDef sMasterConfig = {0};
 337              		.loc 1 387 27 is_stmt 0 view .LVU117
 338 0092 2146     		mov	r1, r4
 339 0094 13A8     		add	r0, sp, #76
 340 0096 2022     		movs	r2, #32
 341 0098 FFF7FEFF 		bl	memset
 342              	.LVL8:
 388:Src/main.cpp  **** 
 343              		.loc 1 388 3 is_stmt 1 view .LVU118
 396:Src/main.cpp  ****   htim4.Init.ClockDivision = TIM_CLOCKDIVISION_DIV1;
 344              		.loc 1 396 21 is_stmt 0 view .LVU119
 345 009c 4FF47A73 		mov	r3, #1000
 412:Src/main.cpp  ****   sMasterConfig.MasterSlaveMode = TIM_MASTERSLAVEMODE_DISABLE;
 346              		.loc 1 412 37 view .LVU120
 347 00a0 0026     		movs	r6, #0
 348 00a2 0027     		movs	r7, #0
 393:Src/main.cpp  ****   htim4.Init.Prescaler = 0;
 349              		.loc 1 393 18 view .LVU121
 350 00a4 DFF894A2 		ldr	r10, .L7+48
 351 00a8 9B4A     		ldr	r2, .L7+12
 408:Src/main.cpp  ****   {
 352              		.loc 1 408 27 view .LVU122
 353 00aa 12A9     		add	r1, sp, #72
 354 00ac 5046     		mov	r0, r10
 396:Src/main.cpp  ****   htim4.Init.ClockDivision = TIM_CLOCKDIVISION_DIV1;
 355              		.loc 1 396 21 view .LVU123
 356 00ae CAF80C30 		str	r3, [r10, #12]
 393:Src/main.cpp  ****   htim4.Init.Prescaler = 0;
 357              		.loc 1 393 18 view .LVU124
 358 00b2 CAF80020 		str	r2, [r10]
 401:Src/main.cpp  ****   sConfig.IC1Prescaler = TIM_ICPSC_DIV1;
 359              		.loc 1 401 24 view .LVU125
 360 00b6 CDF85080 		str	r8, [sp, #80]
 405:Src/main.cpp  ****   sConfig.IC2Prescaler = TIM_ICPSC_DIV1;
 361              		.loc 1 405 24 view .LVU126
 362 00ba CDF86080 		str	r8, [sp, #96]
 395:Src/main.cpp  ****   htim4.Init.Period = 1000;
 363              		.loc 1 395 26 view .LVU127
 364 00be CAE90144 		strd	r4, r4, [r10, #4]
 397:Src/main.cpp  ****   htim4.Init.AutoReloadPreload = TIM_AUTORELOAD_PRELOAD_DISABLE;
 365              		.loc 1 397 28 view .LVU128
 366 00c2 CAF81040 		str	r4, [r10, #16]
 398:Src/main.cpp  ****   sConfig.EncoderMode = TIM_ENCODERMODE_TI12;
 367              		.loc 1 398 32 view .LVU129
 368 00c6 CAF81840 		str	r4, [r10, #24]
 399:Src/main.cpp  ****   sConfig.IC1Polarity = TIM_ICPOLARITY_RISING;
 369              		.loc 1 399 23 view .LVU130
ARM GAS  /var/folders/20/cstyxln53wn53rr40gj353bh0000gn/T//ccSZWiEf.s 			page 17


 370 00ca CDF84890 		str	r9, [sp, #72]
 388:Src/main.cpp  **** 
 371              		.loc 1 388 27 view .LVU131
 372 00ce 0C94     		str	r4, [sp, #48]
 373 00d0 0D94     		str	r4, [sp, #52]
 393:Src/main.cpp  ****   htim4.Init.Prescaler = 0;
 374              		.loc 1 393 3 is_stmt 1 view .LVU132
 394:Src/main.cpp  ****   htim4.Init.CounterMode = TIM_COUNTERMODE_UP;
 375              		.loc 1 394 3 view .LVU133
 395:Src/main.cpp  ****   htim4.Init.Period = 1000;
 376              		.loc 1 395 3 view .LVU134
 396:Src/main.cpp  ****   htim4.Init.ClockDivision = TIM_CLOCKDIVISION_DIV1;
 377              		.loc 1 396 3 view .LVU135
 397:Src/main.cpp  ****   htim4.Init.AutoReloadPreload = TIM_AUTORELOAD_PRELOAD_DISABLE;
 378              		.loc 1 397 3 view .LVU136
 398:Src/main.cpp  ****   sConfig.EncoderMode = TIM_ENCODERMODE_TI12;
 379              		.loc 1 398 3 view .LVU137
 399:Src/main.cpp  ****   sConfig.IC1Polarity = TIM_ICPOLARITY_RISING;
 380              		.loc 1 399 3 view .LVU138
 400:Src/main.cpp  ****   sConfig.IC1Selection = TIM_ICSELECTION_DIRECTTI;
 381              		.loc 1 400 3 view .LVU139
 401:Src/main.cpp  ****   sConfig.IC1Prescaler = TIM_ICPSC_DIV1;
 382              		.loc 1 401 3 view .LVU140
 402:Src/main.cpp  ****   sConfig.IC1Filter = 0;
 383              		.loc 1 402 3 view .LVU141
 403:Src/main.cpp  ****   sConfig.IC2Polarity = TIM_ICPOLARITY_RISING;
 384              		.loc 1 403 3 view .LVU142
 404:Src/main.cpp  ****   sConfig.IC2Selection = TIM_ICSELECTION_DIRECTTI;
 385              		.loc 1 404 3 view .LVU143
 405:Src/main.cpp  ****   sConfig.IC2Prescaler = TIM_ICPSC_DIV1;
 386              		.loc 1 405 3 view .LVU144
 406:Src/main.cpp  ****   sConfig.IC2Filter = 0;
 387              		.loc 1 406 3 view .LVU145
 407:Src/main.cpp  ****   if (HAL_TIM_Encoder_Init(&htim4, &sConfig) != HAL_OK)
 388              		.loc 1 407 3 view .LVU146
 408:Src/main.cpp  ****   {
 389              		.loc 1 408 3 view .LVU147
 408:Src/main.cpp  ****   {
 390              		.loc 1 408 27 is_stmt 0 view .LVU148
 391 00d2 FFF7FEFF 		bl	HAL_TIM_Encoder_Init
 392              	.LVL9:
 412:Src/main.cpp  ****   sMasterConfig.MasterSlaveMode = TIM_MASTERSLAVEMODE_DISABLE;
 393              		.loc 1 412 3 is_stmt 1 view .LVU149
 413:Src/main.cpp  ****   if (HAL_TIMEx_MasterConfigSynchronization(&htim4, &sMasterConfig) != HAL_OK)
 394              		.loc 1 413 3 view .LVU150
 414:Src/main.cpp  ****   {
 395              		.loc 1 414 44 is_stmt 0 view .LVU151
 396 00d6 0CA9     		add	r1, sp, #48
 397 00d8 5046     		mov	r0, r10
 412:Src/main.cpp  ****   sMasterConfig.MasterSlaveMode = TIM_MASTERSLAVEMODE_DISABLE;
 398              		.loc 1 412 37 view .LVU152
 399 00da CDE90C67 		strd	r6, [sp, #48]
 414:Src/main.cpp  ****   {
 400              		.loc 1 414 3 is_stmt 1 view .LVU153
 414:Src/main.cpp  ****   {
 401              		.loc 1 414 44 is_stmt 0 view .LVU154
 402 00de FFF7FEFF 		bl	HAL_TIMEx_MasterConfigSynchronization
ARM GAS  /var/folders/20/cstyxln53wn53rr40gj353bh0000gn/T//ccSZWiEf.s 			page 18


 403              	.LVL10:
 404              	.LBE104:
 405              	.LBE106:
 103:Src/main.cpp  ****   MX_I2C2_Init();
 406              		.loc 1 103 3 is_stmt 1 view .LVU155
 407              	.LBB107:
 408              	.LBI107:
 275:Src/main.cpp  **** {
 409              		.loc 1 275 13 view .LVU156
 410              	.LBB108:
 282:Src/main.cpp  **** 
 411              		.loc 1 282 3 view .LVU157
 282:Src/main.cpp  **** 
 412              		.loc 1 282 22 is_stmt 0 view .LVU158
 413 00e2 2146     		mov	r1, r4
 414 00e4 12A8     		add	r0, sp, #72
 415 00e6 2822     		movs	r2, #40
 416 00e8 FFF7FEFF 		bl	memset
 417              	.LVL11:
 284:Src/main.cpp  **** 
 418              		.loc 1 284 3 is_stmt 1 view .LVU159
 295:Src/main.cpp  ****   GPIO_InitStruct.Speed = LL_GPIO_SPEED_FREQ_HIGH;
 419              		.loc 1 295 24 is_stmt 0 view .LVU160
 420 00ec 4FF0090C 		mov	ip, #9
 284:Src/main.cpp  **** 
 421              		.loc 1 284 23 view .LVU161
 422 00f0 CDE90F44 		strd	r4, r4, [sp, #60]
 287:Src/main.cpp  **** 
 423              		.loc 1 287 3 is_stmt 1 view .LVU162
 424              	.LVL12:
 425              	.LBB109:
 426              	.LBI109:
 427              		.file 2 "Drivers/STM32F1xx_HAL_Driver/Inc/stm32f1xx_ll_bus.h"
   1:Drivers/STM32F1xx_HAL_Driver/Inc/stm32f1xx_ll_bus.h **** /**
   2:Drivers/STM32F1xx_HAL_Driver/Inc/stm32f1xx_ll_bus.h ****   ******************************************************************************
   3:Drivers/STM32F1xx_HAL_Driver/Inc/stm32f1xx_ll_bus.h ****   * @file    stm32f1xx_ll_bus.h
   4:Drivers/STM32F1xx_HAL_Driver/Inc/stm32f1xx_ll_bus.h ****   * @author  MCD Application Team
   5:Drivers/STM32F1xx_HAL_Driver/Inc/stm32f1xx_ll_bus.h ****   * @brief   Header file of BUS LL module.
   6:Drivers/STM32F1xx_HAL_Driver/Inc/stm32f1xx_ll_bus.h **** 
   7:Drivers/STM32F1xx_HAL_Driver/Inc/stm32f1xx_ll_bus.h ****   @verbatim
   8:Drivers/STM32F1xx_HAL_Driver/Inc/stm32f1xx_ll_bus.h ****                       ##### RCC Limitations #####
   9:Drivers/STM32F1xx_HAL_Driver/Inc/stm32f1xx_ll_bus.h ****   ==============================================================================
  10:Drivers/STM32F1xx_HAL_Driver/Inc/stm32f1xx_ll_bus.h ****     [..]
  11:Drivers/STM32F1xx_HAL_Driver/Inc/stm32f1xx_ll_bus.h ****       A delay between an RCC peripheral clock enable and the effective peripheral
  12:Drivers/STM32F1xx_HAL_Driver/Inc/stm32f1xx_ll_bus.h ****       enabling should be taken into account in order to manage the peripheral read/write
  13:Drivers/STM32F1xx_HAL_Driver/Inc/stm32f1xx_ll_bus.h ****       from/to registers.
  14:Drivers/STM32F1xx_HAL_Driver/Inc/stm32f1xx_ll_bus.h ****       (+) This delay depends on the peripheral mapping.
  15:Drivers/STM32F1xx_HAL_Driver/Inc/stm32f1xx_ll_bus.h ****         (++) AHB & APB peripherals, 1 dummy read is necessary
  16:Drivers/STM32F1xx_HAL_Driver/Inc/stm32f1xx_ll_bus.h **** 
  17:Drivers/STM32F1xx_HAL_Driver/Inc/stm32f1xx_ll_bus.h ****     [..]
  18:Drivers/STM32F1xx_HAL_Driver/Inc/stm32f1xx_ll_bus.h ****       Workarounds:
  19:Drivers/STM32F1xx_HAL_Driver/Inc/stm32f1xx_ll_bus.h ****       (#) For AHB & APB peripherals, a dummy read to the peripheral register has been
  20:Drivers/STM32F1xx_HAL_Driver/Inc/stm32f1xx_ll_bus.h ****           inserted in each LL_{BUS}_GRP{x}_EnableClock() function.
  21:Drivers/STM32F1xx_HAL_Driver/Inc/stm32f1xx_ll_bus.h **** 
  22:Drivers/STM32F1xx_HAL_Driver/Inc/stm32f1xx_ll_bus.h ****   @endverbatim
  23:Drivers/STM32F1xx_HAL_Driver/Inc/stm32f1xx_ll_bus.h ****   ******************************************************************************
  24:Drivers/STM32F1xx_HAL_Driver/Inc/stm32f1xx_ll_bus.h ****   * @attention
ARM GAS  /var/folders/20/cstyxln53wn53rr40gj353bh0000gn/T//ccSZWiEf.s 			page 19


  25:Drivers/STM32F1xx_HAL_Driver/Inc/stm32f1xx_ll_bus.h ****   *
  26:Drivers/STM32F1xx_HAL_Driver/Inc/stm32f1xx_ll_bus.h ****   * <h2><center>&copy; Copyright (c) 2016 STMicroelectronics.
  27:Drivers/STM32F1xx_HAL_Driver/Inc/stm32f1xx_ll_bus.h ****   * All rights reserved.</center></h2>
  28:Drivers/STM32F1xx_HAL_Driver/Inc/stm32f1xx_ll_bus.h ****   *
  29:Drivers/STM32F1xx_HAL_Driver/Inc/stm32f1xx_ll_bus.h ****   * This software component is licensed by ST under BSD 3-Clause license,
  30:Drivers/STM32F1xx_HAL_Driver/Inc/stm32f1xx_ll_bus.h ****   * the "License"; You may not use this file except in compliance with the
  31:Drivers/STM32F1xx_HAL_Driver/Inc/stm32f1xx_ll_bus.h ****   * License. You may obtain a copy of the License at:
  32:Drivers/STM32F1xx_HAL_Driver/Inc/stm32f1xx_ll_bus.h ****   *                        opensource.org/licenses/BSD-3-Clause
  33:Drivers/STM32F1xx_HAL_Driver/Inc/stm32f1xx_ll_bus.h ****   *
  34:Drivers/STM32F1xx_HAL_Driver/Inc/stm32f1xx_ll_bus.h ****   ******************************************************************************
  35:Drivers/STM32F1xx_HAL_Driver/Inc/stm32f1xx_ll_bus.h ****   */
  36:Drivers/STM32F1xx_HAL_Driver/Inc/stm32f1xx_ll_bus.h **** 
  37:Drivers/STM32F1xx_HAL_Driver/Inc/stm32f1xx_ll_bus.h **** /* Define to prevent recursive inclusion -------------------------------------*/
  38:Drivers/STM32F1xx_HAL_Driver/Inc/stm32f1xx_ll_bus.h **** #ifndef __STM32F1xx_LL_BUS_H
  39:Drivers/STM32F1xx_HAL_Driver/Inc/stm32f1xx_ll_bus.h **** #define __STM32F1xx_LL_BUS_H
  40:Drivers/STM32F1xx_HAL_Driver/Inc/stm32f1xx_ll_bus.h **** 
  41:Drivers/STM32F1xx_HAL_Driver/Inc/stm32f1xx_ll_bus.h **** #ifdef __cplusplus
  42:Drivers/STM32F1xx_HAL_Driver/Inc/stm32f1xx_ll_bus.h **** extern "C" {
  43:Drivers/STM32F1xx_HAL_Driver/Inc/stm32f1xx_ll_bus.h **** #endif
  44:Drivers/STM32F1xx_HAL_Driver/Inc/stm32f1xx_ll_bus.h **** 
  45:Drivers/STM32F1xx_HAL_Driver/Inc/stm32f1xx_ll_bus.h **** /* Includes ------------------------------------------------------------------*/
  46:Drivers/STM32F1xx_HAL_Driver/Inc/stm32f1xx_ll_bus.h **** #include "stm32f1xx.h"
  47:Drivers/STM32F1xx_HAL_Driver/Inc/stm32f1xx_ll_bus.h **** 
  48:Drivers/STM32F1xx_HAL_Driver/Inc/stm32f1xx_ll_bus.h **** /** @addtogroup STM32F1xx_LL_Driver
  49:Drivers/STM32F1xx_HAL_Driver/Inc/stm32f1xx_ll_bus.h ****   * @{
  50:Drivers/STM32F1xx_HAL_Driver/Inc/stm32f1xx_ll_bus.h ****   */
  51:Drivers/STM32F1xx_HAL_Driver/Inc/stm32f1xx_ll_bus.h **** 
  52:Drivers/STM32F1xx_HAL_Driver/Inc/stm32f1xx_ll_bus.h **** #if defined(RCC)
  53:Drivers/STM32F1xx_HAL_Driver/Inc/stm32f1xx_ll_bus.h **** 
  54:Drivers/STM32F1xx_HAL_Driver/Inc/stm32f1xx_ll_bus.h **** /** @defgroup BUS_LL BUS
  55:Drivers/STM32F1xx_HAL_Driver/Inc/stm32f1xx_ll_bus.h ****   * @{
  56:Drivers/STM32F1xx_HAL_Driver/Inc/stm32f1xx_ll_bus.h ****   */
  57:Drivers/STM32F1xx_HAL_Driver/Inc/stm32f1xx_ll_bus.h **** 
  58:Drivers/STM32F1xx_HAL_Driver/Inc/stm32f1xx_ll_bus.h **** /* Private types -------------------------------------------------------------*/
  59:Drivers/STM32F1xx_HAL_Driver/Inc/stm32f1xx_ll_bus.h **** /* Private variables ---------------------------------------------------------*/
  60:Drivers/STM32F1xx_HAL_Driver/Inc/stm32f1xx_ll_bus.h **** 
  61:Drivers/STM32F1xx_HAL_Driver/Inc/stm32f1xx_ll_bus.h **** /* Private constants ---------------------------------------------------------*/
  62:Drivers/STM32F1xx_HAL_Driver/Inc/stm32f1xx_ll_bus.h **** #if defined(RCC_AHBRSTR_OTGFSRST) || defined(RCC_AHBRSTR_ETHMACRST)
  63:Drivers/STM32F1xx_HAL_Driver/Inc/stm32f1xx_ll_bus.h **** #define RCC_AHBRSTR_SUPPORT
  64:Drivers/STM32F1xx_HAL_Driver/Inc/stm32f1xx_ll_bus.h **** #endif /* RCC_AHBRSTR_OTGFSRST || RCC_AHBRSTR_ETHMACRST */
  65:Drivers/STM32F1xx_HAL_Driver/Inc/stm32f1xx_ll_bus.h **** 
  66:Drivers/STM32F1xx_HAL_Driver/Inc/stm32f1xx_ll_bus.h **** /* Private macros ------------------------------------------------------------*/
  67:Drivers/STM32F1xx_HAL_Driver/Inc/stm32f1xx_ll_bus.h **** 
  68:Drivers/STM32F1xx_HAL_Driver/Inc/stm32f1xx_ll_bus.h **** /* Exported types ------------------------------------------------------------*/
  69:Drivers/STM32F1xx_HAL_Driver/Inc/stm32f1xx_ll_bus.h **** /* Exported constants --------------------------------------------------------*/
  70:Drivers/STM32F1xx_HAL_Driver/Inc/stm32f1xx_ll_bus.h **** /** @defgroup BUS_LL_Exported_Constants BUS Exported Constants
  71:Drivers/STM32F1xx_HAL_Driver/Inc/stm32f1xx_ll_bus.h ****   * @{
  72:Drivers/STM32F1xx_HAL_Driver/Inc/stm32f1xx_ll_bus.h ****   */
  73:Drivers/STM32F1xx_HAL_Driver/Inc/stm32f1xx_ll_bus.h **** 
  74:Drivers/STM32F1xx_HAL_Driver/Inc/stm32f1xx_ll_bus.h **** /** @defgroup BUS_LL_EC_AHB1_GRP1_PERIPH  AHB1 GRP1 PERIPH
  75:Drivers/STM32F1xx_HAL_Driver/Inc/stm32f1xx_ll_bus.h ****   * @{
  76:Drivers/STM32F1xx_HAL_Driver/Inc/stm32f1xx_ll_bus.h ****   */
  77:Drivers/STM32F1xx_HAL_Driver/Inc/stm32f1xx_ll_bus.h **** #define LL_AHB1_GRP1_PERIPH_ALL            (uint32_t)0xFFFFFFFFU
  78:Drivers/STM32F1xx_HAL_Driver/Inc/stm32f1xx_ll_bus.h **** #define LL_AHB1_GRP1_PERIPH_CRC            RCC_AHBENR_CRCEN
  79:Drivers/STM32F1xx_HAL_Driver/Inc/stm32f1xx_ll_bus.h **** #define LL_AHB1_GRP1_PERIPH_DMA1           RCC_AHBENR_DMA1EN
  80:Drivers/STM32F1xx_HAL_Driver/Inc/stm32f1xx_ll_bus.h **** #if defined(DMA2)
  81:Drivers/STM32F1xx_HAL_Driver/Inc/stm32f1xx_ll_bus.h **** #define LL_AHB1_GRP1_PERIPH_DMA2           RCC_AHBENR_DMA2EN
ARM GAS  /var/folders/20/cstyxln53wn53rr40gj353bh0000gn/T//ccSZWiEf.s 			page 20


  82:Drivers/STM32F1xx_HAL_Driver/Inc/stm32f1xx_ll_bus.h **** #endif /*DMA2*/
  83:Drivers/STM32F1xx_HAL_Driver/Inc/stm32f1xx_ll_bus.h **** #if defined(ETH)
  84:Drivers/STM32F1xx_HAL_Driver/Inc/stm32f1xx_ll_bus.h **** #define LL_AHB1_GRP1_PERIPH_ETHMAC         RCC_AHBENR_ETHMACEN
  85:Drivers/STM32F1xx_HAL_Driver/Inc/stm32f1xx_ll_bus.h **** #define LL_AHB1_GRP1_PERIPH_ETHMACRX       RCC_AHBENR_ETHMACRXEN
  86:Drivers/STM32F1xx_HAL_Driver/Inc/stm32f1xx_ll_bus.h **** #define LL_AHB1_GRP1_PERIPH_ETHMACTX       RCC_AHBENR_ETHMACTXEN
  87:Drivers/STM32F1xx_HAL_Driver/Inc/stm32f1xx_ll_bus.h **** #endif /*ETH*/
  88:Drivers/STM32F1xx_HAL_Driver/Inc/stm32f1xx_ll_bus.h **** #define LL_AHB1_GRP1_PERIPH_FLASH          RCC_AHBENR_FLITFEN
  89:Drivers/STM32F1xx_HAL_Driver/Inc/stm32f1xx_ll_bus.h **** #if defined(FSMC_Bank1)
  90:Drivers/STM32F1xx_HAL_Driver/Inc/stm32f1xx_ll_bus.h **** #define LL_AHB1_GRP1_PERIPH_FSMC           RCC_AHBENR_FSMCEN
  91:Drivers/STM32F1xx_HAL_Driver/Inc/stm32f1xx_ll_bus.h **** #endif /*FSMC_Bank1*/
  92:Drivers/STM32F1xx_HAL_Driver/Inc/stm32f1xx_ll_bus.h **** #if defined(USB_OTG_FS)
  93:Drivers/STM32F1xx_HAL_Driver/Inc/stm32f1xx_ll_bus.h **** #define LL_AHB1_GRP1_PERIPH_OTGFS          RCC_AHBENR_OTGFSEN
  94:Drivers/STM32F1xx_HAL_Driver/Inc/stm32f1xx_ll_bus.h **** #endif /*USB_OTG_FS*/
  95:Drivers/STM32F1xx_HAL_Driver/Inc/stm32f1xx_ll_bus.h **** #if defined(SDIO)
  96:Drivers/STM32F1xx_HAL_Driver/Inc/stm32f1xx_ll_bus.h **** #define LL_AHB1_GRP1_PERIPH_SDIO           RCC_AHBENR_SDIOEN
  97:Drivers/STM32F1xx_HAL_Driver/Inc/stm32f1xx_ll_bus.h **** #endif /*SDIO*/
  98:Drivers/STM32F1xx_HAL_Driver/Inc/stm32f1xx_ll_bus.h **** #define LL_AHB1_GRP1_PERIPH_SRAM           RCC_AHBENR_SRAMEN
  99:Drivers/STM32F1xx_HAL_Driver/Inc/stm32f1xx_ll_bus.h **** /**
 100:Drivers/STM32F1xx_HAL_Driver/Inc/stm32f1xx_ll_bus.h ****   * @}
 101:Drivers/STM32F1xx_HAL_Driver/Inc/stm32f1xx_ll_bus.h ****   */
 102:Drivers/STM32F1xx_HAL_Driver/Inc/stm32f1xx_ll_bus.h **** 
 103:Drivers/STM32F1xx_HAL_Driver/Inc/stm32f1xx_ll_bus.h **** /** @defgroup BUS_LL_EC_APB1_GRP1_PERIPH  APB1 GRP1 PERIPH
 104:Drivers/STM32F1xx_HAL_Driver/Inc/stm32f1xx_ll_bus.h ****   * @{
 105:Drivers/STM32F1xx_HAL_Driver/Inc/stm32f1xx_ll_bus.h ****   */
 106:Drivers/STM32F1xx_HAL_Driver/Inc/stm32f1xx_ll_bus.h **** #define LL_APB1_GRP1_PERIPH_ALL            (uint32_t)0xFFFFFFFFU
 107:Drivers/STM32F1xx_HAL_Driver/Inc/stm32f1xx_ll_bus.h **** #define LL_APB1_GRP1_PERIPH_BKP            RCC_APB1ENR_BKPEN
 108:Drivers/STM32F1xx_HAL_Driver/Inc/stm32f1xx_ll_bus.h **** #if defined(CAN1)
 109:Drivers/STM32F1xx_HAL_Driver/Inc/stm32f1xx_ll_bus.h **** #define LL_APB1_GRP1_PERIPH_CAN1           RCC_APB1ENR_CAN1EN
 110:Drivers/STM32F1xx_HAL_Driver/Inc/stm32f1xx_ll_bus.h **** #endif /*CAN1*/
 111:Drivers/STM32F1xx_HAL_Driver/Inc/stm32f1xx_ll_bus.h **** #if defined(CAN2)
 112:Drivers/STM32F1xx_HAL_Driver/Inc/stm32f1xx_ll_bus.h **** #define LL_APB1_GRP1_PERIPH_CAN2           RCC_APB1ENR_CAN2EN
 113:Drivers/STM32F1xx_HAL_Driver/Inc/stm32f1xx_ll_bus.h **** #endif /*CAN2*/
 114:Drivers/STM32F1xx_HAL_Driver/Inc/stm32f1xx_ll_bus.h **** #if defined(CEC)
 115:Drivers/STM32F1xx_HAL_Driver/Inc/stm32f1xx_ll_bus.h **** #define LL_APB1_GRP1_PERIPH_CEC            RCC_APB1ENR_CECEN
 116:Drivers/STM32F1xx_HAL_Driver/Inc/stm32f1xx_ll_bus.h **** #endif /*CEC*/
 117:Drivers/STM32F1xx_HAL_Driver/Inc/stm32f1xx_ll_bus.h **** #if defined(DAC)
 118:Drivers/STM32F1xx_HAL_Driver/Inc/stm32f1xx_ll_bus.h **** #define LL_APB1_GRP1_PERIPH_DAC1           RCC_APB1ENR_DACEN
 119:Drivers/STM32F1xx_HAL_Driver/Inc/stm32f1xx_ll_bus.h **** #endif /*DAC*/
 120:Drivers/STM32F1xx_HAL_Driver/Inc/stm32f1xx_ll_bus.h **** #define LL_APB1_GRP1_PERIPH_I2C1           RCC_APB1ENR_I2C1EN
 121:Drivers/STM32F1xx_HAL_Driver/Inc/stm32f1xx_ll_bus.h **** #if defined(I2C2)
 122:Drivers/STM32F1xx_HAL_Driver/Inc/stm32f1xx_ll_bus.h **** #define LL_APB1_GRP1_PERIPH_I2C2           RCC_APB1ENR_I2C2EN
 123:Drivers/STM32F1xx_HAL_Driver/Inc/stm32f1xx_ll_bus.h **** #endif /*I2C2*/
 124:Drivers/STM32F1xx_HAL_Driver/Inc/stm32f1xx_ll_bus.h **** #define LL_APB1_GRP1_PERIPH_PWR            RCC_APB1ENR_PWREN
 125:Drivers/STM32F1xx_HAL_Driver/Inc/stm32f1xx_ll_bus.h **** #if defined(SPI2)
 126:Drivers/STM32F1xx_HAL_Driver/Inc/stm32f1xx_ll_bus.h **** #define LL_APB1_GRP1_PERIPH_SPI2           RCC_APB1ENR_SPI2EN
 127:Drivers/STM32F1xx_HAL_Driver/Inc/stm32f1xx_ll_bus.h **** #endif /*SPI2*/
 128:Drivers/STM32F1xx_HAL_Driver/Inc/stm32f1xx_ll_bus.h **** #if defined(SPI3)
 129:Drivers/STM32F1xx_HAL_Driver/Inc/stm32f1xx_ll_bus.h **** #define LL_APB1_GRP1_PERIPH_SPI3           RCC_APB1ENR_SPI3EN
 130:Drivers/STM32F1xx_HAL_Driver/Inc/stm32f1xx_ll_bus.h **** #endif /*SPI3*/
 131:Drivers/STM32F1xx_HAL_Driver/Inc/stm32f1xx_ll_bus.h **** #if defined(TIM12)
 132:Drivers/STM32F1xx_HAL_Driver/Inc/stm32f1xx_ll_bus.h **** #define LL_APB1_GRP1_PERIPH_TIM12          RCC_APB1ENR_TIM12EN
 133:Drivers/STM32F1xx_HAL_Driver/Inc/stm32f1xx_ll_bus.h **** #endif /*TIM12*/
 134:Drivers/STM32F1xx_HAL_Driver/Inc/stm32f1xx_ll_bus.h **** #if defined(TIM13)
 135:Drivers/STM32F1xx_HAL_Driver/Inc/stm32f1xx_ll_bus.h **** #define LL_APB1_GRP1_PERIPH_TIM13          RCC_APB1ENR_TIM13EN
 136:Drivers/STM32F1xx_HAL_Driver/Inc/stm32f1xx_ll_bus.h **** #endif /*TIM13*/
 137:Drivers/STM32F1xx_HAL_Driver/Inc/stm32f1xx_ll_bus.h **** #if defined(TIM14)
 138:Drivers/STM32F1xx_HAL_Driver/Inc/stm32f1xx_ll_bus.h **** #define LL_APB1_GRP1_PERIPH_TIM14          RCC_APB1ENR_TIM14EN
ARM GAS  /var/folders/20/cstyxln53wn53rr40gj353bh0000gn/T//ccSZWiEf.s 			page 21


 139:Drivers/STM32F1xx_HAL_Driver/Inc/stm32f1xx_ll_bus.h **** #endif /*TIM14*/
 140:Drivers/STM32F1xx_HAL_Driver/Inc/stm32f1xx_ll_bus.h **** #define LL_APB1_GRP1_PERIPH_TIM2           RCC_APB1ENR_TIM2EN
 141:Drivers/STM32F1xx_HAL_Driver/Inc/stm32f1xx_ll_bus.h **** #define LL_APB1_GRP1_PERIPH_TIM3           RCC_APB1ENR_TIM3EN
 142:Drivers/STM32F1xx_HAL_Driver/Inc/stm32f1xx_ll_bus.h **** #if defined(TIM4)
 143:Drivers/STM32F1xx_HAL_Driver/Inc/stm32f1xx_ll_bus.h **** #define LL_APB1_GRP1_PERIPH_TIM4           RCC_APB1ENR_TIM4EN
 144:Drivers/STM32F1xx_HAL_Driver/Inc/stm32f1xx_ll_bus.h **** #endif /*TIM4*/
 145:Drivers/STM32F1xx_HAL_Driver/Inc/stm32f1xx_ll_bus.h **** #if defined(TIM5)
 146:Drivers/STM32F1xx_HAL_Driver/Inc/stm32f1xx_ll_bus.h **** #define LL_APB1_GRP1_PERIPH_TIM5           RCC_APB1ENR_TIM5EN
 147:Drivers/STM32F1xx_HAL_Driver/Inc/stm32f1xx_ll_bus.h **** #endif /*TIM5*/
 148:Drivers/STM32F1xx_HAL_Driver/Inc/stm32f1xx_ll_bus.h **** #if defined(TIM6)
 149:Drivers/STM32F1xx_HAL_Driver/Inc/stm32f1xx_ll_bus.h **** #define LL_APB1_GRP1_PERIPH_TIM6           RCC_APB1ENR_TIM6EN
 150:Drivers/STM32F1xx_HAL_Driver/Inc/stm32f1xx_ll_bus.h **** #endif /*TIM6*/
 151:Drivers/STM32F1xx_HAL_Driver/Inc/stm32f1xx_ll_bus.h **** #if defined(TIM7)
 152:Drivers/STM32F1xx_HAL_Driver/Inc/stm32f1xx_ll_bus.h **** #define LL_APB1_GRP1_PERIPH_TIM7           RCC_APB1ENR_TIM7EN
 153:Drivers/STM32F1xx_HAL_Driver/Inc/stm32f1xx_ll_bus.h **** #endif /*TIM7*/
 154:Drivers/STM32F1xx_HAL_Driver/Inc/stm32f1xx_ll_bus.h **** #if defined(UART4)
 155:Drivers/STM32F1xx_HAL_Driver/Inc/stm32f1xx_ll_bus.h **** #define LL_APB1_GRP1_PERIPH_UART4          RCC_APB1ENR_UART4EN
 156:Drivers/STM32F1xx_HAL_Driver/Inc/stm32f1xx_ll_bus.h **** #endif /*UART4*/
 157:Drivers/STM32F1xx_HAL_Driver/Inc/stm32f1xx_ll_bus.h **** #if defined(UART5)
 158:Drivers/STM32F1xx_HAL_Driver/Inc/stm32f1xx_ll_bus.h **** #define LL_APB1_GRP1_PERIPH_UART5          RCC_APB1ENR_UART5EN
 159:Drivers/STM32F1xx_HAL_Driver/Inc/stm32f1xx_ll_bus.h **** #endif /*UART5*/
 160:Drivers/STM32F1xx_HAL_Driver/Inc/stm32f1xx_ll_bus.h **** #define LL_APB1_GRP1_PERIPH_USART2         RCC_APB1ENR_USART2EN
 161:Drivers/STM32F1xx_HAL_Driver/Inc/stm32f1xx_ll_bus.h **** #if defined(USART3)
 162:Drivers/STM32F1xx_HAL_Driver/Inc/stm32f1xx_ll_bus.h **** #define LL_APB1_GRP1_PERIPH_USART3         RCC_APB1ENR_USART3EN
 163:Drivers/STM32F1xx_HAL_Driver/Inc/stm32f1xx_ll_bus.h **** #endif /*USART3*/
 164:Drivers/STM32F1xx_HAL_Driver/Inc/stm32f1xx_ll_bus.h **** #if defined(USB)
 165:Drivers/STM32F1xx_HAL_Driver/Inc/stm32f1xx_ll_bus.h **** #define LL_APB1_GRP1_PERIPH_USB            RCC_APB1ENR_USBEN
 166:Drivers/STM32F1xx_HAL_Driver/Inc/stm32f1xx_ll_bus.h **** #endif /*USB*/
 167:Drivers/STM32F1xx_HAL_Driver/Inc/stm32f1xx_ll_bus.h **** #define LL_APB1_GRP1_PERIPH_WWDG           RCC_APB1ENR_WWDGEN
 168:Drivers/STM32F1xx_HAL_Driver/Inc/stm32f1xx_ll_bus.h **** /**
 169:Drivers/STM32F1xx_HAL_Driver/Inc/stm32f1xx_ll_bus.h ****   * @}
 170:Drivers/STM32F1xx_HAL_Driver/Inc/stm32f1xx_ll_bus.h ****   */
 171:Drivers/STM32F1xx_HAL_Driver/Inc/stm32f1xx_ll_bus.h **** 
 172:Drivers/STM32F1xx_HAL_Driver/Inc/stm32f1xx_ll_bus.h **** /** @defgroup BUS_LL_EC_APB2_GRP1_PERIPH  APB2 GRP1 PERIPH
 173:Drivers/STM32F1xx_HAL_Driver/Inc/stm32f1xx_ll_bus.h ****   * @{
 174:Drivers/STM32F1xx_HAL_Driver/Inc/stm32f1xx_ll_bus.h ****   */
 175:Drivers/STM32F1xx_HAL_Driver/Inc/stm32f1xx_ll_bus.h **** #define LL_APB2_GRP1_PERIPH_ALL            (uint32_t)0xFFFFFFFFU
 176:Drivers/STM32F1xx_HAL_Driver/Inc/stm32f1xx_ll_bus.h **** #define LL_APB2_GRP1_PERIPH_ADC1           RCC_APB2ENR_ADC1EN
 177:Drivers/STM32F1xx_HAL_Driver/Inc/stm32f1xx_ll_bus.h **** #if defined(ADC2)
 178:Drivers/STM32F1xx_HAL_Driver/Inc/stm32f1xx_ll_bus.h **** #define LL_APB2_GRP1_PERIPH_ADC2           RCC_APB2ENR_ADC2EN
 179:Drivers/STM32F1xx_HAL_Driver/Inc/stm32f1xx_ll_bus.h **** #endif /*ADC2*/
 180:Drivers/STM32F1xx_HAL_Driver/Inc/stm32f1xx_ll_bus.h **** #if defined(ADC3)
 181:Drivers/STM32F1xx_HAL_Driver/Inc/stm32f1xx_ll_bus.h **** #define LL_APB2_GRP1_PERIPH_ADC3           RCC_APB2ENR_ADC3EN
 182:Drivers/STM32F1xx_HAL_Driver/Inc/stm32f1xx_ll_bus.h **** #endif /*ADC3*/
 183:Drivers/STM32F1xx_HAL_Driver/Inc/stm32f1xx_ll_bus.h **** #define LL_APB2_GRP1_PERIPH_AFIO           RCC_APB2ENR_AFIOEN
 184:Drivers/STM32F1xx_HAL_Driver/Inc/stm32f1xx_ll_bus.h **** #define LL_APB2_GRP1_PERIPH_GPIOA          RCC_APB2ENR_IOPAEN
 185:Drivers/STM32F1xx_HAL_Driver/Inc/stm32f1xx_ll_bus.h **** #define LL_APB2_GRP1_PERIPH_GPIOB          RCC_APB2ENR_IOPBEN
 186:Drivers/STM32F1xx_HAL_Driver/Inc/stm32f1xx_ll_bus.h **** #define LL_APB2_GRP1_PERIPH_GPIOC          RCC_APB2ENR_IOPCEN
 187:Drivers/STM32F1xx_HAL_Driver/Inc/stm32f1xx_ll_bus.h **** #define LL_APB2_GRP1_PERIPH_GPIOD          RCC_APB2ENR_IOPDEN
 188:Drivers/STM32F1xx_HAL_Driver/Inc/stm32f1xx_ll_bus.h **** #if defined(GPIOE)
 189:Drivers/STM32F1xx_HAL_Driver/Inc/stm32f1xx_ll_bus.h **** #define LL_APB2_GRP1_PERIPH_GPIOE          RCC_APB2ENR_IOPEEN
 190:Drivers/STM32F1xx_HAL_Driver/Inc/stm32f1xx_ll_bus.h **** #endif /*GPIOE*/
 191:Drivers/STM32F1xx_HAL_Driver/Inc/stm32f1xx_ll_bus.h **** #if defined(GPIOF)
 192:Drivers/STM32F1xx_HAL_Driver/Inc/stm32f1xx_ll_bus.h **** #define LL_APB2_GRP1_PERIPH_GPIOF          RCC_APB2ENR_IOPFEN
 193:Drivers/STM32F1xx_HAL_Driver/Inc/stm32f1xx_ll_bus.h **** #endif /*GPIOF*/
 194:Drivers/STM32F1xx_HAL_Driver/Inc/stm32f1xx_ll_bus.h **** #if defined(GPIOG)
 195:Drivers/STM32F1xx_HAL_Driver/Inc/stm32f1xx_ll_bus.h **** #define LL_APB2_GRP1_PERIPH_GPIOG          RCC_APB2ENR_IOPGEN
ARM GAS  /var/folders/20/cstyxln53wn53rr40gj353bh0000gn/T//ccSZWiEf.s 			page 22


 196:Drivers/STM32F1xx_HAL_Driver/Inc/stm32f1xx_ll_bus.h **** #endif /*GPIOG*/
 197:Drivers/STM32F1xx_HAL_Driver/Inc/stm32f1xx_ll_bus.h **** #define LL_APB2_GRP1_PERIPH_SPI1           RCC_APB2ENR_SPI1EN
 198:Drivers/STM32F1xx_HAL_Driver/Inc/stm32f1xx_ll_bus.h **** #if defined(TIM10)
 199:Drivers/STM32F1xx_HAL_Driver/Inc/stm32f1xx_ll_bus.h **** #define LL_APB2_GRP1_PERIPH_TIM10          RCC_APB2ENR_TIM10EN
 200:Drivers/STM32F1xx_HAL_Driver/Inc/stm32f1xx_ll_bus.h **** #endif /*TIM10*/
 201:Drivers/STM32F1xx_HAL_Driver/Inc/stm32f1xx_ll_bus.h **** #if defined(TIM11)
 202:Drivers/STM32F1xx_HAL_Driver/Inc/stm32f1xx_ll_bus.h **** #define LL_APB2_GRP1_PERIPH_TIM11          RCC_APB2ENR_TIM11EN
 203:Drivers/STM32F1xx_HAL_Driver/Inc/stm32f1xx_ll_bus.h **** #endif /*TIM11*/
 204:Drivers/STM32F1xx_HAL_Driver/Inc/stm32f1xx_ll_bus.h **** #if defined(TIM15)
 205:Drivers/STM32F1xx_HAL_Driver/Inc/stm32f1xx_ll_bus.h **** #define LL_APB2_GRP1_PERIPH_TIM15          RCC_APB2ENR_TIM15EN
 206:Drivers/STM32F1xx_HAL_Driver/Inc/stm32f1xx_ll_bus.h **** #endif /*TIM15*/
 207:Drivers/STM32F1xx_HAL_Driver/Inc/stm32f1xx_ll_bus.h **** #if defined(TIM16)
 208:Drivers/STM32F1xx_HAL_Driver/Inc/stm32f1xx_ll_bus.h **** #define LL_APB2_GRP1_PERIPH_TIM16          RCC_APB2ENR_TIM16EN
 209:Drivers/STM32F1xx_HAL_Driver/Inc/stm32f1xx_ll_bus.h **** #endif /*TIM16*/
 210:Drivers/STM32F1xx_HAL_Driver/Inc/stm32f1xx_ll_bus.h **** #if defined(TIM17)
 211:Drivers/STM32F1xx_HAL_Driver/Inc/stm32f1xx_ll_bus.h **** #define LL_APB2_GRP1_PERIPH_TIM17          RCC_APB2ENR_TIM17EN
 212:Drivers/STM32F1xx_HAL_Driver/Inc/stm32f1xx_ll_bus.h **** #endif /*TIM17*/
 213:Drivers/STM32F1xx_HAL_Driver/Inc/stm32f1xx_ll_bus.h **** #define LL_APB2_GRP1_PERIPH_TIM1           RCC_APB2ENR_TIM1EN
 214:Drivers/STM32F1xx_HAL_Driver/Inc/stm32f1xx_ll_bus.h **** #if defined(TIM8)
 215:Drivers/STM32F1xx_HAL_Driver/Inc/stm32f1xx_ll_bus.h **** #define LL_APB2_GRP1_PERIPH_TIM8           RCC_APB2ENR_TIM8EN
 216:Drivers/STM32F1xx_HAL_Driver/Inc/stm32f1xx_ll_bus.h **** #endif /*TIM8*/
 217:Drivers/STM32F1xx_HAL_Driver/Inc/stm32f1xx_ll_bus.h **** #if defined(TIM9)
 218:Drivers/STM32F1xx_HAL_Driver/Inc/stm32f1xx_ll_bus.h **** #define LL_APB2_GRP1_PERIPH_TIM9           RCC_APB2ENR_TIM9EN
 219:Drivers/STM32F1xx_HAL_Driver/Inc/stm32f1xx_ll_bus.h **** #endif /*TIM9*/
 220:Drivers/STM32F1xx_HAL_Driver/Inc/stm32f1xx_ll_bus.h **** #define LL_APB2_GRP1_PERIPH_USART1         RCC_APB2ENR_USART1EN
 221:Drivers/STM32F1xx_HAL_Driver/Inc/stm32f1xx_ll_bus.h **** /**
 222:Drivers/STM32F1xx_HAL_Driver/Inc/stm32f1xx_ll_bus.h ****   * @}
 223:Drivers/STM32F1xx_HAL_Driver/Inc/stm32f1xx_ll_bus.h ****   */
 224:Drivers/STM32F1xx_HAL_Driver/Inc/stm32f1xx_ll_bus.h **** 
 225:Drivers/STM32F1xx_HAL_Driver/Inc/stm32f1xx_ll_bus.h **** /**
 226:Drivers/STM32F1xx_HAL_Driver/Inc/stm32f1xx_ll_bus.h ****   * @}
 227:Drivers/STM32F1xx_HAL_Driver/Inc/stm32f1xx_ll_bus.h ****   */
 228:Drivers/STM32F1xx_HAL_Driver/Inc/stm32f1xx_ll_bus.h **** 
 229:Drivers/STM32F1xx_HAL_Driver/Inc/stm32f1xx_ll_bus.h **** /* Exported macro ------------------------------------------------------------*/
 230:Drivers/STM32F1xx_HAL_Driver/Inc/stm32f1xx_ll_bus.h **** 
 231:Drivers/STM32F1xx_HAL_Driver/Inc/stm32f1xx_ll_bus.h **** /* Exported functions --------------------------------------------------------*/
 232:Drivers/STM32F1xx_HAL_Driver/Inc/stm32f1xx_ll_bus.h **** /** @defgroup BUS_LL_Exported_Functions BUS Exported Functions
 233:Drivers/STM32F1xx_HAL_Driver/Inc/stm32f1xx_ll_bus.h ****   * @{
 234:Drivers/STM32F1xx_HAL_Driver/Inc/stm32f1xx_ll_bus.h ****   */
 235:Drivers/STM32F1xx_HAL_Driver/Inc/stm32f1xx_ll_bus.h **** 
 236:Drivers/STM32F1xx_HAL_Driver/Inc/stm32f1xx_ll_bus.h **** /** @defgroup BUS_LL_EF_AHB1 AHB1
 237:Drivers/STM32F1xx_HAL_Driver/Inc/stm32f1xx_ll_bus.h ****   * @{
 238:Drivers/STM32F1xx_HAL_Driver/Inc/stm32f1xx_ll_bus.h ****   */
 239:Drivers/STM32F1xx_HAL_Driver/Inc/stm32f1xx_ll_bus.h **** 
 240:Drivers/STM32F1xx_HAL_Driver/Inc/stm32f1xx_ll_bus.h **** /**
 241:Drivers/STM32F1xx_HAL_Driver/Inc/stm32f1xx_ll_bus.h ****   * @brief  Enable AHB1 peripherals clock.
 242:Drivers/STM32F1xx_HAL_Driver/Inc/stm32f1xx_ll_bus.h ****   * @rmtoll AHBENR       CRCEN         LL_AHB1_GRP1_EnableClock\n
 243:Drivers/STM32F1xx_HAL_Driver/Inc/stm32f1xx_ll_bus.h ****   *         AHBENR       DMA1EN        LL_AHB1_GRP1_EnableClock\n
 244:Drivers/STM32F1xx_HAL_Driver/Inc/stm32f1xx_ll_bus.h ****   *         AHBENR       DMA2EN        LL_AHB1_GRP1_EnableClock\n
 245:Drivers/STM32F1xx_HAL_Driver/Inc/stm32f1xx_ll_bus.h ****   *         AHBENR       ETHMACEN      LL_AHB1_GRP1_EnableClock\n
 246:Drivers/STM32F1xx_HAL_Driver/Inc/stm32f1xx_ll_bus.h ****   *         AHBENR       ETHMACRXEN    LL_AHB1_GRP1_EnableClock\n
 247:Drivers/STM32F1xx_HAL_Driver/Inc/stm32f1xx_ll_bus.h ****   *         AHBENR       ETHMACTXEN    LL_AHB1_GRP1_EnableClock\n
 248:Drivers/STM32F1xx_HAL_Driver/Inc/stm32f1xx_ll_bus.h ****   *         AHBENR       FLITFEN       LL_AHB1_GRP1_EnableClock\n
 249:Drivers/STM32F1xx_HAL_Driver/Inc/stm32f1xx_ll_bus.h ****   *         AHBENR       FSMCEN        LL_AHB1_GRP1_EnableClock\n
 250:Drivers/STM32F1xx_HAL_Driver/Inc/stm32f1xx_ll_bus.h ****   *         AHBENR       OTGFSEN       LL_AHB1_GRP1_EnableClock\n
 251:Drivers/STM32F1xx_HAL_Driver/Inc/stm32f1xx_ll_bus.h ****   *         AHBENR       SDIOEN        LL_AHB1_GRP1_EnableClock\n
 252:Drivers/STM32F1xx_HAL_Driver/Inc/stm32f1xx_ll_bus.h ****   *         AHBENR       SRAMEN        LL_AHB1_GRP1_EnableClock
ARM GAS  /var/folders/20/cstyxln53wn53rr40gj353bh0000gn/T//ccSZWiEf.s 			page 23


 253:Drivers/STM32F1xx_HAL_Driver/Inc/stm32f1xx_ll_bus.h ****   * @param  Periphs This parameter can be a combination of the following values:
 254:Drivers/STM32F1xx_HAL_Driver/Inc/stm32f1xx_ll_bus.h ****   *         @arg @ref LL_AHB1_GRP1_PERIPH_CRC
 255:Drivers/STM32F1xx_HAL_Driver/Inc/stm32f1xx_ll_bus.h ****   *         @arg @ref LL_AHB1_GRP1_PERIPH_DMA1
 256:Drivers/STM32F1xx_HAL_Driver/Inc/stm32f1xx_ll_bus.h ****   *         @arg @ref LL_AHB1_GRP1_PERIPH_DMA2 (*)
 257:Drivers/STM32F1xx_HAL_Driver/Inc/stm32f1xx_ll_bus.h ****   *         @arg @ref LL_AHB1_GRP1_PERIPH_ETHMAC (*)
 258:Drivers/STM32F1xx_HAL_Driver/Inc/stm32f1xx_ll_bus.h ****   *         @arg @ref LL_AHB1_GRP1_PERIPH_ETHMACRX (*)
 259:Drivers/STM32F1xx_HAL_Driver/Inc/stm32f1xx_ll_bus.h ****   *         @arg @ref LL_AHB1_GRP1_PERIPH_ETHMACTX (*)
 260:Drivers/STM32F1xx_HAL_Driver/Inc/stm32f1xx_ll_bus.h ****   *         @arg @ref LL_AHB1_GRP1_PERIPH_FLASH
 261:Drivers/STM32F1xx_HAL_Driver/Inc/stm32f1xx_ll_bus.h ****   *         @arg @ref LL_AHB1_GRP1_PERIPH_FSMC (*)
 262:Drivers/STM32F1xx_HAL_Driver/Inc/stm32f1xx_ll_bus.h ****   *         @arg @ref LL_AHB1_GRP1_PERIPH_OTGFS (*)
 263:Drivers/STM32F1xx_HAL_Driver/Inc/stm32f1xx_ll_bus.h ****   *         @arg @ref LL_AHB1_GRP1_PERIPH_SDIO (*)
 264:Drivers/STM32F1xx_HAL_Driver/Inc/stm32f1xx_ll_bus.h ****   *         @arg @ref LL_AHB1_GRP1_PERIPH_SRAM
 265:Drivers/STM32F1xx_HAL_Driver/Inc/stm32f1xx_ll_bus.h ****   *
 266:Drivers/STM32F1xx_HAL_Driver/Inc/stm32f1xx_ll_bus.h ****   *         (*) value not defined in all devices.
 267:Drivers/STM32F1xx_HAL_Driver/Inc/stm32f1xx_ll_bus.h ****   * @retval None
 268:Drivers/STM32F1xx_HAL_Driver/Inc/stm32f1xx_ll_bus.h **** */
 269:Drivers/STM32F1xx_HAL_Driver/Inc/stm32f1xx_ll_bus.h **** __STATIC_INLINE void LL_AHB1_GRP1_EnableClock(uint32_t Periphs)
 270:Drivers/STM32F1xx_HAL_Driver/Inc/stm32f1xx_ll_bus.h **** {
 271:Drivers/STM32F1xx_HAL_Driver/Inc/stm32f1xx_ll_bus.h ****   __IO uint32_t tmpreg;
 272:Drivers/STM32F1xx_HAL_Driver/Inc/stm32f1xx_ll_bus.h ****   SET_BIT(RCC->AHBENR, Periphs);
 273:Drivers/STM32F1xx_HAL_Driver/Inc/stm32f1xx_ll_bus.h ****   /* Delay after an RCC peripheral clock enabling */
 274:Drivers/STM32F1xx_HAL_Driver/Inc/stm32f1xx_ll_bus.h ****   tmpreg = READ_BIT(RCC->AHBENR, Periphs);
 275:Drivers/STM32F1xx_HAL_Driver/Inc/stm32f1xx_ll_bus.h ****   (void)tmpreg;
 276:Drivers/STM32F1xx_HAL_Driver/Inc/stm32f1xx_ll_bus.h **** }
 277:Drivers/STM32F1xx_HAL_Driver/Inc/stm32f1xx_ll_bus.h **** 
 278:Drivers/STM32F1xx_HAL_Driver/Inc/stm32f1xx_ll_bus.h **** /**
 279:Drivers/STM32F1xx_HAL_Driver/Inc/stm32f1xx_ll_bus.h ****   * @brief  Check if AHB1 peripheral clock is enabled or not
 280:Drivers/STM32F1xx_HAL_Driver/Inc/stm32f1xx_ll_bus.h ****   * @rmtoll AHBENR       CRCEN         LL_AHB1_GRP1_IsEnabledClock\n
 281:Drivers/STM32F1xx_HAL_Driver/Inc/stm32f1xx_ll_bus.h ****   *         AHBENR       DMA1EN        LL_AHB1_GRP1_IsEnabledClock\n
 282:Drivers/STM32F1xx_HAL_Driver/Inc/stm32f1xx_ll_bus.h ****   *         AHBENR       DMA2EN        LL_AHB1_GRP1_IsEnabledClock\n
 283:Drivers/STM32F1xx_HAL_Driver/Inc/stm32f1xx_ll_bus.h ****   *         AHBENR       ETHMACEN      LL_AHB1_GRP1_IsEnabledClock\n
 284:Drivers/STM32F1xx_HAL_Driver/Inc/stm32f1xx_ll_bus.h ****   *         AHBENR       ETHMACRXEN    LL_AHB1_GRP1_IsEnabledClock\n
 285:Drivers/STM32F1xx_HAL_Driver/Inc/stm32f1xx_ll_bus.h ****   *         AHBENR       ETHMACTXEN    LL_AHB1_GRP1_IsEnabledClock\n
 286:Drivers/STM32F1xx_HAL_Driver/Inc/stm32f1xx_ll_bus.h ****   *         AHBENR       FLITFEN       LL_AHB1_GRP1_IsEnabledClock\n
 287:Drivers/STM32F1xx_HAL_Driver/Inc/stm32f1xx_ll_bus.h ****   *         AHBENR       FSMCEN        LL_AHB1_GRP1_IsEnabledClock\n
 288:Drivers/STM32F1xx_HAL_Driver/Inc/stm32f1xx_ll_bus.h ****   *         AHBENR       OTGFSEN       LL_AHB1_GRP1_IsEnabledClock\n
 289:Drivers/STM32F1xx_HAL_Driver/Inc/stm32f1xx_ll_bus.h ****   *         AHBENR       SDIOEN        LL_AHB1_GRP1_IsEnabledClock\n
 290:Drivers/STM32F1xx_HAL_Driver/Inc/stm32f1xx_ll_bus.h ****   *         AHBENR       SRAMEN        LL_AHB1_GRP1_IsEnabledClock
 291:Drivers/STM32F1xx_HAL_Driver/Inc/stm32f1xx_ll_bus.h ****   * @param  Periphs This parameter can be a combination of the following values:
 292:Drivers/STM32F1xx_HAL_Driver/Inc/stm32f1xx_ll_bus.h ****   *         @arg @ref LL_AHB1_GRP1_PERIPH_CRC
 293:Drivers/STM32F1xx_HAL_Driver/Inc/stm32f1xx_ll_bus.h ****   *         @arg @ref LL_AHB1_GRP1_PERIPH_DMA1
 294:Drivers/STM32F1xx_HAL_Driver/Inc/stm32f1xx_ll_bus.h ****   *         @arg @ref LL_AHB1_GRP1_PERIPH_DMA2 (*)
 295:Drivers/STM32F1xx_HAL_Driver/Inc/stm32f1xx_ll_bus.h ****   *         @arg @ref LL_AHB1_GRP1_PERIPH_ETHMAC (*)
 296:Drivers/STM32F1xx_HAL_Driver/Inc/stm32f1xx_ll_bus.h ****   *         @arg @ref LL_AHB1_GRP1_PERIPH_ETHMACRX (*)
 297:Drivers/STM32F1xx_HAL_Driver/Inc/stm32f1xx_ll_bus.h ****   *         @arg @ref LL_AHB1_GRP1_PERIPH_ETHMACTX (*)
 298:Drivers/STM32F1xx_HAL_Driver/Inc/stm32f1xx_ll_bus.h ****   *         @arg @ref LL_AHB1_GRP1_PERIPH_FLASH
 299:Drivers/STM32F1xx_HAL_Driver/Inc/stm32f1xx_ll_bus.h ****   *         @arg @ref LL_AHB1_GRP1_PERIPH_FSMC (*)
 300:Drivers/STM32F1xx_HAL_Driver/Inc/stm32f1xx_ll_bus.h ****   *         @arg @ref LL_AHB1_GRP1_PERIPH_OTGFS (*)
 301:Drivers/STM32F1xx_HAL_Driver/Inc/stm32f1xx_ll_bus.h ****   *         @arg @ref LL_AHB1_GRP1_PERIPH_SDIO (*)
 302:Drivers/STM32F1xx_HAL_Driver/Inc/stm32f1xx_ll_bus.h ****   *         @arg @ref LL_AHB1_GRP1_PERIPH_SRAM
 303:Drivers/STM32F1xx_HAL_Driver/Inc/stm32f1xx_ll_bus.h ****   *
 304:Drivers/STM32F1xx_HAL_Driver/Inc/stm32f1xx_ll_bus.h ****   *         (*) value not defined in all devices.
 305:Drivers/STM32F1xx_HAL_Driver/Inc/stm32f1xx_ll_bus.h ****   * @retval State of Periphs (1 or 0).
 306:Drivers/STM32F1xx_HAL_Driver/Inc/stm32f1xx_ll_bus.h **** */
 307:Drivers/STM32F1xx_HAL_Driver/Inc/stm32f1xx_ll_bus.h **** __STATIC_INLINE uint32_t LL_AHB1_GRP1_IsEnabledClock(uint32_t Periphs)
 308:Drivers/STM32F1xx_HAL_Driver/Inc/stm32f1xx_ll_bus.h **** {
 309:Drivers/STM32F1xx_HAL_Driver/Inc/stm32f1xx_ll_bus.h ****   return (READ_BIT(RCC->AHBENR, Periphs) == Periphs);
ARM GAS  /var/folders/20/cstyxln53wn53rr40gj353bh0000gn/T//ccSZWiEf.s 			page 24


 310:Drivers/STM32F1xx_HAL_Driver/Inc/stm32f1xx_ll_bus.h **** }
 311:Drivers/STM32F1xx_HAL_Driver/Inc/stm32f1xx_ll_bus.h **** 
 312:Drivers/STM32F1xx_HAL_Driver/Inc/stm32f1xx_ll_bus.h **** /**
 313:Drivers/STM32F1xx_HAL_Driver/Inc/stm32f1xx_ll_bus.h ****   * @brief  Disable AHB1 peripherals clock.
 314:Drivers/STM32F1xx_HAL_Driver/Inc/stm32f1xx_ll_bus.h ****   * @rmtoll AHBENR       CRCEN         LL_AHB1_GRP1_DisableClock\n
 315:Drivers/STM32F1xx_HAL_Driver/Inc/stm32f1xx_ll_bus.h ****   *         AHBENR       DMA1EN        LL_AHB1_GRP1_DisableClock\n
 316:Drivers/STM32F1xx_HAL_Driver/Inc/stm32f1xx_ll_bus.h ****   *         AHBENR       DMA2EN        LL_AHB1_GRP1_DisableClock\n
 317:Drivers/STM32F1xx_HAL_Driver/Inc/stm32f1xx_ll_bus.h ****   *         AHBENR       ETHMACEN      LL_AHB1_GRP1_DisableClock\n
 318:Drivers/STM32F1xx_HAL_Driver/Inc/stm32f1xx_ll_bus.h ****   *         AHBENR       ETHMACRXEN    LL_AHB1_GRP1_DisableClock\n
 319:Drivers/STM32F1xx_HAL_Driver/Inc/stm32f1xx_ll_bus.h ****   *         AHBENR       ETHMACTXEN    LL_AHB1_GRP1_DisableClock\n
 320:Drivers/STM32F1xx_HAL_Driver/Inc/stm32f1xx_ll_bus.h ****   *         AHBENR       FLITFEN       LL_AHB1_GRP1_DisableClock\n
 321:Drivers/STM32F1xx_HAL_Driver/Inc/stm32f1xx_ll_bus.h ****   *         AHBENR       FSMCEN        LL_AHB1_GRP1_DisableClock\n
 322:Drivers/STM32F1xx_HAL_Driver/Inc/stm32f1xx_ll_bus.h ****   *         AHBENR       OTGFSEN       LL_AHB1_GRP1_DisableClock\n
 323:Drivers/STM32F1xx_HAL_Driver/Inc/stm32f1xx_ll_bus.h ****   *         AHBENR       SDIOEN        LL_AHB1_GRP1_DisableClock\n
 324:Drivers/STM32F1xx_HAL_Driver/Inc/stm32f1xx_ll_bus.h ****   *         AHBENR       SRAMEN        LL_AHB1_GRP1_DisableClock
 325:Drivers/STM32F1xx_HAL_Driver/Inc/stm32f1xx_ll_bus.h ****   * @param  Periphs This parameter can be a combination of the following values:
 326:Drivers/STM32F1xx_HAL_Driver/Inc/stm32f1xx_ll_bus.h ****   *         @arg @ref LL_AHB1_GRP1_PERIPH_CRC
 327:Drivers/STM32F1xx_HAL_Driver/Inc/stm32f1xx_ll_bus.h ****   *         @arg @ref LL_AHB1_GRP1_PERIPH_DMA1
 328:Drivers/STM32F1xx_HAL_Driver/Inc/stm32f1xx_ll_bus.h ****   *         @arg @ref LL_AHB1_GRP1_PERIPH_DMA2 (*)
 329:Drivers/STM32F1xx_HAL_Driver/Inc/stm32f1xx_ll_bus.h ****   *         @arg @ref LL_AHB1_GRP1_PERIPH_ETHMAC (*)
 330:Drivers/STM32F1xx_HAL_Driver/Inc/stm32f1xx_ll_bus.h ****   *         @arg @ref LL_AHB1_GRP1_PERIPH_ETHMACRX (*)
 331:Drivers/STM32F1xx_HAL_Driver/Inc/stm32f1xx_ll_bus.h ****   *         @arg @ref LL_AHB1_GRP1_PERIPH_ETHMACTX (*)
 332:Drivers/STM32F1xx_HAL_Driver/Inc/stm32f1xx_ll_bus.h ****   *         @arg @ref LL_AHB1_GRP1_PERIPH_FLASH
 333:Drivers/STM32F1xx_HAL_Driver/Inc/stm32f1xx_ll_bus.h ****   *         @arg @ref LL_AHB1_GRP1_PERIPH_FSMC (*)
 334:Drivers/STM32F1xx_HAL_Driver/Inc/stm32f1xx_ll_bus.h ****   *         @arg @ref LL_AHB1_GRP1_PERIPH_OTGFS (*)
 335:Drivers/STM32F1xx_HAL_Driver/Inc/stm32f1xx_ll_bus.h ****   *         @arg @ref LL_AHB1_GRP1_PERIPH_SDIO (*)
 336:Drivers/STM32F1xx_HAL_Driver/Inc/stm32f1xx_ll_bus.h ****   *         @arg @ref LL_AHB1_GRP1_PERIPH_SRAM
 337:Drivers/STM32F1xx_HAL_Driver/Inc/stm32f1xx_ll_bus.h ****   *
 338:Drivers/STM32F1xx_HAL_Driver/Inc/stm32f1xx_ll_bus.h ****   *         (*) value not defined in all devices.
 339:Drivers/STM32F1xx_HAL_Driver/Inc/stm32f1xx_ll_bus.h ****   * @retval None
 340:Drivers/STM32F1xx_HAL_Driver/Inc/stm32f1xx_ll_bus.h **** */
 341:Drivers/STM32F1xx_HAL_Driver/Inc/stm32f1xx_ll_bus.h **** __STATIC_INLINE void LL_AHB1_GRP1_DisableClock(uint32_t Periphs)
 342:Drivers/STM32F1xx_HAL_Driver/Inc/stm32f1xx_ll_bus.h **** {
 343:Drivers/STM32F1xx_HAL_Driver/Inc/stm32f1xx_ll_bus.h ****   CLEAR_BIT(RCC->AHBENR, Periphs);
 344:Drivers/STM32F1xx_HAL_Driver/Inc/stm32f1xx_ll_bus.h **** }
 345:Drivers/STM32F1xx_HAL_Driver/Inc/stm32f1xx_ll_bus.h **** 
 346:Drivers/STM32F1xx_HAL_Driver/Inc/stm32f1xx_ll_bus.h **** #if defined(RCC_AHBRSTR_SUPPORT)
 347:Drivers/STM32F1xx_HAL_Driver/Inc/stm32f1xx_ll_bus.h **** /**
 348:Drivers/STM32F1xx_HAL_Driver/Inc/stm32f1xx_ll_bus.h ****   * @brief  Force AHB1 peripherals reset.
 349:Drivers/STM32F1xx_HAL_Driver/Inc/stm32f1xx_ll_bus.h ****   * @rmtoll AHBRSTR      ETHMACRST     LL_AHB1_GRP1_ForceReset\n
 350:Drivers/STM32F1xx_HAL_Driver/Inc/stm32f1xx_ll_bus.h ****   *         AHBRSTR      OTGFSRST      LL_AHB1_GRP1_ForceReset
 351:Drivers/STM32F1xx_HAL_Driver/Inc/stm32f1xx_ll_bus.h ****   * @param  Periphs This parameter can be a combination of the following values:
 352:Drivers/STM32F1xx_HAL_Driver/Inc/stm32f1xx_ll_bus.h ****   *         @arg @ref LL_AHB1_GRP1_PERIPH_ALL
 353:Drivers/STM32F1xx_HAL_Driver/Inc/stm32f1xx_ll_bus.h ****   *         @arg @ref LL_AHB1_GRP1_PERIPH_ETHMAC (*)
 354:Drivers/STM32F1xx_HAL_Driver/Inc/stm32f1xx_ll_bus.h ****   *         @arg @ref LL_AHB1_GRP1_PERIPH_OTGFS (*)
 355:Drivers/STM32F1xx_HAL_Driver/Inc/stm32f1xx_ll_bus.h ****   *
 356:Drivers/STM32F1xx_HAL_Driver/Inc/stm32f1xx_ll_bus.h ****   *         (*) value not defined in all devices.
 357:Drivers/STM32F1xx_HAL_Driver/Inc/stm32f1xx_ll_bus.h ****   * @retval None
 358:Drivers/STM32F1xx_HAL_Driver/Inc/stm32f1xx_ll_bus.h **** */
 359:Drivers/STM32F1xx_HAL_Driver/Inc/stm32f1xx_ll_bus.h **** __STATIC_INLINE void LL_AHB1_GRP1_ForceReset(uint32_t Periphs)
 360:Drivers/STM32F1xx_HAL_Driver/Inc/stm32f1xx_ll_bus.h **** {
 361:Drivers/STM32F1xx_HAL_Driver/Inc/stm32f1xx_ll_bus.h ****   SET_BIT(RCC->AHBRSTR, Periphs);
 362:Drivers/STM32F1xx_HAL_Driver/Inc/stm32f1xx_ll_bus.h **** }
 363:Drivers/STM32F1xx_HAL_Driver/Inc/stm32f1xx_ll_bus.h **** 
 364:Drivers/STM32F1xx_HAL_Driver/Inc/stm32f1xx_ll_bus.h **** /**
 365:Drivers/STM32F1xx_HAL_Driver/Inc/stm32f1xx_ll_bus.h ****   * @brief  Release AHB1 peripherals reset.
 366:Drivers/STM32F1xx_HAL_Driver/Inc/stm32f1xx_ll_bus.h ****   * @rmtoll AHBRSTR      ETHMACRST     LL_AHB1_GRP1_ReleaseReset\n
ARM GAS  /var/folders/20/cstyxln53wn53rr40gj353bh0000gn/T//ccSZWiEf.s 			page 25


 367:Drivers/STM32F1xx_HAL_Driver/Inc/stm32f1xx_ll_bus.h ****   *         AHBRSTR      OTGFSRST      LL_AHB1_GRP1_ReleaseReset
 368:Drivers/STM32F1xx_HAL_Driver/Inc/stm32f1xx_ll_bus.h ****   * @param  Periphs This parameter can be a combination of the following values:
 369:Drivers/STM32F1xx_HAL_Driver/Inc/stm32f1xx_ll_bus.h ****   *         @arg @ref LL_AHB1_GRP1_PERIPH_ALL
 370:Drivers/STM32F1xx_HAL_Driver/Inc/stm32f1xx_ll_bus.h ****   *         @arg @ref LL_AHB1_GRP1_PERIPH_ETHMAC (*)
 371:Drivers/STM32F1xx_HAL_Driver/Inc/stm32f1xx_ll_bus.h ****   *         @arg @ref LL_AHB1_GRP1_PERIPH_OTGFS (*)
 372:Drivers/STM32F1xx_HAL_Driver/Inc/stm32f1xx_ll_bus.h ****   *
 373:Drivers/STM32F1xx_HAL_Driver/Inc/stm32f1xx_ll_bus.h ****   *         (*) value not defined in all devices.
 374:Drivers/STM32F1xx_HAL_Driver/Inc/stm32f1xx_ll_bus.h ****   * @retval None
 375:Drivers/STM32F1xx_HAL_Driver/Inc/stm32f1xx_ll_bus.h **** */
 376:Drivers/STM32F1xx_HAL_Driver/Inc/stm32f1xx_ll_bus.h **** __STATIC_INLINE void LL_AHB1_GRP1_ReleaseReset(uint32_t Periphs)
 377:Drivers/STM32F1xx_HAL_Driver/Inc/stm32f1xx_ll_bus.h **** {
 378:Drivers/STM32F1xx_HAL_Driver/Inc/stm32f1xx_ll_bus.h ****   CLEAR_BIT(RCC->AHBRSTR, Periphs);
 379:Drivers/STM32F1xx_HAL_Driver/Inc/stm32f1xx_ll_bus.h **** }
 380:Drivers/STM32F1xx_HAL_Driver/Inc/stm32f1xx_ll_bus.h **** #endif /* RCC_AHBRSTR_SUPPORT */
 381:Drivers/STM32F1xx_HAL_Driver/Inc/stm32f1xx_ll_bus.h **** 
 382:Drivers/STM32F1xx_HAL_Driver/Inc/stm32f1xx_ll_bus.h **** /**
 383:Drivers/STM32F1xx_HAL_Driver/Inc/stm32f1xx_ll_bus.h ****   * @}
 384:Drivers/STM32F1xx_HAL_Driver/Inc/stm32f1xx_ll_bus.h ****   */
 385:Drivers/STM32F1xx_HAL_Driver/Inc/stm32f1xx_ll_bus.h **** 
 386:Drivers/STM32F1xx_HAL_Driver/Inc/stm32f1xx_ll_bus.h **** /** @defgroup BUS_LL_EF_APB1 APB1
 387:Drivers/STM32F1xx_HAL_Driver/Inc/stm32f1xx_ll_bus.h ****   * @{
 388:Drivers/STM32F1xx_HAL_Driver/Inc/stm32f1xx_ll_bus.h ****   */
 389:Drivers/STM32F1xx_HAL_Driver/Inc/stm32f1xx_ll_bus.h **** 
 390:Drivers/STM32F1xx_HAL_Driver/Inc/stm32f1xx_ll_bus.h **** /**
 391:Drivers/STM32F1xx_HAL_Driver/Inc/stm32f1xx_ll_bus.h ****   * @brief  Enable APB1 peripherals clock.
 392:Drivers/STM32F1xx_HAL_Driver/Inc/stm32f1xx_ll_bus.h ****   * @rmtoll APB1ENR      BKPEN         LL_APB1_GRP1_EnableClock\n
 393:Drivers/STM32F1xx_HAL_Driver/Inc/stm32f1xx_ll_bus.h ****   *         APB1ENR      CAN1EN        LL_APB1_GRP1_EnableClock\n
 394:Drivers/STM32F1xx_HAL_Driver/Inc/stm32f1xx_ll_bus.h ****   *         APB1ENR      CAN2EN        LL_APB1_GRP1_EnableClock\n
 395:Drivers/STM32F1xx_HAL_Driver/Inc/stm32f1xx_ll_bus.h ****   *         APB1ENR      CECEN         LL_APB1_GRP1_EnableClock\n
 396:Drivers/STM32F1xx_HAL_Driver/Inc/stm32f1xx_ll_bus.h ****   *         APB1ENR      DACEN         LL_APB1_GRP1_EnableClock\n
 397:Drivers/STM32F1xx_HAL_Driver/Inc/stm32f1xx_ll_bus.h ****   *         APB1ENR      I2C1EN        LL_APB1_GRP1_EnableClock\n
 398:Drivers/STM32F1xx_HAL_Driver/Inc/stm32f1xx_ll_bus.h ****   *         APB1ENR      I2C2EN        LL_APB1_GRP1_EnableClock\n
 399:Drivers/STM32F1xx_HAL_Driver/Inc/stm32f1xx_ll_bus.h ****   *         APB1ENR      PWREN         LL_APB1_GRP1_EnableClock\n
 400:Drivers/STM32F1xx_HAL_Driver/Inc/stm32f1xx_ll_bus.h ****   *         APB1ENR      SPI2EN        LL_APB1_GRP1_EnableClock\n
 401:Drivers/STM32F1xx_HAL_Driver/Inc/stm32f1xx_ll_bus.h ****   *         APB1ENR      SPI3EN        LL_APB1_GRP1_EnableClock\n
 402:Drivers/STM32F1xx_HAL_Driver/Inc/stm32f1xx_ll_bus.h ****   *         APB1ENR      TIM12EN       LL_APB1_GRP1_EnableClock\n
 403:Drivers/STM32F1xx_HAL_Driver/Inc/stm32f1xx_ll_bus.h ****   *         APB1ENR      TIM13EN       LL_APB1_GRP1_EnableClock\n
 404:Drivers/STM32F1xx_HAL_Driver/Inc/stm32f1xx_ll_bus.h ****   *         APB1ENR      TIM14EN       LL_APB1_GRP1_EnableClock\n
 405:Drivers/STM32F1xx_HAL_Driver/Inc/stm32f1xx_ll_bus.h ****   *         APB1ENR      TIM2EN        LL_APB1_GRP1_EnableClock\n
 406:Drivers/STM32F1xx_HAL_Driver/Inc/stm32f1xx_ll_bus.h ****   *         APB1ENR      TIM3EN        LL_APB1_GRP1_EnableClock\n
 407:Drivers/STM32F1xx_HAL_Driver/Inc/stm32f1xx_ll_bus.h ****   *         APB1ENR      TIM4EN        LL_APB1_GRP1_EnableClock\n
 408:Drivers/STM32F1xx_HAL_Driver/Inc/stm32f1xx_ll_bus.h ****   *         APB1ENR      TIM5EN        LL_APB1_GRP1_EnableClock\n
 409:Drivers/STM32F1xx_HAL_Driver/Inc/stm32f1xx_ll_bus.h ****   *         APB1ENR      TIM6EN        LL_APB1_GRP1_EnableClock\n
 410:Drivers/STM32F1xx_HAL_Driver/Inc/stm32f1xx_ll_bus.h ****   *         APB1ENR      TIM7EN        LL_APB1_GRP1_EnableClock\n
 411:Drivers/STM32F1xx_HAL_Driver/Inc/stm32f1xx_ll_bus.h ****   *         APB1ENR      UART4EN       LL_APB1_GRP1_EnableClock\n
 412:Drivers/STM32F1xx_HAL_Driver/Inc/stm32f1xx_ll_bus.h ****   *         APB1ENR      UART5EN       LL_APB1_GRP1_EnableClock\n
 413:Drivers/STM32F1xx_HAL_Driver/Inc/stm32f1xx_ll_bus.h ****   *         APB1ENR      USART2EN      LL_APB1_GRP1_EnableClock\n
 414:Drivers/STM32F1xx_HAL_Driver/Inc/stm32f1xx_ll_bus.h ****   *         APB1ENR      USART3EN      LL_APB1_GRP1_EnableClock\n
 415:Drivers/STM32F1xx_HAL_Driver/Inc/stm32f1xx_ll_bus.h ****   *         APB1ENR      USBEN         LL_APB1_GRP1_EnableClock\n
 416:Drivers/STM32F1xx_HAL_Driver/Inc/stm32f1xx_ll_bus.h ****   *         APB1ENR      WWDGEN        LL_APB1_GRP1_EnableClock
 417:Drivers/STM32F1xx_HAL_Driver/Inc/stm32f1xx_ll_bus.h ****   * @param  Periphs This parameter can be a combination of the following values:
 418:Drivers/STM32F1xx_HAL_Driver/Inc/stm32f1xx_ll_bus.h ****   *         @arg @ref LL_APB1_GRP1_PERIPH_BKP
 419:Drivers/STM32F1xx_HAL_Driver/Inc/stm32f1xx_ll_bus.h ****   *         @arg @ref LL_APB1_GRP1_PERIPH_CAN1 (*)
 420:Drivers/STM32F1xx_HAL_Driver/Inc/stm32f1xx_ll_bus.h ****   *         @arg @ref LL_APB1_GRP1_PERIPH_CAN2 (*)
 421:Drivers/STM32F1xx_HAL_Driver/Inc/stm32f1xx_ll_bus.h ****   *         @arg @ref LL_APB1_GRP1_PERIPH_CEC (*)
 422:Drivers/STM32F1xx_HAL_Driver/Inc/stm32f1xx_ll_bus.h ****   *         @arg @ref LL_APB1_GRP1_PERIPH_DAC1 (*)
 423:Drivers/STM32F1xx_HAL_Driver/Inc/stm32f1xx_ll_bus.h ****   *         @arg @ref LL_APB1_GRP1_PERIPH_I2C1
ARM GAS  /var/folders/20/cstyxln53wn53rr40gj353bh0000gn/T//ccSZWiEf.s 			page 26


 424:Drivers/STM32F1xx_HAL_Driver/Inc/stm32f1xx_ll_bus.h ****   *         @arg @ref LL_APB1_GRP1_PERIPH_I2C2 (*)
 425:Drivers/STM32F1xx_HAL_Driver/Inc/stm32f1xx_ll_bus.h ****   *         @arg @ref LL_APB1_GRP1_PERIPH_PWR
 426:Drivers/STM32F1xx_HAL_Driver/Inc/stm32f1xx_ll_bus.h ****   *         @arg @ref LL_APB1_GRP1_PERIPH_SPI2 (*)
 427:Drivers/STM32F1xx_HAL_Driver/Inc/stm32f1xx_ll_bus.h ****   *         @arg @ref LL_APB1_GRP1_PERIPH_SPI3 (*)
 428:Drivers/STM32F1xx_HAL_Driver/Inc/stm32f1xx_ll_bus.h ****   *         @arg @ref LL_APB1_GRP1_PERIPH_TIM12 (*)
 429:Drivers/STM32F1xx_HAL_Driver/Inc/stm32f1xx_ll_bus.h ****   *         @arg @ref LL_APB1_GRP1_PERIPH_TIM13 (*)
 430:Drivers/STM32F1xx_HAL_Driver/Inc/stm32f1xx_ll_bus.h ****   *         @arg @ref LL_APB1_GRP1_PERIPH_TIM14 (*)
 431:Drivers/STM32F1xx_HAL_Driver/Inc/stm32f1xx_ll_bus.h ****   *         @arg @ref LL_APB1_GRP1_PERIPH_TIM2
 432:Drivers/STM32F1xx_HAL_Driver/Inc/stm32f1xx_ll_bus.h ****   *         @arg @ref LL_APB1_GRP1_PERIPH_TIM3
 433:Drivers/STM32F1xx_HAL_Driver/Inc/stm32f1xx_ll_bus.h ****   *         @arg @ref LL_APB1_GRP1_PERIPH_TIM4 (*)
 434:Drivers/STM32F1xx_HAL_Driver/Inc/stm32f1xx_ll_bus.h ****   *         @arg @ref LL_APB1_GRP1_PERIPH_TIM5 (*)
 435:Drivers/STM32F1xx_HAL_Driver/Inc/stm32f1xx_ll_bus.h ****   *         @arg @ref LL_APB1_GRP1_PERIPH_TIM6 (*)
 436:Drivers/STM32F1xx_HAL_Driver/Inc/stm32f1xx_ll_bus.h ****   *         @arg @ref LL_APB1_GRP1_PERIPH_TIM7 (*)
 437:Drivers/STM32F1xx_HAL_Driver/Inc/stm32f1xx_ll_bus.h ****   *         @arg @ref LL_APB1_GRP1_PERIPH_UART4 (*)
 438:Drivers/STM32F1xx_HAL_Driver/Inc/stm32f1xx_ll_bus.h ****   *         @arg @ref LL_APB1_GRP1_PERIPH_UART5 (*)
 439:Drivers/STM32F1xx_HAL_Driver/Inc/stm32f1xx_ll_bus.h ****   *         @arg @ref LL_APB1_GRP1_PERIPH_USART2
 440:Drivers/STM32F1xx_HAL_Driver/Inc/stm32f1xx_ll_bus.h ****   *         @arg @ref LL_APB1_GRP1_PERIPH_USART3 (*)
 441:Drivers/STM32F1xx_HAL_Driver/Inc/stm32f1xx_ll_bus.h ****   *         @arg @ref LL_APB1_GRP1_PERIPH_USB (*)
 442:Drivers/STM32F1xx_HAL_Driver/Inc/stm32f1xx_ll_bus.h ****   *         @arg @ref LL_APB1_GRP1_PERIPH_WWDG
 443:Drivers/STM32F1xx_HAL_Driver/Inc/stm32f1xx_ll_bus.h ****   *
 444:Drivers/STM32F1xx_HAL_Driver/Inc/stm32f1xx_ll_bus.h ****   *         (*) value not defined in all devices.
 445:Drivers/STM32F1xx_HAL_Driver/Inc/stm32f1xx_ll_bus.h ****   * @retval None
 446:Drivers/STM32F1xx_HAL_Driver/Inc/stm32f1xx_ll_bus.h **** */
 447:Drivers/STM32F1xx_HAL_Driver/Inc/stm32f1xx_ll_bus.h **** __STATIC_INLINE void LL_APB1_GRP1_EnableClock(uint32_t Periphs)
 428              		.loc 2 447 22 view .LVU163
 429              	.LBB110:
 448:Drivers/STM32F1xx_HAL_Driver/Inc/stm32f1xx_ll_bus.h **** {
 449:Drivers/STM32F1xx_HAL_Driver/Inc/stm32f1xx_ll_bus.h ****   __IO uint32_t tmpreg;
 430              		.loc 2 449 3 view .LVU164
 450:Drivers/STM32F1xx_HAL_Driver/Inc/stm32f1xx_ll_bus.h ****   SET_BIT(RCC->APB1ENR, Periphs);
 431              		.loc 2 450 3 view .LVU165
 432 00f4 EB69     		ldr	r3, [r5, #28]
 433              	.LBE110:
 434              	.LBE109:
 294:Src/main.cpp  ****   GPIO_InitStruct.Mode = LL_GPIO_MODE_ALTERNATE;
 435              		.loc 1 294 23 is_stmt 0 view .LVU166
 436 00f6 894A     		ldr	r2, .L7+16
 437              	.LBB113:
 438              	.LBB111:
 439              		.loc 2 450 3 view .LVU167
 440 00f8 43F48043 		orr	r3, r3, #16384
 441 00fc EB61     		str	r3, [r5, #28]
 451:Drivers/STM32F1xx_HAL_Driver/Inc/stm32f1xx_ll_bus.h ****   /* Delay after an RCC peripheral clock enabling */
 452:Drivers/STM32F1xx_HAL_Driver/Inc/stm32f1xx_ll_bus.h ****   tmpreg = READ_BIT(RCC->APB1ENR, Periphs);
 442              		.loc 2 452 3 is_stmt 1 view .LVU168
 443              		.loc 2 452 12 is_stmt 0 view .LVU169
 444 00fe EB69     		ldr	r3, [r5, #28]
 445              	.LBE111:
 446              	.LBE113:
 298:Src/main.cpp  **** 
 447              		.loc 1 298 15 view .LVU170
 448 0100 0CA9     		add	r1, sp, #48
 449              	.LBB114:
 450              	.LBB112:
 451              		.loc 2 452 12 view .LVU171
 452 0102 03F48043 		and	r3, r3, #16384
 453              		.loc 2 452 10 view .LVU172
ARM GAS  /var/folders/20/cstyxln53wn53rr40gj353bh0000gn/T//ccSZWiEf.s 			page 27


 454 0106 0593     		str	r3, [sp, #20]
 453:Drivers/STM32F1xx_HAL_Driver/Inc/stm32f1xx_ll_bus.h ****   (void)tmpreg;
 455              		.loc 2 453 3 is_stmt 1 view .LVU173
 456 0108 059B     		ldr	r3, [sp, #20]
 457              	.LVL13:
 458              		.loc 2 453 3 is_stmt 0 view .LVU174
 459              	.LBE112:
 460              	.LBE114:
 289:Src/main.cpp  ****   /**SPI2 GPIO Configuration
 461              		.loc 1 289 3 is_stmt 1 view .LVU175
 462              	.LBB115:
 463              	.LBI115:
 454:Drivers/STM32F1xx_HAL_Driver/Inc/stm32f1xx_ll_bus.h **** }
 455:Drivers/STM32F1xx_HAL_Driver/Inc/stm32f1xx_ll_bus.h **** 
 456:Drivers/STM32F1xx_HAL_Driver/Inc/stm32f1xx_ll_bus.h **** /**
 457:Drivers/STM32F1xx_HAL_Driver/Inc/stm32f1xx_ll_bus.h ****   * @brief  Check if APB1 peripheral clock is enabled or not
 458:Drivers/STM32F1xx_HAL_Driver/Inc/stm32f1xx_ll_bus.h ****   * @rmtoll APB1ENR      BKPEN         LL_APB1_GRP1_IsEnabledClock\n
 459:Drivers/STM32F1xx_HAL_Driver/Inc/stm32f1xx_ll_bus.h ****   *         APB1ENR      CAN1EN        LL_APB1_GRP1_IsEnabledClock\n
 460:Drivers/STM32F1xx_HAL_Driver/Inc/stm32f1xx_ll_bus.h ****   *         APB1ENR      CAN2EN        LL_APB1_GRP1_IsEnabledClock\n
 461:Drivers/STM32F1xx_HAL_Driver/Inc/stm32f1xx_ll_bus.h ****   *         APB1ENR      CECEN         LL_APB1_GRP1_IsEnabledClock\n
 462:Drivers/STM32F1xx_HAL_Driver/Inc/stm32f1xx_ll_bus.h ****   *         APB1ENR      DACEN         LL_APB1_GRP1_IsEnabledClock\n
 463:Drivers/STM32F1xx_HAL_Driver/Inc/stm32f1xx_ll_bus.h ****   *         APB1ENR      I2C1EN        LL_APB1_GRP1_IsEnabledClock\n
 464:Drivers/STM32F1xx_HAL_Driver/Inc/stm32f1xx_ll_bus.h ****   *         APB1ENR      I2C2EN        LL_APB1_GRP1_IsEnabledClock\n
 465:Drivers/STM32F1xx_HAL_Driver/Inc/stm32f1xx_ll_bus.h ****   *         APB1ENR      PWREN         LL_APB1_GRP1_IsEnabledClock\n
 466:Drivers/STM32F1xx_HAL_Driver/Inc/stm32f1xx_ll_bus.h ****   *         APB1ENR      SPI2EN        LL_APB1_GRP1_IsEnabledClock\n
 467:Drivers/STM32F1xx_HAL_Driver/Inc/stm32f1xx_ll_bus.h ****   *         APB1ENR      SPI3EN        LL_APB1_GRP1_IsEnabledClock\n
 468:Drivers/STM32F1xx_HAL_Driver/Inc/stm32f1xx_ll_bus.h ****   *         APB1ENR      TIM12EN       LL_APB1_GRP1_IsEnabledClock\n
 469:Drivers/STM32F1xx_HAL_Driver/Inc/stm32f1xx_ll_bus.h ****   *         APB1ENR      TIM13EN       LL_APB1_GRP1_IsEnabledClock\n
 470:Drivers/STM32F1xx_HAL_Driver/Inc/stm32f1xx_ll_bus.h ****   *         APB1ENR      TIM14EN       LL_APB1_GRP1_IsEnabledClock\n
 471:Drivers/STM32F1xx_HAL_Driver/Inc/stm32f1xx_ll_bus.h ****   *         APB1ENR      TIM2EN        LL_APB1_GRP1_IsEnabledClock\n
 472:Drivers/STM32F1xx_HAL_Driver/Inc/stm32f1xx_ll_bus.h ****   *         APB1ENR      TIM3EN        LL_APB1_GRP1_IsEnabledClock\n
 473:Drivers/STM32F1xx_HAL_Driver/Inc/stm32f1xx_ll_bus.h ****   *         APB1ENR      TIM4EN        LL_APB1_GRP1_IsEnabledClock\n
 474:Drivers/STM32F1xx_HAL_Driver/Inc/stm32f1xx_ll_bus.h ****   *         APB1ENR      TIM5EN        LL_APB1_GRP1_IsEnabledClock\n
 475:Drivers/STM32F1xx_HAL_Driver/Inc/stm32f1xx_ll_bus.h ****   *         APB1ENR      TIM6EN        LL_APB1_GRP1_IsEnabledClock\n
 476:Drivers/STM32F1xx_HAL_Driver/Inc/stm32f1xx_ll_bus.h ****   *         APB1ENR      TIM7EN        LL_APB1_GRP1_IsEnabledClock\n
 477:Drivers/STM32F1xx_HAL_Driver/Inc/stm32f1xx_ll_bus.h ****   *         APB1ENR      UART4EN       LL_APB1_GRP1_IsEnabledClock\n
 478:Drivers/STM32F1xx_HAL_Driver/Inc/stm32f1xx_ll_bus.h ****   *         APB1ENR      UART5EN       LL_APB1_GRP1_IsEnabledClock\n
 479:Drivers/STM32F1xx_HAL_Driver/Inc/stm32f1xx_ll_bus.h ****   *         APB1ENR      USART2EN      LL_APB1_GRP1_IsEnabledClock\n
 480:Drivers/STM32F1xx_HAL_Driver/Inc/stm32f1xx_ll_bus.h ****   *         APB1ENR      USART3EN      LL_APB1_GRP1_IsEnabledClock\n
 481:Drivers/STM32F1xx_HAL_Driver/Inc/stm32f1xx_ll_bus.h ****   *         APB1ENR      USBEN         LL_APB1_GRP1_IsEnabledClock\n
 482:Drivers/STM32F1xx_HAL_Driver/Inc/stm32f1xx_ll_bus.h ****   *         APB1ENR      WWDGEN        LL_APB1_GRP1_IsEnabledClock
 483:Drivers/STM32F1xx_HAL_Driver/Inc/stm32f1xx_ll_bus.h ****   * @param  Periphs This parameter can be a combination of the following values:
 484:Drivers/STM32F1xx_HAL_Driver/Inc/stm32f1xx_ll_bus.h ****   *         @arg @ref LL_APB1_GRP1_PERIPH_BKP
 485:Drivers/STM32F1xx_HAL_Driver/Inc/stm32f1xx_ll_bus.h ****   *         @arg @ref LL_APB1_GRP1_PERIPH_CAN1 (*)
 486:Drivers/STM32F1xx_HAL_Driver/Inc/stm32f1xx_ll_bus.h ****   *         @arg @ref LL_APB1_GRP1_PERIPH_CAN2 (*)
 487:Drivers/STM32F1xx_HAL_Driver/Inc/stm32f1xx_ll_bus.h ****   *         @arg @ref LL_APB1_GRP1_PERIPH_CEC (*)
 488:Drivers/STM32F1xx_HAL_Driver/Inc/stm32f1xx_ll_bus.h ****   *         @arg @ref LL_APB1_GRP1_PERIPH_DAC1 (*)
 489:Drivers/STM32F1xx_HAL_Driver/Inc/stm32f1xx_ll_bus.h ****   *         @arg @ref LL_APB1_GRP1_PERIPH_I2C1
 490:Drivers/STM32F1xx_HAL_Driver/Inc/stm32f1xx_ll_bus.h ****   *         @arg @ref LL_APB1_GRP1_PERIPH_I2C2 (*)
 491:Drivers/STM32F1xx_HAL_Driver/Inc/stm32f1xx_ll_bus.h ****   *         @arg @ref LL_APB1_GRP1_PERIPH_PWR
 492:Drivers/STM32F1xx_HAL_Driver/Inc/stm32f1xx_ll_bus.h ****   *         @arg @ref LL_APB1_GRP1_PERIPH_SPI2 (*)
 493:Drivers/STM32F1xx_HAL_Driver/Inc/stm32f1xx_ll_bus.h ****   *         @arg @ref LL_APB1_GRP1_PERIPH_SPI3 (*)
 494:Drivers/STM32F1xx_HAL_Driver/Inc/stm32f1xx_ll_bus.h ****   *         @arg @ref LL_APB1_GRP1_PERIPH_TIM12 (*)
 495:Drivers/STM32F1xx_HAL_Driver/Inc/stm32f1xx_ll_bus.h ****   *         @arg @ref LL_APB1_GRP1_PERIPH_TIM13 (*)
 496:Drivers/STM32F1xx_HAL_Driver/Inc/stm32f1xx_ll_bus.h ****   *         @arg @ref LL_APB1_GRP1_PERIPH_TIM14 (*)
 497:Drivers/STM32F1xx_HAL_Driver/Inc/stm32f1xx_ll_bus.h ****   *         @arg @ref LL_APB1_GRP1_PERIPH_TIM2
 498:Drivers/STM32F1xx_HAL_Driver/Inc/stm32f1xx_ll_bus.h ****   *         @arg @ref LL_APB1_GRP1_PERIPH_TIM3
ARM GAS  /var/folders/20/cstyxln53wn53rr40gj353bh0000gn/T//ccSZWiEf.s 			page 28


 499:Drivers/STM32F1xx_HAL_Driver/Inc/stm32f1xx_ll_bus.h ****   *         @arg @ref LL_APB1_GRP1_PERIPH_TIM4 (*)
 500:Drivers/STM32F1xx_HAL_Driver/Inc/stm32f1xx_ll_bus.h ****   *         @arg @ref LL_APB1_GRP1_PERIPH_TIM5 (*)
 501:Drivers/STM32F1xx_HAL_Driver/Inc/stm32f1xx_ll_bus.h ****   *         @arg @ref LL_APB1_GRP1_PERIPH_TIM6 (*)
 502:Drivers/STM32F1xx_HAL_Driver/Inc/stm32f1xx_ll_bus.h ****   *         @arg @ref LL_APB1_GRP1_PERIPH_TIM7 (*)
 503:Drivers/STM32F1xx_HAL_Driver/Inc/stm32f1xx_ll_bus.h ****   *         @arg @ref LL_APB1_GRP1_PERIPH_UART4 (*)
 504:Drivers/STM32F1xx_HAL_Driver/Inc/stm32f1xx_ll_bus.h ****   *         @arg @ref LL_APB1_GRP1_PERIPH_UART5 (*)
 505:Drivers/STM32F1xx_HAL_Driver/Inc/stm32f1xx_ll_bus.h ****   *         @arg @ref LL_APB1_GRP1_PERIPH_USART2
 506:Drivers/STM32F1xx_HAL_Driver/Inc/stm32f1xx_ll_bus.h ****   *         @arg @ref LL_APB1_GRP1_PERIPH_USART3 (*)
 507:Drivers/STM32F1xx_HAL_Driver/Inc/stm32f1xx_ll_bus.h ****   *         @arg @ref LL_APB1_GRP1_PERIPH_USB (*)
 508:Drivers/STM32F1xx_HAL_Driver/Inc/stm32f1xx_ll_bus.h ****   *         @arg @ref LL_APB1_GRP1_PERIPH_WWDG
 509:Drivers/STM32F1xx_HAL_Driver/Inc/stm32f1xx_ll_bus.h ****   *
 510:Drivers/STM32F1xx_HAL_Driver/Inc/stm32f1xx_ll_bus.h ****   *         (*) value not defined in all devices.
 511:Drivers/STM32F1xx_HAL_Driver/Inc/stm32f1xx_ll_bus.h ****   * @retval State of Periphs (1 or 0).
 512:Drivers/STM32F1xx_HAL_Driver/Inc/stm32f1xx_ll_bus.h **** */
 513:Drivers/STM32F1xx_HAL_Driver/Inc/stm32f1xx_ll_bus.h **** __STATIC_INLINE uint32_t LL_APB1_GRP1_IsEnabledClock(uint32_t Periphs)
 514:Drivers/STM32F1xx_HAL_Driver/Inc/stm32f1xx_ll_bus.h **** {
 515:Drivers/STM32F1xx_HAL_Driver/Inc/stm32f1xx_ll_bus.h ****   return (READ_BIT(RCC->APB1ENR, Periphs) == Periphs);
 516:Drivers/STM32F1xx_HAL_Driver/Inc/stm32f1xx_ll_bus.h **** }
 517:Drivers/STM32F1xx_HAL_Driver/Inc/stm32f1xx_ll_bus.h **** 
 518:Drivers/STM32F1xx_HAL_Driver/Inc/stm32f1xx_ll_bus.h **** /**
 519:Drivers/STM32F1xx_HAL_Driver/Inc/stm32f1xx_ll_bus.h ****   * @brief  Disable APB1 peripherals clock.
 520:Drivers/STM32F1xx_HAL_Driver/Inc/stm32f1xx_ll_bus.h ****   * @rmtoll APB1ENR      BKPEN         LL_APB1_GRP1_DisableClock\n
 521:Drivers/STM32F1xx_HAL_Driver/Inc/stm32f1xx_ll_bus.h ****   *         APB1ENR      CAN1EN        LL_APB1_GRP1_DisableClock\n
 522:Drivers/STM32F1xx_HAL_Driver/Inc/stm32f1xx_ll_bus.h ****   *         APB1ENR      CAN2EN        LL_APB1_GRP1_DisableClock\n
 523:Drivers/STM32F1xx_HAL_Driver/Inc/stm32f1xx_ll_bus.h ****   *         APB1ENR      CECEN         LL_APB1_GRP1_DisableClock\n
 524:Drivers/STM32F1xx_HAL_Driver/Inc/stm32f1xx_ll_bus.h ****   *         APB1ENR      DACEN         LL_APB1_GRP1_DisableClock\n
 525:Drivers/STM32F1xx_HAL_Driver/Inc/stm32f1xx_ll_bus.h ****   *         APB1ENR      I2C1EN        LL_APB1_GRP1_DisableClock\n
 526:Drivers/STM32F1xx_HAL_Driver/Inc/stm32f1xx_ll_bus.h ****   *         APB1ENR      I2C2EN        LL_APB1_GRP1_DisableClock\n
 527:Drivers/STM32F1xx_HAL_Driver/Inc/stm32f1xx_ll_bus.h ****   *         APB1ENR      PWREN         LL_APB1_GRP1_DisableClock\n
 528:Drivers/STM32F1xx_HAL_Driver/Inc/stm32f1xx_ll_bus.h ****   *         APB1ENR      SPI2EN        LL_APB1_GRP1_DisableClock\n
 529:Drivers/STM32F1xx_HAL_Driver/Inc/stm32f1xx_ll_bus.h ****   *         APB1ENR      SPI3EN        LL_APB1_GRP1_DisableClock\n
 530:Drivers/STM32F1xx_HAL_Driver/Inc/stm32f1xx_ll_bus.h ****   *         APB1ENR      TIM12EN       LL_APB1_GRP1_DisableClock\n
 531:Drivers/STM32F1xx_HAL_Driver/Inc/stm32f1xx_ll_bus.h ****   *         APB1ENR      TIM13EN       LL_APB1_GRP1_DisableClock\n
 532:Drivers/STM32F1xx_HAL_Driver/Inc/stm32f1xx_ll_bus.h ****   *         APB1ENR      TIM14EN       LL_APB1_GRP1_DisableClock\n
 533:Drivers/STM32F1xx_HAL_Driver/Inc/stm32f1xx_ll_bus.h ****   *         APB1ENR      TIM2EN        LL_APB1_GRP1_DisableClock\n
 534:Drivers/STM32F1xx_HAL_Driver/Inc/stm32f1xx_ll_bus.h ****   *         APB1ENR      TIM3EN        LL_APB1_GRP1_DisableClock\n
 535:Drivers/STM32F1xx_HAL_Driver/Inc/stm32f1xx_ll_bus.h ****   *         APB1ENR      TIM4EN        LL_APB1_GRP1_DisableClock\n
 536:Drivers/STM32F1xx_HAL_Driver/Inc/stm32f1xx_ll_bus.h ****   *         APB1ENR      TIM5EN        LL_APB1_GRP1_DisableClock\n
 537:Drivers/STM32F1xx_HAL_Driver/Inc/stm32f1xx_ll_bus.h ****   *         APB1ENR      TIM6EN        LL_APB1_GRP1_DisableClock\n
 538:Drivers/STM32F1xx_HAL_Driver/Inc/stm32f1xx_ll_bus.h ****   *         APB1ENR      TIM7EN        LL_APB1_GRP1_DisableClock\n
 539:Drivers/STM32F1xx_HAL_Driver/Inc/stm32f1xx_ll_bus.h ****   *         APB1ENR      UART4EN       LL_APB1_GRP1_DisableClock\n
 540:Drivers/STM32F1xx_HAL_Driver/Inc/stm32f1xx_ll_bus.h ****   *         APB1ENR      UART5EN       LL_APB1_GRP1_DisableClock\n
 541:Drivers/STM32F1xx_HAL_Driver/Inc/stm32f1xx_ll_bus.h ****   *         APB1ENR      USART2EN      LL_APB1_GRP1_DisableClock\n
 542:Drivers/STM32F1xx_HAL_Driver/Inc/stm32f1xx_ll_bus.h ****   *         APB1ENR      USART3EN      LL_APB1_GRP1_DisableClock\n
 543:Drivers/STM32F1xx_HAL_Driver/Inc/stm32f1xx_ll_bus.h ****   *         APB1ENR      USBEN         LL_APB1_GRP1_DisableClock\n
 544:Drivers/STM32F1xx_HAL_Driver/Inc/stm32f1xx_ll_bus.h ****   *         APB1ENR      WWDGEN        LL_APB1_GRP1_DisableClock
 545:Drivers/STM32F1xx_HAL_Driver/Inc/stm32f1xx_ll_bus.h ****   * @param  Periphs This parameter can be a combination of the following values:
 546:Drivers/STM32F1xx_HAL_Driver/Inc/stm32f1xx_ll_bus.h ****   *         @arg @ref LL_APB1_GRP1_PERIPH_BKP
 547:Drivers/STM32F1xx_HAL_Driver/Inc/stm32f1xx_ll_bus.h ****   *         @arg @ref LL_APB1_GRP1_PERIPH_CAN1 (*)
 548:Drivers/STM32F1xx_HAL_Driver/Inc/stm32f1xx_ll_bus.h ****   *         @arg @ref LL_APB1_GRP1_PERIPH_CAN2 (*)
 549:Drivers/STM32F1xx_HAL_Driver/Inc/stm32f1xx_ll_bus.h ****   *         @arg @ref LL_APB1_GRP1_PERIPH_CEC (*)
 550:Drivers/STM32F1xx_HAL_Driver/Inc/stm32f1xx_ll_bus.h ****   *         @arg @ref LL_APB1_GRP1_PERIPH_DAC1 (*)
 551:Drivers/STM32F1xx_HAL_Driver/Inc/stm32f1xx_ll_bus.h ****   *         @arg @ref LL_APB1_GRP1_PERIPH_I2C1
 552:Drivers/STM32F1xx_HAL_Driver/Inc/stm32f1xx_ll_bus.h ****   *         @arg @ref LL_APB1_GRP1_PERIPH_I2C2 (*)
 553:Drivers/STM32F1xx_HAL_Driver/Inc/stm32f1xx_ll_bus.h ****   *         @arg @ref LL_APB1_GRP1_PERIPH_PWR
 554:Drivers/STM32F1xx_HAL_Driver/Inc/stm32f1xx_ll_bus.h ****   *         @arg @ref LL_APB1_GRP1_PERIPH_SPI2 (*)
 555:Drivers/STM32F1xx_HAL_Driver/Inc/stm32f1xx_ll_bus.h ****   *         @arg @ref LL_APB1_GRP1_PERIPH_SPI3 (*)
ARM GAS  /var/folders/20/cstyxln53wn53rr40gj353bh0000gn/T//ccSZWiEf.s 			page 29


 556:Drivers/STM32F1xx_HAL_Driver/Inc/stm32f1xx_ll_bus.h ****   *         @arg @ref LL_APB1_GRP1_PERIPH_TIM12 (*)
 557:Drivers/STM32F1xx_HAL_Driver/Inc/stm32f1xx_ll_bus.h ****   *         @arg @ref LL_APB1_GRP1_PERIPH_TIM13 (*)
 558:Drivers/STM32F1xx_HAL_Driver/Inc/stm32f1xx_ll_bus.h ****   *         @arg @ref LL_APB1_GRP1_PERIPH_TIM14 (*)
 559:Drivers/STM32F1xx_HAL_Driver/Inc/stm32f1xx_ll_bus.h ****   *         @arg @ref LL_APB1_GRP1_PERIPH_TIM2
 560:Drivers/STM32F1xx_HAL_Driver/Inc/stm32f1xx_ll_bus.h ****   *         @arg @ref LL_APB1_GRP1_PERIPH_TIM3
 561:Drivers/STM32F1xx_HAL_Driver/Inc/stm32f1xx_ll_bus.h ****   *         @arg @ref LL_APB1_GRP1_PERIPH_TIM4 (*)
 562:Drivers/STM32F1xx_HAL_Driver/Inc/stm32f1xx_ll_bus.h ****   *         @arg @ref LL_APB1_GRP1_PERIPH_TIM5 (*)
 563:Drivers/STM32F1xx_HAL_Driver/Inc/stm32f1xx_ll_bus.h ****   *         @arg @ref LL_APB1_GRP1_PERIPH_TIM6 (*)
 564:Drivers/STM32F1xx_HAL_Driver/Inc/stm32f1xx_ll_bus.h ****   *         @arg @ref LL_APB1_GRP1_PERIPH_TIM7 (*)
 565:Drivers/STM32F1xx_HAL_Driver/Inc/stm32f1xx_ll_bus.h ****   *         @arg @ref LL_APB1_GRP1_PERIPH_UART4 (*)
 566:Drivers/STM32F1xx_HAL_Driver/Inc/stm32f1xx_ll_bus.h ****   *         @arg @ref LL_APB1_GRP1_PERIPH_UART5 (*)
 567:Drivers/STM32F1xx_HAL_Driver/Inc/stm32f1xx_ll_bus.h ****   *         @arg @ref LL_APB1_GRP1_PERIPH_USART2
 568:Drivers/STM32F1xx_HAL_Driver/Inc/stm32f1xx_ll_bus.h ****   *         @arg @ref LL_APB1_GRP1_PERIPH_USART3 (*)
 569:Drivers/STM32F1xx_HAL_Driver/Inc/stm32f1xx_ll_bus.h ****   *         @arg @ref LL_APB1_GRP1_PERIPH_USB (*)
 570:Drivers/STM32F1xx_HAL_Driver/Inc/stm32f1xx_ll_bus.h ****   *         @arg @ref LL_APB1_GRP1_PERIPH_WWDG
 571:Drivers/STM32F1xx_HAL_Driver/Inc/stm32f1xx_ll_bus.h ****   *
 572:Drivers/STM32F1xx_HAL_Driver/Inc/stm32f1xx_ll_bus.h ****   *         (*) value not defined in all devices.
 573:Drivers/STM32F1xx_HAL_Driver/Inc/stm32f1xx_ll_bus.h ****   * @retval None
 574:Drivers/STM32F1xx_HAL_Driver/Inc/stm32f1xx_ll_bus.h **** */
 575:Drivers/STM32F1xx_HAL_Driver/Inc/stm32f1xx_ll_bus.h **** __STATIC_INLINE void LL_APB1_GRP1_DisableClock(uint32_t Periphs)
 576:Drivers/STM32F1xx_HAL_Driver/Inc/stm32f1xx_ll_bus.h **** {
 577:Drivers/STM32F1xx_HAL_Driver/Inc/stm32f1xx_ll_bus.h ****   CLEAR_BIT(RCC->APB1ENR, Periphs);
 578:Drivers/STM32F1xx_HAL_Driver/Inc/stm32f1xx_ll_bus.h **** }
 579:Drivers/STM32F1xx_HAL_Driver/Inc/stm32f1xx_ll_bus.h **** 
 580:Drivers/STM32F1xx_HAL_Driver/Inc/stm32f1xx_ll_bus.h **** /**
 581:Drivers/STM32F1xx_HAL_Driver/Inc/stm32f1xx_ll_bus.h ****   * @brief  Force APB1 peripherals reset.
 582:Drivers/STM32F1xx_HAL_Driver/Inc/stm32f1xx_ll_bus.h ****   * @rmtoll APB1RSTR     BKPRST        LL_APB1_GRP1_ForceReset\n
 583:Drivers/STM32F1xx_HAL_Driver/Inc/stm32f1xx_ll_bus.h ****   *         APB1RSTR     CAN1RST       LL_APB1_GRP1_ForceReset\n
 584:Drivers/STM32F1xx_HAL_Driver/Inc/stm32f1xx_ll_bus.h ****   *         APB1RSTR     CAN2RST       LL_APB1_GRP1_ForceReset\n
 585:Drivers/STM32F1xx_HAL_Driver/Inc/stm32f1xx_ll_bus.h ****   *         APB1RSTR     CECRST        LL_APB1_GRP1_ForceReset\n
 586:Drivers/STM32F1xx_HAL_Driver/Inc/stm32f1xx_ll_bus.h ****   *         APB1RSTR     DACRST        LL_APB1_GRP1_ForceReset\n
 587:Drivers/STM32F1xx_HAL_Driver/Inc/stm32f1xx_ll_bus.h ****   *         APB1RSTR     I2C1RST       LL_APB1_GRP1_ForceReset\n
 588:Drivers/STM32F1xx_HAL_Driver/Inc/stm32f1xx_ll_bus.h ****   *         APB1RSTR     I2C2RST       LL_APB1_GRP1_ForceReset\n
 589:Drivers/STM32F1xx_HAL_Driver/Inc/stm32f1xx_ll_bus.h ****   *         APB1RSTR     PWRRST        LL_APB1_GRP1_ForceReset\n
 590:Drivers/STM32F1xx_HAL_Driver/Inc/stm32f1xx_ll_bus.h ****   *         APB1RSTR     SPI2RST       LL_APB1_GRP1_ForceReset\n
 591:Drivers/STM32F1xx_HAL_Driver/Inc/stm32f1xx_ll_bus.h ****   *         APB1RSTR     SPI3RST       LL_APB1_GRP1_ForceReset\n
 592:Drivers/STM32F1xx_HAL_Driver/Inc/stm32f1xx_ll_bus.h ****   *         APB1RSTR     TIM12RST      LL_APB1_GRP1_ForceReset\n
 593:Drivers/STM32F1xx_HAL_Driver/Inc/stm32f1xx_ll_bus.h ****   *         APB1RSTR     TIM13RST      LL_APB1_GRP1_ForceReset\n
 594:Drivers/STM32F1xx_HAL_Driver/Inc/stm32f1xx_ll_bus.h ****   *         APB1RSTR     TIM14RST      LL_APB1_GRP1_ForceReset\n
 595:Drivers/STM32F1xx_HAL_Driver/Inc/stm32f1xx_ll_bus.h ****   *         APB1RSTR     TIM2RST       LL_APB1_GRP1_ForceReset\n
 596:Drivers/STM32F1xx_HAL_Driver/Inc/stm32f1xx_ll_bus.h ****   *         APB1RSTR     TIM3RST       LL_APB1_GRP1_ForceReset\n
 597:Drivers/STM32F1xx_HAL_Driver/Inc/stm32f1xx_ll_bus.h ****   *         APB1RSTR     TIM4RST       LL_APB1_GRP1_ForceReset\n
 598:Drivers/STM32F1xx_HAL_Driver/Inc/stm32f1xx_ll_bus.h ****   *         APB1RSTR     TIM5RST       LL_APB1_GRP1_ForceReset\n
 599:Drivers/STM32F1xx_HAL_Driver/Inc/stm32f1xx_ll_bus.h ****   *         APB1RSTR     TIM6RST       LL_APB1_GRP1_ForceReset\n
 600:Drivers/STM32F1xx_HAL_Driver/Inc/stm32f1xx_ll_bus.h ****   *         APB1RSTR     TIM7RST       LL_APB1_GRP1_ForceReset\n
 601:Drivers/STM32F1xx_HAL_Driver/Inc/stm32f1xx_ll_bus.h ****   *         APB1RSTR     UART4RST      LL_APB1_GRP1_ForceReset\n
 602:Drivers/STM32F1xx_HAL_Driver/Inc/stm32f1xx_ll_bus.h ****   *         APB1RSTR     UART5RST      LL_APB1_GRP1_ForceReset\n
 603:Drivers/STM32F1xx_HAL_Driver/Inc/stm32f1xx_ll_bus.h ****   *         APB1RSTR     USART2RST     LL_APB1_GRP1_ForceReset\n
 604:Drivers/STM32F1xx_HAL_Driver/Inc/stm32f1xx_ll_bus.h ****   *         APB1RSTR     USART3RST     LL_APB1_GRP1_ForceReset\n
 605:Drivers/STM32F1xx_HAL_Driver/Inc/stm32f1xx_ll_bus.h ****   *         APB1RSTR     USBRST        LL_APB1_GRP1_ForceReset\n
 606:Drivers/STM32F1xx_HAL_Driver/Inc/stm32f1xx_ll_bus.h ****   *         APB1RSTR     WWDGRST       LL_APB1_GRP1_ForceReset
 607:Drivers/STM32F1xx_HAL_Driver/Inc/stm32f1xx_ll_bus.h ****   * @param  Periphs This parameter can be a combination of the following values:
 608:Drivers/STM32F1xx_HAL_Driver/Inc/stm32f1xx_ll_bus.h ****   *         @arg @ref LL_APB1_GRP1_PERIPH_ALL
 609:Drivers/STM32F1xx_HAL_Driver/Inc/stm32f1xx_ll_bus.h ****   *         @arg @ref LL_APB1_GRP1_PERIPH_BKP
 610:Drivers/STM32F1xx_HAL_Driver/Inc/stm32f1xx_ll_bus.h ****   *         @arg @ref LL_APB1_GRP1_PERIPH_CAN1 (*)
 611:Drivers/STM32F1xx_HAL_Driver/Inc/stm32f1xx_ll_bus.h ****   *         @arg @ref LL_APB1_GRP1_PERIPH_CAN2 (*)
 612:Drivers/STM32F1xx_HAL_Driver/Inc/stm32f1xx_ll_bus.h ****   *         @arg @ref LL_APB1_GRP1_PERIPH_CEC (*)
ARM GAS  /var/folders/20/cstyxln53wn53rr40gj353bh0000gn/T//ccSZWiEf.s 			page 30


 613:Drivers/STM32F1xx_HAL_Driver/Inc/stm32f1xx_ll_bus.h ****   *         @arg @ref LL_APB1_GRP1_PERIPH_DAC1 (*)
 614:Drivers/STM32F1xx_HAL_Driver/Inc/stm32f1xx_ll_bus.h ****   *         @arg @ref LL_APB1_GRP1_PERIPH_I2C1
 615:Drivers/STM32F1xx_HAL_Driver/Inc/stm32f1xx_ll_bus.h ****   *         @arg @ref LL_APB1_GRP1_PERIPH_I2C2 (*)
 616:Drivers/STM32F1xx_HAL_Driver/Inc/stm32f1xx_ll_bus.h ****   *         @arg @ref LL_APB1_GRP1_PERIPH_PWR
 617:Drivers/STM32F1xx_HAL_Driver/Inc/stm32f1xx_ll_bus.h ****   *         @arg @ref LL_APB1_GRP1_PERIPH_SPI2 (*)
 618:Drivers/STM32F1xx_HAL_Driver/Inc/stm32f1xx_ll_bus.h ****   *         @arg @ref LL_APB1_GRP1_PERIPH_SPI3 (*)
 619:Drivers/STM32F1xx_HAL_Driver/Inc/stm32f1xx_ll_bus.h ****   *         @arg @ref LL_APB1_GRP1_PERIPH_TIM12 (*)
 620:Drivers/STM32F1xx_HAL_Driver/Inc/stm32f1xx_ll_bus.h ****   *         @arg @ref LL_APB1_GRP1_PERIPH_TIM13 (*)
 621:Drivers/STM32F1xx_HAL_Driver/Inc/stm32f1xx_ll_bus.h ****   *         @arg @ref LL_APB1_GRP1_PERIPH_TIM14 (*)
 622:Drivers/STM32F1xx_HAL_Driver/Inc/stm32f1xx_ll_bus.h ****   *         @arg @ref LL_APB1_GRP1_PERIPH_TIM2
 623:Drivers/STM32F1xx_HAL_Driver/Inc/stm32f1xx_ll_bus.h ****   *         @arg @ref LL_APB1_GRP1_PERIPH_TIM3
 624:Drivers/STM32F1xx_HAL_Driver/Inc/stm32f1xx_ll_bus.h ****   *         @arg @ref LL_APB1_GRP1_PERIPH_TIM4 (*)
 625:Drivers/STM32F1xx_HAL_Driver/Inc/stm32f1xx_ll_bus.h ****   *         @arg @ref LL_APB1_GRP1_PERIPH_TIM5 (*)
 626:Drivers/STM32F1xx_HAL_Driver/Inc/stm32f1xx_ll_bus.h ****   *         @arg @ref LL_APB1_GRP1_PERIPH_TIM6 (*)
 627:Drivers/STM32F1xx_HAL_Driver/Inc/stm32f1xx_ll_bus.h ****   *         @arg @ref LL_APB1_GRP1_PERIPH_TIM7 (*)
 628:Drivers/STM32F1xx_HAL_Driver/Inc/stm32f1xx_ll_bus.h ****   *         @arg @ref LL_APB1_GRP1_PERIPH_UART4 (*)
 629:Drivers/STM32F1xx_HAL_Driver/Inc/stm32f1xx_ll_bus.h ****   *         @arg @ref LL_APB1_GRP1_PERIPH_UART5 (*)
 630:Drivers/STM32F1xx_HAL_Driver/Inc/stm32f1xx_ll_bus.h ****   *         @arg @ref LL_APB1_GRP1_PERIPH_USART2
 631:Drivers/STM32F1xx_HAL_Driver/Inc/stm32f1xx_ll_bus.h ****   *         @arg @ref LL_APB1_GRP1_PERIPH_USART3 (*)
 632:Drivers/STM32F1xx_HAL_Driver/Inc/stm32f1xx_ll_bus.h ****   *         @arg @ref LL_APB1_GRP1_PERIPH_USB (*)
 633:Drivers/STM32F1xx_HAL_Driver/Inc/stm32f1xx_ll_bus.h ****   *         @arg @ref LL_APB1_GRP1_PERIPH_WWDG
 634:Drivers/STM32F1xx_HAL_Driver/Inc/stm32f1xx_ll_bus.h ****   *
 635:Drivers/STM32F1xx_HAL_Driver/Inc/stm32f1xx_ll_bus.h ****   *         (*) value not defined in all devices.
 636:Drivers/STM32F1xx_HAL_Driver/Inc/stm32f1xx_ll_bus.h ****   * @retval None
 637:Drivers/STM32F1xx_HAL_Driver/Inc/stm32f1xx_ll_bus.h **** */
 638:Drivers/STM32F1xx_HAL_Driver/Inc/stm32f1xx_ll_bus.h **** __STATIC_INLINE void LL_APB1_GRP1_ForceReset(uint32_t Periphs)
 639:Drivers/STM32F1xx_HAL_Driver/Inc/stm32f1xx_ll_bus.h **** {
 640:Drivers/STM32F1xx_HAL_Driver/Inc/stm32f1xx_ll_bus.h ****   SET_BIT(RCC->APB1RSTR, Periphs);
 641:Drivers/STM32F1xx_HAL_Driver/Inc/stm32f1xx_ll_bus.h **** }
 642:Drivers/STM32F1xx_HAL_Driver/Inc/stm32f1xx_ll_bus.h **** 
 643:Drivers/STM32F1xx_HAL_Driver/Inc/stm32f1xx_ll_bus.h **** /**
 644:Drivers/STM32F1xx_HAL_Driver/Inc/stm32f1xx_ll_bus.h ****   * @brief  Release APB1 peripherals reset.
 645:Drivers/STM32F1xx_HAL_Driver/Inc/stm32f1xx_ll_bus.h ****   * @rmtoll APB1RSTR     BKPRST        LL_APB1_GRP1_ReleaseReset\n
 646:Drivers/STM32F1xx_HAL_Driver/Inc/stm32f1xx_ll_bus.h ****   *         APB1RSTR     CAN1RST       LL_APB1_GRP1_ReleaseReset\n
 647:Drivers/STM32F1xx_HAL_Driver/Inc/stm32f1xx_ll_bus.h ****   *         APB1RSTR     CAN2RST       LL_APB1_GRP1_ReleaseReset\n
 648:Drivers/STM32F1xx_HAL_Driver/Inc/stm32f1xx_ll_bus.h ****   *         APB1RSTR     CECRST        LL_APB1_GRP1_ReleaseReset\n
 649:Drivers/STM32F1xx_HAL_Driver/Inc/stm32f1xx_ll_bus.h ****   *         APB1RSTR     DACRST        LL_APB1_GRP1_ReleaseReset\n
 650:Drivers/STM32F1xx_HAL_Driver/Inc/stm32f1xx_ll_bus.h ****   *         APB1RSTR     I2C1RST       LL_APB1_GRP1_ReleaseReset\n
 651:Drivers/STM32F1xx_HAL_Driver/Inc/stm32f1xx_ll_bus.h ****   *         APB1RSTR     I2C2RST       LL_APB1_GRP1_ReleaseReset\n
 652:Drivers/STM32F1xx_HAL_Driver/Inc/stm32f1xx_ll_bus.h ****   *         APB1RSTR     PWRRST        LL_APB1_GRP1_ReleaseReset\n
 653:Drivers/STM32F1xx_HAL_Driver/Inc/stm32f1xx_ll_bus.h ****   *         APB1RSTR     SPI2RST       LL_APB1_GRP1_ReleaseReset\n
 654:Drivers/STM32F1xx_HAL_Driver/Inc/stm32f1xx_ll_bus.h ****   *         APB1RSTR     SPI3RST       LL_APB1_GRP1_ReleaseReset\n
 655:Drivers/STM32F1xx_HAL_Driver/Inc/stm32f1xx_ll_bus.h ****   *         APB1RSTR     TIM12RST      LL_APB1_GRP1_ReleaseReset\n
 656:Drivers/STM32F1xx_HAL_Driver/Inc/stm32f1xx_ll_bus.h ****   *         APB1RSTR     TIM13RST      LL_APB1_GRP1_ReleaseReset\n
 657:Drivers/STM32F1xx_HAL_Driver/Inc/stm32f1xx_ll_bus.h ****   *         APB1RSTR     TIM14RST      LL_APB1_GRP1_ReleaseReset\n
 658:Drivers/STM32F1xx_HAL_Driver/Inc/stm32f1xx_ll_bus.h ****   *         APB1RSTR     TIM2RST       LL_APB1_GRP1_ReleaseReset\n
 659:Drivers/STM32F1xx_HAL_Driver/Inc/stm32f1xx_ll_bus.h ****   *         APB1RSTR     TIM3RST       LL_APB1_GRP1_ReleaseReset\n
 660:Drivers/STM32F1xx_HAL_Driver/Inc/stm32f1xx_ll_bus.h ****   *         APB1RSTR     TIM4RST       LL_APB1_GRP1_ReleaseReset\n
 661:Drivers/STM32F1xx_HAL_Driver/Inc/stm32f1xx_ll_bus.h ****   *         APB1RSTR     TIM5RST       LL_APB1_GRP1_ReleaseReset\n
 662:Drivers/STM32F1xx_HAL_Driver/Inc/stm32f1xx_ll_bus.h ****   *         APB1RSTR     TIM6RST       LL_APB1_GRP1_ReleaseReset\n
 663:Drivers/STM32F1xx_HAL_Driver/Inc/stm32f1xx_ll_bus.h ****   *         APB1RSTR     TIM7RST       LL_APB1_GRP1_ReleaseReset\n
 664:Drivers/STM32F1xx_HAL_Driver/Inc/stm32f1xx_ll_bus.h ****   *         APB1RSTR     UART4RST      LL_APB1_GRP1_ReleaseReset\n
 665:Drivers/STM32F1xx_HAL_Driver/Inc/stm32f1xx_ll_bus.h ****   *         APB1RSTR     UART5RST      LL_APB1_GRP1_ReleaseReset\n
 666:Drivers/STM32F1xx_HAL_Driver/Inc/stm32f1xx_ll_bus.h ****   *         APB1RSTR     USART2RST     LL_APB1_GRP1_ReleaseReset\n
 667:Drivers/STM32F1xx_HAL_Driver/Inc/stm32f1xx_ll_bus.h ****   *         APB1RSTR     USART3RST     LL_APB1_GRP1_ReleaseReset\n
 668:Drivers/STM32F1xx_HAL_Driver/Inc/stm32f1xx_ll_bus.h ****   *         APB1RSTR     USBRST        LL_APB1_GRP1_ReleaseReset\n
 669:Drivers/STM32F1xx_HAL_Driver/Inc/stm32f1xx_ll_bus.h ****   *         APB1RSTR     WWDGRST       LL_APB1_GRP1_ReleaseReset
ARM GAS  /var/folders/20/cstyxln53wn53rr40gj353bh0000gn/T//ccSZWiEf.s 			page 31


 670:Drivers/STM32F1xx_HAL_Driver/Inc/stm32f1xx_ll_bus.h ****   * @param  Periphs This parameter can be a combination of the following values:
 671:Drivers/STM32F1xx_HAL_Driver/Inc/stm32f1xx_ll_bus.h ****   *         @arg @ref LL_APB1_GRP1_PERIPH_ALL
 672:Drivers/STM32F1xx_HAL_Driver/Inc/stm32f1xx_ll_bus.h ****   *         @arg @ref LL_APB1_GRP1_PERIPH_BKP
 673:Drivers/STM32F1xx_HAL_Driver/Inc/stm32f1xx_ll_bus.h ****   *         @arg @ref LL_APB1_GRP1_PERIPH_CAN1 (*)
 674:Drivers/STM32F1xx_HAL_Driver/Inc/stm32f1xx_ll_bus.h ****   *         @arg @ref LL_APB1_GRP1_PERIPH_CAN2 (*)
 675:Drivers/STM32F1xx_HAL_Driver/Inc/stm32f1xx_ll_bus.h ****   *         @arg @ref LL_APB1_GRP1_PERIPH_CEC (*)
 676:Drivers/STM32F1xx_HAL_Driver/Inc/stm32f1xx_ll_bus.h ****   *         @arg @ref LL_APB1_GRP1_PERIPH_DAC1 (*)
 677:Drivers/STM32F1xx_HAL_Driver/Inc/stm32f1xx_ll_bus.h ****   *         @arg @ref LL_APB1_GRP1_PERIPH_I2C1
 678:Drivers/STM32F1xx_HAL_Driver/Inc/stm32f1xx_ll_bus.h ****   *         @arg @ref LL_APB1_GRP1_PERIPH_I2C2 (*)
 679:Drivers/STM32F1xx_HAL_Driver/Inc/stm32f1xx_ll_bus.h ****   *         @arg @ref LL_APB1_GRP1_PERIPH_PWR
 680:Drivers/STM32F1xx_HAL_Driver/Inc/stm32f1xx_ll_bus.h ****   *         @arg @ref LL_APB1_GRP1_PERIPH_SPI2 (*)
 681:Drivers/STM32F1xx_HAL_Driver/Inc/stm32f1xx_ll_bus.h ****   *         @arg @ref LL_APB1_GRP1_PERIPH_SPI3 (*)
 682:Drivers/STM32F1xx_HAL_Driver/Inc/stm32f1xx_ll_bus.h ****   *         @arg @ref LL_APB1_GRP1_PERIPH_TIM12 (*)
 683:Drivers/STM32F1xx_HAL_Driver/Inc/stm32f1xx_ll_bus.h ****   *         @arg @ref LL_APB1_GRP1_PERIPH_TIM13 (*)
 684:Drivers/STM32F1xx_HAL_Driver/Inc/stm32f1xx_ll_bus.h ****   *         @arg @ref LL_APB1_GRP1_PERIPH_TIM14 (*)
 685:Drivers/STM32F1xx_HAL_Driver/Inc/stm32f1xx_ll_bus.h ****   *         @arg @ref LL_APB1_GRP1_PERIPH_TIM2
 686:Drivers/STM32F1xx_HAL_Driver/Inc/stm32f1xx_ll_bus.h ****   *         @arg @ref LL_APB1_GRP1_PERIPH_TIM3
 687:Drivers/STM32F1xx_HAL_Driver/Inc/stm32f1xx_ll_bus.h ****   *         @arg @ref LL_APB1_GRP1_PERIPH_TIM4 (*)
 688:Drivers/STM32F1xx_HAL_Driver/Inc/stm32f1xx_ll_bus.h ****   *         @arg @ref LL_APB1_GRP1_PERIPH_TIM5 (*)
 689:Drivers/STM32F1xx_HAL_Driver/Inc/stm32f1xx_ll_bus.h ****   *         @arg @ref LL_APB1_GRP1_PERIPH_TIM6 (*)
 690:Drivers/STM32F1xx_HAL_Driver/Inc/stm32f1xx_ll_bus.h ****   *         @arg @ref LL_APB1_GRP1_PERIPH_TIM7 (*)
 691:Drivers/STM32F1xx_HAL_Driver/Inc/stm32f1xx_ll_bus.h ****   *         @arg @ref LL_APB1_GRP1_PERIPH_UART4 (*)
 692:Drivers/STM32F1xx_HAL_Driver/Inc/stm32f1xx_ll_bus.h ****   *         @arg @ref LL_APB1_GRP1_PERIPH_UART5 (*)
 693:Drivers/STM32F1xx_HAL_Driver/Inc/stm32f1xx_ll_bus.h ****   *         @arg @ref LL_APB1_GRP1_PERIPH_USART2
 694:Drivers/STM32F1xx_HAL_Driver/Inc/stm32f1xx_ll_bus.h ****   *         @arg @ref LL_APB1_GRP1_PERIPH_USART3 (*)
 695:Drivers/STM32F1xx_HAL_Driver/Inc/stm32f1xx_ll_bus.h ****   *         @arg @ref LL_APB1_GRP1_PERIPH_USB (*)
 696:Drivers/STM32F1xx_HAL_Driver/Inc/stm32f1xx_ll_bus.h ****   *         @arg @ref LL_APB1_GRP1_PERIPH_WWDG
 697:Drivers/STM32F1xx_HAL_Driver/Inc/stm32f1xx_ll_bus.h ****   *
 698:Drivers/STM32F1xx_HAL_Driver/Inc/stm32f1xx_ll_bus.h ****   *         (*) value not defined in all devices.
 699:Drivers/STM32F1xx_HAL_Driver/Inc/stm32f1xx_ll_bus.h ****   * @retval None
 700:Drivers/STM32F1xx_HAL_Driver/Inc/stm32f1xx_ll_bus.h **** */
 701:Drivers/STM32F1xx_HAL_Driver/Inc/stm32f1xx_ll_bus.h **** __STATIC_INLINE void LL_APB1_GRP1_ReleaseReset(uint32_t Periphs)
 702:Drivers/STM32F1xx_HAL_Driver/Inc/stm32f1xx_ll_bus.h **** {
 703:Drivers/STM32F1xx_HAL_Driver/Inc/stm32f1xx_ll_bus.h ****   CLEAR_BIT(RCC->APB1RSTR, Periphs);
 704:Drivers/STM32F1xx_HAL_Driver/Inc/stm32f1xx_ll_bus.h **** }
 705:Drivers/STM32F1xx_HAL_Driver/Inc/stm32f1xx_ll_bus.h **** 
 706:Drivers/STM32F1xx_HAL_Driver/Inc/stm32f1xx_ll_bus.h **** /**
 707:Drivers/STM32F1xx_HAL_Driver/Inc/stm32f1xx_ll_bus.h ****   * @}
 708:Drivers/STM32F1xx_HAL_Driver/Inc/stm32f1xx_ll_bus.h ****   */
 709:Drivers/STM32F1xx_HAL_Driver/Inc/stm32f1xx_ll_bus.h **** 
 710:Drivers/STM32F1xx_HAL_Driver/Inc/stm32f1xx_ll_bus.h **** /** @defgroup BUS_LL_EF_APB2 APB2
 711:Drivers/STM32F1xx_HAL_Driver/Inc/stm32f1xx_ll_bus.h ****   * @{
 712:Drivers/STM32F1xx_HAL_Driver/Inc/stm32f1xx_ll_bus.h ****   */
 713:Drivers/STM32F1xx_HAL_Driver/Inc/stm32f1xx_ll_bus.h **** 
 714:Drivers/STM32F1xx_HAL_Driver/Inc/stm32f1xx_ll_bus.h **** /**
 715:Drivers/STM32F1xx_HAL_Driver/Inc/stm32f1xx_ll_bus.h ****   * @brief  Enable APB2 peripherals clock.
 716:Drivers/STM32F1xx_HAL_Driver/Inc/stm32f1xx_ll_bus.h ****   * @rmtoll APB2ENR      ADC1EN        LL_APB2_GRP1_EnableClock\n
 717:Drivers/STM32F1xx_HAL_Driver/Inc/stm32f1xx_ll_bus.h ****   *         APB2ENR      ADC2EN        LL_APB2_GRP1_EnableClock\n
 718:Drivers/STM32F1xx_HAL_Driver/Inc/stm32f1xx_ll_bus.h ****   *         APB2ENR      ADC3EN        LL_APB2_GRP1_EnableClock\n
 719:Drivers/STM32F1xx_HAL_Driver/Inc/stm32f1xx_ll_bus.h ****   *         APB2ENR      AFIOEN        LL_APB2_GRP1_EnableClock\n
 720:Drivers/STM32F1xx_HAL_Driver/Inc/stm32f1xx_ll_bus.h ****   *         APB2ENR      IOPAEN        LL_APB2_GRP1_EnableClock\n
 721:Drivers/STM32F1xx_HAL_Driver/Inc/stm32f1xx_ll_bus.h ****   *         APB2ENR      IOPBEN        LL_APB2_GRP1_EnableClock\n
 722:Drivers/STM32F1xx_HAL_Driver/Inc/stm32f1xx_ll_bus.h ****   *         APB2ENR      IOPCEN        LL_APB2_GRP1_EnableClock\n
 723:Drivers/STM32F1xx_HAL_Driver/Inc/stm32f1xx_ll_bus.h ****   *         APB2ENR      IOPDEN        LL_APB2_GRP1_EnableClock\n
 724:Drivers/STM32F1xx_HAL_Driver/Inc/stm32f1xx_ll_bus.h ****   *         APB2ENR      IOPEEN        LL_APB2_GRP1_EnableClock\n
 725:Drivers/STM32F1xx_HAL_Driver/Inc/stm32f1xx_ll_bus.h ****   *         APB2ENR      IOPFEN        LL_APB2_GRP1_EnableClock\n
 726:Drivers/STM32F1xx_HAL_Driver/Inc/stm32f1xx_ll_bus.h ****   *         APB2ENR      IOPGEN        LL_APB2_GRP1_EnableClock\n
ARM GAS  /var/folders/20/cstyxln53wn53rr40gj353bh0000gn/T//ccSZWiEf.s 			page 32


 727:Drivers/STM32F1xx_HAL_Driver/Inc/stm32f1xx_ll_bus.h ****   *         APB2ENR      SPI1EN        LL_APB2_GRP1_EnableClock\n
 728:Drivers/STM32F1xx_HAL_Driver/Inc/stm32f1xx_ll_bus.h ****   *         APB2ENR      TIM10EN       LL_APB2_GRP1_EnableClock\n
 729:Drivers/STM32F1xx_HAL_Driver/Inc/stm32f1xx_ll_bus.h ****   *         APB2ENR      TIM11EN       LL_APB2_GRP1_EnableClock\n
 730:Drivers/STM32F1xx_HAL_Driver/Inc/stm32f1xx_ll_bus.h ****   *         APB2ENR      TIM15EN       LL_APB2_GRP1_EnableClock\n
 731:Drivers/STM32F1xx_HAL_Driver/Inc/stm32f1xx_ll_bus.h ****   *         APB2ENR      TIM16EN       LL_APB2_GRP1_EnableClock\n
 732:Drivers/STM32F1xx_HAL_Driver/Inc/stm32f1xx_ll_bus.h ****   *         APB2ENR      TIM17EN       LL_APB2_GRP1_EnableClock\n
 733:Drivers/STM32F1xx_HAL_Driver/Inc/stm32f1xx_ll_bus.h ****   *         APB2ENR      TIM1EN        LL_APB2_GRP1_EnableClock\n
 734:Drivers/STM32F1xx_HAL_Driver/Inc/stm32f1xx_ll_bus.h ****   *         APB2ENR      TIM8EN        LL_APB2_GRP1_EnableClock\n
 735:Drivers/STM32F1xx_HAL_Driver/Inc/stm32f1xx_ll_bus.h ****   *         APB2ENR      TIM9EN        LL_APB2_GRP1_EnableClock\n
 736:Drivers/STM32F1xx_HAL_Driver/Inc/stm32f1xx_ll_bus.h ****   *         APB2ENR      USART1EN      LL_APB2_GRP1_EnableClock
 737:Drivers/STM32F1xx_HAL_Driver/Inc/stm32f1xx_ll_bus.h ****   * @param  Periphs This parameter can be a combination of the following values:
 738:Drivers/STM32F1xx_HAL_Driver/Inc/stm32f1xx_ll_bus.h ****   *         @arg @ref LL_APB2_GRP1_PERIPH_ADC1
 739:Drivers/STM32F1xx_HAL_Driver/Inc/stm32f1xx_ll_bus.h ****   *         @arg @ref LL_APB2_GRP1_PERIPH_ADC2 (*)
 740:Drivers/STM32F1xx_HAL_Driver/Inc/stm32f1xx_ll_bus.h ****   *         @arg @ref LL_APB2_GRP1_PERIPH_ADC3 (*)
 741:Drivers/STM32F1xx_HAL_Driver/Inc/stm32f1xx_ll_bus.h ****   *         @arg @ref LL_APB2_GRP1_PERIPH_AFIO
 742:Drivers/STM32F1xx_HAL_Driver/Inc/stm32f1xx_ll_bus.h ****   *         @arg @ref LL_APB2_GRP1_PERIPH_GPIOA
 743:Drivers/STM32F1xx_HAL_Driver/Inc/stm32f1xx_ll_bus.h ****   *         @arg @ref LL_APB2_GRP1_PERIPH_GPIOB
 744:Drivers/STM32F1xx_HAL_Driver/Inc/stm32f1xx_ll_bus.h ****   *         @arg @ref LL_APB2_GRP1_PERIPH_GPIOC
 745:Drivers/STM32F1xx_HAL_Driver/Inc/stm32f1xx_ll_bus.h ****   *         @arg @ref LL_APB2_GRP1_PERIPH_GPIOD
 746:Drivers/STM32F1xx_HAL_Driver/Inc/stm32f1xx_ll_bus.h ****   *         @arg @ref LL_APB2_GRP1_PERIPH_GPIOE (*)
 747:Drivers/STM32F1xx_HAL_Driver/Inc/stm32f1xx_ll_bus.h ****   *         @arg @ref LL_APB2_GRP1_PERIPH_GPIOF (*)
 748:Drivers/STM32F1xx_HAL_Driver/Inc/stm32f1xx_ll_bus.h ****   *         @arg @ref LL_APB2_GRP1_PERIPH_GPIOG (*)
 749:Drivers/STM32F1xx_HAL_Driver/Inc/stm32f1xx_ll_bus.h ****   *         @arg @ref LL_APB2_GRP1_PERIPH_SPI1
 750:Drivers/STM32F1xx_HAL_Driver/Inc/stm32f1xx_ll_bus.h ****   *         @arg @ref LL_APB2_GRP1_PERIPH_TIM10 (*)
 751:Drivers/STM32F1xx_HAL_Driver/Inc/stm32f1xx_ll_bus.h ****   *         @arg @ref LL_APB2_GRP1_PERIPH_TIM11 (*)
 752:Drivers/STM32F1xx_HAL_Driver/Inc/stm32f1xx_ll_bus.h ****   *         @arg @ref LL_APB2_GRP1_PERIPH_TIM15 (*)
 753:Drivers/STM32F1xx_HAL_Driver/Inc/stm32f1xx_ll_bus.h ****   *         @arg @ref LL_APB2_GRP1_PERIPH_TIM16 (*)
 754:Drivers/STM32F1xx_HAL_Driver/Inc/stm32f1xx_ll_bus.h ****   *         @arg @ref LL_APB2_GRP1_PERIPH_TIM17 (*)
 755:Drivers/STM32F1xx_HAL_Driver/Inc/stm32f1xx_ll_bus.h ****   *         @arg @ref LL_APB2_GRP1_PERIPH_TIM1
 756:Drivers/STM32F1xx_HAL_Driver/Inc/stm32f1xx_ll_bus.h ****   *         @arg @ref LL_APB2_GRP1_PERIPH_TIM8 (*)
 757:Drivers/STM32F1xx_HAL_Driver/Inc/stm32f1xx_ll_bus.h ****   *         @arg @ref LL_APB2_GRP1_PERIPH_TIM9 (*)
 758:Drivers/STM32F1xx_HAL_Driver/Inc/stm32f1xx_ll_bus.h ****   *         @arg @ref LL_APB2_GRP1_PERIPH_USART1
 759:Drivers/STM32F1xx_HAL_Driver/Inc/stm32f1xx_ll_bus.h ****   *
 760:Drivers/STM32F1xx_HAL_Driver/Inc/stm32f1xx_ll_bus.h ****   *         (*) value not defined in all devices.
 761:Drivers/STM32F1xx_HAL_Driver/Inc/stm32f1xx_ll_bus.h ****   * @retval None
 762:Drivers/STM32F1xx_HAL_Driver/Inc/stm32f1xx_ll_bus.h **** */
 763:Drivers/STM32F1xx_HAL_Driver/Inc/stm32f1xx_ll_bus.h **** __STATIC_INLINE void LL_APB2_GRP1_EnableClock(uint32_t Periphs)
 464              		.loc 2 763 22 view .LVU176
 465              	.LBB116:
 764:Drivers/STM32F1xx_HAL_Driver/Inc/stm32f1xx_ll_bus.h **** {
 765:Drivers/STM32F1xx_HAL_Driver/Inc/stm32f1xx_ll_bus.h ****   __IO uint32_t tmpreg;
 466              		.loc 2 765 3 view .LVU177
 766:Drivers/STM32F1xx_HAL_Driver/Inc/stm32f1xx_ll_bus.h ****   SET_BIT(RCC->APB2ENR, Periphs);
 467              		.loc 2 766 3 view .LVU178
 468 010a AB69     		ldr	r3, [r5, #24]
 469              	.LBE116:
 470              	.LBE115:
 298:Src/main.cpp  **** 
 471              		.loc 1 298 15 is_stmt 0 view .LVU179
 472 010c 8148     		ldr	r0, .L7+8
 473              	.LBB120:
 474              	.LBB117:
 475              		.loc 2 766 3 view .LVU180
 476 010e 43F00803 		orr	r3, r3, #8
 477 0112 AB61     		str	r3, [r5, #24]
 767:Drivers/STM32F1xx_HAL_Driver/Inc/stm32f1xx_ll_bus.h ****   /* Delay after an RCC peripheral clock enabling */
 768:Drivers/STM32F1xx_HAL_Driver/Inc/stm32f1xx_ll_bus.h ****   tmpreg = READ_BIT(RCC->APB2ENR, Periphs);
ARM GAS  /var/folders/20/cstyxln53wn53rr40gj353bh0000gn/T//ccSZWiEf.s 			page 33


 478              		.loc 2 768 3 is_stmt 1 view .LVU181
 479              		.loc 2 768 12 is_stmt 0 view .LVU182
 480 0114 AB69     		ldr	r3, [r5, #24]
 481              	.LBE117:
 482              	.LBE120:
 304:Src/main.cpp  ****   SPI_InitStruct.Mode = LL_SPI_MODE_MASTER;
 483              		.loc 1 304 36 view .LVU183
 484 0116 4FF00008 		mov	r8, #0
 485              	.LBB121:
 486              	.LBB118:
 487              		.loc 2 768 12 view .LVU184
 488 011a 03F00803 		and	r3, r3, #8
 489              		.loc 2 768 10 view .LVU185
 490 011e 0693     		str	r3, [sp, #24]
 769:Drivers/STM32F1xx_HAL_Driver/Inc/stm32f1xx_ll_bus.h ****   (void)tmpreg;
 491              		.loc 2 769 3 is_stmt 1 view .LVU186
 492              	.LBE118:
 493              	.LBE121:
 294:Src/main.cpp  ****   GPIO_InitStruct.Mode = LL_GPIO_MODE_ALTERNATE;
 494              		.loc 1 294 23 is_stmt 0 view .LVU187
 495 0120 CDE90C2C 		strd	r2, ip, [sp, #48]
 296:Src/main.cpp  ****   GPIO_InitStruct.OutputType = LL_GPIO_OUTPUT_PUSHPULL;
 496              		.loc 1 296 25 view .LVU188
 497 0124 CDF83890 		str	r9, [sp, #56]
 498              	.LBB122:
 499              	.LBB119:
 500              		.loc 2 769 3 view .LVU189
 501 0128 069B     		ldr	r3, [sp, #24]
 502              	.LVL14:
 503              		.loc 2 769 3 view .LVU190
 504              	.LBE119:
 505              	.LBE122:
 294:Src/main.cpp  ****   GPIO_InitStruct.Mode = LL_GPIO_MODE_ALTERNATE;
 506              		.loc 1 294 3 is_stmt 1 view .LVU191
 295:Src/main.cpp  ****   GPIO_InitStruct.Speed = LL_GPIO_SPEED_FREQ_HIGH;
 507              		.loc 1 295 3 view .LVU192
 296:Src/main.cpp  ****   GPIO_InitStruct.OutputType = LL_GPIO_OUTPUT_PUSHPULL;
 508              		.loc 1 296 3 view .LVU193
 297:Src/main.cpp  ****   LL_GPIO_Init(GPIOB, &GPIO_InitStruct);
 509              		.loc 1 297 3 view .LVU194
 298:Src/main.cpp  **** 
 510              		.loc 1 298 3 view .LVU195
 304:Src/main.cpp  ****   SPI_InitStruct.Mode = LL_SPI_MODE_MASTER;
 511              		.loc 1 304 36 is_stmt 0 view .LVU196
 512 012a 4FF48279 		mov	r9, #260
 298:Src/main.cpp  **** 
 513              		.loc 1 298 15 view .LVU197
 514 012e FFF7FEFF 		bl	LL_GPIO_Init
 515              	.LVL15:
 304:Src/main.cpp  ****   SPI_InitStruct.Mode = LL_SPI_MODE_MASTER;
 516              		.loc 1 304 3 is_stmt 1 view .LVU198
 305:Src/main.cpp  ****   SPI_InitStruct.DataWidth = LL_SPI_DATAWIDTH_8BIT;
 517              		.loc 1 305 3 view .LVU199
 306:Src/main.cpp  ****   SPI_InitStruct.ClockPolarity = LL_SPI_POLARITY_LOW;
 518              		.loc 1 306 3 view .LVU200
 307:Src/main.cpp  ****   SPI_InitStruct.ClockPhase = LL_SPI_PHASE_1EDGE;
 519              		.loc 1 307 3 view .LVU201
ARM GAS  /var/folders/20/cstyxln53wn53rr40gj353bh0000gn/T//ccSZWiEf.s 			page 34


 308:Src/main.cpp  ****   SPI_InitStruct.NSS = LL_SPI_NSS_SOFT;
 520              		.loc 1 308 3 view .LVU202
 309:Src/main.cpp  ****   SPI_InitStruct.BaudRate = LL_SPI_BAUDRATEPRESCALER_DIV2;
 521              		.loc 1 309 3 view .LVU203
 310:Src/main.cpp  ****   SPI_InitStruct.BitOrder = LL_SPI_MSB_FIRST;
 522              		.loc 1 310 3 view .LVU204
 311:Src/main.cpp  ****   SPI_InitStruct.CRCCalculation = LL_SPI_CRCCALCULATION_DISABLE;
 523              		.loc 1 311 3 view .LVU205
 312:Src/main.cpp  ****   SPI_InitStruct.CRCPoly = 10;
 524              		.loc 1 312 3 view .LVU206
 313:Src/main.cpp  ****   LL_SPI_Init(SPI2, &SPI_InitStruct);
 525              		.loc 1 313 3 view .LVU207
 304:Src/main.cpp  ****   SPI_InitStruct.Mode = LL_SPI_MODE_MASTER;
 526              		.loc 1 304 36 is_stmt 0 view .LVU208
 527 0132 4FF0000A 		mov	r10, #0
 528 0136 0022     		movs	r2, #0
 529 0138 4FF40073 		mov	r3, #512
 530 013c 4FF00A0B 		mov	fp, #10
 314:Src/main.cpp  ****   /* USER CODE BEGIN SPI2_Init 2 */
 531              		.loc 1 314 14 view .LVU209
 532 0140 12A9     		add	r1, sp, #72
 533 0142 7748     		ldr	r0, .L7+20
 304:Src/main.cpp  ****   SPI_InitStruct.Mode = LL_SPI_MODE_MASTER;
 534              		.loc 1 304 36 view .LVU210
 535 0144 CDE91623 		strd	r2, [sp, #88]
 536 0148 CDE91289 		strd	r8, [sp, #72]
 537 014c CDE91467 		strd	r6, [sp, #80]
 538              	.LBE108:
 539              	.LBE107:
 540              	.LBB124:
 541              	.LBB125:
 242:Src/main.cpp  ****   GPIO_InitStruct.Speed = GPIO_SPEED_FREQ_LOW;
 542              		.loc 1 242 24 view .LVU211
 543 0150 4FF00208 		mov	r8, #2
 544              	.LBE125:
 545              	.LBE124:
 546              	.LBB133:
 547              	.LBB123:
 304:Src/main.cpp  ****   SPI_InitStruct.Mode = LL_SPI_MODE_MASTER;
 548              		.loc 1 304 36 view .LVU212
 549 0154 CDE91867 		strd	r6, [sp, #96]
 550 0158 CDE91AAB 		strd	r10, [sp, #104]
 314:Src/main.cpp  ****   /* USER CODE BEGIN SPI2_Init 2 */
 551              		.loc 1 314 3 is_stmt 1 view .LVU213
 314:Src/main.cpp  ****   /* USER CODE BEGIN SPI2_Init 2 */
 552              		.loc 1 314 14 is_stmt 0 view .LVU214
 553 015c FFF7FEFF 		bl	LL_SPI_Init
 554              	.LVL16:
 555              	.LBE123:
 556              	.LBE133:
 104:Src/main.cpp  ****   MX_ADC1_Init();
 557              		.loc 1 104 3 is_stmt 1 view .LVU215
 558              	.LBB134:
 559              	.LBI124:
 231:Src/main.cpp  **** {
 560              		.loc 1 231 13 view .LVU216
 561              	.LBB132:
ARM GAS  /var/folders/20/cstyxln53wn53rr40gj353bh0000gn/T//ccSZWiEf.s 			page 35


 234:Src/main.cpp  **** 
 562              		.loc 1 234 2 view .LVU217
 563              	.LBB126:
 234:Src/main.cpp  **** 
 564              		.loc 1 234 2 view .LVU218
 234:Src/main.cpp  **** 
 565              		.loc 1 234 2 view .LVU219
 566              	.LBE126:
 241:Src/main.cpp  ****   GPIO_InitStruct.Mode = GPIO_MODE_AF_PP;
 567              		.loc 1 241 23 is_stmt 0 view .LVU220
 568 0160 4FF44062 		mov	r2, #3072
 569              	.LBB127:
 234:Src/main.cpp  **** 
 570              		.loc 1 234 2 view .LVU221
 571 0164 EB69     		ldr	r3, [r5, #28]
 572              	.LBE127:
 244:Src/main.cpp  **** 
 573              		.loc 1 244 16 view .LVU222
 574 0166 12A9     		add	r1, sp, #72
 575              	.LBB128:
 234:Src/main.cpp  **** 
 576              		.loc 1 234 2 view .LVU223
 577 0168 43F48003 		orr	r3, r3, #4194304
 578 016c EB61     		str	r3, [r5, #28]
 234:Src/main.cpp  **** 
 579              		.loc 1 234 2 is_stmt 1 view .LVU224
 580 016e EB69     		ldr	r3, [r5, #28]
 581              	.LBE128:
 244:Src/main.cpp  **** 
 582              		.loc 1 244 16 is_stmt 0 view .LVU225
 583 0170 6848     		ldr	r0, .L7+8
 584              	.LBB129:
 234:Src/main.cpp  **** 
 585              		.loc 1 234 2 view .LVU226
 586 0172 03F48003 		and	r3, r3, #4194304
 587 0176 0393     		str	r3, [sp, #12]
 234:Src/main.cpp  **** 
 588              		.loc 1 234 2 is_stmt 1 view .LVU227
 589 0178 039B     		ldr	r3, [sp, #12]
 590              	.LBE129:
 237:Src/main.cpp  **** 
 591              		.loc 1 237 2 view .LVU228
 592              	.LBB130:
 237:Src/main.cpp  **** 
 593              		.loc 1 237 2 view .LVU229
 237:Src/main.cpp  **** 
 594              		.loc 1 237 2 view .LVU230
 595 017a 6B69     		ldr	r3, [r5, #20]
 596 017c 43F00103 		orr	r3, r3, #1
 597 0180 6B61     		str	r3, [r5, #20]
 237:Src/main.cpp  **** 
 598              		.loc 1 237 2 view .LVU231
 599 0182 6B69     		ldr	r3, [r5, #20]
 600              	.LBE130:
 242:Src/main.cpp  ****   GPIO_InitStruct.Speed = GPIO_SPEED_FREQ_LOW;
 601              		.loc 1 242 24 is_stmt 0 view .LVU232
 602 0184 CDE91228 		strd	r2, r8, [sp, #72]
ARM GAS  /var/folders/20/cstyxln53wn53rr40gj353bh0000gn/T//ccSZWiEf.s 			page 36


 603              	.LBB131:
 237:Src/main.cpp  **** 
 604              		.loc 1 237 2 view .LVU233
 605 0188 03F00103 		and	r3, r3, #1
 606 018c 0493     		str	r3, [sp, #16]
 237:Src/main.cpp  **** 
 607              		.loc 1 237 2 is_stmt 1 view .LVU234
 608 018e 049B     		ldr	r3, [sp, #16]
 609              	.LBE131:
 240:Src/main.cpp  ****   GPIO_InitStruct.Pin = I2C2_SCL_Pin|I2C2_SDA_Pin;
 610              		.loc 1 240 3 view .LVU235
 241:Src/main.cpp  ****   GPIO_InitStruct.Mode = GPIO_MODE_AF_PP;
 611              		.loc 1 241 3 view .LVU236
 243:Src/main.cpp  ****   HAL_GPIO_Init(GPIOB, &GPIO_InitStruct);
 612              		.loc 1 243 3 view .LVU237
 240:Src/main.cpp  ****   GPIO_InitStruct.Pin = I2C2_SCL_Pin|I2C2_SDA_Pin;
 613              		.loc 1 240 20 is_stmt 0 view .LVU238
 614 0190 1494     		str	r4, [sp, #80]
 243:Src/main.cpp  ****   HAL_GPIO_Init(GPIOB, &GPIO_InitStruct);
 615              		.loc 1 243 25 view .LVU239
 616 0192 CDF85480 		str	r8, [sp, #84]
 244:Src/main.cpp  **** 
 617              		.loc 1 244 3 is_stmt 1 view .LVU240
 244:Src/main.cpp  **** 
 618              		.loc 1 244 16 is_stmt 0 view .LVU241
 619 0196 FFF7FEFF 		bl	HAL_GPIO_Init
 620              	.LVL17:
 251:Src/main.cpp  ****   hi2c2.Init.ClockSpeed = 100000;
 621              		.loc 1 251 3 is_stmt 1 view .LVU242
 255:Src/main.cpp  ****   hi2c2.Init.DualAddressMode = I2C_DUALADDRESS_DISABLE;
 622              		.loc 1 255 29 is_stmt 0 view .LVU243
 623 019a 4FF48042 		mov	r2, #16384
 251:Src/main.cpp  ****   hi2c2.Init.ClockSpeed = 100000;
 624              		.loc 1 251 18 view .LVU244
 625 019e 614B     		ldr	r3, .L7+24
 626 01a0 DFF89CC1 		ldr	ip, .L7+52
 252:Src/main.cpp  ****   hi2c2.Init.DutyCycle = I2C_DUTYCYCLE_2;
 627              		.loc 1 252 25 view .LVU245
 628 01a4 6049     		ldr	r1, .L7+28
 260:Src/main.cpp  ****   {
 629              		.loc 1 260 19 view .LVU246
 630 01a6 1846     		mov	r0, r3
 252:Src/main.cpp  ****   hi2c2.Init.DutyCycle = I2C_DUTYCYCLE_2;
 631              		.loc 1 252 25 view .LVU247
 632 01a8 C3E900C1 		strd	ip, r1, [r3]
 253:Src/main.cpp  ****   hi2c2.Init.OwnAddress1 = 0;
 633              		.loc 1 253 3 is_stmt 1 view .LVU248
 254:Src/main.cpp  ****   hi2c2.Init.AddressingMode = I2C_ADDRESSINGMODE_7BIT;
 634              		.loc 1 254 3 view .LVU249
 255:Src/main.cpp  ****   hi2c2.Init.DualAddressMode = I2C_DUALADDRESS_DISABLE;
 635              		.loc 1 255 3 view .LVU250
 254:Src/main.cpp  ****   hi2c2.Init.AddressingMode = I2C_ADDRESSINGMODE_7BIT;
 636              		.loc 1 254 26 is_stmt 0 view .LVU251
 637 01ac C3E90244 		strd	r4, r4, [r3, #8]
 257:Src/main.cpp  ****   hi2c2.Init.GeneralCallMode = I2C_GENERALCALL_DISABLE;
 638              		.loc 1 257 26 view .LVU252
 639 01b0 C3E90544 		strd	r4, r4, [r3, #20]
ARM GAS  /var/folders/20/cstyxln53wn53rr40gj353bh0000gn/T//ccSZWiEf.s 			page 37


 259:Src/main.cpp  ****   if (HAL_I2C_Init(&hi2c2) != HAL_OK)
 640              		.loc 1 259 28 view .LVU253
 641 01b4 C3E90744 		strd	r4, r4, [r3, #28]
 255:Src/main.cpp  ****   hi2c2.Init.DualAddressMode = I2C_DUALADDRESS_DISABLE;
 642              		.loc 1 255 29 view .LVU254
 643 01b8 1A61     		str	r2, [r3, #16]
 256:Src/main.cpp  ****   hi2c2.Init.OwnAddress2 = 0;
 644              		.loc 1 256 3 is_stmt 1 view .LVU255
 257:Src/main.cpp  ****   hi2c2.Init.GeneralCallMode = I2C_GENERALCALL_DISABLE;
 645              		.loc 1 257 3 view .LVU256
 258:Src/main.cpp  ****   hi2c2.Init.NoStretchMode = I2C_NOSTRETCH_DISABLE;
 646              		.loc 1 258 3 view .LVU257
 259:Src/main.cpp  ****   if (HAL_I2C_Init(&hi2c2) != HAL_OK)
 647              		.loc 1 259 3 view .LVU258
 260:Src/main.cpp  ****   {
 648              		.loc 1 260 3 view .LVU259
 260:Src/main.cpp  ****   {
 649              		.loc 1 260 19 is_stmt 0 view .LVU260
 650 01ba FFF7FEFF 		bl	HAL_I2C_Init
 651              	.LVL18:
 652              	.LBE132:
 653              	.LBE134:
 105:Src/main.cpp  ****   MX_TIM3_Init();
 654              		.loc 1 105 3 is_stmt 1 view .LVU261
 655              	.LBB135:
 656              	.LBI135:
 176:Src/main.cpp  **** {
 657              		.loc 1 176 13 view .LVU262
 658              	.LBB136:
 183:Src/main.cpp  ****   LL_ADC_CommonInitTypeDef ADC_CommonInitStruct = {0};
 659              		.loc 1 183 3 view .LVU263
 197:Src/main.cpp  ****   GPIO_InitStruct.Mode = LL_GPIO_MODE_ANALOG;
 660              		.loc 1 197 23 is_stmt 0 view .LVU264
 661 01be 41F61802 		movw	r2, #6168
 185:Src/main.cpp  **** 
 662              		.loc 1 185 26 view .LVU265
 663 01c2 CDE90C44 		strd	r4, r4, [sp, #48]
 664 01c6 CDE90E44 		strd	r4, r4, [sp, #56]
 187:Src/main.cpp  **** 
 665              		.loc 1 187 23 view .LVU266
 666 01ca CDE91344 		strd	r4, r4, [sp, #76]
 667 01ce CDE91544 		strd	r4, r4, [sp, #84]
 183:Src/main.cpp  ****   LL_ADC_CommonInitTypeDef ADC_CommonInitStruct = {0};
 668              		.loc 1 183 22 view .LVU267
 669 01d2 0A94     		str	r4, [sp, #40]
 184:Src/main.cpp  ****   LL_ADC_REG_InitTypeDef ADC_REG_InitStruct = {0};
 670              		.loc 1 184 28 view .LVU268
 671 01d4 0094     		str	r4, [sp]
 185:Src/main.cpp  **** 
 672              		.loc 1 185 26 view .LVU269
 673 01d6 1094     		str	r4, [sp, #64]
 183:Src/main.cpp  ****   LL_ADC_CommonInitTypeDef ADC_CommonInitStruct = {0};
 674              		.loc 1 183 22 view .LVU270
 675 01d8 0B94     		str	r4, [sp, #44]
 184:Src/main.cpp  ****   LL_ADC_REG_InitTypeDef ADC_REG_InitStruct = {0};
 676              		.loc 1 184 3 is_stmt 1 view .LVU271
 185:Src/main.cpp  **** 
ARM GAS  /var/folders/20/cstyxln53wn53rr40gj353bh0000gn/T//ccSZWiEf.s 			page 38


 677              		.loc 1 185 3 view .LVU272
 187:Src/main.cpp  **** 
 678              		.loc 1 187 3 view .LVU273
 190:Src/main.cpp  ****   
 679              		.loc 1 190 3 view .LVU274
 680              	.LVL19:
 681              	.LBB137:
 682              	.LBI137:
 763:Drivers/STM32F1xx_HAL_Driver/Inc/stm32f1xx_ll_bus.h **** {
 683              		.loc 2 763 22 view .LVU275
 684              	.LBB138:
 765:Drivers/STM32F1xx_HAL_Driver/Inc/stm32f1xx_ll_bus.h ****   SET_BIT(RCC->APB2ENR, Periphs);
 685              		.loc 2 765 3 view .LVU276
 766:Drivers/STM32F1xx_HAL_Driver/Inc/stm32f1xx_ll_bus.h ****   /* Delay after an RCC peripheral clock enabling */
 686              		.loc 2 766 3 view .LVU277
 687 01da AB69     		ldr	r3, [r5, #24]
 688              	.LBE138:
 689              	.LBE137:
 199:Src/main.cpp  **** 
 690              		.loc 1 199 15 is_stmt 0 view .LVU278
 691 01dc 12A9     		add	r1, sp, #72
 692              	.LBB141:
 693              	.LBB139:
 766:Drivers/STM32F1xx_HAL_Driver/Inc/stm32f1xx_ll_bus.h ****   /* Delay after an RCC peripheral clock enabling */
 694              		.loc 2 766 3 view .LVU279
 695 01de 43F40073 		orr	r3, r3, #512
 696 01e2 AB61     		str	r3, [r5, #24]
 768:Drivers/STM32F1xx_HAL_Driver/Inc/stm32f1xx_ll_bus.h ****   (void)tmpreg;
 697              		.loc 2 768 3 is_stmt 1 view .LVU280
 768:Drivers/STM32F1xx_HAL_Driver/Inc/stm32f1xx_ll_bus.h ****   (void)tmpreg;
 698              		.loc 2 768 12 is_stmt 0 view .LVU281
 699 01e4 AB69     		ldr	r3, [r5, #24]
 700              	.LBE139:
 701              	.LBE141:
 199:Src/main.cpp  **** 
 702              		.loc 1 199 15 view .LVU282
 703 01e6 4A48     		ldr	r0, .L7+4
 704              	.LBB142:
 705              	.LBB140:
 768:Drivers/STM32F1xx_HAL_Driver/Inc/stm32f1xx_ll_bus.h ****   (void)tmpreg;
 706              		.loc 2 768 12 view .LVU283
 707 01e8 03F40073 		and	r3, r3, #512
 768:Drivers/STM32F1xx_HAL_Driver/Inc/stm32f1xx_ll_bus.h ****   (void)tmpreg;
 708              		.loc 2 768 10 view .LVU284
 709 01ec 0193     		str	r3, [sp, #4]
 710              		.loc 2 769 3 is_stmt 1 view .LVU285
 711 01ee 019B     		ldr	r3, [sp, #4]
 712              	.LVL20:
 713              		.loc 2 769 3 is_stmt 0 view .LVU286
 714              	.LBE140:
 715              	.LBE142:
 192:Src/main.cpp  ****   /**ADC1 GPIO Configuration  
 716              		.loc 1 192 3 is_stmt 1 view .LVU287
 717              	.LBB143:
 718              	.LBI143:
 763:Drivers/STM32F1xx_HAL_Driver/Inc/stm32f1xx_ll_bus.h **** {
 719              		.loc 2 763 22 view .LVU288
ARM GAS  /var/folders/20/cstyxln53wn53rr40gj353bh0000gn/T//ccSZWiEf.s 			page 39


 720              	.LBB144:
 765:Drivers/STM32F1xx_HAL_Driver/Inc/stm32f1xx_ll_bus.h ****   SET_BIT(RCC->APB2ENR, Periphs);
 721              		.loc 2 765 3 view .LVU289
 766:Drivers/STM32F1xx_HAL_Driver/Inc/stm32f1xx_ll_bus.h ****   /* Delay after an RCC peripheral clock enabling */
 722              		.loc 2 766 3 view .LVU290
 723 01f0 AB69     		ldr	r3, [r5, #24]
 724 01f2 43F00403 		orr	r3, r3, #4
 725 01f6 AB61     		str	r3, [r5, #24]
 768:Drivers/STM32F1xx_HAL_Driver/Inc/stm32f1xx_ll_bus.h ****   (void)tmpreg;
 726              		.loc 2 768 3 view .LVU291
 768:Drivers/STM32F1xx_HAL_Driver/Inc/stm32f1xx_ll_bus.h ****   (void)tmpreg;
 727              		.loc 2 768 12 is_stmt 0 view .LVU292
 728 01f8 AB69     		ldr	r3, [r5, #24]
 729              	.LBE144:
 730              	.LBE143:
 197:Src/main.cpp  ****   GPIO_InitStruct.Mode = LL_GPIO_MODE_ANALOG;
 731              		.loc 1 197 23 view .LVU293
 732 01fa 1292     		str	r2, [sp, #72]
 733              	.LBB146:
 734              	.LBB145:
 768:Drivers/STM32F1xx_HAL_Driver/Inc/stm32f1xx_ll_bus.h ****   (void)tmpreg;
 735              		.loc 2 768 12 view .LVU294
 736 01fc 03F00403 		and	r3, r3, #4
 768:Drivers/STM32F1xx_HAL_Driver/Inc/stm32f1xx_ll_bus.h ****   (void)tmpreg;
 737              		.loc 2 768 10 view .LVU295
 738 0200 0293     		str	r3, [sp, #8]
 739              		.loc 2 769 3 is_stmt 1 view .LVU296
 740 0202 029B     		ldr	r3, [sp, #8]
 741              	.LVL21:
 742              		.loc 2 769 3 is_stmt 0 view .LVU297
 743              	.LBE145:
 744              	.LBE146:
 197:Src/main.cpp  ****   GPIO_InitStruct.Mode = LL_GPIO_MODE_ANALOG;
 745              		.loc 1 197 3 is_stmt 1 view .LVU298
 198:Src/main.cpp  ****   LL_GPIO_Init(GPIOA, &GPIO_InitStruct);
 746              		.loc 1 198 3 view .LVU299
 199:Src/main.cpp  **** 
 747              		.loc 1 199 3 view .LVU300
 199:Src/main.cpp  **** 
 748              		.loc 1 199 15 is_stmt 0 view .LVU301
 749 0204 FFF7FEFF 		bl	LL_GPIO_Init
 750              	.LVL22:
 206:Src/main.cpp  ****   ADC_InitStruct.SequencersScanMode = LL_ADC_SEQ_SCAN_DISABLE;
 751              		.loc 1 206 3 is_stmt 1 view .LVU302
 207:Src/main.cpp  ****   LL_ADC_Init(ADC1, &ADC_InitStruct);
 752              		.loc 1 207 3 view .LVU303
 208:Src/main.cpp  ****   ADC_CommonInitStruct.Multimode = LL_ADC_MULTI_INDEPENDENT;
 753              		.loc 1 208 14 is_stmt 0 view .LVU304
 754 0208 0AA9     		add	r1, sp, #40
 755 020a 4848     		ldr	r0, .L7+32
 206:Src/main.cpp  ****   ADC_InitStruct.SequencersScanMode = LL_ADC_SEQ_SCAN_DISABLE;
 756              		.loc 1 206 32 view .LVU305
 757 020c CDE90A67 		strd	r6, [sp, #40]
 208:Src/main.cpp  ****   ADC_CommonInitStruct.Multimode = LL_ADC_MULTI_INDEPENDENT;
 758              		.loc 1 208 3 is_stmt 1 view .LVU306
 208:Src/main.cpp  ****   ADC_CommonInitStruct.Multimode = LL_ADC_MULTI_INDEPENDENT;
 759              		.loc 1 208 14 is_stmt 0 view .LVU307
ARM GAS  /var/folders/20/cstyxln53wn53rr40gj353bh0000gn/T//ccSZWiEf.s 			page 40


 760 0210 FFF7FEFF 		bl	LL_ADC_Init
 761              	.LVL23:
 209:Src/main.cpp  ****   LL_ADC_CommonInit(__LL_ADC_COMMON_INSTANCE(ADC1), &ADC_CommonInitStruct);
 762              		.loc 1 209 3 is_stmt 1 view .LVU308
 210:Src/main.cpp  ****   ADC_REG_InitStruct.TriggerSource = LL_ADC_REG_TRIG_SOFTWARE;
 763              		.loc 1 210 20 is_stmt 0 view .LVU309
 764 0214 6946     		mov	r1, sp
 765 0216 4548     		ldr	r0, .L7+32
 209:Src/main.cpp  ****   LL_ADC_CommonInit(__LL_ADC_COMMON_INSTANCE(ADC1), &ADC_CommonInitStruct);
 766              		.loc 1 209 34 view .LVU310
 767 0218 0094     		str	r4, [sp]
 210:Src/main.cpp  ****   ADC_REG_InitStruct.TriggerSource = LL_ADC_REG_TRIG_SOFTWARE;
 768              		.loc 1 210 3 is_stmt 1 view .LVU311
 210:Src/main.cpp  ****   ADC_REG_InitStruct.TriggerSource = LL_ADC_REG_TRIG_SOFTWARE;
 769              		.loc 1 210 20 is_stmt 0 view .LVU312
 770 021a FFF7FEFF 		bl	LL_ADC_CommonInit
 771              	.LVL24:
 211:Src/main.cpp  ****   ADC_REG_InitStruct.SequencerLength = LL_ADC_REG_SEQ_SCAN_DISABLE;
 772              		.loc 1 211 3 is_stmt 1 view .LVU313
 212:Src/main.cpp  ****   ADC_REG_InitStruct.SequencerDiscont = LL_ADC_REG_SEQ_DISCONT_DISABLE;
 773              		.loc 1 212 3 view .LVU314
 213:Src/main.cpp  ****   ADC_REG_InitStruct.ContinuousMode = LL_ADC_REG_CONV_SINGLE;
 774              		.loc 1 213 3 view .LVU315
 214:Src/main.cpp  ****   ADC_REG_InitStruct.DMATransfer = LL_ADC_REG_DMA_TRANSFER_NONE;
 775              		.loc 1 214 3 view .LVU316
 211:Src/main.cpp  ****   ADC_REG_InitStruct.SequencerLength = LL_ADC_REG_SEQ_SCAN_DISABLE;
 776              		.loc 1 211 36 is_stmt 0 view .LVU317
 777 021e 4FF46022 		mov	r2, #917504
 778 0222 0023     		movs	r3, #0
 216:Src/main.cpp  ****   /** Configure Regular Channel 
 779              		.loc 1 216 18 view .LVU318
 780 0224 0CA9     		add	r1, sp, #48
 781 0226 4148     		ldr	r0, .L7+32
 211:Src/main.cpp  ****   ADC_REG_InitStruct.SequencerLength = LL_ADC_REG_SEQ_SCAN_DISABLE;
 782              		.loc 1 211 36 view .LVU319
 783 0228 CDE90C23 		strd	r2, [sp, #48]
 784 022c CDE90E67 		strd	r6, [sp, #56]
 215:Src/main.cpp  ****   LL_ADC_REG_Init(ADC1, &ADC_REG_InitStruct);
 785              		.loc 1 215 3 is_stmt 1 view .LVU320
 215:Src/main.cpp  ****   LL_ADC_REG_Init(ADC1, &ADC_REG_InitStruct);
 786              		.loc 1 215 34 is_stmt 0 view .LVU321
 787 0230 1094     		str	r4, [sp, #64]
 216:Src/main.cpp  ****   /** Configure Regular Channel 
 788              		.loc 1 216 3 is_stmt 1 view .LVU322
 216:Src/main.cpp  ****   /** Configure Regular Channel 
 789              		.loc 1 216 18 is_stmt 0 view .LVU323
 790 0232 FFF7FEFF 		bl	LL_ADC_REG_Init
 791              	.LVL25:
 219:Src/main.cpp  ****   LL_ADC_SetChannelSamplingTime(ADC1, LL_ADC_CHANNEL_3, LL_ADC_SAMPLINGTIME_1CYCLE_5);
 792              		.loc 1 219 3 is_stmt 1 view .LVU324
 793              	.LBB147:
 794              	.LBI147:
 795              		.file 3 "Drivers/STM32F1xx_HAL_Driver/Inc/stm32f1xx_ll_adc.h"
   1:Drivers/STM32F1xx_HAL_Driver/Inc/stm32f1xx_ll_adc.h **** /**
   2:Drivers/STM32F1xx_HAL_Driver/Inc/stm32f1xx_ll_adc.h ****   ******************************************************************************
   3:Drivers/STM32F1xx_HAL_Driver/Inc/stm32f1xx_ll_adc.h ****   * @file    stm32f1xx_ll_adc.h
   4:Drivers/STM32F1xx_HAL_Driver/Inc/stm32f1xx_ll_adc.h ****   * @author  MCD Application Team
ARM GAS  /var/folders/20/cstyxln53wn53rr40gj353bh0000gn/T//ccSZWiEf.s 			page 41


   5:Drivers/STM32F1xx_HAL_Driver/Inc/stm32f1xx_ll_adc.h ****   * @brief   Header file of ADC LL module.
   6:Drivers/STM32F1xx_HAL_Driver/Inc/stm32f1xx_ll_adc.h ****   ******************************************************************************
   7:Drivers/STM32F1xx_HAL_Driver/Inc/stm32f1xx_ll_adc.h ****   * @attention
   8:Drivers/STM32F1xx_HAL_Driver/Inc/stm32f1xx_ll_adc.h ****   *
   9:Drivers/STM32F1xx_HAL_Driver/Inc/stm32f1xx_ll_adc.h ****   * <h2><center>&copy; Copyright (c) 2017 STMicroelectronics.
  10:Drivers/STM32F1xx_HAL_Driver/Inc/stm32f1xx_ll_adc.h ****   * All rights reserved.</center></h2>
  11:Drivers/STM32F1xx_HAL_Driver/Inc/stm32f1xx_ll_adc.h ****   *
  12:Drivers/STM32F1xx_HAL_Driver/Inc/stm32f1xx_ll_adc.h ****   * This software component is licensed by ST under BSD 3-Clause license,
  13:Drivers/STM32F1xx_HAL_Driver/Inc/stm32f1xx_ll_adc.h ****   * the "License"; You may not use this file except in compliance with the
  14:Drivers/STM32F1xx_HAL_Driver/Inc/stm32f1xx_ll_adc.h ****   * License. You may obtain a copy of the License at:
  15:Drivers/STM32F1xx_HAL_Driver/Inc/stm32f1xx_ll_adc.h ****   *                        opensource.org/licenses/BSD-3-Clause
  16:Drivers/STM32F1xx_HAL_Driver/Inc/stm32f1xx_ll_adc.h ****   *
  17:Drivers/STM32F1xx_HAL_Driver/Inc/stm32f1xx_ll_adc.h ****   ******************************************************************************
  18:Drivers/STM32F1xx_HAL_Driver/Inc/stm32f1xx_ll_adc.h ****   */
  19:Drivers/STM32F1xx_HAL_Driver/Inc/stm32f1xx_ll_adc.h **** 
  20:Drivers/STM32F1xx_HAL_Driver/Inc/stm32f1xx_ll_adc.h **** /* Define to prevent recursive inclusion -------------------------------------*/
  21:Drivers/STM32F1xx_HAL_Driver/Inc/stm32f1xx_ll_adc.h **** #ifndef __STM32F1xx_LL_ADC_H
  22:Drivers/STM32F1xx_HAL_Driver/Inc/stm32f1xx_ll_adc.h **** #define __STM32F1xx_LL_ADC_H
  23:Drivers/STM32F1xx_HAL_Driver/Inc/stm32f1xx_ll_adc.h **** 
  24:Drivers/STM32F1xx_HAL_Driver/Inc/stm32f1xx_ll_adc.h **** #ifdef __cplusplus
  25:Drivers/STM32F1xx_HAL_Driver/Inc/stm32f1xx_ll_adc.h **** extern "C" {
  26:Drivers/STM32F1xx_HAL_Driver/Inc/stm32f1xx_ll_adc.h **** #endif
  27:Drivers/STM32F1xx_HAL_Driver/Inc/stm32f1xx_ll_adc.h **** 
  28:Drivers/STM32F1xx_HAL_Driver/Inc/stm32f1xx_ll_adc.h **** /* Includes ------------------------------------------------------------------*/
  29:Drivers/STM32F1xx_HAL_Driver/Inc/stm32f1xx_ll_adc.h **** #include "stm32f1xx.h"
  30:Drivers/STM32F1xx_HAL_Driver/Inc/stm32f1xx_ll_adc.h **** 
  31:Drivers/STM32F1xx_HAL_Driver/Inc/stm32f1xx_ll_adc.h **** /** @addtogroup STM32F1xx_LL_Driver
  32:Drivers/STM32F1xx_HAL_Driver/Inc/stm32f1xx_ll_adc.h ****   * @{
  33:Drivers/STM32F1xx_HAL_Driver/Inc/stm32f1xx_ll_adc.h ****   */
  34:Drivers/STM32F1xx_HAL_Driver/Inc/stm32f1xx_ll_adc.h **** 
  35:Drivers/STM32F1xx_HAL_Driver/Inc/stm32f1xx_ll_adc.h **** #if defined (ADC1) || defined (ADC2) || defined (ADC3)
  36:Drivers/STM32F1xx_HAL_Driver/Inc/stm32f1xx_ll_adc.h **** 
  37:Drivers/STM32F1xx_HAL_Driver/Inc/stm32f1xx_ll_adc.h **** /** @defgroup ADC_LL ADC
  38:Drivers/STM32F1xx_HAL_Driver/Inc/stm32f1xx_ll_adc.h ****   * @{
  39:Drivers/STM32F1xx_HAL_Driver/Inc/stm32f1xx_ll_adc.h ****   */
  40:Drivers/STM32F1xx_HAL_Driver/Inc/stm32f1xx_ll_adc.h **** 
  41:Drivers/STM32F1xx_HAL_Driver/Inc/stm32f1xx_ll_adc.h **** /* Private types -------------------------------------------------------------*/
  42:Drivers/STM32F1xx_HAL_Driver/Inc/stm32f1xx_ll_adc.h **** /* Private variables ---------------------------------------------------------*/
  43:Drivers/STM32F1xx_HAL_Driver/Inc/stm32f1xx_ll_adc.h **** 
  44:Drivers/STM32F1xx_HAL_Driver/Inc/stm32f1xx_ll_adc.h **** /* Private constants ---------------------------------------------------------*/
  45:Drivers/STM32F1xx_HAL_Driver/Inc/stm32f1xx_ll_adc.h **** /** @defgroup ADC_LL_Private_Constants ADC Private Constants
  46:Drivers/STM32F1xx_HAL_Driver/Inc/stm32f1xx_ll_adc.h ****   * @{
  47:Drivers/STM32F1xx_HAL_Driver/Inc/stm32f1xx_ll_adc.h ****   */
  48:Drivers/STM32F1xx_HAL_Driver/Inc/stm32f1xx_ll_adc.h **** 
  49:Drivers/STM32F1xx_HAL_Driver/Inc/stm32f1xx_ll_adc.h **** /* Internal mask for ADC group regular sequencer:                             */
  50:Drivers/STM32F1xx_HAL_Driver/Inc/stm32f1xx_ll_adc.h **** /* To select into literal LL_ADC_REG_RANK_x the relevant bits for:            */
  51:Drivers/STM32F1xx_HAL_Driver/Inc/stm32f1xx_ll_adc.h **** /* - sequencer register offset                                                */
  52:Drivers/STM32F1xx_HAL_Driver/Inc/stm32f1xx_ll_adc.h **** /* - sequencer rank bits position into the selected register                  */
  53:Drivers/STM32F1xx_HAL_Driver/Inc/stm32f1xx_ll_adc.h **** 
  54:Drivers/STM32F1xx_HAL_Driver/Inc/stm32f1xx_ll_adc.h **** /* Internal register offset for ADC group regular sequencer configuration */
  55:Drivers/STM32F1xx_HAL_Driver/Inc/stm32f1xx_ll_adc.h **** /* (offset placed into a spare area of literal definition) */
  56:Drivers/STM32F1xx_HAL_Driver/Inc/stm32f1xx_ll_adc.h **** #define ADC_SQR1_REGOFFSET                 0x00000000U
  57:Drivers/STM32F1xx_HAL_Driver/Inc/stm32f1xx_ll_adc.h **** #define ADC_SQR2_REGOFFSET                 0x00000100U
  58:Drivers/STM32F1xx_HAL_Driver/Inc/stm32f1xx_ll_adc.h **** #define ADC_SQR3_REGOFFSET                 0x00000200U
  59:Drivers/STM32F1xx_HAL_Driver/Inc/stm32f1xx_ll_adc.h **** #define ADC_SQR4_REGOFFSET                 0x00000300U
  60:Drivers/STM32F1xx_HAL_Driver/Inc/stm32f1xx_ll_adc.h **** 
  61:Drivers/STM32F1xx_HAL_Driver/Inc/stm32f1xx_ll_adc.h **** #define ADC_REG_SQRX_REGOFFSET_MASK        (ADC_SQR1_REGOFFSET | ADC_SQR2_REGOFFSET | ADC_SQR3_REGO
ARM GAS  /var/folders/20/cstyxln53wn53rr40gj353bh0000gn/T//ccSZWiEf.s 			page 42


  62:Drivers/STM32F1xx_HAL_Driver/Inc/stm32f1xx_ll_adc.h **** #define ADC_REG_RANK_ID_SQRX_MASK          (ADC_CHANNEL_ID_NUMBER_MASK_POSBIT0)
  63:Drivers/STM32F1xx_HAL_Driver/Inc/stm32f1xx_ll_adc.h **** 
  64:Drivers/STM32F1xx_HAL_Driver/Inc/stm32f1xx_ll_adc.h **** /* Definition of ADC group regular sequencer bits information to be inserted  */
  65:Drivers/STM32F1xx_HAL_Driver/Inc/stm32f1xx_ll_adc.h **** /* into ADC group regular sequencer ranks literals definition.                */
  66:Drivers/STM32F1xx_HAL_Driver/Inc/stm32f1xx_ll_adc.h **** #define ADC_REG_RANK_1_SQRX_BITOFFSET_POS  ( 0U) /* Value equivalent to POSITION_VAL(ADC_SQR3_SQ1) 
  67:Drivers/STM32F1xx_HAL_Driver/Inc/stm32f1xx_ll_adc.h **** #define ADC_REG_RANK_2_SQRX_BITOFFSET_POS  ( 5U) /* Value equivalent to POSITION_VAL(ADC_SQR3_SQ2) 
  68:Drivers/STM32F1xx_HAL_Driver/Inc/stm32f1xx_ll_adc.h **** #define ADC_REG_RANK_3_SQRX_BITOFFSET_POS  (10U) /* Value equivalent to POSITION_VAL(ADC_SQR3_SQ3) 
  69:Drivers/STM32F1xx_HAL_Driver/Inc/stm32f1xx_ll_adc.h **** #define ADC_REG_RANK_4_SQRX_BITOFFSET_POS  (15U) /* Value equivalent to POSITION_VAL(ADC_SQR3_SQ4) 
  70:Drivers/STM32F1xx_HAL_Driver/Inc/stm32f1xx_ll_adc.h **** #define ADC_REG_RANK_5_SQRX_BITOFFSET_POS  (20U) /* Value equivalent to POSITION_VAL(ADC_SQR3_SQ5) 
  71:Drivers/STM32F1xx_HAL_Driver/Inc/stm32f1xx_ll_adc.h **** #define ADC_REG_RANK_6_SQRX_BITOFFSET_POS  (25U) /* Value equivalent to POSITION_VAL(ADC_SQR3_SQ6) 
  72:Drivers/STM32F1xx_HAL_Driver/Inc/stm32f1xx_ll_adc.h **** #define ADC_REG_RANK_7_SQRX_BITOFFSET_POS  ( 0U) /* Value equivalent to POSITION_VAL(ADC_SQR2_SQ7) 
  73:Drivers/STM32F1xx_HAL_Driver/Inc/stm32f1xx_ll_adc.h **** #define ADC_REG_RANK_8_SQRX_BITOFFSET_POS  ( 5U) /* Value equivalent to POSITION_VAL(ADC_SQR2_SQ8) 
  74:Drivers/STM32F1xx_HAL_Driver/Inc/stm32f1xx_ll_adc.h **** #define ADC_REG_RANK_9_SQRX_BITOFFSET_POS  (10U) /* Value equivalent to POSITION_VAL(ADC_SQR2_SQ9) 
  75:Drivers/STM32F1xx_HAL_Driver/Inc/stm32f1xx_ll_adc.h **** #define ADC_REG_RANK_10_SQRX_BITOFFSET_POS (15U) /* Value equivalent to POSITION_VAL(ADC_SQR2_SQ10)
  76:Drivers/STM32F1xx_HAL_Driver/Inc/stm32f1xx_ll_adc.h **** #define ADC_REG_RANK_11_SQRX_BITOFFSET_POS (20U) /* Value equivalent to POSITION_VAL(ADC_SQR2_SQ11)
  77:Drivers/STM32F1xx_HAL_Driver/Inc/stm32f1xx_ll_adc.h **** #define ADC_REG_RANK_12_SQRX_BITOFFSET_POS (25U) /* Value equivalent to POSITION_VAL(ADC_SQR2_SQ12)
  78:Drivers/STM32F1xx_HAL_Driver/Inc/stm32f1xx_ll_adc.h **** #define ADC_REG_RANK_13_SQRX_BITOFFSET_POS ( 0U) /* Value equivalent to POSITION_VAL(ADC_SQR1_SQ13)
  79:Drivers/STM32F1xx_HAL_Driver/Inc/stm32f1xx_ll_adc.h **** #define ADC_REG_RANK_14_SQRX_BITOFFSET_POS ( 5U) /* Value equivalent to POSITION_VAL(ADC_SQR1_SQ14)
  80:Drivers/STM32F1xx_HAL_Driver/Inc/stm32f1xx_ll_adc.h **** #define ADC_REG_RANK_15_SQRX_BITOFFSET_POS (10U) /* Value equivalent to POSITION_VAL(ADC_SQR1_SQ15)
  81:Drivers/STM32F1xx_HAL_Driver/Inc/stm32f1xx_ll_adc.h **** #define ADC_REG_RANK_16_SQRX_BITOFFSET_POS (15U) /* Value equivalent to POSITION_VAL(ADC_SQR1_SQ16)
  82:Drivers/STM32F1xx_HAL_Driver/Inc/stm32f1xx_ll_adc.h **** 
  83:Drivers/STM32F1xx_HAL_Driver/Inc/stm32f1xx_ll_adc.h **** /* Internal mask for ADC group injected sequencer:                            */
  84:Drivers/STM32F1xx_HAL_Driver/Inc/stm32f1xx_ll_adc.h **** /* To select into literal LL_ADC_INJ_RANK_x the relevant bits for:            */
  85:Drivers/STM32F1xx_HAL_Driver/Inc/stm32f1xx_ll_adc.h **** /* - data register offset                                                     */
  86:Drivers/STM32F1xx_HAL_Driver/Inc/stm32f1xx_ll_adc.h **** /* - offset register offset                                                   */
  87:Drivers/STM32F1xx_HAL_Driver/Inc/stm32f1xx_ll_adc.h **** /* - sequencer rank bits position into the selected register                  */
  88:Drivers/STM32F1xx_HAL_Driver/Inc/stm32f1xx_ll_adc.h **** 
  89:Drivers/STM32F1xx_HAL_Driver/Inc/stm32f1xx_ll_adc.h **** /* Internal register offset for ADC group injected data register */
  90:Drivers/STM32F1xx_HAL_Driver/Inc/stm32f1xx_ll_adc.h **** /* (offset placed into a spare area of literal definition) */
  91:Drivers/STM32F1xx_HAL_Driver/Inc/stm32f1xx_ll_adc.h **** #define ADC_JDR1_REGOFFSET                 0x00000000U
  92:Drivers/STM32F1xx_HAL_Driver/Inc/stm32f1xx_ll_adc.h **** #define ADC_JDR2_REGOFFSET                 0x00000100U
  93:Drivers/STM32F1xx_HAL_Driver/Inc/stm32f1xx_ll_adc.h **** #define ADC_JDR3_REGOFFSET                 0x00000200U
  94:Drivers/STM32F1xx_HAL_Driver/Inc/stm32f1xx_ll_adc.h **** #define ADC_JDR4_REGOFFSET                 0x00000300U
  95:Drivers/STM32F1xx_HAL_Driver/Inc/stm32f1xx_ll_adc.h **** 
  96:Drivers/STM32F1xx_HAL_Driver/Inc/stm32f1xx_ll_adc.h **** /* Internal register offset for ADC group injected offset configuration */
  97:Drivers/STM32F1xx_HAL_Driver/Inc/stm32f1xx_ll_adc.h **** /* (offset placed into a spare area of literal definition) */
  98:Drivers/STM32F1xx_HAL_Driver/Inc/stm32f1xx_ll_adc.h **** #define ADC_JOFR1_REGOFFSET                0x00000000U
  99:Drivers/STM32F1xx_HAL_Driver/Inc/stm32f1xx_ll_adc.h **** #define ADC_JOFR2_REGOFFSET                0x00001000U
 100:Drivers/STM32F1xx_HAL_Driver/Inc/stm32f1xx_ll_adc.h **** #define ADC_JOFR3_REGOFFSET                0x00002000U
 101:Drivers/STM32F1xx_HAL_Driver/Inc/stm32f1xx_ll_adc.h **** #define ADC_JOFR4_REGOFFSET                0x00003000U
 102:Drivers/STM32F1xx_HAL_Driver/Inc/stm32f1xx_ll_adc.h **** 
 103:Drivers/STM32F1xx_HAL_Driver/Inc/stm32f1xx_ll_adc.h **** #define ADC_INJ_JDRX_REGOFFSET_MASK        (ADC_JDR1_REGOFFSET | ADC_JDR2_REGOFFSET | ADC_JDR3_REGO
 104:Drivers/STM32F1xx_HAL_Driver/Inc/stm32f1xx_ll_adc.h **** #define ADC_INJ_JOFRX_REGOFFSET_MASK       (ADC_JOFR1_REGOFFSET | ADC_JOFR2_REGOFFSET | ADC_JOFR3_R
 105:Drivers/STM32F1xx_HAL_Driver/Inc/stm32f1xx_ll_adc.h **** #define ADC_INJ_RANK_ID_JSQR_MASK          (ADC_CHANNEL_ID_NUMBER_MASK_POSBIT0)
 106:Drivers/STM32F1xx_HAL_Driver/Inc/stm32f1xx_ll_adc.h **** 
 107:Drivers/STM32F1xx_HAL_Driver/Inc/stm32f1xx_ll_adc.h **** /* Internal mask for ADC channel:                                             */
 108:Drivers/STM32F1xx_HAL_Driver/Inc/stm32f1xx_ll_adc.h **** /* To select into literal LL_ADC_CHANNEL_x the relevant bits for:             */
 109:Drivers/STM32F1xx_HAL_Driver/Inc/stm32f1xx_ll_adc.h **** /* - channel identifier defined by number                                     */
 110:Drivers/STM32F1xx_HAL_Driver/Inc/stm32f1xx_ll_adc.h **** /* - channel differentiation between external channels (connected to          */
 111:Drivers/STM32F1xx_HAL_Driver/Inc/stm32f1xx_ll_adc.h **** /*   GPIO pins) and internal channels (connected to internal paths)           */
 112:Drivers/STM32F1xx_HAL_Driver/Inc/stm32f1xx_ll_adc.h **** /* - channel sampling time defined by SMPRx register offset                   */
 113:Drivers/STM32F1xx_HAL_Driver/Inc/stm32f1xx_ll_adc.h **** /*   and SMPx bits positions into SMPRx register                              */
 114:Drivers/STM32F1xx_HAL_Driver/Inc/stm32f1xx_ll_adc.h **** #define ADC_CHANNEL_ID_NUMBER_MASK         (ADC_CR1_AWDCH)
 115:Drivers/STM32F1xx_HAL_Driver/Inc/stm32f1xx_ll_adc.h **** #define ADC_CHANNEL_ID_NUMBER_BITOFFSET_POS ( 0U)/* Value equivalent to POSITION_VAL(ADC_CHANNEL_ID
 116:Drivers/STM32F1xx_HAL_Driver/Inc/stm32f1xx_ll_adc.h **** #define ADC_CHANNEL_ID_MASK                (ADC_CHANNEL_ID_NUMBER_MASK | ADC_CHANNEL_ID_INTERNAL_CH
 117:Drivers/STM32F1xx_HAL_Driver/Inc/stm32f1xx_ll_adc.h **** /* Equivalent mask of ADC_CHANNEL_NUMBER_MASK aligned on register LSB (bit 0) */
 118:Drivers/STM32F1xx_HAL_Driver/Inc/stm32f1xx_ll_adc.h **** #define ADC_CHANNEL_ID_NUMBER_MASK_POSBIT0 0x0000001FU /* Equivalent to shift: (ADC_CHANNEL_NUMBER_
ARM GAS  /var/folders/20/cstyxln53wn53rr40gj353bh0000gn/T//ccSZWiEf.s 			page 43


 119:Drivers/STM32F1xx_HAL_Driver/Inc/stm32f1xx_ll_adc.h **** 
 120:Drivers/STM32F1xx_HAL_Driver/Inc/stm32f1xx_ll_adc.h **** /* Channel differentiation between external and internal channels */
 121:Drivers/STM32F1xx_HAL_Driver/Inc/stm32f1xx_ll_adc.h **** #define ADC_CHANNEL_ID_INTERNAL_CH         0x80000000U   /* Marker of internal channel */
 122:Drivers/STM32F1xx_HAL_Driver/Inc/stm32f1xx_ll_adc.h **** #define ADC_CHANNEL_ID_INTERNAL_CH_2       0x40000000U   /* Marker of internal channel for other AD
 123:Drivers/STM32F1xx_HAL_Driver/Inc/stm32f1xx_ll_adc.h **** #define ADC_CHANNEL_ID_INTERNAL_CH_MASK    (ADC_CHANNEL_ID_INTERNAL_CH | ADC_CHANNEL_ID_INTERNAL_CH
 124:Drivers/STM32F1xx_HAL_Driver/Inc/stm32f1xx_ll_adc.h **** 
 125:Drivers/STM32F1xx_HAL_Driver/Inc/stm32f1xx_ll_adc.h **** /* Internal register offset for ADC channel sampling time configuration */
 126:Drivers/STM32F1xx_HAL_Driver/Inc/stm32f1xx_ll_adc.h **** /* (offset placed into a spare area of literal definition) */
 127:Drivers/STM32F1xx_HAL_Driver/Inc/stm32f1xx_ll_adc.h **** #define ADC_SMPR1_REGOFFSET                0x00000000U
 128:Drivers/STM32F1xx_HAL_Driver/Inc/stm32f1xx_ll_adc.h **** #define ADC_SMPR2_REGOFFSET                0x02000000U
 129:Drivers/STM32F1xx_HAL_Driver/Inc/stm32f1xx_ll_adc.h **** #define ADC_CHANNEL_SMPRX_REGOFFSET_MASK   (ADC_SMPR1_REGOFFSET | ADC_SMPR2_REGOFFSET)
 130:Drivers/STM32F1xx_HAL_Driver/Inc/stm32f1xx_ll_adc.h **** 
 131:Drivers/STM32F1xx_HAL_Driver/Inc/stm32f1xx_ll_adc.h **** #define ADC_CHANNEL_SMPx_BITOFFSET_MASK    0x01F00000U
 132:Drivers/STM32F1xx_HAL_Driver/Inc/stm32f1xx_ll_adc.h **** #define ADC_CHANNEL_SMPx_BITOFFSET_POS     (20U)           /* Value equivalent to POSITION_VAL(ADC_
 133:Drivers/STM32F1xx_HAL_Driver/Inc/stm32f1xx_ll_adc.h **** 
 134:Drivers/STM32F1xx_HAL_Driver/Inc/stm32f1xx_ll_adc.h **** /* Definition of channels ID number information to be inserted into           */
 135:Drivers/STM32F1xx_HAL_Driver/Inc/stm32f1xx_ll_adc.h **** /* channels literals definition.                                              */
 136:Drivers/STM32F1xx_HAL_Driver/Inc/stm32f1xx_ll_adc.h **** #define ADC_CHANNEL_0_NUMBER               0x00000000U
 137:Drivers/STM32F1xx_HAL_Driver/Inc/stm32f1xx_ll_adc.h **** #define ADC_CHANNEL_1_NUMBER               (                                                       
 138:Drivers/STM32F1xx_HAL_Driver/Inc/stm32f1xx_ll_adc.h **** #define ADC_CHANNEL_2_NUMBER               (                                                      A
 139:Drivers/STM32F1xx_HAL_Driver/Inc/stm32f1xx_ll_adc.h **** #define ADC_CHANNEL_3_NUMBER               (                                                      A
 140:Drivers/STM32F1xx_HAL_Driver/Inc/stm32f1xx_ll_adc.h **** #define ADC_CHANNEL_4_NUMBER               (                                    ADC_CR1_AWDCH_2    
 141:Drivers/STM32F1xx_HAL_Driver/Inc/stm32f1xx_ll_adc.h **** #define ADC_CHANNEL_5_NUMBER               (                                    ADC_CR1_AWDCH_2    
 142:Drivers/STM32F1xx_HAL_Driver/Inc/stm32f1xx_ll_adc.h **** #define ADC_CHANNEL_6_NUMBER               (                                    ADC_CR1_AWDCH_2 | A
 143:Drivers/STM32F1xx_HAL_Driver/Inc/stm32f1xx_ll_adc.h **** #define ADC_CHANNEL_7_NUMBER               (                                    ADC_CR1_AWDCH_2 | A
 144:Drivers/STM32F1xx_HAL_Driver/Inc/stm32f1xx_ll_adc.h **** #define ADC_CHANNEL_8_NUMBER               (                  ADC_CR1_AWDCH_3                      
 145:Drivers/STM32F1xx_HAL_Driver/Inc/stm32f1xx_ll_adc.h **** #define ADC_CHANNEL_9_NUMBER               (                  ADC_CR1_AWDCH_3                      
 146:Drivers/STM32F1xx_HAL_Driver/Inc/stm32f1xx_ll_adc.h **** #define ADC_CHANNEL_10_NUMBER              (                  ADC_CR1_AWDCH_3                   | A
 147:Drivers/STM32F1xx_HAL_Driver/Inc/stm32f1xx_ll_adc.h **** #define ADC_CHANNEL_11_NUMBER              (                  ADC_CR1_AWDCH_3                   | A
 148:Drivers/STM32F1xx_HAL_Driver/Inc/stm32f1xx_ll_adc.h **** #define ADC_CHANNEL_12_NUMBER              (                  ADC_CR1_AWDCH_3 | ADC_CR1_AWDCH_2    
 149:Drivers/STM32F1xx_HAL_Driver/Inc/stm32f1xx_ll_adc.h **** #define ADC_CHANNEL_13_NUMBER              (                  ADC_CR1_AWDCH_3 | ADC_CR1_AWDCH_2    
 150:Drivers/STM32F1xx_HAL_Driver/Inc/stm32f1xx_ll_adc.h **** #define ADC_CHANNEL_14_NUMBER              (                  ADC_CR1_AWDCH_3 | ADC_CR1_AWDCH_2 | A
 151:Drivers/STM32F1xx_HAL_Driver/Inc/stm32f1xx_ll_adc.h **** #define ADC_CHANNEL_15_NUMBER              (                  ADC_CR1_AWDCH_3 | ADC_CR1_AWDCH_2 | A
 152:Drivers/STM32F1xx_HAL_Driver/Inc/stm32f1xx_ll_adc.h **** #define ADC_CHANNEL_16_NUMBER              (ADC_CR1_AWDCH_4                                        
 153:Drivers/STM32F1xx_HAL_Driver/Inc/stm32f1xx_ll_adc.h **** #define ADC_CHANNEL_17_NUMBER              (ADC_CR1_AWDCH_4                                        
 154:Drivers/STM32F1xx_HAL_Driver/Inc/stm32f1xx_ll_adc.h **** 
 155:Drivers/STM32F1xx_HAL_Driver/Inc/stm32f1xx_ll_adc.h **** /* Definition of channels sampling time information to be inserted into       */
 156:Drivers/STM32F1xx_HAL_Driver/Inc/stm32f1xx_ll_adc.h **** /* channels literals definition.                                              */
 157:Drivers/STM32F1xx_HAL_Driver/Inc/stm32f1xx_ll_adc.h **** #define ADC_CHANNEL_0_SMP                  (ADC_SMPR2_REGOFFSET | (( 0U) << ADC_CHANNEL_SMPx_BITOFF
 158:Drivers/STM32F1xx_HAL_Driver/Inc/stm32f1xx_ll_adc.h **** #define ADC_CHANNEL_1_SMP                  (ADC_SMPR2_REGOFFSET | (( 3U) << ADC_CHANNEL_SMPx_BITOFF
 159:Drivers/STM32F1xx_HAL_Driver/Inc/stm32f1xx_ll_adc.h **** #define ADC_CHANNEL_2_SMP                  (ADC_SMPR2_REGOFFSET | (( 6U) << ADC_CHANNEL_SMPx_BITOFF
 160:Drivers/STM32F1xx_HAL_Driver/Inc/stm32f1xx_ll_adc.h **** #define ADC_CHANNEL_3_SMP                  (ADC_SMPR2_REGOFFSET | (( 9U) << ADC_CHANNEL_SMPx_BITOFF
 161:Drivers/STM32F1xx_HAL_Driver/Inc/stm32f1xx_ll_adc.h **** #define ADC_CHANNEL_4_SMP                  (ADC_SMPR2_REGOFFSET | ((12U) << ADC_CHANNEL_SMPx_BITOFF
 162:Drivers/STM32F1xx_HAL_Driver/Inc/stm32f1xx_ll_adc.h **** #define ADC_CHANNEL_5_SMP                  (ADC_SMPR2_REGOFFSET | ((15U) << ADC_CHANNEL_SMPx_BITOFF
 163:Drivers/STM32F1xx_HAL_Driver/Inc/stm32f1xx_ll_adc.h **** #define ADC_CHANNEL_6_SMP                  (ADC_SMPR2_REGOFFSET | ((18U) << ADC_CHANNEL_SMPx_BITOFF
 164:Drivers/STM32F1xx_HAL_Driver/Inc/stm32f1xx_ll_adc.h **** #define ADC_CHANNEL_7_SMP                  (ADC_SMPR2_REGOFFSET | ((21U) << ADC_CHANNEL_SMPx_BITOFF
 165:Drivers/STM32F1xx_HAL_Driver/Inc/stm32f1xx_ll_adc.h **** #define ADC_CHANNEL_8_SMP                  (ADC_SMPR2_REGOFFSET | ((24U) << ADC_CHANNEL_SMPx_BITOFF
 166:Drivers/STM32F1xx_HAL_Driver/Inc/stm32f1xx_ll_adc.h **** #define ADC_CHANNEL_9_SMP                  (ADC_SMPR2_REGOFFSET | ((27U) << ADC_CHANNEL_SMPx_BITOFF
 167:Drivers/STM32F1xx_HAL_Driver/Inc/stm32f1xx_ll_adc.h **** #define ADC_CHANNEL_10_SMP                 (ADC_SMPR1_REGOFFSET | (( 0U) << ADC_CHANNEL_SMPx_BITOFF
 168:Drivers/STM32F1xx_HAL_Driver/Inc/stm32f1xx_ll_adc.h **** #define ADC_CHANNEL_11_SMP                 (ADC_SMPR1_REGOFFSET | (( 3U) << ADC_CHANNEL_SMPx_BITOFF
 169:Drivers/STM32F1xx_HAL_Driver/Inc/stm32f1xx_ll_adc.h **** #define ADC_CHANNEL_12_SMP                 (ADC_SMPR1_REGOFFSET | (( 6U) << ADC_CHANNEL_SMPx_BITOFF
 170:Drivers/STM32F1xx_HAL_Driver/Inc/stm32f1xx_ll_adc.h **** #define ADC_CHANNEL_13_SMP                 (ADC_SMPR1_REGOFFSET | (( 9U) << ADC_CHANNEL_SMPx_BITOFF
 171:Drivers/STM32F1xx_HAL_Driver/Inc/stm32f1xx_ll_adc.h **** #define ADC_CHANNEL_14_SMP                 (ADC_SMPR1_REGOFFSET | ((12U) << ADC_CHANNEL_SMPx_BITOFF
 172:Drivers/STM32F1xx_HAL_Driver/Inc/stm32f1xx_ll_adc.h **** #define ADC_CHANNEL_15_SMP                 (ADC_SMPR1_REGOFFSET | ((15U) << ADC_CHANNEL_SMPx_BITOFF
 173:Drivers/STM32F1xx_HAL_Driver/Inc/stm32f1xx_ll_adc.h **** #define ADC_CHANNEL_16_SMP                 (ADC_SMPR1_REGOFFSET | ((18U) << ADC_CHANNEL_SMPx_BITOFF
 174:Drivers/STM32F1xx_HAL_Driver/Inc/stm32f1xx_ll_adc.h **** #define ADC_CHANNEL_17_SMP                 (ADC_SMPR1_REGOFFSET | ((21U) << ADC_CHANNEL_SMPx_BITOFF
 175:Drivers/STM32F1xx_HAL_Driver/Inc/stm32f1xx_ll_adc.h **** 
ARM GAS  /var/folders/20/cstyxln53wn53rr40gj353bh0000gn/T//ccSZWiEf.s 			page 44


 176:Drivers/STM32F1xx_HAL_Driver/Inc/stm32f1xx_ll_adc.h **** /* Internal mask for ADC analog watchdog:                                     */
 177:Drivers/STM32F1xx_HAL_Driver/Inc/stm32f1xx_ll_adc.h **** /* To select into literals LL_ADC_AWD_CHANNELx_xxx the relevant bits for:     */
 178:Drivers/STM32F1xx_HAL_Driver/Inc/stm32f1xx_ll_adc.h **** /* (concatenation of multiple bits used in different analog watchdogs,        */
 179:Drivers/STM32F1xx_HAL_Driver/Inc/stm32f1xx_ll_adc.h **** /* (feature of several watchdogs not available on all STM32 families)).       */
 180:Drivers/STM32F1xx_HAL_Driver/Inc/stm32f1xx_ll_adc.h **** /* - analog watchdog 1: monitored channel defined by number,                  */
 181:Drivers/STM32F1xx_HAL_Driver/Inc/stm32f1xx_ll_adc.h **** /*   selection of ADC group (ADC groups regular and-or injected).             */
 182:Drivers/STM32F1xx_HAL_Driver/Inc/stm32f1xx_ll_adc.h **** 
 183:Drivers/STM32F1xx_HAL_Driver/Inc/stm32f1xx_ll_adc.h **** /* Internal register offset for ADC analog watchdog channel configuration */
 184:Drivers/STM32F1xx_HAL_Driver/Inc/stm32f1xx_ll_adc.h **** #define ADC_AWD_CR1_REGOFFSET              0x00000000U
 185:Drivers/STM32F1xx_HAL_Driver/Inc/stm32f1xx_ll_adc.h **** 
 186:Drivers/STM32F1xx_HAL_Driver/Inc/stm32f1xx_ll_adc.h **** #define ADC_AWD_CRX_REGOFFSET_MASK         (ADC_AWD_CR1_REGOFFSET)
 187:Drivers/STM32F1xx_HAL_Driver/Inc/stm32f1xx_ll_adc.h **** 
 188:Drivers/STM32F1xx_HAL_Driver/Inc/stm32f1xx_ll_adc.h **** #define ADC_AWD_CR1_CHANNEL_MASK           (ADC_CR1_AWDCH | ADC_CR1_JAWDEN | ADC_CR1_AWDEN | ADC_CR
 189:Drivers/STM32F1xx_HAL_Driver/Inc/stm32f1xx_ll_adc.h **** #define ADC_AWD_CR_ALL_CHANNEL_MASK        (ADC_AWD_CR1_CHANNEL_MASK)
 190:Drivers/STM32F1xx_HAL_Driver/Inc/stm32f1xx_ll_adc.h **** 
 191:Drivers/STM32F1xx_HAL_Driver/Inc/stm32f1xx_ll_adc.h **** /* Internal register offset for ADC analog watchdog threshold configuration */
 192:Drivers/STM32F1xx_HAL_Driver/Inc/stm32f1xx_ll_adc.h **** #define ADC_AWD_TR1_HIGH_REGOFFSET         0x00000000U
 193:Drivers/STM32F1xx_HAL_Driver/Inc/stm32f1xx_ll_adc.h **** #define ADC_AWD_TR1_LOW_REGOFFSET          0x00000001U
 194:Drivers/STM32F1xx_HAL_Driver/Inc/stm32f1xx_ll_adc.h **** #define ADC_AWD_TRX_REGOFFSET_MASK         (ADC_AWD_TR1_HIGH_REGOFFSET | ADC_AWD_TR1_LOW_REGOFFSET)
 195:Drivers/STM32F1xx_HAL_Driver/Inc/stm32f1xx_ll_adc.h **** 
 196:Drivers/STM32F1xx_HAL_Driver/Inc/stm32f1xx_ll_adc.h **** /* ADC registers bits positions */
 197:Drivers/STM32F1xx_HAL_Driver/Inc/stm32f1xx_ll_adc.h **** #define ADC_CR1_DUALMOD_BITOFFSET_POS      (16U) /* Value equivalent to POSITION_VAL(ADC_CR1_DUALMO
 198:Drivers/STM32F1xx_HAL_Driver/Inc/stm32f1xx_ll_adc.h **** 
 199:Drivers/STM32F1xx_HAL_Driver/Inc/stm32f1xx_ll_adc.h **** /**
 200:Drivers/STM32F1xx_HAL_Driver/Inc/stm32f1xx_ll_adc.h ****   * @}
 201:Drivers/STM32F1xx_HAL_Driver/Inc/stm32f1xx_ll_adc.h ****   */
 202:Drivers/STM32F1xx_HAL_Driver/Inc/stm32f1xx_ll_adc.h **** 
 203:Drivers/STM32F1xx_HAL_Driver/Inc/stm32f1xx_ll_adc.h **** 
 204:Drivers/STM32F1xx_HAL_Driver/Inc/stm32f1xx_ll_adc.h **** /* Private macros ------------------------------------------------------------*/
 205:Drivers/STM32F1xx_HAL_Driver/Inc/stm32f1xx_ll_adc.h **** /** @defgroup ADC_LL_Private_Macros ADC Private Macros
 206:Drivers/STM32F1xx_HAL_Driver/Inc/stm32f1xx_ll_adc.h ****   * @{
 207:Drivers/STM32F1xx_HAL_Driver/Inc/stm32f1xx_ll_adc.h ****   */
 208:Drivers/STM32F1xx_HAL_Driver/Inc/stm32f1xx_ll_adc.h **** 
 209:Drivers/STM32F1xx_HAL_Driver/Inc/stm32f1xx_ll_adc.h **** /**
 210:Drivers/STM32F1xx_HAL_Driver/Inc/stm32f1xx_ll_adc.h ****   * @brief  Driver macro reserved for internal use: isolate bits with the
 211:Drivers/STM32F1xx_HAL_Driver/Inc/stm32f1xx_ll_adc.h ****   *         selected mask and shift them to the register LSB
 212:Drivers/STM32F1xx_HAL_Driver/Inc/stm32f1xx_ll_adc.h ****   *         (shift mask on register position bit 0).
 213:Drivers/STM32F1xx_HAL_Driver/Inc/stm32f1xx_ll_adc.h ****   * @param  __BITS__ Bits in register 32 bits
 214:Drivers/STM32F1xx_HAL_Driver/Inc/stm32f1xx_ll_adc.h ****   * @param  __MASK__ Mask in register 32 bits
 215:Drivers/STM32F1xx_HAL_Driver/Inc/stm32f1xx_ll_adc.h ****   * @retval Bits in register 32 bits
 216:Drivers/STM32F1xx_HAL_Driver/Inc/stm32f1xx_ll_adc.h ****   */
 217:Drivers/STM32F1xx_HAL_Driver/Inc/stm32f1xx_ll_adc.h **** #define __ADC_MASK_SHIFT(__BITS__, __MASK__)                                   \
 218:Drivers/STM32F1xx_HAL_Driver/Inc/stm32f1xx_ll_adc.h ****   (((__BITS__) & (__MASK__)) >> POSITION_VAL((__MASK__)))
 219:Drivers/STM32F1xx_HAL_Driver/Inc/stm32f1xx_ll_adc.h **** 
 220:Drivers/STM32F1xx_HAL_Driver/Inc/stm32f1xx_ll_adc.h **** /**
 221:Drivers/STM32F1xx_HAL_Driver/Inc/stm32f1xx_ll_adc.h ****   * @brief  Driver macro reserved for internal use: set a pointer to
 222:Drivers/STM32F1xx_HAL_Driver/Inc/stm32f1xx_ll_adc.h ****   *         a register from a register basis from which an offset
 223:Drivers/STM32F1xx_HAL_Driver/Inc/stm32f1xx_ll_adc.h ****   *         is applied.
 224:Drivers/STM32F1xx_HAL_Driver/Inc/stm32f1xx_ll_adc.h ****   * @param  __REG__ Register basis from which the offset is applied.
 225:Drivers/STM32F1xx_HAL_Driver/Inc/stm32f1xx_ll_adc.h ****   * @param  __REG_OFFFSET__ Offset to be applied (unit: number of registers).
 226:Drivers/STM32F1xx_HAL_Driver/Inc/stm32f1xx_ll_adc.h ****   * @retval Pointer to register address
 227:Drivers/STM32F1xx_HAL_Driver/Inc/stm32f1xx_ll_adc.h ****   */
 228:Drivers/STM32F1xx_HAL_Driver/Inc/stm32f1xx_ll_adc.h **** #define __ADC_PTR_REG_OFFSET(__REG__, __REG_OFFFSET__)                         \
 229:Drivers/STM32F1xx_HAL_Driver/Inc/stm32f1xx_ll_adc.h ****  ((__IO uint32_t *)((uint32_t) ((uint32_t)(&(__REG__)) + ((__REG_OFFFSET__) << 2U))))
 230:Drivers/STM32F1xx_HAL_Driver/Inc/stm32f1xx_ll_adc.h **** 
 231:Drivers/STM32F1xx_HAL_Driver/Inc/stm32f1xx_ll_adc.h **** /**
 232:Drivers/STM32F1xx_HAL_Driver/Inc/stm32f1xx_ll_adc.h ****   * @}
ARM GAS  /var/folders/20/cstyxln53wn53rr40gj353bh0000gn/T//ccSZWiEf.s 			page 45


 233:Drivers/STM32F1xx_HAL_Driver/Inc/stm32f1xx_ll_adc.h ****   */
 234:Drivers/STM32F1xx_HAL_Driver/Inc/stm32f1xx_ll_adc.h **** 
 235:Drivers/STM32F1xx_HAL_Driver/Inc/stm32f1xx_ll_adc.h **** 
 236:Drivers/STM32F1xx_HAL_Driver/Inc/stm32f1xx_ll_adc.h **** /* Exported types ------------------------------------------------------------*/
 237:Drivers/STM32F1xx_HAL_Driver/Inc/stm32f1xx_ll_adc.h **** #if defined(USE_FULL_LL_DRIVER)
 238:Drivers/STM32F1xx_HAL_Driver/Inc/stm32f1xx_ll_adc.h **** /** @defgroup ADC_LL_ES_INIT ADC Exported Init structure
 239:Drivers/STM32F1xx_HAL_Driver/Inc/stm32f1xx_ll_adc.h ****   * @{
 240:Drivers/STM32F1xx_HAL_Driver/Inc/stm32f1xx_ll_adc.h ****   */
 241:Drivers/STM32F1xx_HAL_Driver/Inc/stm32f1xx_ll_adc.h **** 
 242:Drivers/STM32F1xx_HAL_Driver/Inc/stm32f1xx_ll_adc.h **** /**
 243:Drivers/STM32F1xx_HAL_Driver/Inc/stm32f1xx_ll_adc.h ****   * @brief  Structure definition of some features of ADC common parameters
 244:Drivers/STM32F1xx_HAL_Driver/Inc/stm32f1xx_ll_adc.h ****   *         and multimode
 245:Drivers/STM32F1xx_HAL_Driver/Inc/stm32f1xx_ll_adc.h ****   *         (all ADC instances belonging to the same ADC common instance).
 246:Drivers/STM32F1xx_HAL_Driver/Inc/stm32f1xx_ll_adc.h ****   * @note   The setting of these parameters by function @ref LL_ADC_CommonInit()
 247:Drivers/STM32F1xx_HAL_Driver/Inc/stm32f1xx_ll_adc.h ****   *         is conditioned to ADC instances state (all ADC instances
 248:Drivers/STM32F1xx_HAL_Driver/Inc/stm32f1xx_ll_adc.h ****   *         sharing the same ADC common instance):
 249:Drivers/STM32F1xx_HAL_Driver/Inc/stm32f1xx_ll_adc.h ****   *         All ADC instances sharing the same ADC common instance must be
 250:Drivers/STM32F1xx_HAL_Driver/Inc/stm32f1xx_ll_adc.h ****   *         disabled.
 251:Drivers/STM32F1xx_HAL_Driver/Inc/stm32f1xx_ll_adc.h ****   */
 252:Drivers/STM32F1xx_HAL_Driver/Inc/stm32f1xx_ll_adc.h **** typedef struct
 253:Drivers/STM32F1xx_HAL_Driver/Inc/stm32f1xx_ll_adc.h **** {
 254:Drivers/STM32F1xx_HAL_Driver/Inc/stm32f1xx_ll_adc.h ****   uint32_t Multimode;                   /*!< Set ADC multimode configuration to operate in independ
 255:Drivers/STM32F1xx_HAL_Driver/Inc/stm32f1xx_ll_adc.h ****                                              This parameter can be a value of @ref ADC_LL_EC_MULTI_
 256:Drivers/STM32F1xx_HAL_Driver/Inc/stm32f1xx_ll_adc.h ****                                              
 257:Drivers/STM32F1xx_HAL_Driver/Inc/stm32f1xx_ll_adc.h ****                                              This feature can be modified afterwards using unitary 
 258:Drivers/STM32F1xx_HAL_Driver/Inc/stm32f1xx_ll_adc.h **** } LL_ADC_CommonInitTypeDef;
 259:Drivers/STM32F1xx_HAL_Driver/Inc/stm32f1xx_ll_adc.h **** /**
 260:Drivers/STM32F1xx_HAL_Driver/Inc/stm32f1xx_ll_adc.h ****   * @brief  Structure definition of some features of ADC instance.
 261:Drivers/STM32F1xx_HAL_Driver/Inc/stm32f1xx_ll_adc.h ****   * @note   These parameters have an impact on ADC scope: ADC instance.
 262:Drivers/STM32F1xx_HAL_Driver/Inc/stm32f1xx_ll_adc.h ****   *         Affects both group regular and group injected (availability
 263:Drivers/STM32F1xx_HAL_Driver/Inc/stm32f1xx_ll_adc.h ****   *         of ADC group injected depends on STM32 families).
 264:Drivers/STM32F1xx_HAL_Driver/Inc/stm32f1xx_ll_adc.h ****   *         Refer to corresponding unitary functions into
 265:Drivers/STM32F1xx_HAL_Driver/Inc/stm32f1xx_ll_adc.h ****   *         @ref ADC_LL_EF_Configuration_ADC_Instance .
 266:Drivers/STM32F1xx_HAL_Driver/Inc/stm32f1xx_ll_adc.h ****   * @note   The setting of these parameters by function @ref LL_ADC_Init()
 267:Drivers/STM32F1xx_HAL_Driver/Inc/stm32f1xx_ll_adc.h ****   *         is conditioned to ADC state:
 268:Drivers/STM32F1xx_HAL_Driver/Inc/stm32f1xx_ll_adc.h ****   *         ADC instance must be disabled.
 269:Drivers/STM32F1xx_HAL_Driver/Inc/stm32f1xx_ll_adc.h ****   *         This condition is applied to all ADC features, for efficiency
 270:Drivers/STM32F1xx_HAL_Driver/Inc/stm32f1xx_ll_adc.h ****   *         and compatibility over all STM32 families. However, the different
 271:Drivers/STM32F1xx_HAL_Driver/Inc/stm32f1xx_ll_adc.h ****   *         features can be set under different ADC state conditions
 272:Drivers/STM32F1xx_HAL_Driver/Inc/stm32f1xx_ll_adc.h ****   *         (setting possible with ADC enabled without conversion on going,
 273:Drivers/STM32F1xx_HAL_Driver/Inc/stm32f1xx_ll_adc.h ****   *         ADC enabled with conversion on going, ...)
 274:Drivers/STM32F1xx_HAL_Driver/Inc/stm32f1xx_ll_adc.h ****   *         Each feature can be updated afterwards with a unitary function
 275:Drivers/STM32F1xx_HAL_Driver/Inc/stm32f1xx_ll_adc.h ****   *         and potentially with ADC in a different state than disabled,
 276:Drivers/STM32F1xx_HAL_Driver/Inc/stm32f1xx_ll_adc.h ****   *         refer to description of each function for setting
 277:Drivers/STM32F1xx_HAL_Driver/Inc/stm32f1xx_ll_adc.h ****   *         conditioned to ADC state.
 278:Drivers/STM32F1xx_HAL_Driver/Inc/stm32f1xx_ll_adc.h ****   */
 279:Drivers/STM32F1xx_HAL_Driver/Inc/stm32f1xx_ll_adc.h **** typedef struct
 280:Drivers/STM32F1xx_HAL_Driver/Inc/stm32f1xx_ll_adc.h **** {
 281:Drivers/STM32F1xx_HAL_Driver/Inc/stm32f1xx_ll_adc.h ****   uint32_t DataAlignment;               /*!< Set ADC conversion data alignment.
 282:Drivers/STM32F1xx_HAL_Driver/Inc/stm32f1xx_ll_adc.h ****                                              This parameter can be a value of @ref ADC_LL_EC_DATA_A
 283:Drivers/STM32F1xx_HAL_Driver/Inc/stm32f1xx_ll_adc.h ****                                              
 284:Drivers/STM32F1xx_HAL_Driver/Inc/stm32f1xx_ll_adc.h ****                                              This feature can be modified afterwards using unitary 
 285:Drivers/STM32F1xx_HAL_Driver/Inc/stm32f1xx_ll_adc.h **** 
 286:Drivers/STM32F1xx_HAL_Driver/Inc/stm32f1xx_ll_adc.h ****   uint32_t SequencersScanMode;          /*!< Set ADC scan selection.
 287:Drivers/STM32F1xx_HAL_Driver/Inc/stm32f1xx_ll_adc.h ****                                              This parameter can be a value of @ref ADC_LL_EC_SCAN_S
 288:Drivers/STM32F1xx_HAL_Driver/Inc/stm32f1xx_ll_adc.h ****                                              
 289:Drivers/STM32F1xx_HAL_Driver/Inc/stm32f1xx_ll_adc.h ****                                              This feature can be modified afterwards using unitary 
ARM GAS  /var/folders/20/cstyxln53wn53rr40gj353bh0000gn/T//ccSZWiEf.s 			page 46


 290:Drivers/STM32F1xx_HAL_Driver/Inc/stm32f1xx_ll_adc.h **** 
 291:Drivers/STM32F1xx_HAL_Driver/Inc/stm32f1xx_ll_adc.h **** } LL_ADC_InitTypeDef;
 292:Drivers/STM32F1xx_HAL_Driver/Inc/stm32f1xx_ll_adc.h **** 
 293:Drivers/STM32F1xx_HAL_Driver/Inc/stm32f1xx_ll_adc.h **** /**
 294:Drivers/STM32F1xx_HAL_Driver/Inc/stm32f1xx_ll_adc.h ****   * @brief  Structure definition of some features of ADC group regular.
 295:Drivers/STM32F1xx_HAL_Driver/Inc/stm32f1xx_ll_adc.h ****   * @note   These parameters have an impact on ADC scope: ADC group regular.
 296:Drivers/STM32F1xx_HAL_Driver/Inc/stm32f1xx_ll_adc.h ****   *         Refer to corresponding unitary functions into
 297:Drivers/STM32F1xx_HAL_Driver/Inc/stm32f1xx_ll_adc.h ****   *         @ref ADC_LL_EF_Configuration_ADC_Group_Regular
 298:Drivers/STM32F1xx_HAL_Driver/Inc/stm32f1xx_ll_adc.h ****   *         (functions with prefix "REG").
 299:Drivers/STM32F1xx_HAL_Driver/Inc/stm32f1xx_ll_adc.h ****   * @note   The setting of these parameters by function @ref LL_ADC_REG_Init()
 300:Drivers/STM32F1xx_HAL_Driver/Inc/stm32f1xx_ll_adc.h ****   *         is conditioned to ADC state:
 301:Drivers/STM32F1xx_HAL_Driver/Inc/stm32f1xx_ll_adc.h ****   *         ADC instance must be disabled.
 302:Drivers/STM32F1xx_HAL_Driver/Inc/stm32f1xx_ll_adc.h ****   *         This condition is applied to all ADC features, for efficiency
 303:Drivers/STM32F1xx_HAL_Driver/Inc/stm32f1xx_ll_adc.h ****   *         and compatibility over all STM32 families. However, the different
 304:Drivers/STM32F1xx_HAL_Driver/Inc/stm32f1xx_ll_adc.h ****   *         features can be set under different ADC state conditions
 305:Drivers/STM32F1xx_HAL_Driver/Inc/stm32f1xx_ll_adc.h ****   *         (setting possible with ADC enabled without conversion on going,
 306:Drivers/STM32F1xx_HAL_Driver/Inc/stm32f1xx_ll_adc.h ****   *         ADC enabled with conversion on going, ...)
 307:Drivers/STM32F1xx_HAL_Driver/Inc/stm32f1xx_ll_adc.h ****   *         Each feature can be updated afterwards with a unitary function
 308:Drivers/STM32F1xx_HAL_Driver/Inc/stm32f1xx_ll_adc.h ****   *         and potentially with ADC in a different state than disabled,
 309:Drivers/STM32F1xx_HAL_Driver/Inc/stm32f1xx_ll_adc.h ****   *         refer to description of each function for setting
 310:Drivers/STM32F1xx_HAL_Driver/Inc/stm32f1xx_ll_adc.h ****   *         conditioned to ADC state.
 311:Drivers/STM32F1xx_HAL_Driver/Inc/stm32f1xx_ll_adc.h ****   */
 312:Drivers/STM32F1xx_HAL_Driver/Inc/stm32f1xx_ll_adc.h **** typedef struct
 313:Drivers/STM32F1xx_HAL_Driver/Inc/stm32f1xx_ll_adc.h **** {
 314:Drivers/STM32F1xx_HAL_Driver/Inc/stm32f1xx_ll_adc.h ****   uint32_t TriggerSource;               /*!< Set ADC group regular conversion trigger source: inter
 315:Drivers/STM32F1xx_HAL_Driver/Inc/stm32f1xx_ll_adc.h ****                                              This parameter can be a value of @ref ADC_LL_EC_REG_TR
 316:Drivers/STM32F1xx_HAL_Driver/Inc/stm32f1xx_ll_adc.h ****                                              @note On this STM32 serie, external trigger is set wit
 317:Drivers/STM32F1xx_HAL_Driver/Inc/stm32f1xx_ll_adc.h ****                                                    (only trigger polarity available on this STM32 s
 318:Drivers/STM32F1xx_HAL_Driver/Inc/stm32f1xx_ll_adc.h ****                                              
 319:Drivers/STM32F1xx_HAL_Driver/Inc/stm32f1xx_ll_adc.h ****                                              This feature can be modified afterwards using unitary 
 320:Drivers/STM32F1xx_HAL_Driver/Inc/stm32f1xx_ll_adc.h **** 
 321:Drivers/STM32F1xx_HAL_Driver/Inc/stm32f1xx_ll_adc.h ****   uint32_t SequencerLength;             /*!< Set ADC group regular sequencer length.
 322:Drivers/STM32F1xx_HAL_Driver/Inc/stm32f1xx_ll_adc.h ****                                              This parameter can be a value of @ref ADC_LL_EC_REG_SE
 323:Drivers/STM32F1xx_HAL_Driver/Inc/stm32f1xx_ll_adc.h ****                                              @note This parameter is discarded if scan mode is disa
 324:Drivers/STM32F1xx_HAL_Driver/Inc/stm32f1xx_ll_adc.h ****                                              
 325:Drivers/STM32F1xx_HAL_Driver/Inc/stm32f1xx_ll_adc.h ****                                              This feature can be modified afterwards using unitary 
 326:Drivers/STM32F1xx_HAL_Driver/Inc/stm32f1xx_ll_adc.h **** 
 327:Drivers/STM32F1xx_HAL_Driver/Inc/stm32f1xx_ll_adc.h ****   uint32_t SequencerDiscont;            /*!< Set ADC group regular sequencer discontinuous mode: se
 328:Drivers/STM32F1xx_HAL_Driver/Inc/stm32f1xx_ll_adc.h ****                                              This parameter can be a value of @ref ADC_LL_EC_REG_SE
 329:Drivers/STM32F1xx_HAL_Driver/Inc/stm32f1xx_ll_adc.h ****                                              @note This parameter has an effect only if group regul
 330:Drivers/STM32F1xx_HAL_Driver/Inc/stm32f1xx_ll_adc.h ****                                                    (scan length of 2 ranks or more).
 331:Drivers/STM32F1xx_HAL_Driver/Inc/stm32f1xx_ll_adc.h ****                                              
 332:Drivers/STM32F1xx_HAL_Driver/Inc/stm32f1xx_ll_adc.h ****                                              This feature can be modified afterwards using unitary 
 333:Drivers/STM32F1xx_HAL_Driver/Inc/stm32f1xx_ll_adc.h **** 
 334:Drivers/STM32F1xx_HAL_Driver/Inc/stm32f1xx_ll_adc.h ****   uint32_t ContinuousMode;              /*!< Set ADC continuous conversion mode on ADC group regula
 335:Drivers/STM32F1xx_HAL_Driver/Inc/stm32f1xx_ll_adc.h ****                                              This parameter can be a value of @ref ADC_LL_EC_REG_CO
 336:Drivers/STM32F1xx_HAL_Driver/Inc/stm32f1xx_ll_adc.h ****                                              Note: It is not possible to enable both ADC group regu
 337:Drivers/STM32F1xx_HAL_Driver/Inc/stm32f1xx_ll_adc.h ****                                              
 338:Drivers/STM32F1xx_HAL_Driver/Inc/stm32f1xx_ll_adc.h ****                                              This feature can be modified afterwards using unitary 
 339:Drivers/STM32F1xx_HAL_Driver/Inc/stm32f1xx_ll_adc.h **** 
 340:Drivers/STM32F1xx_HAL_Driver/Inc/stm32f1xx_ll_adc.h ****   uint32_t DMATransfer;                 /*!< Set ADC group regular conversion data transfer: no tra
 341:Drivers/STM32F1xx_HAL_Driver/Inc/stm32f1xx_ll_adc.h ****                                              This parameter can be a value of @ref ADC_LL_EC_REG_DM
 342:Drivers/STM32F1xx_HAL_Driver/Inc/stm32f1xx_ll_adc.h ****                                              
 343:Drivers/STM32F1xx_HAL_Driver/Inc/stm32f1xx_ll_adc.h ****                                              This feature can be modified afterwards using unitary 
 344:Drivers/STM32F1xx_HAL_Driver/Inc/stm32f1xx_ll_adc.h **** 
 345:Drivers/STM32F1xx_HAL_Driver/Inc/stm32f1xx_ll_adc.h **** } LL_ADC_REG_InitTypeDef;
 346:Drivers/STM32F1xx_HAL_Driver/Inc/stm32f1xx_ll_adc.h **** 
ARM GAS  /var/folders/20/cstyxln53wn53rr40gj353bh0000gn/T//ccSZWiEf.s 			page 47


 347:Drivers/STM32F1xx_HAL_Driver/Inc/stm32f1xx_ll_adc.h **** /**
 348:Drivers/STM32F1xx_HAL_Driver/Inc/stm32f1xx_ll_adc.h ****   * @brief  Structure definition of some features of ADC group injected.
 349:Drivers/STM32F1xx_HAL_Driver/Inc/stm32f1xx_ll_adc.h ****   * @note   These parameters have an impact on ADC scope: ADC group injected.
 350:Drivers/STM32F1xx_HAL_Driver/Inc/stm32f1xx_ll_adc.h ****   *         Refer to corresponding unitary functions into
 351:Drivers/STM32F1xx_HAL_Driver/Inc/stm32f1xx_ll_adc.h ****   *         @ref ADC_LL_EF_Configuration_ADC_Group_Regular
 352:Drivers/STM32F1xx_HAL_Driver/Inc/stm32f1xx_ll_adc.h ****   *         (functions with prefix "INJ").
 353:Drivers/STM32F1xx_HAL_Driver/Inc/stm32f1xx_ll_adc.h ****   * @note   The setting of these parameters by function @ref LL_ADC_INJ_Init()
 354:Drivers/STM32F1xx_HAL_Driver/Inc/stm32f1xx_ll_adc.h ****   *         is conditioned to ADC state:
 355:Drivers/STM32F1xx_HAL_Driver/Inc/stm32f1xx_ll_adc.h ****   *         ADC instance must be disabled.
 356:Drivers/STM32F1xx_HAL_Driver/Inc/stm32f1xx_ll_adc.h ****   *         This condition is applied to all ADC features, for efficiency
 357:Drivers/STM32F1xx_HAL_Driver/Inc/stm32f1xx_ll_adc.h ****   *         and compatibility over all STM32 families. However, the different
 358:Drivers/STM32F1xx_HAL_Driver/Inc/stm32f1xx_ll_adc.h ****   *         features can be set under different ADC state conditions
 359:Drivers/STM32F1xx_HAL_Driver/Inc/stm32f1xx_ll_adc.h ****   *         (setting possible with ADC enabled without conversion on going,
 360:Drivers/STM32F1xx_HAL_Driver/Inc/stm32f1xx_ll_adc.h ****   *         ADC enabled with conversion on going, ...)
 361:Drivers/STM32F1xx_HAL_Driver/Inc/stm32f1xx_ll_adc.h ****   *         Each feature can be updated afterwards with a unitary function
 362:Drivers/STM32F1xx_HAL_Driver/Inc/stm32f1xx_ll_adc.h ****   *         and potentially with ADC in a different state than disabled,
 363:Drivers/STM32F1xx_HAL_Driver/Inc/stm32f1xx_ll_adc.h ****   *         refer to description of each function for setting
 364:Drivers/STM32F1xx_HAL_Driver/Inc/stm32f1xx_ll_adc.h ****   *         conditioned to ADC state.
 365:Drivers/STM32F1xx_HAL_Driver/Inc/stm32f1xx_ll_adc.h ****   */
 366:Drivers/STM32F1xx_HAL_Driver/Inc/stm32f1xx_ll_adc.h **** typedef struct
 367:Drivers/STM32F1xx_HAL_Driver/Inc/stm32f1xx_ll_adc.h **** {
 368:Drivers/STM32F1xx_HAL_Driver/Inc/stm32f1xx_ll_adc.h ****   uint32_t TriggerSource;               /*!< Set ADC group injected conversion trigger source: inte
 369:Drivers/STM32F1xx_HAL_Driver/Inc/stm32f1xx_ll_adc.h ****                                              This parameter can be a value of @ref ADC_LL_EC_INJ_TR
 370:Drivers/STM32F1xx_HAL_Driver/Inc/stm32f1xx_ll_adc.h ****                                              @note On this STM32 serie, external trigger is set wit
 371:Drivers/STM32F1xx_HAL_Driver/Inc/stm32f1xx_ll_adc.h ****                                                    (only trigger polarity available on this STM32 s
 372:Drivers/STM32F1xx_HAL_Driver/Inc/stm32f1xx_ll_adc.h ****                                              
 373:Drivers/STM32F1xx_HAL_Driver/Inc/stm32f1xx_ll_adc.h ****                                              This feature can be modified afterwards using unitary 
 374:Drivers/STM32F1xx_HAL_Driver/Inc/stm32f1xx_ll_adc.h **** 
 375:Drivers/STM32F1xx_HAL_Driver/Inc/stm32f1xx_ll_adc.h ****   uint32_t SequencerLength;             /*!< Set ADC group injected sequencer length.
 376:Drivers/STM32F1xx_HAL_Driver/Inc/stm32f1xx_ll_adc.h ****                                              This parameter can be a value of @ref ADC_LL_EC_INJ_SE
 377:Drivers/STM32F1xx_HAL_Driver/Inc/stm32f1xx_ll_adc.h ****                                              @note This parameter is discarded if scan mode is disa
 378:Drivers/STM32F1xx_HAL_Driver/Inc/stm32f1xx_ll_adc.h ****                                              
 379:Drivers/STM32F1xx_HAL_Driver/Inc/stm32f1xx_ll_adc.h ****                                              This feature can be modified afterwards using unitary 
 380:Drivers/STM32F1xx_HAL_Driver/Inc/stm32f1xx_ll_adc.h **** 
 381:Drivers/STM32F1xx_HAL_Driver/Inc/stm32f1xx_ll_adc.h ****   uint32_t SequencerDiscont;            /*!< Set ADC group injected sequencer discontinuous mode: s
 382:Drivers/STM32F1xx_HAL_Driver/Inc/stm32f1xx_ll_adc.h ****                                              This parameter can be a value of @ref ADC_LL_EC_INJ_SE
 383:Drivers/STM32F1xx_HAL_Driver/Inc/stm32f1xx_ll_adc.h ****                                              @note This parameter has an effect only if group injec
 384:Drivers/STM32F1xx_HAL_Driver/Inc/stm32f1xx_ll_adc.h ****                                                    (scan length of 2 ranks or more).
 385:Drivers/STM32F1xx_HAL_Driver/Inc/stm32f1xx_ll_adc.h ****                                              
 386:Drivers/STM32F1xx_HAL_Driver/Inc/stm32f1xx_ll_adc.h ****                                              This feature can be modified afterwards using unitary 
 387:Drivers/STM32F1xx_HAL_Driver/Inc/stm32f1xx_ll_adc.h **** 
 388:Drivers/STM32F1xx_HAL_Driver/Inc/stm32f1xx_ll_adc.h ****   uint32_t TrigAuto;                    /*!< Set ADC group injected conversion trigger: independent
 389:Drivers/STM32F1xx_HAL_Driver/Inc/stm32f1xx_ll_adc.h ****                                              This parameter can be a value of @ref ADC_LL_EC_INJ_TR
 390:Drivers/STM32F1xx_HAL_Driver/Inc/stm32f1xx_ll_adc.h ****                                              Note: This parameter must be set to set to independent
 391:Drivers/STM32F1xx_HAL_Driver/Inc/stm32f1xx_ll_adc.h ****                                              
 392:Drivers/STM32F1xx_HAL_Driver/Inc/stm32f1xx_ll_adc.h ****                                              This feature can be modified afterwards using unitary 
 393:Drivers/STM32F1xx_HAL_Driver/Inc/stm32f1xx_ll_adc.h **** 
 394:Drivers/STM32F1xx_HAL_Driver/Inc/stm32f1xx_ll_adc.h **** } LL_ADC_INJ_InitTypeDef;
 395:Drivers/STM32F1xx_HAL_Driver/Inc/stm32f1xx_ll_adc.h **** 
 396:Drivers/STM32F1xx_HAL_Driver/Inc/stm32f1xx_ll_adc.h **** /**
 397:Drivers/STM32F1xx_HAL_Driver/Inc/stm32f1xx_ll_adc.h ****   * @}
 398:Drivers/STM32F1xx_HAL_Driver/Inc/stm32f1xx_ll_adc.h ****   */
 399:Drivers/STM32F1xx_HAL_Driver/Inc/stm32f1xx_ll_adc.h **** #endif /* USE_FULL_LL_DRIVER */
 400:Drivers/STM32F1xx_HAL_Driver/Inc/stm32f1xx_ll_adc.h **** 
 401:Drivers/STM32F1xx_HAL_Driver/Inc/stm32f1xx_ll_adc.h **** /* Exported constants --------------------------------------------------------*/
 402:Drivers/STM32F1xx_HAL_Driver/Inc/stm32f1xx_ll_adc.h **** /** @defgroup ADC_LL_Exported_Constants ADC Exported Constants
 403:Drivers/STM32F1xx_HAL_Driver/Inc/stm32f1xx_ll_adc.h ****   * @{
ARM GAS  /var/folders/20/cstyxln53wn53rr40gj353bh0000gn/T//ccSZWiEf.s 			page 48


 404:Drivers/STM32F1xx_HAL_Driver/Inc/stm32f1xx_ll_adc.h ****   */
 405:Drivers/STM32F1xx_HAL_Driver/Inc/stm32f1xx_ll_adc.h **** 
 406:Drivers/STM32F1xx_HAL_Driver/Inc/stm32f1xx_ll_adc.h **** /** @defgroup ADC_LL_EC_FLAG ADC flags
 407:Drivers/STM32F1xx_HAL_Driver/Inc/stm32f1xx_ll_adc.h ****   * @brief    Flags defines which can be used with LL_ADC_ReadReg function
 408:Drivers/STM32F1xx_HAL_Driver/Inc/stm32f1xx_ll_adc.h ****   * @{
 409:Drivers/STM32F1xx_HAL_Driver/Inc/stm32f1xx_ll_adc.h ****   */
 410:Drivers/STM32F1xx_HAL_Driver/Inc/stm32f1xx_ll_adc.h **** #define LL_ADC_FLAG_STRT                   ADC_SR_STRT        /*!< ADC flag ADC group regular conve
 411:Drivers/STM32F1xx_HAL_Driver/Inc/stm32f1xx_ll_adc.h **** #define LL_ADC_FLAG_EOS                    ADC_SR_EOC         /*!< ADC flag ADC group regular end o
 412:Drivers/STM32F1xx_HAL_Driver/Inc/stm32f1xx_ll_adc.h **** #define LL_ADC_FLAG_JSTRT                  ADC_SR_JSTRT       /*!< ADC flag ADC group injected conv
 413:Drivers/STM32F1xx_HAL_Driver/Inc/stm32f1xx_ll_adc.h **** #define LL_ADC_FLAG_JEOS                   ADC_SR_JEOC        /*!< ADC flag ADC group injected end 
 414:Drivers/STM32F1xx_HAL_Driver/Inc/stm32f1xx_ll_adc.h **** #define LL_ADC_FLAG_AWD1                   ADC_SR_AWD         /*!< ADC flag ADC analog watchdog 1 *
 415:Drivers/STM32F1xx_HAL_Driver/Inc/stm32f1xx_ll_adc.h **** #if defined(ADC_MULTIMODE_SUPPORT)
 416:Drivers/STM32F1xx_HAL_Driver/Inc/stm32f1xx_ll_adc.h **** #define LL_ADC_FLAG_EOS_MST                ADC_SR_EOC         /*!< ADC flag ADC multimode master gr
 417:Drivers/STM32F1xx_HAL_Driver/Inc/stm32f1xx_ll_adc.h **** #define LL_ADC_FLAG_EOS_SLV                ADC_SR_EOC         /*!< ADC flag ADC multimode slave gro
 418:Drivers/STM32F1xx_HAL_Driver/Inc/stm32f1xx_ll_adc.h **** #define LL_ADC_FLAG_JEOS_MST               ADC_SR_JEOC        /*!< ADC flag ADC multimode master gr
 419:Drivers/STM32F1xx_HAL_Driver/Inc/stm32f1xx_ll_adc.h **** #define LL_ADC_FLAG_JEOS_SLV               ADC_SR_JEOC        /*!< ADC flag ADC multimode slave gro
 420:Drivers/STM32F1xx_HAL_Driver/Inc/stm32f1xx_ll_adc.h **** #define LL_ADC_FLAG_AWD1_MST               ADC_SR_AWD         /*!< ADC flag ADC multimode master an
 421:Drivers/STM32F1xx_HAL_Driver/Inc/stm32f1xx_ll_adc.h **** #define LL_ADC_FLAG_AWD1_SLV               ADC_SR_AWD         /*!< ADC flag ADC multimode slave ana
 422:Drivers/STM32F1xx_HAL_Driver/Inc/stm32f1xx_ll_adc.h **** #endif
 423:Drivers/STM32F1xx_HAL_Driver/Inc/stm32f1xx_ll_adc.h **** /**
 424:Drivers/STM32F1xx_HAL_Driver/Inc/stm32f1xx_ll_adc.h ****   * @}
 425:Drivers/STM32F1xx_HAL_Driver/Inc/stm32f1xx_ll_adc.h ****   */
 426:Drivers/STM32F1xx_HAL_Driver/Inc/stm32f1xx_ll_adc.h **** 
 427:Drivers/STM32F1xx_HAL_Driver/Inc/stm32f1xx_ll_adc.h **** /** @defgroup ADC_LL_EC_IT ADC interruptions for configuration (interruption enable or disable)
 428:Drivers/STM32F1xx_HAL_Driver/Inc/stm32f1xx_ll_adc.h ****   * @brief    IT defines which can be used with LL_ADC_ReadReg and  LL_ADC_WriteReg functions
 429:Drivers/STM32F1xx_HAL_Driver/Inc/stm32f1xx_ll_adc.h ****   * @{
 430:Drivers/STM32F1xx_HAL_Driver/Inc/stm32f1xx_ll_adc.h ****   */
 431:Drivers/STM32F1xx_HAL_Driver/Inc/stm32f1xx_ll_adc.h **** #define LL_ADC_IT_EOS                      ADC_CR1_EOCIE      /*!< ADC interruption ADC group regul
 432:Drivers/STM32F1xx_HAL_Driver/Inc/stm32f1xx_ll_adc.h **** #define LL_ADC_IT_JEOS                     ADC_CR1_JEOCIE     /*!< ADC interruption ADC group injec
 433:Drivers/STM32F1xx_HAL_Driver/Inc/stm32f1xx_ll_adc.h **** #define LL_ADC_IT_AWD1                     ADC_CR1_AWDIE      /*!< ADC interruption ADC analog watc
 434:Drivers/STM32F1xx_HAL_Driver/Inc/stm32f1xx_ll_adc.h **** /**
 435:Drivers/STM32F1xx_HAL_Driver/Inc/stm32f1xx_ll_adc.h ****   * @}
 436:Drivers/STM32F1xx_HAL_Driver/Inc/stm32f1xx_ll_adc.h ****   */
 437:Drivers/STM32F1xx_HAL_Driver/Inc/stm32f1xx_ll_adc.h **** 
 438:Drivers/STM32F1xx_HAL_Driver/Inc/stm32f1xx_ll_adc.h **** /** @defgroup ADC_LL_EC_REGISTERS  ADC registers compliant with specific purpose
 439:Drivers/STM32F1xx_HAL_Driver/Inc/stm32f1xx_ll_adc.h ****   * @{
 440:Drivers/STM32F1xx_HAL_Driver/Inc/stm32f1xx_ll_adc.h ****   */
 441:Drivers/STM32F1xx_HAL_Driver/Inc/stm32f1xx_ll_adc.h **** /* List of ADC registers intended to be used (most commonly) with             */
 442:Drivers/STM32F1xx_HAL_Driver/Inc/stm32f1xx_ll_adc.h **** /* DMA transfer.                                                              */
 443:Drivers/STM32F1xx_HAL_Driver/Inc/stm32f1xx_ll_adc.h **** /* Refer to function @ref LL_ADC_DMA_GetRegAddr().                            */
 444:Drivers/STM32F1xx_HAL_Driver/Inc/stm32f1xx_ll_adc.h **** #define LL_ADC_DMA_REG_REGULAR_DATA          0x00000000U   /* ADC group regular conversion data reg
 445:Drivers/STM32F1xx_HAL_Driver/Inc/stm32f1xx_ll_adc.h **** #if defined(ADC_MULTIMODE_SUPPORT)
 446:Drivers/STM32F1xx_HAL_Driver/Inc/stm32f1xx_ll_adc.h **** #define LL_ADC_DMA_REG_REGULAR_DATA_MULTI    0x00000001U   /* ADC group regular conversion data reg
 447:Drivers/STM32F1xx_HAL_Driver/Inc/stm32f1xx_ll_adc.h **** #endif
 448:Drivers/STM32F1xx_HAL_Driver/Inc/stm32f1xx_ll_adc.h **** /**
 449:Drivers/STM32F1xx_HAL_Driver/Inc/stm32f1xx_ll_adc.h ****   * @}
 450:Drivers/STM32F1xx_HAL_Driver/Inc/stm32f1xx_ll_adc.h ****   */
 451:Drivers/STM32F1xx_HAL_Driver/Inc/stm32f1xx_ll_adc.h **** 
 452:Drivers/STM32F1xx_HAL_Driver/Inc/stm32f1xx_ll_adc.h **** /** @defgroup ADC_LL_EC_COMMON_PATH_INTERNAL  ADC common - Measurement path to internal channels
 453:Drivers/STM32F1xx_HAL_Driver/Inc/stm32f1xx_ll_adc.h ****   * @{
 454:Drivers/STM32F1xx_HAL_Driver/Inc/stm32f1xx_ll_adc.h ****   */
 455:Drivers/STM32F1xx_HAL_Driver/Inc/stm32f1xx_ll_adc.h **** /* Note: Other measurement paths to internal channels may be available        */
 456:Drivers/STM32F1xx_HAL_Driver/Inc/stm32f1xx_ll_adc.h **** /*       (connections to other peripherals).                                  */
 457:Drivers/STM32F1xx_HAL_Driver/Inc/stm32f1xx_ll_adc.h **** /*       If they are not listed below, they do not require any specific       */
 458:Drivers/STM32F1xx_HAL_Driver/Inc/stm32f1xx_ll_adc.h **** /*       path enable. In this case, Access to measurement path is done        */
 459:Drivers/STM32F1xx_HAL_Driver/Inc/stm32f1xx_ll_adc.h **** /*       only by selecting the corresponding ADC internal channel.            */
 460:Drivers/STM32F1xx_HAL_Driver/Inc/stm32f1xx_ll_adc.h **** #define LL_ADC_PATH_INTERNAL_NONE          0x00000000U            /*!< ADC measurement pathes all d
ARM GAS  /var/folders/20/cstyxln53wn53rr40gj353bh0000gn/T//ccSZWiEf.s 			page 49


 461:Drivers/STM32F1xx_HAL_Driver/Inc/stm32f1xx_ll_adc.h **** #define LL_ADC_PATH_INTERNAL_VREFINT       (ADC_CR2_TSVREFE)      /*!< ADC measurement path to inte
 462:Drivers/STM32F1xx_HAL_Driver/Inc/stm32f1xx_ll_adc.h **** #define LL_ADC_PATH_INTERNAL_TEMPSENSOR    (ADC_CR2_TSVREFE)      /*!< ADC measurement path to inte
 463:Drivers/STM32F1xx_HAL_Driver/Inc/stm32f1xx_ll_adc.h **** /**
 464:Drivers/STM32F1xx_HAL_Driver/Inc/stm32f1xx_ll_adc.h ****   * @}
 465:Drivers/STM32F1xx_HAL_Driver/Inc/stm32f1xx_ll_adc.h ****   */
 466:Drivers/STM32F1xx_HAL_Driver/Inc/stm32f1xx_ll_adc.h **** 
 467:Drivers/STM32F1xx_HAL_Driver/Inc/stm32f1xx_ll_adc.h **** /** @defgroup ADC_LL_EC_RESOLUTION  ADC instance - Resolution
 468:Drivers/STM32F1xx_HAL_Driver/Inc/stm32f1xx_ll_adc.h ****   * @{
 469:Drivers/STM32F1xx_HAL_Driver/Inc/stm32f1xx_ll_adc.h ****   */
 470:Drivers/STM32F1xx_HAL_Driver/Inc/stm32f1xx_ll_adc.h **** #define LL_ADC_RESOLUTION_12B              0x00000000U                         /*!< ADC resolution 
 471:Drivers/STM32F1xx_HAL_Driver/Inc/stm32f1xx_ll_adc.h **** /**
 472:Drivers/STM32F1xx_HAL_Driver/Inc/stm32f1xx_ll_adc.h ****   * @}
 473:Drivers/STM32F1xx_HAL_Driver/Inc/stm32f1xx_ll_adc.h ****   */
 474:Drivers/STM32F1xx_HAL_Driver/Inc/stm32f1xx_ll_adc.h **** 
 475:Drivers/STM32F1xx_HAL_Driver/Inc/stm32f1xx_ll_adc.h **** /** @defgroup ADC_LL_EC_DATA_ALIGN  ADC instance - Data alignment
 476:Drivers/STM32F1xx_HAL_Driver/Inc/stm32f1xx_ll_adc.h ****   * @{
 477:Drivers/STM32F1xx_HAL_Driver/Inc/stm32f1xx_ll_adc.h ****   */
 478:Drivers/STM32F1xx_HAL_Driver/Inc/stm32f1xx_ll_adc.h **** #define LL_ADC_DATA_ALIGN_RIGHT            0x00000000U            /*!< ADC conversion data alignmen
 479:Drivers/STM32F1xx_HAL_Driver/Inc/stm32f1xx_ll_adc.h **** #define LL_ADC_DATA_ALIGN_LEFT             (ADC_CR2_ALIGN)        /*!< ADC conversion data alignmen
 480:Drivers/STM32F1xx_HAL_Driver/Inc/stm32f1xx_ll_adc.h **** /**
 481:Drivers/STM32F1xx_HAL_Driver/Inc/stm32f1xx_ll_adc.h ****   * @}
 482:Drivers/STM32F1xx_HAL_Driver/Inc/stm32f1xx_ll_adc.h ****   */
 483:Drivers/STM32F1xx_HAL_Driver/Inc/stm32f1xx_ll_adc.h **** 
 484:Drivers/STM32F1xx_HAL_Driver/Inc/stm32f1xx_ll_adc.h **** /** @defgroup ADC_LL_EC_SCAN_SELECTION ADC instance - Scan selection
 485:Drivers/STM32F1xx_HAL_Driver/Inc/stm32f1xx_ll_adc.h ****   * @{
 486:Drivers/STM32F1xx_HAL_Driver/Inc/stm32f1xx_ll_adc.h ****   */
 487:Drivers/STM32F1xx_HAL_Driver/Inc/stm32f1xx_ll_adc.h **** #define LL_ADC_SEQ_SCAN_DISABLE            0x00000000U    /*!< ADC conversion is performed in unita
 488:Drivers/STM32F1xx_HAL_Driver/Inc/stm32f1xx_ll_adc.h **** #define LL_ADC_SEQ_SCAN_ENABLE             (ADC_CR1_SCAN) /*!< ADC conversions are performed in seq
 489:Drivers/STM32F1xx_HAL_Driver/Inc/stm32f1xx_ll_adc.h **** /**
 490:Drivers/STM32F1xx_HAL_Driver/Inc/stm32f1xx_ll_adc.h ****   * @}
 491:Drivers/STM32F1xx_HAL_Driver/Inc/stm32f1xx_ll_adc.h ****   */
 492:Drivers/STM32F1xx_HAL_Driver/Inc/stm32f1xx_ll_adc.h **** 
 493:Drivers/STM32F1xx_HAL_Driver/Inc/stm32f1xx_ll_adc.h **** /** @defgroup ADC_LL_EC_GROUPS  ADC instance - Groups
 494:Drivers/STM32F1xx_HAL_Driver/Inc/stm32f1xx_ll_adc.h ****   * @{
 495:Drivers/STM32F1xx_HAL_Driver/Inc/stm32f1xx_ll_adc.h ****   */
 496:Drivers/STM32F1xx_HAL_Driver/Inc/stm32f1xx_ll_adc.h **** #define LL_ADC_GROUP_REGULAR               0x00000001U   /*!< ADC group regular (available on all S
 497:Drivers/STM32F1xx_HAL_Driver/Inc/stm32f1xx_ll_adc.h **** #define LL_ADC_GROUP_INJECTED              0x00000002U   /*!< ADC group injected (not available on 
 498:Drivers/STM32F1xx_HAL_Driver/Inc/stm32f1xx_ll_adc.h **** #define LL_ADC_GROUP_REGULAR_INJECTED      0x00000003U   /*!< ADC both groups regular and injected 
 499:Drivers/STM32F1xx_HAL_Driver/Inc/stm32f1xx_ll_adc.h **** /**
 500:Drivers/STM32F1xx_HAL_Driver/Inc/stm32f1xx_ll_adc.h ****   * @}
 501:Drivers/STM32F1xx_HAL_Driver/Inc/stm32f1xx_ll_adc.h ****   */
 502:Drivers/STM32F1xx_HAL_Driver/Inc/stm32f1xx_ll_adc.h **** 
 503:Drivers/STM32F1xx_HAL_Driver/Inc/stm32f1xx_ll_adc.h **** /** @defgroup ADC_LL_EC_CHANNEL  ADC instance - Channel number
 504:Drivers/STM32F1xx_HAL_Driver/Inc/stm32f1xx_ll_adc.h ****   * @{
 505:Drivers/STM32F1xx_HAL_Driver/Inc/stm32f1xx_ll_adc.h ****   */
 506:Drivers/STM32F1xx_HAL_Driver/Inc/stm32f1xx_ll_adc.h **** #define LL_ADC_CHANNEL_0                   (ADC_CHANNEL_0_NUMBER  | ADC_CHANNEL_0_SMP)  /*!< ADC ex
 507:Drivers/STM32F1xx_HAL_Driver/Inc/stm32f1xx_ll_adc.h **** #define LL_ADC_CHANNEL_1                   (ADC_CHANNEL_1_NUMBER  | ADC_CHANNEL_1_SMP)  /*!< ADC ex
 508:Drivers/STM32F1xx_HAL_Driver/Inc/stm32f1xx_ll_adc.h **** #define LL_ADC_CHANNEL_2                   (ADC_CHANNEL_2_NUMBER  | ADC_CHANNEL_2_SMP)  /*!< ADC ex
 509:Drivers/STM32F1xx_HAL_Driver/Inc/stm32f1xx_ll_adc.h **** #define LL_ADC_CHANNEL_3                   (ADC_CHANNEL_3_NUMBER  | ADC_CHANNEL_3_SMP)  /*!< ADC ex
 510:Drivers/STM32F1xx_HAL_Driver/Inc/stm32f1xx_ll_adc.h **** #define LL_ADC_CHANNEL_4                   (ADC_CHANNEL_4_NUMBER  | ADC_CHANNEL_4_SMP)  /*!< ADC ex
 511:Drivers/STM32F1xx_HAL_Driver/Inc/stm32f1xx_ll_adc.h **** #define LL_ADC_CHANNEL_5                   (ADC_CHANNEL_5_NUMBER  | ADC_CHANNEL_5_SMP)  /*!< ADC ex
 512:Drivers/STM32F1xx_HAL_Driver/Inc/stm32f1xx_ll_adc.h **** #define LL_ADC_CHANNEL_6                   (ADC_CHANNEL_6_NUMBER  | ADC_CHANNEL_6_SMP)  /*!< ADC ex
 513:Drivers/STM32F1xx_HAL_Driver/Inc/stm32f1xx_ll_adc.h **** #define LL_ADC_CHANNEL_7                   (ADC_CHANNEL_7_NUMBER  | ADC_CHANNEL_7_SMP)  /*!< ADC ex
 514:Drivers/STM32F1xx_HAL_Driver/Inc/stm32f1xx_ll_adc.h **** #define LL_ADC_CHANNEL_8                   (ADC_CHANNEL_8_NUMBER  | ADC_CHANNEL_8_SMP)  /*!< ADC ex
 515:Drivers/STM32F1xx_HAL_Driver/Inc/stm32f1xx_ll_adc.h **** #define LL_ADC_CHANNEL_9                   (ADC_CHANNEL_9_NUMBER  | ADC_CHANNEL_9_SMP)  /*!< ADC ex
 516:Drivers/STM32F1xx_HAL_Driver/Inc/stm32f1xx_ll_adc.h **** #define LL_ADC_CHANNEL_10                  (ADC_CHANNEL_10_NUMBER | ADC_CHANNEL_10_SMP) /*!< ADC ex
 517:Drivers/STM32F1xx_HAL_Driver/Inc/stm32f1xx_ll_adc.h **** #define LL_ADC_CHANNEL_11                  (ADC_CHANNEL_11_NUMBER | ADC_CHANNEL_11_SMP) /*!< ADC ex
ARM GAS  /var/folders/20/cstyxln53wn53rr40gj353bh0000gn/T//ccSZWiEf.s 			page 50


 518:Drivers/STM32F1xx_HAL_Driver/Inc/stm32f1xx_ll_adc.h **** #define LL_ADC_CHANNEL_12                  (ADC_CHANNEL_12_NUMBER | ADC_CHANNEL_12_SMP) /*!< ADC ex
 519:Drivers/STM32F1xx_HAL_Driver/Inc/stm32f1xx_ll_adc.h **** #define LL_ADC_CHANNEL_13                  (ADC_CHANNEL_13_NUMBER | ADC_CHANNEL_13_SMP) /*!< ADC ex
 520:Drivers/STM32F1xx_HAL_Driver/Inc/stm32f1xx_ll_adc.h **** #define LL_ADC_CHANNEL_14                  (ADC_CHANNEL_14_NUMBER | ADC_CHANNEL_14_SMP) /*!< ADC ex
 521:Drivers/STM32F1xx_HAL_Driver/Inc/stm32f1xx_ll_adc.h **** #define LL_ADC_CHANNEL_15                  (ADC_CHANNEL_15_NUMBER | ADC_CHANNEL_15_SMP) /*!< ADC ex
 522:Drivers/STM32F1xx_HAL_Driver/Inc/stm32f1xx_ll_adc.h **** #define LL_ADC_CHANNEL_16                  (ADC_CHANNEL_16_NUMBER | ADC_CHANNEL_16_SMP) /*!< ADC ex
 523:Drivers/STM32F1xx_HAL_Driver/Inc/stm32f1xx_ll_adc.h **** #define LL_ADC_CHANNEL_17                  (ADC_CHANNEL_17_NUMBER | ADC_CHANNEL_17_SMP) /*!< ADC ex
 524:Drivers/STM32F1xx_HAL_Driver/Inc/stm32f1xx_ll_adc.h **** #define LL_ADC_CHANNEL_VREFINT             (LL_ADC_CHANNEL_17 | ADC_CHANNEL_ID_INTERNAL_CH) /*!< AD
 525:Drivers/STM32F1xx_HAL_Driver/Inc/stm32f1xx_ll_adc.h **** #define LL_ADC_CHANNEL_TEMPSENSOR          (LL_ADC_CHANNEL_16 | ADC_CHANNEL_ID_INTERNAL_CH) /*!< AD
 526:Drivers/STM32F1xx_HAL_Driver/Inc/stm32f1xx_ll_adc.h **** /**
 527:Drivers/STM32F1xx_HAL_Driver/Inc/stm32f1xx_ll_adc.h ****   * @}
 528:Drivers/STM32F1xx_HAL_Driver/Inc/stm32f1xx_ll_adc.h ****   */
 529:Drivers/STM32F1xx_HAL_Driver/Inc/stm32f1xx_ll_adc.h **** 
 530:Drivers/STM32F1xx_HAL_Driver/Inc/stm32f1xx_ll_adc.h **** /** @defgroup ADC_LL_EC_REG_TRIGGER_SOURCE  ADC group regular - Trigger source
 531:Drivers/STM32F1xx_HAL_Driver/Inc/stm32f1xx_ll_adc.h ****   * @{
 532:Drivers/STM32F1xx_HAL_Driver/Inc/stm32f1xx_ll_adc.h ****   */
 533:Drivers/STM32F1xx_HAL_Driver/Inc/stm32f1xx_ll_adc.h **** /* ADC group regular external triggers for ADC instances: ADC1, ADC2, ADC3 (for ADC instances ADCx 
 534:Drivers/STM32F1xx_HAL_Driver/Inc/stm32f1xx_ll_adc.h **** #define LL_ADC_REG_TRIG_SOFTWARE           (ADC_CR2_EXTSEL_2 | ADC_CR2_EXTSEL_1 | ADC_CR2_EXTSEL_0)
 535:Drivers/STM32F1xx_HAL_Driver/Inc/stm32f1xx_ll_adc.h **** #define LL_ADC_REG_TRIG_EXT_TIM1_CH3       (ADC_CR2_EXTSEL_1)                                      
 536:Drivers/STM32F1xx_HAL_Driver/Inc/stm32f1xx_ll_adc.h **** /* ADC group regular external triggers for ADC instances: ADC1, ADC2 (for ADC instances ADCx availa
 537:Drivers/STM32F1xx_HAL_Driver/Inc/stm32f1xx_ll_adc.h **** #define LL_ADC_REG_TRIG_EXT_TIM1_CH1       0x00000000U                                             
 538:Drivers/STM32F1xx_HAL_Driver/Inc/stm32f1xx_ll_adc.h **** #define LL_ADC_REG_TRIG_EXT_TIM1_CH2       (ADC_CR2_EXTSEL_0)                                      
 539:Drivers/STM32F1xx_HAL_Driver/Inc/stm32f1xx_ll_adc.h **** #define LL_ADC_REG_TRIG_EXT_TIM2_CH2       (ADC_CR2_EXTSEL_1 | ADC_CR2_EXTSEL_0)                   
 540:Drivers/STM32F1xx_HAL_Driver/Inc/stm32f1xx_ll_adc.h **** #define LL_ADC_REG_TRIG_EXT_TIM3_TRGO      (ADC_CR2_EXTSEL_2)                                      
 541:Drivers/STM32F1xx_HAL_Driver/Inc/stm32f1xx_ll_adc.h **** #define LL_ADC_REG_TRIG_EXT_TIM4_CH4       (ADC_CR2_EXTSEL_2 | ADC_CR2_EXTSEL_0)                   
 542:Drivers/STM32F1xx_HAL_Driver/Inc/stm32f1xx_ll_adc.h **** #define LL_ADC_REG_TRIG_EXT_EXTI_LINE11    (ADC_CR2_EXTSEL_2 | ADC_CR2_EXTSEL_1)                   
 543:Drivers/STM32F1xx_HAL_Driver/Inc/stm32f1xx_ll_adc.h **** #if defined (STM32F101xE) || defined (STM32F103xE) || defined (STM32F103xG) || defined (STM32F105xC
 544:Drivers/STM32F1xx_HAL_Driver/Inc/stm32f1xx_ll_adc.h **** /* Note: TIM8_TRGO is available on ADC1 and ADC2 only in high-density and     */
 545:Drivers/STM32F1xx_HAL_Driver/Inc/stm32f1xx_ll_adc.h **** /*       XL-density devices.                                                  */
 546:Drivers/STM32F1xx_HAL_Driver/Inc/stm32f1xx_ll_adc.h **** /* Note: To use TIM8_TRGO on ADC1 or ADC2, a remap of trigger must be done    */
 547:Drivers/STM32F1xx_HAL_Driver/Inc/stm32f1xx_ll_adc.h **** /*       A remap of trigger must be done at top level (refer to               */
 548:Drivers/STM32F1xx_HAL_Driver/Inc/stm32f1xx_ll_adc.h **** /*       AFIO peripheral).                                                    */
 549:Drivers/STM32F1xx_HAL_Driver/Inc/stm32f1xx_ll_adc.h **** #define LL_ADC_REG_TRIG_EXT_TIM8_TRGO      (LL_ADC_REG_TRIG_EXT_EXTI_LINE11)                       
 550:Drivers/STM32F1xx_HAL_Driver/Inc/stm32f1xx_ll_adc.h **** #endif /* STM32F101xE || STM32F103xE || STM32F103xG || STM32F105xC || STM32F107xC */
 551:Drivers/STM32F1xx_HAL_Driver/Inc/stm32f1xx_ll_adc.h **** #if defined (STM32F103xE) || defined (STM32F103xG)
 552:Drivers/STM32F1xx_HAL_Driver/Inc/stm32f1xx_ll_adc.h **** /* ADC group regular external triggers for ADC instances: ADC3 (for ADC instances ADCx available on
 553:Drivers/STM32F1xx_HAL_Driver/Inc/stm32f1xx_ll_adc.h **** #define LL_ADC_REG_TRIG_EXT_TIM3_CH1       (LL_ADC_REG_TRIG_EXT_TIM1_CH1)                          
 554:Drivers/STM32F1xx_HAL_Driver/Inc/stm32f1xx_ll_adc.h **** #define LL_ADC_REG_TRIG_EXT_TIM2_CH3       (LL_ADC_REG_TRIG_EXT_TIM1_CH2)                          
 555:Drivers/STM32F1xx_HAL_Driver/Inc/stm32f1xx_ll_adc.h **** #define LL_ADC_REG_TRIG_EXT_TIM8_CH1       (LL_ADC_REG_TRIG_EXT_TIM2_CH2)                          
 556:Drivers/STM32F1xx_HAL_Driver/Inc/stm32f1xx_ll_adc.h **** #define LL_ADC_REG_TRIG_EXT_TIM8_TRGO_ADC3 (LL_ADC_REG_TRIG_EXT_TIM3_TRGO)                         
 557:Drivers/STM32F1xx_HAL_Driver/Inc/stm32f1xx_ll_adc.h **** #define LL_ADC_REG_TRIG_EXT_TIM5_CH1       (LL_ADC_REG_TRIG_EXT_TIM4_CH4)                          
 558:Drivers/STM32F1xx_HAL_Driver/Inc/stm32f1xx_ll_adc.h **** #define LL_ADC_REG_TRIG_EXT_TIM5_CH3       (LL_ADC_REG_TRIG_EXT_EXTI_LINE11)                       
 559:Drivers/STM32F1xx_HAL_Driver/Inc/stm32f1xx_ll_adc.h **** #endif
 560:Drivers/STM32F1xx_HAL_Driver/Inc/stm32f1xx_ll_adc.h **** /**
 561:Drivers/STM32F1xx_HAL_Driver/Inc/stm32f1xx_ll_adc.h ****   * @}
 562:Drivers/STM32F1xx_HAL_Driver/Inc/stm32f1xx_ll_adc.h ****   */
 563:Drivers/STM32F1xx_HAL_Driver/Inc/stm32f1xx_ll_adc.h **** 
 564:Drivers/STM32F1xx_HAL_Driver/Inc/stm32f1xx_ll_adc.h **** /** @defgroup ADC_LL_EC_REG_TRIGGER_EDGE  ADC group regular - Trigger edge
 565:Drivers/STM32F1xx_HAL_Driver/Inc/stm32f1xx_ll_adc.h ****   * @{
 566:Drivers/STM32F1xx_HAL_Driver/Inc/stm32f1xx_ll_adc.h ****   */
 567:Drivers/STM32F1xx_HAL_Driver/Inc/stm32f1xx_ll_adc.h **** #define LL_ADC_REG_TRIG_EXT_RISING         ADC_CR2_EXTTRIG                         /*!< ADC group r
 568:Drivers/STM32F1xx_HAL_Driver/Inc/stm32f1xx_ll_adc.h **** /**
 569:Drivers/STM32F1xx_HAL_Driver/Inc/stm32f1xx_ll_adc.h ****   * @}
 570:Drivers/STM32F1xx_HAL_Driver/Inc/stm32f1xx_ll_adc.h ****   */
 571:Drivers/STM32F1xx_HAL_Driver/Inc/stm32f1xx_ll_adc.h **** 
 572:Drivers/STM32F1xx_HAL_Driver/Inc/stm32f1xx_ll_adc.h **** /** @defgroup ADC_LL_EC_REG_CONTINUOUS_MODE  ADC group regular - Continuous mode
 573:Drivers/STM32F1xx_HAL_Driver/Inc/stm32f1xx_ll_adc.h **** * @{
 574:Drivers/STM32F1xx_HAL_Driver/Inc/stm32f1xx_ll_adc.h **** */
ARM GAS  /var/folders/20/cstyxln53wn53rr40gj353bh0000gn/T//ccSZWiEf.s 			page 51


 575:Drivers/STM32F1xx_HAL_Driver/Inc/stm32f1xx_ll_adc.h **** #define LL_ADC_REG_CONV_SINGLE             0x00000000U             /*!< ADC conversions are perform
 576:Drivers/STM32F1xx_HAL_Driver/Inc/stm32f1xx_ll_adc.h **** #define LL_ADC_REG_CONV_CONTINUOUS         (ADC_CR2_CONT)          /*!< ADC conversions are perform
 577:Drivers/STM32F1xx_HAL_Driver/Inc/stm32f1xx_ll_adc.h **** /**
 578:Drivers/STM32F1xx_HAL_Driver/Inc/stm32f1xx_ll_adc.h ****   * @}
 579:Drivers/STM32F1xx_HAL_Driver/Inc/stm32f1xx_ll_adc.h ****   */
 580:Drivers/STM32F1xx_HAL_Driver/Inc/stm32f1xx_ll_adc.h **** 
 581:Drivers/STM32F1xx_HAL_Driver/Inc/stm32f1xx_ll_adc.h **** /** @defgroup ADC_LL_EC_REG_DMA_TRANSFER  ADC group regular - DMA transfer of ADC conversion data
 582:Drivers/STM32F1xx_HAL_Driver/Inc/stm32f1xx_ll_adc.h ****   * @{
 583:Drivers/STM32F1xx_HAL_Driver/Inc/stm32f1xx_ll_adc.h ****   */
 584:Drivers/STM32F1xx_HAL_Driver/Inc/stm32f1xx_ll_adc.h **** #define LL_ADC_REG_DMA_TRANSFER_NONE       0x00000000U              /*!< ADC conversions are not tr
 585:Drivers/STM32F1xx_HAL_Driver/Inc/stm32f1xx_ll_adc.h **** #define LL_ADC_REG_DMA_TRANSFER_UNLIMITED  (ADC_CR2_DMA)                        /*!< ADC conversion
 586:Drivers/STM32F1xx_HAL_Driver/Inc/stm32f1xx_ll_adc.h **** /**
 587:Drivers/STM32F1xx_HAL_Driver/Inc/stm32f1xx_ll_adc.h ****   * @}
 588:Drivers/STM32F1xx_HAL_Driver/Inc/stm32f1xx_ll_adc.h ****   */
 589:Drivers/STM32F1xx_HAL_Driver/Inc/stm32f1xx_ll_adc.h **** 
 590:Drivers/STM32F1xx_HAL_Driver/Inc/stm32f1xx_ll_adc.h **** /** @defgroup ADC_LL_EC_REG_SEQ_SCAN_LENGTH  ADC group regular - Sequencer scan length
 591:Drivers/STM32F1xx_HAL_Driver/Inc/stm32f1xx_ll_adc.h ****   * @{
 592:Drivers/STM32F1xx_HAL_Driver/Inc/stm32f1xx_ll_adc.h ****   */
 593:Drivers/STM32F1xx_HAL_Driver/Inc/stm32f1xx_ll_adc.h **** #define LL_ADC_REG_SEQ_SCAN_DISABLE        0x00000000U                                             
 594:Drivers/STM32F1xx_HAL_Driver/Inc/stm32f1xx_ll_adc.h **** #define LL_ADC_REG_SEQ_SCAN_ENABLE_2RANKS  (                                             ADC_SQR1_L
 595:Drivers/STM32F1xx_HAL_Driver/Inc/stm32f1xx_ll_adc.h **** #define LL_ADC_REG_SEQ_SCAN_ENABLE_3RANKS  (                              ADC_SQR1_L_1             
 596:Drivers/STM32F1xx_HAL_Driver/Inc/stm32f1xx_ll_adc.h **** #define LL_ADC_REG_SEQ_SCAN_ENABLE_4RANKS  (                              ADC_SQR1_L_1 | ADC_SQR1_L
 597:Drivers/STM32F1xx_HAL_Driver/Inc/stm32f1xx_ll_adc.h **** #define LL_ADC_REG_SEQ_SCAN_ENABLE_5RANKS  (               ADC_SQR1_L_2                            
 598:Drivers/STM32F1xx_HAL_Driver/Inc/stm32f1xx_ll_adc.h **** #define LL_ADC_REG_SEQ_SCAN_ENABLE_6RANKS  (               ADC_SQR1_L_2                | ADC_SQR1_L
 599:Drivers/STM32F1xx_HAL_Driver/Inc/stm32f1xx_ll_adc.h **** #define LL_ADC_REG_SEQ_SCAN_ENABLE_7RANKS  (               ADC_SQR1_L_2 | ADC_SQR1_L_1             
 600:Drivers/STM32F1xx_HAL_Driver/Inc/stm32f1xx_ll_adc.h **** #define LL_ADC_REG_SEQ_SCAN_ENABLE_8RANKS  (               ADC_SQR1_L_2 | ADC_SQR1_L_1 | ADC_SQR1_L
 601:Drivers/STM32F1xx_HAL_Driver/Inc/stm32f1xx_ll_adc.h **** #define LL_ADC_REG_SEQ_SCAN_ENABLE_9RANKS  (ADC_SQR1_L_3                                           
 602:Drivers/STM32F1xx_HAL_Driver/Inc/stm32f1xx_ll_adc.h **** #define LL_ADC_REG_SEQ_SCAN_ENABLE_10RANKS (ADC_SQR1_L_3                               | ADC_SQR1_L
 603:Drivers/STM32F1xx_HAL_Driver/Inc/stm32f1xx_ll_adc.h **** #define LL_ADC_REG_SEQ_SCAN_ENABLE_11RANKS (ADC_SQR1_L_3                | ADC_SQR1_L_1             
 604:Drivers/STM32F1xx_HAL_Driver/Inc/stm32f1xx_ll_adc.h **** #define LL_ADC_REG_SEQ_SCAN_ENABLE_12RANKS (ADC_SQR1_L_3                | ADC_SQR1_L_1 | ADC_SQR1_L
 605:Drivers/STM32F1xx_HAL_Driver/Inc/stm32f1xx_ll_adc.h **** #define LL_ADC_REG_SEQ_SCAN_ENABLE_13RANKS (ADC_SQR1_L_3 | ADC_SQR1_L_2                            
 606:Drivers/STM32F1xx_HAL_Driver/Inc/stm32f1xx_ll_adc.h **** #define LL_ADC_REG_SEQ_SCAN_ENABLE_14RANKS (ADC_SQR1_L_3 | ADC_SQR1_L_2                | ADC_SQR1_L
 607:Drivers/STM32F1xx_HAL_Driver/Inc/stm32f1xx_ll_adc.h **** #define LL_ADC_REG_SEQ_SCAN_ENABLE_15RANKS (ADC_SQR1_L_3 | ADC_SQR1_L_2 | ADC_SQR1_L_1             
 608:Drivers/STM32F1xx_HAL_Driver/Inc/stm32f1xx_ll_adc.h **** #define LL_ADC_REG_SEQ_SCAN_ENABLE_16RANKS (ADC_SQR1_L_3 | ADC_SQR1_L_2 | ADC_SQR1_L_1 | ADC_SQR1_L
 609:Drivers/STM32F1xx_HAL_Driver/Inc/stm32f1xx_ll_adc.h **** /**
 610:Drivers/STM32F1xx_HAL_Driver/Inc/stm32f1xx_ll_adc.h ****   * @}
 611:Drivers/STM32F1xx_HAL_Driver/Inc/stm32f1xx_ll_adc.h ****   */
 612:Drivers/STM32F1xx_HAL_Driver/Inc/stm32f1xx_ll_adc.h **** 
 613:Drivers/STM32F1xx_HAL_Driver/Inc/stm32f1xx_ll_adc.h **** /** @defgroup ADC_LL_EC_REG_SEQ_DISCONT_MODE  ADC group regular - Sequencer discontinuous mode
 614:Drivers/STM32F1xx_HAL_Driver/Inc/stm32f1xx_ll_adc.h ****   * @{
 615:Drivers/STM32F1xx_HAL_Driver/Inc/stm32f1xx_ll_adc.h ****   */
 616:Drivers/STM32F1xx_HAL_Driver/Inc/stm32f1xx_ll_adc.h **** #define LL_ADC_REG_SEQ_DISCONT_DISABLE     0x00000000U                                             
 617:Drivers/STM32F1xx_HAL_Driver/Inc/stm32f1xx_ll_adc.h **** #define LL_ADC_REG_SEQ_DISCONT_1RANK       (                                                       
 618:Drivers/STM32F1xx_HAL_Driver/Inc/stm32f1xx_ll_adc.h **** #define LL_ADC_REG_SEQ_DISCONT_2RANKS      (                                        ADC_CR1_DISCNUM
 619:Drivers/STM32F1xx_HAL_Driver/Inc/stm32f1xx_ll_adc.h **** #define LL_ADC_REG_SEQ_DISCONT_3RANKS      (                    ADC_CR1_DISCNUM_1                  
 620:Drivers/STM32F1xx_HAL_Driver/Inc/stm32f1xx_ll_adc.h **** #define LL_ADC_REG_SEQ_DISCONT_4RANKS      (                    ADC_CR1_DISCNUM_1 | ADC_CR1_DISCNUM
 621:Drivers/STM32F1xx_HAL_Driver/Inc/stm32f1xx_ll_adc.h **** #define LL_ADC_REG_SEQ_DISCONT_5RANKS      (ADC_CR1_DISCNUM_2                                      
 622:Drivers/STM32F1xx_HAL_Driver/Inc/stm32f1xx_ll_adc.h **** #define LL_ADC_REG_SEQ_DISCONT_6RANKS      (ADC_CR1_DISCNUM_2                     | ADC_CR1_DISCNUM
 623:Drivers/STM32F1xx_HAL_Driver/Inc/stm32f1xx_ll_adc.h **** #define LL_ADC_REG_SEQ_DISCONT_7RANKS      (ADC_CR1_DISCNUM_2 | ADC_CR1_DISCNUM_1                  
 624:Drivers/STM32F1xx_HAL_Driver/Inc/stm32f1xx_ll_adc.h **** #define LL_ADC_REG_SEQ_DISCONT_8RANKS      (ADC_CR1_DISCNUM_2 | ADC_CR1_DISCNUM_1 | ADC_CR1_DISCNUM
 625:Drivers/STM32F1xx_HAL_Driver/Inc/stm32f1xx_ll_adc.h **** /**
 626:Drivers/STM32F1xx_HAL_Driver/Inc/stm32f1xx_ll_adc.h ****   * @}
 627:Drivers/STM32F1xx_HAL_Driver/Inc/stm32f1xx_ll_adc.h ****   */
 628:Drivers/STM32F1xx_HAL_Driver/Inc/stm32f1xx_ll_adc.h **** 
 629:Drivers/STM32F1xx_HAL_Driver/Inc/stm32f1xx_ll_adc.h **** /** @defgroup ADC_LL_EC_REG_SEQ_RANKS  ADC group regular - Sequencer ranks
 630:Drivers/STM32F1xx_HAL_Driver/Inc/stm32f1xx_ll_adc.h ****   * @{
 631:Drivers/STM32F1xx_HAL_Driver/Inc/stm32f1xx_ll_adc.h ****   */
ARM GAS  /var/folders/20/cstyxln53wn53rr40gj353bh0000gn/T//ccSZWiEf.s 			page 52


 632:Drivers/STM32F1xx_HAL_Driver/Inc/stm32f1xx_ll_adc.h **** #define LL_ADC_REG_RANK_1                  (ADC_SQR3_REGOFFSET | ADC_REG_RANK_1_SQRX_BITOFFSET_POS)
 633:Drivers/STM32F1xx_HAL_Driver/Inc/stm32f1xx_ll_adc.h **** #define LL_ADC_REG_RANK_2                  (ADC_SQR3_REGOFFSET | ADC_REG_RANK_2_SQRX_BITOFFSET_POS)
 634:Drivers/STM32F1xx_HAL_Driver/Inc/stm32f1xx_ll_adc.h **** #define LL_ADC_REG_RANK_3                  (ADC_SQR3_REGOFFSET | ADC_REG_RANK_3_SQRX_BITOFFSET_POS)
 635:Drivers/STM32F1xx_HAL_Driver/Inc/stm32f1xx_ll_adc.h **** #define LL_ADC_REG_RANK_4                  (ADC_SQR3_REGOFFSET | ADC_REG_RANK_4_SQRX_BITOFFSET_POS)
 636:Drivers/STM32F1xx_HAL_Driver/Inc/stm32f1xx_ll_adc.h **** #define LL_ADC_REG_RANK_5                  (ADC_SQR3_REGOFFSET | ADC_REG_RANK_5_SQRX_BITOFFSET_POS)
 637:Drivers/STM32F1xx_HAL_Driver/Inc/stm32f1xx_ll_adc.h **** #define LL_ADC_REG_RANK_6                  (ADC_SQR3_REGOFFSET | ADC_REG_RANK_6_SQRX_BITOFFSET_POS)
 638:Drivers/STM32F1xx_HAL_Driver/Inc/stm32f1xx_ll_adc.h **** #define LL_ADC_REG_RANK_7                  (ADC_SQR2_REGOFFSET | ADC_REG_RANK_7_SQRX_BITOFFSET_POS)
 639:Drivers/STM32F1xx_HAL_Driver/Inc/stm32f1xx_ll_adc.h **** #define LL_ADC_REG_RANK_8                  (ADC_SQR2_REGOFFSET | ADC_REG_RANK_8_SQRX_BITOFFSET_POS)
 640:Drivers/STM32F1xx_HAL_Driver/Inc/stm32f1xx_ll_adc.h **** #define LL_ADC_REG_RANK_9                  (ADC_SQR2_REGOFFSET | ADC_REG_RANK_9_SQRX_BITOFFSET_POS)
 641:Drivers/STM32F1xx_HAL_Driver/Inc/stm32f1xx_ll_adc.h **** #define LL_ADC_REG_RANK_10                 (ADC_SQR2_REGOFFSET | ADC_REG_RANK_10_SQRX_BITOFFSET_POS
 642:Drivers/STM32F1xx_HAL_Driver/Inc/stm32f1xx_ll_adc.h **** #define LL_ADC_REG_RANK_11                 (ADC_SQR2_REGOFFSET | ADC_REG_RANK_11_SQRX_BITOFFSET_POS
 643:Drivers/STM32F1xx_HAL_Driver/Inc/stm32f1xx_ll_adc.h **** #define LL_ADC_REG_RANK_12                 (ADC_SQR2_REGOFFSET | ADC_REG_RANK_12_SQRX_BITOFFSET_POS
 644:Drivers/STM32F1xx_HAL_Driver/Inc/stm32f1xx_ll_adc.h **** #define LL_ADC_REG_RANK_13                 (ADC_SQR1_REGOFFSET | ADC_REG_RANK_13_SQRX_BITOFFSET_POS
 645:Drivers/STM32F1xx_HAL_Driver/Inc/stm32f1xx_ll_adc.h **** #define LL_ADC_REG_RANK_14                 (ADC_SQR1_REGOFFSET | ADC_REG_RANK_14_SQRX_BITOFFSET_POS
 646:Drivers/STM32F1xx_HAL_Driver/Inc/stm32f1xx_ll_adc.h **** #define LL_ADC_REG_RANK_15                 (ADC_SQR1_REGOFFSET | ADC_REG_RANK_15_SQRX_BITOFFSET_POS
 647:Drivers/STM32F1xx_HAL_Driver/Inc/stm32f1xx_ll_adc.h **** #define LL_ADC_REG_RANK_16                 (ADC_SQR1_REGOFFSET | ADC_REG_RANK_16_SQRX_BITOFFSET_POS
 648:Drivers/STM32F1xx_HAL_Driver/Inc/stm32f1xx_ll_adc.h **** /**
 649:Drivers/STM32F1xx_HAL_Driver/Inc/stm32f1xx_ll_adc.h ****   * @}
 650:Drivers/STM32F1xx_HAL_Driver/Inc/stm32f1xx_ll_adc.h ****   */
 651:Drivers/STM32F1xx_HAL_Driver/Inc/stm32f1xx_ll_adc.h **** 
 652:Drivers/STM32F1xx_HAL_Driver/Inc/stm32f1xx_ll_adc.h **** /** @defgroup ADC_LL_EC_INJ_TRIGGER_SOURCE  ADC group injected - Trigger source
 653:Drivers/STM32F1xx_HAL_Driver/Inc/stm32f1xx_ll_adc.h ****   * @{
 654:Drivers/STM32F1xx_HAL_Driver/Inc/stm32f1xx_ll_adc.h ****   */
 655:Drivers/STM32F1xx_HAL_Driver/Inc/stm32f1xx_ll_adc.h **** /* ADC group injected external triggers for ADC instances: ADC1, ADC2, ADC3 (for ADC instances ADCx
 656:Drivers/STM32F1xx_HAL_Driver/Inc/stm32f1xx_ll_adc.h **** #define LL_ADC_INJ_TRIG_SOFTWARE           (ADC_CR2_JEXTSEL_2 | ADC_CR2_JEXTSEL_1 | ADC_CR2_JEXTSEL
 657:Drivers/STM32F1xx_HAL_Driver/Inc/stm32f1xx_ll_adc.h **** #define LL_ADC_INJ_TRIG_EXT_TIM1_TRGO      0x00000000U                                             
 658:Drivers/STM32F1xx_HAL_Driver/Inc/stm32f1xx_ll_adc.h **** #define LL_ADC_INJ_TRIG_EXT_TIM1_CH4       (ADC_CR2_JEXTSEL_0)                                     
 659:Drivers/STM32F1xx_HAL_Driver/Inc/stm32f1xx_ll_adc.h **** /* ADC group injected external triggers for ADC instances: ADC1, ADC2 (for ADC instances ADCx avail
 660:Drivers/STM32F1xx_HAL_Driver/Inc/stm32f1xx_ll_adc.h **** #define LL_ADC_INJ_TRIG_EXT_TIM2_TRGO      (ADC_CR2_JEXTSEL_1)                                     
 661:Drivers/STM32F1xx_HAL_Driver/Inc/stm32f1xx_ll_adc.h **** #define LL_ADC_INJ_TRIG_EXT_TIM2_CH1       (ADC_CR2_JEXTSEL_1 | ADC_CR2_JEXTSEL_0)                 
 662:Drivers/STM32F1xx_HAL_Driver/Inc/stm32f1xx_ll_adc.h **** #define LL_ADC_INJ_TRIG_EXT_TIM3_CH4       (ADC_CR2_JEXTSEL_2)                                     
 663:Drivers/STM32F1xx_HAL_Driver/Inc/stm32f1xx_ll_adc.h **** #define LL_ADC_INJ_TRIG_EXT_TIM4_TRGO      (ADC_CR2_JEXTSEL_2 | ADC_CR2_JEXTSEL_0)                 
 664:Drivers/STM32F1xx_HAL_Driver/Inc/stm32f1xx_ll_adc.h **** #define LL_ADC_INJ_TRIG_EXT_EXTI_LINE15    (ADC_CR2_JEXTSEL_2 | ADC_CR2_JEXTSEL_1)                 
 665:Drivers/STM32F1xx_HAL_Driver/Inc/stm32f1xx_ll_adc.h **** #if defined (STM32F101xE) || defined (STM32F103xE) || defined (STM32F103xG) || defined (STM32F105xC
 666:Drivers/STM32F1xx_HAL_Driver/Inc/stm32f1xx_ll_adc.h **** /* Note: TIM8_CH4 is available on ADC1 and ADC2 only in high-density and      */
 667:Drivers/STM32F1xx_HAL_Driver/Inc/stm32f1xx_ll_adc.h **** /*       XL-density devices.                                                  */
 668:Drivers/STM32F1xx_HAL_Driver/Inc/stm32f1xx_ll_adc.h **** /* Note: To use TIM8_TRGO on ADC1 or ADC2, a remap of trigger must be done    */
 669:Drivers/STM32F1xx_HAL_Driver/Inc/stm32f1xx_ll_adc.h **** /*       A remap of trigger must be done at top level (refer to               */
 670:Drivers/STM32F1xx_HAL_Driver/Inc/stm32f1xx_ll_adc.h **** /*       AFIO peripheral).                                                    */
 671:Drivers/STM32F1xx_HAL_Driver/Inc/stm32f1xx_ll_adc.h **** #define LL_ADC_INJ_TRIG_EXT_TIM8_CH4        (LL_ADC_INJ_TRIG_EXT_EXTI_LINE15)                      
 672:Drivers/STM32F1xx_HAL_Driver/Inc/stm32f1xx_ll_adc.h **** #endif /* STM32F101xE || STM32F103xE || STM32F103xG || STM32F105xC || STM32F107xC */
 673:Drivers/STM32F1xx_HAL_Driver/Inc/stm32f1xx_ll_adc.h **** #if defined (STM32F103xE) || defined (STM32F103xG)
 674:Drivers/STM32F1xx_HAL_Driver/Inc/stm32f1xx_ll_adc.h **** /* ADC group injected external triggers for ADC instances: ADC3 (for ADC instances ADCx available o
 675:Drivers/STM32F1xx_HAL_Driver/Inc/stm32f1xx_ll_adc.h **** #define LL_ADC_INJ_TRIG_EXT_TIM4_CH3        (LL_ADC_INJ_TRIG_EXT_TIM2_TRGO)                        
 676:Drivers/STM32F1xx_HAL_Driver/Inc/stm32f1xx_ll_adc.h **** #define LL_ADC_INJ_TRIG_EXT_TIM8_CH2        (LL_ADC_INJ_TRIG_EXT_TIM2_CH1)                         
 677:Drivers/STM32F1xx_HAL_Driver/Inc/stm32f1xx_ll_adc.h **** #define LL_ADC_INJ_TRIG_EXT_TIM8_CH4_ADC3   (LL_ADC_INJ_TRIG_EXT_TIM3_CH4)                         
 678:Drivers/STM32F1xx_HAL_Driver/Inc/stm32f1xx_ll_adc.h **** #define LL_ADC_INJ_TRIG_EXT_TIM5_TRGO       (LL_ADC_INJ_TRIG_EXT_TIM4_TRGO)                        
 679:Drivers/STM32F1xx_HAL_Driver/Inc/stm32f1xx_ll_adc.h **** #define LL_ADC_INJ_TRIG_EXT_TIM5_CH4        (LL_ADC_INJ_TRIG_EXT_EXTI_LINE15)                      
 680:Drivers/STM32F1xx_HAL_Driver/Inc/stm32f1xx_ll_adc.h **** #endif
 681:Drivers/STM32F1xx_HAL_Driver/Inc/stm32f1xx_ll_adc.h **** /**
 682:Drivers/STM32F1xx_HAL_Driver/Inc/stm32f1xx_ll_adc.h ****   * @}
 683:Drivers/STM32F1xx_HAL_Driver/Inc/stm32f1xx_ll_adc.h ****   */
 684:Drivers/STM32F1xx_HAL_Driver/Inc/stm32f1xx_ll_adc.h **** 
 685:Drivers/STM32F1xx_HAL_Driver/Inc/stm32f1xx_ll_adc.h **** /** @defgroup ADC_LL_EC_INJ_TRIGGER_EDGE  ADC group injected - Trigger edge
 686:Drivers/STM32F1xx_HAL_Driver/Inc/stm32f1xx_ll_adc.h ****   * @{
 687:Drivers/STM32F1xx_HAL_Driver/Inc/stm32f1xx_ll_adc.h ****   */
 688:Drivers/STM32F1xx_HAL_Driver/Inc/stm32f1xx_ll_adc.h **** #define LL_ADC_INJ_TRIG_EXT_RISING         ADC_CR2_JEXTTRIG                        /*!< ADC group i
ARM GAS  /var/folders/20/cstyxln53wn53rr40gj353bh0000gn/T//ccSZWiEf.s 			page 53


 689:Drivers/STM32F1xx_HAL_Driver/Inc/stm32f1xx_ll_adc.h **** /**
 690:Drivers/STM32F1xx_HAL_Driver/Inc/stm32f1xx_ll_adc.h ****   * @}
 691:Drivers/STM32F1xx_HAL_Driver/Inc/stm32f1xx_ll_adc.h ****   */
 692:Drivers/STM32F1xx_HAL_Driver/Inc/stm32f1xx_ll_adc.h **** 
 693:Drivers/STM32F1xx_HAL_Driver/Inc/stm32f1xx_ll_adc.h **** /** @defgroup ADC_LL_EC_INJ_TRIG_AUTO  ADC group injected - Automatic trigger mode
 694:Drivers/STM32F1xx_HAL_Driver/Inc/stm32f1xx_ll_adc.h **** * @{
 695:Drivers/STM32F1xx_HAL_Driver/Inc/stm32f1xx_ll_adc.h **** */
 696:Drivers/STM32F1xx_HAL_Driver/Inc/stm32f1xx_ll_adc.h **** #define LL_ADC_INJ_TRIG_INDEPENDENT        0x00000000U            /*!< ADC group injected conversio
 697:Drivers/STM32F1xx_HAL_Driver/Inc/stm32f1xx_ll_adc.h **** #define LL_ADC_INJ_TRIG_FROM_GRP_REGULAR   (ADC_CR1_JAUTO)        /*!< ADC group injected conversio
 698:Drivers/STM32F1xx_HAL_Driver/Inc/stm32f1xx_ll_adc.h **** /**
 699:Drivers/STM32F1xx_HAL_Driver/Inc/stm32f1xx_ll_adc.h ****   * @}
 700:Drivers/STM32F1xx_HAL_Driver/Inc/stm32f1xx_ll_adc.h ****   */
 701:Drivers/STM32F1xx_HAL_Driver/Inc/stm32f1xx_ll_adc.h **** 
 702:Drivers/STM32F1xx_HAL_Driver/Inc/stm32f1xx_ll_adc.h **** 
 703:Drivers/STM32F1xx_HAL_Driver/Inc/stm32f1xx_ll_adc.h **** /** @defgroup ADC_LL_EC_INJ_SEQ_SCAN_LENGTH  ADC group injected - Sequencer scan length
 704:Drivers/STM32F1xx_HAL_Driver/Inc/stm32f1xx_ll_adc.h ****   * @{
 705:Drivers/STM32F1xx_HAL_Driver/Inc/stm32f1xx_ll_adc.h ****   */
 706:Drivers/STM32F1xx_HAL_Driver/Inc/stm32f1xx_ll_adc.h **** #define LL_ADC_INJ_SEQ_SCAN_DISABLE        0x00000000U                     /*!< ADC group injected 
 707:Drivers/STM32F1xx_HAL_Driver/Inc/stm32f1xx_ll_adc.h **** #define LL_ADC_INJ_SEQ_SCAN_ENABLE_2RANKS  (                ADC_JSQR_JL_0) /*!< ADC group injected 
 708:Drivers/STM32F1xx_HAL_Driver/Inc/stm32f1xx_ll_adc.h **** #define LL_ADC_INJ_SEQ_SCAN_ENABLE_3RANKS  (ADC_JSQR_JL_1                ) /*!< ADC group injected 
 709:Drivers/STM32F1xx_HAL_Driver/Inc/stm32f1xx_ll_adc.h **** #define LL_ADC_INJ_SEQ_SCAN_ENABLE_4RANKS  (ADC_JSQR_JL_1 | ADC_JSQR_JL_0) /*!< ADC group injected 
 710:Drivers/STM32F1xx_HAL_Driver/Inc/stm32f1xx_ll_adc.h **** /**
 711:Drivers/STM32F1xx_HAL_Driver/Inc/stm32f1xx_ll_adc.h ****   * @}
 712:Drivers/STM32F1xx_HAL_Driver/Inc/stm32f1xx_ll_adc.h ****   */
 713:Drivers/STM32F1xx_HAL_Driver/Inc/stm32f1xx_ll_adc.h **** 
 714:Drivers/STM32F1xx_HAL_Driver/Inc/stm32f1xx_ll_adc.h **** /** @defgroup ADC_LL_EC_INJ_SEQ_DISCONT_MODE  ADC group injected - Sequencer discontinuous mode
 715:Drivers/STM32F1xx_HAL_Driver/Inc/stm32f1xx_ll_adc.h ****   * @{
 716:Drivers/STM32F1xx_HAL_Driver/Inc/stm32f1xx_ll_adc.h ****   */
 717:Drivers/STM32F1xx_HAL_Driver/Inc/stm32f1xx_ll_adc.h **** #define LL_ADC_INJ_SEQ_DISCONT_DISABLE     0x00000000U            /*!< ADC group injected sequencer
 718:Drivers/STM32F1xx_HAL_Driver/Inc/stm32f1xx_ll_adc.h **** #define LL_ADC_INJ_SEQ_DISCONT_1RANK       (ADC_CR1_JDISCEN)      /*!< ADC group injected sequencer
 719:Drivers/STM32F1xx_HAL_Driver/Inc/stm32f1xx_ll_adc.h **** /**
 720:Drivers/STM32F1xx_HAL_Driver/Inc/stm32f1xx_ll_adc.h ****   * @}
 721:Drivers/STM32F1xx_HAL_Driver/Inc/stm32f1xx_ll_adc.h ****   */
 722:Drivers/STM32F1xx_HAL_Driver/Inc/stm32f1xx_ll_adc.h **** 
 723:Drivers/STM32F1xx_HAL_Driver/Inc/stm32f1xx_ll_adc.h **** /** @defgroup ADC_LL_EC_INJ_SEQ_RANKS  ADC group injected - Sequencer ranks
 724:Drivers/STM32F1xx_HAL_Driver/Inc/stm32f1xx_ll_adc.h ****   * @{
 725:Drivers/STM32F1xx_HAL_Driver/Inc/stm32f1xx_ll_adc.h ****   */
 726:Drivers/STM32F1xx_HAL_Driver/Inc/stm32f1xx_ll_adc.h **** #define LL_ADC_INJ_RANK_1                  (ADC_JDR1_REGOFFSET | ADC_JOFR1_REGOFFSET | 0x00000001U)
 727:Drivers/STM32F1xx_HAL_Driver/Inc/stm32f1xx_ll_adc.h **** #define LL_ADC_INJ_RANK_2                  (ADC_JDR2_REGOFFSET | ADC_JOFR2_REGOFFSET | 0x00000002U)
 728:Drivers/STM32F1xx_HAL_Driver/Inc/stm32f1xx_ll_adc.h **** #define LL_ADC_INJ_RANK_3                  (ADC_JDR3_REGOFFSET | ADC_JOFR3_REGOFFSET | 0x00000003U)
 729:Drivers/STM32F1xx_HAL_Driver/Inc/stm32f1xx_ll_adc.h **** #define LL_ADC_INJ_RANK_4                  (ADC_JDR4_REGOFFSET | ADC_JOFR4_REGOFFSET | 0x00000004U)
 730:Drivers/STM32F1xx_HAL_Driver/Inc/stm32f1xx_ll_adc.h **** /**
 731:Drivers/STM32F1xx_HAL_Driver/Inc/stm32f1xx_ll_adc.h ****   * @}
 732:Drivers/STM32F1xx_HAL_Driver/Inc/stm32f1xx_ll_adc.h ****   */
 733:Drivers/STM32F1xx_HAL_Driver/Inc/stm32f1xx_ll_adc.h **** 
 734:Drivers/STM32F1xx_HAL_Driver/Inc/stm32f1xx_ll_adc.h **** /** @defgroup ADC_LL_EC_CHANNEL_SAMPLINGTIME  Channel - Sampling time
 735:Drivers/STM32F1xx_HAL_Driver/Inc/stm32f1xx_ll_adc.h ****   * @{
 736:Drivers/STM32F1xx_HAL_Driver/Inc/stm32f1xx_ll_adc.h ****   */
 737:Drivers/STM32F1xx_HAL_Driver/Inc/stm32f1xx_ll_adc.h **** #define LL_ADC_SAMPLINGTIME_1CYCLE_5       0x00000000U                                             
 738:Drivers/STM32F1xx_HAL_Driver/Inc/stm32f1xx_ll_adc.h **** #define LL_ADC_SAMPLINGTIME_7CYCLES_5      (ADC_SMPR2_SMP0_0)                                      
 739:Drivers/STM32F1xx_HAL_Driver/Inc/stm32f1xx_ll_adc.h **** #define LL_ADC_SAMPLINGTIME_13CYCLES_5     (ADC_SMPR2_SMP0_1)                                      
 740:Drivers/STM32F1xx_HAL_Driver/Inc/stm32f1xx_ll_adc.h **** #define LL_ADC_SAMPLINGTIME_28CYCLES_5     (ADC_SMPR2_SMP0_1 | ADC_SMPR2_SMP0_0)                   
 741:Drivers/STM32F1xx_HAL_Driver/Inc/stm32f1xx_ll_adc.h **** #define LL_ADC_SAMPLINGTIME_41CYCLES_5     (ADC_SMPR2_SMP0_2)                                      
 742:Drivers/STM32F1xx_HAL_Driver/Inc/stm32f1xx_ll_adc.h **** #define LL_ADC_SAMPLINGTIME_55CYCLES_5     (ADC_SMPR2_SMP0_2 | ADC_SMPR2_SMP0_0)                   
 743:Drivers/STM32F1xx_HAL_Driver/Inc/stm32f1xx_ll_adc.h **** #define LL_ADC_SAMPLINGTIME_71CYCLES_5     (ADC_SMPR2_SMP0_2 | ADC_SMPR2_SMP0_1)                   
 744:Drivers/STM32F1xx_HAL_Driver/Inc/stm32f1xx_ll_adc.h **** #define LL_ADC_SAMPLINGTIME_239CYCLES_5    (ADC_SMPR2_SMP0_2 | ADC_SMPR2_SMP0_1 | ADC_SMPR2_SMP0_0)
 745:Drivers/STM32F1xx_HAL_Driver/Inc/stm32f1xx_ll_adc.h **** /**
ARM GAS  /var/folders/20/cstyxln53wn53rr40gj353bh0000gn/T//ccSZWiEf.s 			page 54


 746:Drivers/STM32F1xx_HAL_Driver/Inc/stm32f1xx_ll_adc.h ****   * @}
 747:Drivers/STM32F1xx_HAL_Driver/Inc/stm32f1xx_ll_adc.h ****   */
 748:Drivers/STM32F1xx_HAL_Driver/Inc/stm32f1xx_ll_adc.h **** 
 749:Drivers/STM32F1xx_HAL_Driver/Inc/stm32f1xx_ll_adc.h **** /** @defgroup ADC_LL_EC_AWD_NUMBER Analog watchdog - Analog watchdog number
 750:Drivers/STM32F1xx_HAL_Driver/Inc/stm32f1xx_ll_adc.h ****   * @{
 751:Drivers/STM32F1xx_HAL_Driver/Inc/stm32f1xx_ll_adc.h ****   */
 752:Drivers/STM32F1xx_HAL_Driver/Inc/stm32f1xx_ll_adc.h **** #define LL_ADC_AWD1                        (ADC_AWD_CR1_CHANNEL_MASK  | ADC_AWD_CR1_REGOFFSET) /*!<
 753:Drivers/STM32F1xx_HAL_Driver/Inc/stm32f1xx_ll_adc.h **** /**
 754:Drivers/STM32F1xx_HAL_Driver/Inc/stm32f1xx_ll_adc.h ****   * @}
 755:Drivers/STM32F1xx_HAL_Driver/Inc/stm32f1xx_ll_adc.h ****   */
 756:Drivers/STM32F1xx_HAL_Driver/Inc/stm32f1xx_ll_adc.h **** 
 757:Drivers/STM32F1xx_HAL_Driver/Inc/stm32f1xx_ll_adc.h **** /** @defgroup ADC_LL_EC_AWD_CHANNELS  Analog watchdog - Monitored channels
 758:Drivers/STM32F1xx_HAL_Driver/Inc/stm32f1xx_ll_adc.h ****   * @{
 759:Drivers/STM32F1xx_HAL_Driver/Inc/stm32f1xx_ll_adc.h ****   */
 760:Drivers/STM32F1xx_HAL_Driver/Inc/stm32f1xx_ll_adc.h **** #define LL_ADC_AWD_DISABLE                 0x00000000U                                             
 761:Drivers/STM32F1xx_HAL_Driver/Inc/stm32f1xx_ll_adc.h **** #define LL_ADC_AWD_ALL_CHANNELS_REG        (                                                       
 762:Drivers/STM32F1xx_HAL_Driver/Inc/stm32f1xx_ll_adc.h **** #define LL_ADC_AWD_ALL_CHANNELS_INJ        (                                            ADC_CR1_JAW
 763:Drivers/STM32F1xx_HAL_Driver/Inc/stm32f1xx_ll_adc.h **** #define LL_ADC_AWD_ALL_CHANNELS_REG_INJ    (                                            ADC_CR1_JAW
 764:Drivers/STM32F1xx_HAL_Driver/Inc/stm32f1xx_ll_adc.h **** #define LL_ADC_AWD_CHANNEL_0_REG           ((LL_ADC_CHANNEL_0  & ADC_CHANNEL_ID_MASK)              
 765:Drivers/STM32F1xx_HAL_Driver/Inc/stm32f1xx_ll_adc.h **** #define LL_ADC_AWD_CHANNEL_0_INJ           ((LL_ADC_CHANNEL_0  & ADC_CHANNEL_ID_MASK) | ADC_CR1_JAW
 766:Drivers/STM32F1xx_HAL_Driver/Inc/stm32f1xx_ll_adc.h **** #define LL_ADC_AWD_CHANNEL_0_REG_INJ       ((LL_ADC_CHANNEL_0  & ADC_CHANNEL_ID_MASK) | ADC_CR1_JAW
 767:Drivers/STM32F1xx_HAL_Driver/Inc/stm32f1xx_ll_adc.h **** #define LL_ADC_AWD_CHANNEL_1_REG           ((LL_ADC_CHANNEL_1  & ADC_CHANNEL_ID_MASK)              
 768:Drivers/STM32F1xx_HAL_Driver/Inc/stm32f1xx_ll_adc.h **** #define LL_ADC_AWD_CHANNEL_1_INJ           ((LL_ADC_CHANNEL_1  & ADC_CHANNEL_ID_MASK) | ADC_CR1_JAW
 769:Drivers/STM32F1xx_HAL_Driver/Inc/stm32f1xx_ll_adc.h **** #define LL_ADC_AWD_CHANNEL_1_REG_INJ       ((LL_ADC_CHANNEL_1  & ADC_CHANNEL_ID_MASK) | ADC_CR1_JAW
 770:Drivers/STM32F1xx_HAL_Driver/Inc/stm32f1xx_ll_adc.h **** #define LL_ADC_AWD_CHANNEL_2_REG           ((LL_ADC_CHANNEL_2  & ADC_CHANNEL_ID_MASK)              
 771:Drivers/STM32F1xx_HAL_Driver/Inc/stm32f1xx_ll_adc.h **** #define LL_ADC_AWD_CHANNEL_2_INJ           ((LL_ADC_CHANNEL_2  & ADC_CHANNEL_ID_MASK) | ADC_CR1_JAW
 772:Drivers/STM32F1xx_HAL_Driver/Inc/stm32f1xx_ll_adc.h **** #define LL_ADC_AWD_CHANNEL_2_REG_INJ       ((LL_ADC_CHANNEL_2  & ADC_CHANNEL_ID_MASK) | ADC_CR1_JAW
 773:Drivers/STM32F1xx_HAL_Driver/Inc/stm32f1xx_ll_adc.h **** #define LL_ADC_AWD_CHANNEL_3_REG           ((LL_ADC_CHANNEL_3  & ADC_CHANNEL_ID_MASK)              
