ARM GAS  /var/folders/20/cstyxln53wn53rr40gj353bh0000gn/T//ccV5XGPK.s 			page 1


   1              		.cpu cortex-m3
   2              		.eabi_attribute 20, 1
   3              		.eabi_attribute 21, 1
   4              		.eabi_attribute 23, 3
   5              		.eabi_attribute 24, 1
   6              		.eabi_attribute 25, 1
   7              		.eabi_attribute 26, 1
   8              		.eabi_attribute 30, 2
   9              		.eabi_attribute 34, 1
  10              		.eabi_attribute 18, 4
  11              		.file	"stm32f1xx_hal_tim_ex.c"
  12              		.text
  13              	.Ltext0:
  14              		.cfi_sections	.debug_frame
  15              		.section	.text.HAL_TIMEx_HallSensor_MspInit,"ax",%progbits
  16              		.align	1
  17              		.p2align 2,,3
  18              		.weak	HAL_TIMEx_HallSensor_MspInit
  19              		.arch armv7-m
  20              		.syntax unified
  21              		.thumb
  22              		.thumb_func
  23              		.fpu softvfp
  25              	HAL_TIMEx_HallSensor_MspInit:
  26              	.LVL0:
  27              	.LFB67:
  28              		.file 1 "Drivers/STM32F1xx_HAL_Driver/Src/stm32f1xx_hal_tim_ex.c"
   1:Drivers/STM32F1xx_HAL_Driver/Src/stm32f1xx_hal_tim_ex.c **** /**
   2:Drivers/STM32F1xx_HAL_Driver/Src/stm32f1xx_hal_tim_ex.c ****   ******************************************************************************
   3:Drivers/STM32F1xx_HAL_Driver/Src/stm32f1xx_hal_tim_ex.c ****   * @file    stm32f1xx_hal_tim_ex.c
   4:Drivers/STM32F1xx_HAL_Driver/Src/stm32f1xx_hal_tim_ex.c ****   * @author  MCD Application Team
   5:Drivers/STM32F1xx_HAL_Driver/Src/stm32f1xx_hal_tim_ex.c ****   * @brief   TIM HAL module driver.
   6:Drivers/STM32F1xx_HAL_Driver/Src/stm32f1xx_hal_tim_ex.c ****   *          This file provides firmware functions to manage the following
   7:Drivers/STM32F1xx_HAL_Driver/Src/stm32f1xx_hal_tim_ex.c ****   *          functionalities of the Timer Extended peripheral:
   8:Drivers/STM32F1xx_HAL_Driver/Src/stm32f1xx_hal_tim_ex.c ****   *           + Time Hall Sensor Interface Initialization
   9:Drivers/STM32F1xx_HAL_Driver/Src/stm32f1xx_hal_tim_ex.c ****   *           + Time Hall Sensor Interface Start
  10:Drivers/STM32F1xx_HAL_Driver/Src/stm32f1xx_hal_tim_ex.c ****   *           + Time Complementary signal break and dead time configuration
  11:Drivers/STM32F1xx_HAL_Driver/Src/stm32f1xx_hal_tim_ex.c ****   *           + Time Master and Slave synchronization configuration
  12:Drivers/STM32F1xx_HAL_Driver/Src/stm32f1xx_hal_tim_ex.c ****   *           + Timer remapping capabilities configuration
  13:Drivers/STM32F1xx_HAL_Driver/Src/stm32f1xx_hal_tim_ex.c ****   @verbatim
  14:Drivers/STM32F1xx_HAL_Driver/Src/stm32f1xx_hal_tim_ex.c ****   ==============================================================================
  15:Drivers/STM32F1xx_HAL_Driver/Src/stm32f1xx_hal_tim_ex.c ****                       ##### TIMER Extended features #####
  16:Drivers/STM32F1xx_HAL_Driver/Src/stm32f1xx_hal_tim_ex.c ****   ==============================================================================
  17:Drivers/STM32F1xx_HAL_Driver/Src/stm32f1xx_hal_tim_ex.c ****   [..]
  18:Drivers/STM32F1xx_HAL_Driver/Src/stm32f1xx_hal_tim_ex.c ****     The Timer Extended features include:
  19:Drivers/STM32F1xx_HAL_Driver/Src/stm32f1xx_hal_tim_ex.c ****     (#) Complementary outputs with programmable dead-time for :
  20:Drivers/STM32F1xx_HAL_Driver/Src/stm32f1xx_hal_tim_ex.c ****         (++) Output Compare
  21:Drivers/STM32F1xx_HAL_Driver/Src/stm32f1xx_hal_tim_ex.c ****         (++) PWM generation (Edge and Center-aligned Mode)
  22:Drivers/STM32F1xx_HAL_Driver/Src/stm32f1xx_hal_tim_ex.c ****         (++) One-pulse mode output
  23:Drivers/STM32F1xx_HAL_Driver/Src/stm32f1xx_hal_tim_ex.c ****     (#) Synchronization circuit to control the timer with external signals and to
  24:Drivers/STM32F1xx_HAL_Driver/Src/stm32f1xx_hal_tim_ex.c ****         interconnect several timers together.
  25:Drivers/STM32F1xx_HAL_Driver/Src/stm32f1xx_hal_tim_ex.c ****     (#) Break input to put the timer output signals in reset state or in a known state.
  26:Drivers/STM32F1xx_HAL_Driver/Src/stm32f1xx_hal_tim_ex.c ****     (#) Supports incremental (quadrature) encoder and hall-sensor circuitry for
  27:Drivers/STM32F1xx_HAL_Driver/Src/stm32f1xx_hal_tim_ex.c ****         positioning purposes
  28:Drivers/STM32F1xx_HAL_Driver/Src/stm32f1xx_hal_tim_ex.c **** 
  29:Drivers/STM32F1xx_HAL_Driver/Src/stm32f1xx_hal_tim_ex.c ****             ##### How to use this driver #####
  30:Drivers/STM32F1xx_HAL_Driver/Src/stm32f1xx_hal_tim_ex.c ****   ==============================================================================
ARM GAS  /var/folders/20/cstyxln53wn53rr40gj353bh0000gn/T//ccV5XGPK.s 			page 2


  31:Drivers/STM32F1xx_HAL_Driver/Src/stm32f1xx_hal_tim_ex.c ****     [..]
  32:Drivers/STM32F1xx_HAL_Driver/Src/stm32f1xx_hal_tim_ex.c ****      (#) Initialize the TIM low level resources by implementing the following functions
  33:Drivers/STM32F1xx_HAL_Driver/Src/stm32f1xx_hal_tim_ex.c ****          depending on the selected feature:
  34:Drivers/STM32F1xx_HAL_Driver/Src/stm32f1xx_hal_tim_ex.c ****            (++) Hall Sensor output : HAL_TIMEx_HallSensor_MspInit()
  35:Drivers/STM32F1xx_HAL_Driver/Src/stm32f1xx_hal_tim_ex.c **** 
  36:Drivers/STM32F1xx_HAL_Driver/Src/stm32f1xx_hal_tim_ex.c ****      (#) Initialize the TIM low level resources :
  37:Drivers/STM32F1xx_HAL_Driver/Src/stm32f1xx_hal_tim_ex.c ****         (##) Enable the TIM interface clock using __HAL_RCC_TIMx_CLK_ENABLE();
  38:Drivers/STM32F1xx_HAL_Driver/Src/stm32f1xx_hal_tim_ex.c ****         (##) TIM pins configuration
  39:Drivers/STM32F1xx_HAL_Driver/Src/stm32f1xx_hal_tim_ex.c ****             (+++) Enable the clock for the TIM GPIOs using the following function:
  40:Drivers/STM32F1xx_HAL_Driver/Src/stm32f1xx_hal_tim_ex.c ****               __HAL_RCC_GPIOx_CLK_ENABLE();
  41:Drivers/STM32F1xx_HAL_Driver/Src/stm32f1xx_hal_tim_ex.c ****             (+++) Configure these TIM pins in Alternate function mode using HAL_GPIO_Init();
  42:Drivers/STM32F1xx_HAL_Driver/Src/stm32f1xx_hal_tim_ex.c **** 
  43:Drivers/STM32F1xx_HAL_Driver/Src/stm32f1xx_hal_tim_ex.c ****      (#) The external Clock can be configured, if needed (the default clock is the
  44:Drivers/STM32F1xx_HAL_Driver/Src/stm32f1xx_hal_tim_ex.c ****          internal clock from the APBx), using the following function:
  45:Drivers/STM32F1xx_HAL_Driver/Src/stm32f1xx_hal_tim_ex.c ****          HAL_TIM_ConfigClockSource, the clock configuration should be done before
  46:Drivers/STM32F1xx_HAL_Driver/Src/stm32f1xx_hal_tim_ex.c ****          any start function.
  47:Drivers/STM32F1xx_HAL_Driver/Src/stm32f1xx_hal_tim_ex.c **** 
  48:Drivers/STM32F1xx_HAL_Driver/Src/stm32f1xx_hal_tim_ex.c ****      (#) Configure the TIM in the desired functioning mode using one of the
  49:Drivers/STM32F1xx_HAL_Driver/Src/stm32f1xx_hal_tim_ex.c ****          initialization function of this driver:
  50:Drivers/STM32F1xx_HAL_Driver/Src/stm32f1xx_hal_tim_ex.c ****           (++) HAL_TIMEx_HallSensor_Init() and HAL_TIMEx_ConfigCommutEvent(): to use the
  51:Drivers/STM32F1xx_HAL_Driver/Src/stm32f1xx_hal_tim_ex.c ****                Timer Hall Sensor Interface and the commutation event with the corresponding
  52:Drivers/STM32F1xx_HAL_Driver/Src/stm32f1xx_hal_tim_ex.c ****                Interrupt and DMA request if needed (Note that One Timer is used to interface
  53:Drivers/STM32F1xx_HAL_Driver/Src/stm32f1xx_hal_tim_ex.c ****                with the Hall sensor Interface and another Timer should be used to use
  54:Drivers/STM32F1xx_HAL_Driver/Src/stm32f1xx_hal_tim_ex.c ****                the commutation event).
  55:Drivers/STM32F1xx_HAL_Driver/Src/stm32f1xx_hal_tim_ex.c **** 
  56:Drivers/STM32F1xx_HAL_Driver/Src/stm32f1xx_hal_tim_ex.c ****      (#) Activate the TIM peripheral using one of the start functions:
  57:Drivers/STM32F1xx_HAL_Driver/Src/stm32f1xx_hal_tim_ex.c ****            (++) Complementary Output Compare : HAL_TIMEx_OCN_Start(), HAL_TIMEx_OCN_Start_DMA(), HA
  58:Drivers/STM32F1xx_HAL_Driver/Src/stm32f1xx_hal_tim_ex.c ****            (++) Complementary PWM generation : HAL_TIMEx_PWMN_Start(), HAL_TIMEx_PWMN_Start_DMA(), 
  59:Drivers/STM32F1xx_HAL_Driver/Src/stm32f1xx_hal_tim_ex.c ****            (++) Complementary One-pulse mode output : HAL_TIMEx_OnePulseN_Start(), HAL_TIMEx_OnePul
  60:Drivers/STM32F1xx_HAL_Driver/Src/stm32f1xx_hal_tim_ex.c ****            (++) Hall Sensor output : HAL_TIMEx_HallSensor_Start(), HAL_TIMEx_HallSensor_Start_DMA()
  61:Drivers/STM32F1xx_HAL_Driver/Src/stm32f1xx_hal_tim_ex.c **** 
  62:Drivers/STM32F1xx_HAL_Driver/Src/stm32f1xx_hal_tim_ex.c ****   @endverbatim
  63:Drivers/STM32F1xx_HAL_Driver/Src/stm32f1xx_hal_tim_ex.c ****   ******************************************************************************
  64:Drivers/STM32F1xx_HAL_Driver/Src/stm32f1xx_hal_tim_ex.c ****   * @attention
  65:Drivers/STM32F1xx_HAL_Driver/Src/stm32f1xx_hal_tim_ex.c ****   *
  66:Drivers/STM32F1xx_HAL_Driver/Src/stm32f1xx_hal_tim_ex.c ****   * <h2><center>&copy; Copyright (c) 2016 STMicroelectronics.
  67:Drivers/STM32F1xx_HAL_Driver/Src/stm32f1xx_hal_tim_ex.c ****   * All rights reserved.</center></h2>
  68:Drivers/STM32F1xx_HAL_Driver/Src/stm32f1xx_hal_tim_ex.c ****   *
  69:Drivers/STM32F1xx_HAL_Driver/Src/stm32f1xx_hal_tim_ex.c ****   * This software component is licensed by ST under BSD 3-Clause license,
  70:Drivers/STM32F1xx_HAL_Driver/Src/stm32f1xx_hal_tim_ex.c ****   * the "License"; You may not use this file except in compliance with the
  71:Drivers/STM32F1xx_HAL_Driver/Src/stm32f1xx_hal_tim_ex.c ****   * License. You may obtain a copy of the License at:
  72:Drivers/STM32F1xx_HAL_Driver/Src/stm32f1xx_hal_tim_ex.c ****   *                        opensource.org/licenses/BSD-3-Clause
  73:Drivers/STM32F1xx_HAL_Driver/Src/stm32f1xx_hal_tim_ex.c ****   *
  74:Drivers/STM32F1xx_HAL_Driver/Src/stm32f1xx_hal_tim_ex.c ****   ******************************************************************************
  75:Drivers/STM32F1xx_HAL_Driver/Src/stm32f1xx_hal_tim_ex.c ****   */
  76:Drivers/STM32F1xx_HAL_Driver/Src/stm32f1xx_hal_tim_ex.c **** 
  77:Drivers/STM32F1xx_HAL_Driver/Src/stm32f1xx_hal_tim_ex.c **** /* Includes ------------------------------------------------------------------*/
  78:Drivers/STM32F1xx_HAL_Driver/Src/stm32f1xx_hal_tim_ex.c **** #include "stm32f1xx_hal.h"
  79:Drivers/STM32F1xx_HAL_Driver/Src/stm32f1xx_hal_tim_ex.c **** 
  80:Drivers/STM32F1xx_HAL_Driver/Src/stm32f1xx_hal_tim_ex.c **** /** @addtogroup STM32F1xx_HAL_Driver
  81:Drivers/STM32F1xx_HAL_Driver/Src/stm32f1xx_hal_tim_ex.c ****   * @{
  82:Drivers/STM32F1xx_HAL_Driver/Src/stm32f1xx_hal_tim_ex.c ****   */
  83:Drivers/STM32F1xx_HAL_Driver/Src/stm32f1xx_hal_tim_ex.c **** 
  84:Drivers/STM32F1xx_HAL_Driver/Src/stm32f1xx_hal_tim_ex.c **** /** @defgroup TIMEx TIMEx
  85:Drivers/STM32F1xx_HAL_Driver/Src/stm32f1xx_hal_tim_ex.c ****   * @brief TIM Extended HAL module driver
  86:Drivers/STM32F1xx_HAL_Driver/Src/stm32f1xx_hal_tim_ex.c ****   * @{
  87:Drivers/STM32F1xx_HAL_Driver/Src/stm32f1xx_hal_tim_ex.c ****   */
ARM GAS  /var/folders/20/cstyxln53wn53rr40gj353bh0000gn/T//ccV5XGPK.s 			page 3


  88:Drivers/STM32F1xx_HAL_Driver/Src/stm32f1xx_hal_tim_ex.c **** 
  89:Drivers/STM32F1xx_HAL_Driver/Src/stm32f1xx_hal_tim_ex.c **** #ifdef HAL_TIM_MODULE_ENABLED
  90:Drivers/STM32F1xx_HAL_Driver/Src/stm32f1xx_hal_tim_ex.c **** 
  91:Drivers/STM32F1xx_HAL_Driver/Src/stm32f1xx_hal_tim_ex.c **** /* Private typedef -----------------------------------------------------------*/
  92:Drivers/STM32F1xx_HAL_Driver/Src/stm32f1xx_hal_tim_ex.c **** /* Private define ------------------------------------------------------------*/
  93:Drivers/STM32F1xx_HAL_Driver/Src/stm32f1xx_hal_tim_ex.c **** /* Private macro -------------------------------------------------------------*/
  94:Drivers/STM32F1xx_HAL_Driver/Src/stm32f1xx_hal_tim_ex.c **** /* Private variables ---------------------------------------------------------*/
  95:Drivers/STM32F1xx_HAL_Driver/Src/stm32f1xx_hal_tim_ex.c **** /* Private function prototypes -----------------------------------------------*/
  96:Drivers/STM32F1xx_HAL_Driver/Src/stm32f1xx_hal_tim_ex.c **** static void TIM_CCxNChannelCmd(TIM_TypeDef *TIMx, uint32_t Channel, uint32_t ChannelNState);
  97:Drivers/STM32F1xx_HAL_Driver/Src/stm32f1xx_hal_tim_ex.c **** 
  98:Drivers/STM32F1xx_HAL_Driver/Src/stm32f1xx_hal_tim_ex.c **** /* Exported functions --------------------------------------------------------*/
  99:Drivers/STM32F1xx_HAL_Driver/Src/stm32f1xx_hal_tim_ex.c **** /** @defgroup TIMEx_Exported_Functions TIM Extended Exported Functions
 100:Drivers/STM32F1xx_HAL_Driver/Src/stm32f1xx_hal_tim_ex.c ****   * @{
 101:Drivers/STM32F1xx_HAL_Driver/Src/stm32f1xx_hal_tim_ex.c ****   */
 102:Drivers/STM32F1xx_HAL_Driver/Src/stm32f1xx_hal_tim_ex.c **** 
 103:Drivers/STM32F1xx_HAL_Driver/Src/stm32f1xx_hal_tim_ex.c **** /** @defgroup TIMEx_Exported_Functions_Group1 Extended Timer Hall Sensor functions
 104:Drivers/STM32F1xx_HAL_Driver/Src/stm32f1xx_hal_tim_ex.c ****   * @brief    Timer Hall Sensor functions
 105:Drivers/STM32F1xx_HAL_Driver/Src/stm32f1xx_hal_tim_ex.c ****   *
 106:Drivers/STM32F1xx_HAL_Driver/Src/stm32f1xx_hal_tim_ex.c **** @verbatim
 107:Drivers/STM32F1xx_HAL_Driver/Src/stm32f1xx_hal_tim_ex.c ****   ==============================================================================
 108:Drivers/STM32F1xx_HAL_Driver/Src/stm32f1xx_hal_tim_ex.c ****                       ##### Timer Hall Sensor functions #####
 109:Drivers/STM32F1xx_HAL_Driver/Src/stm32f1xx_hal_tim_ex.c ****   ==============================================================================
 110:Drivers/STM32F1xx_HAL_Driver/Src/stm32f1xx_hal_tim_ex.c ****   [..]
 111:Drivers/STM32F1xx_HAL_Driver/Src/stm32f1xx_hal_tim_ex.c ****     This section provides functions allowing to:
 112:Drivers/STM32F1xx_HAL_Driver/Src/stm32f1xx_hal_tim_ex.c ****     (+) Initialize and configure TIM HAL Sensor.
 113:Drivers/STM32F1xx_HAL_Driver/Src/stm32f1xx_hal_tim_ex.c ****     (+) De-initialize TIM HAL Sensor.
 114:Drivers/STM32F1xx_HAL_Driver/Src/stm32f1xx_hal_tim_ex.c ****     (+) Start the Hall Sensor Interface.
 115:Drivers/STM32F1xx_HAL_Driver/Src/stm32f1xx_hal_tim_ex.c ****     (+) Stop the Hall Sensor Interface.
 116:Drivers/STM32F1xx_HAL_Driver/Src/stm32f1xx_hal_tim_ex.c ****     (+) Start the Hall Sensor Interface and enable interrupts.
 117:Drivers/STM32F1xx_HAL_Driver/Src/stm32f1xx_hal_tim_ex.c ****     (+) Stop the Hall Sensor Interface and disable interrupts.
 118:Drivers/STM32F1xx_HAL_Driver/Src/stm32f1xx_hal_tim_ex.c ****     (+) Start the Hall Sensor Interface and enable DMA transfers.
 119:Drivers/STM32F1xx_HAL_Driver/Src/stm32f1xx_hal_tim_ex.c ****     (+) Stop the Hall Sensor Interface and disable DMA transfers.
 120:Drivers/STM32F1xx_HAL_Driver/Src/stm32f1xx_hal_tim_ex.c **** 
 121:Drivers/STM32F1xx_HAL_Driver/Src/stm32f1xx_hal_tim_ex.c **** @endverbatim
 122:Drivers/STM32F1xx_HAL_Driver/Src/stm32f1xx_hal_tim_ex.c ****   * @{
 123:Drivers/STM32F1xx_HAL_Driver/Src/stm32f1xx_hal_tim_ex.c ****   */
 124:Drivers/STM32F1xx_HAL_Driver/Src/stm32f1xx_hal_tim_ex.c **** /**
 125:Drivers/STM32F1xx_HAL_Driver/Src/stm32f1xx_hal_tim_ex.c ****   * @brief  Initializes the TIM Hall Sensor Interface and initialize the associated handle.
 126:Drivers/STM32F1xx_HAL_Driver/Src/stm32f1xx_hal_tim_ex.c ****   * @param  htim TIM Hall Sensor Interface handle
 127:Drivers/STM32F1xx_HAL_Driver/Src/stm32f1xx_hal_tim_ex.c ****   * @param  sConfig TIM Hall Sensor configuration structure
 128:Drivers/STM32F1xx_HAL_Driver/Src/stm32f1xx_hal_tim_ex.c ****   * @retval HAL status
 129:Drivers/STM32F1xx_HAL_Driver/Src/stm32f1xx_hal_tim_ex.c ****   */
 130:Drivers/STM32F1xx_HAL_Driver/Src/stm32f1xx_hal_tim_ex.c **** HAL_StatusTypeDef HAL_TIMEx_HallSensor_Init(TIM_HandleTypeDef *htim, TIM_HallSensor_InitTypeDef *sC
 131:Drivers/STM32F1xx_HAL_Driver/Src/stm32f1xx_hal_tim_ex.c **** {
 132:Drivers/STM32F1xx_HAL_Driver/Src/stm32f1xx_hal_tim_ex.c ****   TIM_OC_InitTypeDef OC_Config;
 133:Drivers/STM32F1xx_HAL_Driver/Src/stm32f1xx_hal_tim_ex.c **** 
 134:Drivers/STM32F1xx_HAL_Driver/Src/stm32f1xx_hal_tim_ex.c ****   /* Check the TIM handle allocation */
 135:Drivers/STM32F1xx_HAL_Driver/Src/stm32f1xx_hal_tim_ex.c ****   if (htim == NULL)
 136:Drivers/STM32F1xx_HAL_Driver/Src/stm32f1xx_hal_tim_ex.c ****   {
 137:Drivers/STM32F1xx_HAL_Driver/Src/stm32f1xx_hal_tim_ex.c ****     return HAL_ERROR;
 138:Drivers/STM32F1xx_HAL_Driver/Src/stm32f1xx_hal_tim_ex.c ****   }
 139:Drivers/STM32F1xx_HAL_Driver/Src/stm32f1xx_hal_tim_ex.c **** 
 140:Drivers/STM32F1xx_HAL_Driver/Src/stm32f1xx_hal_tim_ex.c ****   /* Check the parameters */
 141:Drivers/STM32F1xx_HAL_Driver/Src/stm32f1xx_hal_tim_ex.c ****   assert_param(IS_TIM_HALL_SENSOR_INTERFACE_INSTANCE(htim->Instance));
 142:Drivers/STM32F1xx_HAL_Driver/Src/stm32f1xx_hal_tim_ex.c ****   assert_param(IS_TIM_COUNTER_MODE(htim->Init.CounterMode));
 143:Drivers/STM32F1xx_HAL_Driver/Src/stm32f1xx_hal_tim_ex.c ****   assert_param(IS_TIM_CLOCKDIVISION_DIV(htim->Init.ClockDivision));
 144:Drivers/STM32F1xx_HAL_Driver/Src/stm32f1xx_hal_tim_ex.c ****   assert_param(IS_TIM_AUTORELOAD_PRELOAD(htim->Init.AutoReloadPreload));
ARM GAS  /var/folders/20/cstyxln53wn53rr40gj353bh0000gn/T//ccV5XGPK.s 			page 4


 145:Drivers/STM32F1xx_HAL_Driver/Src/stm32f1xx_hal_tim_ex.c ****   assert_param(IS_TIM_IC_POLARITY(sConfig->IC1Polarity));
 146:Drivers/STM32F1xx_HAL_Driver/Src/stm32f1xx_hal_tim_ex.c ****   assert_param(IS_TIM_IC_PRESCALER(sConfig->IC1Prescaler));
 147:Drivers/STM32F1xx_HAL_Driver/Src/stm32f1xx_hal_tim_ex.c ****   assert_param(IS_TIM_IC_FILTER(sConfig->IC1Filter));
 148:Drivers/STM32F1xx_HAL_Driver/Src/stm32f1xx_hal_tim_ex.c **** 
 149:Drivers/STM32F1xx_HAL_Driver/Src/stm32f1xx_hal_tim_ex.c ****   if (htim->State == HAL_TIM_STATE_RESET)
 150:Drivers/STM32F1xx_HAL_Driver/Src/stm32f1xx_hal_tim_ex.c ****   {
 151:Drivers/STM32F1xx_HAL_Driver/Src/stm32f1xx_hal_tim_ex.c ****     /* Allocate lock resource and initialize it */
 152:Drivers/STM32F1xx_HAL_Driver/Src/stm32f1xx_hal_tim_ex.c ****     htim->Lock = HAL_UNLOCKED;
 153:Drivers/STM32F1xx_HAL_Driver/Src/stm32f1xx_hal_tim_ex.c **** 
 154:Drivers/STM32F1xx_HAL_Driver/Src/stm32f1xx_hal_tim_ex.c **** #if (USE_HAL_TIM_REGISTER_CALLBACKS == 1)
 155:Drivers/STM32F1xx_HAL_Driver/Src/stm32f1xx_hal_tim_ex.c ****     /* Reset interrupt callbacks to legacy week callbacks */
 156:Drivers/STM32F1xx_HAL_Driver/Src/stm32f1xx_hal_tim_ex.c ****     TIM_ResetCallback(htim);
 157:Drivers/STM32F1xx_HAL_Driver/Src/stm32f1xx_hal_tim_ex.c **** 
 158:Drivers/STM32F1xx_HAL_Driver/Src/stm32f1xx_hal_tim_ex.c ****     if (htim->HallSensor_MspInitCallback == NULL)
 159:Drivers/STM32F1xx_HAL_Driver/Src/stm32f1xx_hal_tim_ex.c ****     {
 160:Drivers/STM32F1xx_HAL_Driver/Src/stm32f1xx_hal_tim_ex.c ****       htim->HallSensor_MspInitCallback = HAL_TIMEx_HallSensor_MspInit;
 161:Drivers/STM32F1xx_HAL_Driver/Src/stm32f1xx_hal_tim_ex.c ****     }
 162:Drivers/STM32F1xx_HAL_Driver/Src/stm32f1xx_hal_tim_ex.c ****     /* Init the low level hardware : GPIO, CLOCK, NVIC */
 163:Drivers/STM32F1xx_HAL_Driver/Src/stm32f1xx_hal_tim_ex.c ****     htim->HallSensor_MspInitCallback(htim);
 164:Drivers/STM32F1xx_HAL_Driver/Src/stm32f1xx_hal_tim_ex.c **** #else
 165:Drivers/STM32F1xx_HAL_Driver/Src/stm32f1xx_hal_tim_ex.c ****     /* Init the low level hardware : GPIO, CLOCK, NVIC and DMA */
 166:Drivers/STM32F1xx_HAL_Driver/Src/stm32f1xx_hal_tim_ex.c ****     HAL_TIMEx_HallSensor_MspInit(htim);
 167:Drivers/STM32F1xx_HAL_Driver/Src/stm32f1xx_hal_tim_ex.c **** #endif /* USE_HAL_TIM_REGISTER_CALLBACKS */
 168:Drivers/STM32F1xx_HAL_Driver/Src/stm32f1xx_hal_tim_ex.c ****   }
 169:Drivers/STM32F1xx_HAL_Driver/Src/stm32f1xx_hal_tim_ex.c **** 
 170:Drivers/STM32F1xx_HAL_Driver/Src/stm32f1xx_hal_tim_ex.c ****   /* Set the TIM state */
 171:Drivers/STM32F1xx_HAL_Driver/Src/stm32f1xx_hal_tim_ex.c ****   htim->State = HAL_TIM_STATE_BUSY;
 172:Drivers/STM32F1xx_HAL_Driver/Src/stm32f1xx_hal_tim_ex.c **** 
 173:Drivers/STM32F1xx_HAL_Driver/Src/stm32f1xx_hal_tim_ex.c ****   /* Configure the Time base in the Encoder Mode */
 174:Drivers/STM32F1xx_HAL_Driver/Src/stm32f1xx_hal_tim_ex.c ****   TIM_Base_SetConfig(htim->Instance, &htim->Init);
 175:Drivers/STM32F1xx_HAL_Driver/Src/stm32f1xx_hal_tim_ex.c **** 
 176:Drivers/STM32F1xx_HAL_Driver/Src/stm32f1xx_hal_tim_ex.c ****   /* Configure the Channel 1 as Input Channel to interface with the three Outputs of the  Hall sens
 177:Drivers/STM32F1xx_HAL_Driver/Src/stm32f1xx_hal_tim_ex.c ****   TIM_TI1_SetConfig(htim->Instance, sConfig->IC1Polarity, TIM_ICSELECTION_TRC, sConfig->IC1Filter);
 178:Drivers/STM32F1xx_HAL_Driver/Src/stm32f1xx_hal_tim_ex.c **** 
 179:Drivers/STM32F1xx_HAL_Driver/Src/stm32f1xx_hal_tim_ex.c ****   /* Reset the IC1PSC Bits */
 180:Drivers/STM32F1xx_HAL_Driver/Src/stm32f1xx_hal_tim_ex.c ****   htim->Instance->CCMR1 &= ~TIM_CCMR1_IC1PSC;
 181:Drivers/STM32F1xx_HAL_Driver/Src/stm32f1xx_hal_tim_ex.c ****   /* Set the IC1PSC value */
 182:Drivers/STM32F1xx_HAL_Driver/Src/stm32f1xx_hal_tim_ex.c ****   htim->Instance->CCMR1 |= sConfig->IC1Prescaler;
 183:Drivers/STM32F1xx_HAL_Driver/Src/stm32f1xx_hal_tim_ex.c **** 
 184:Drivers/STM32F1xx_HAL_Driver/Src/stm32f1xx_hal_tim_ex.c ****   /* Enable the Hall sensor interface (XOR function of the three inputs) */
 185:Drivers/STM32F1xx_HAL_Driver/Src/stm32f1xx_hal_tim_ex.c ****   htim->Instance->CR2 |= TIM_CR2_TI1S;
 186:Drivers/STM32F1xx_HAL_Driver/Src/stm32f1xx_hal_tim_ex.c **** 
 187:Drivers/STM32F1xx_HAL_Driver/Src/stm32f1xx_hal_tim_ex.c ****   /* Select the TIM_TS_TI1F_ED signal as Input trigger for the TIM */
 188:Drivers/STM32F1xx_HAL_Driver/Src/stm32f1xx_hal_tim_ex.c ****   htim->Instance->SMCR &= ~TIM_SMCR_TS;
 189:Drivers/STM32F1xx_HAL_Driver/Src/stm32f1xx_hal_tim_ex.c ****   htim->Instance->SMCR |= TIM_TS_TI1F_ED;
 190:Drivers/STM32F1xx_HAL_Driver/Src/stm32f1xx_hal_tim_ex.c **** 
 191:Drivers/STM32F1xx_HAL_Driver/Src/stm32f1xx_hal_tim_ex.c ****   /* Use the TIM_TS_TI1F_ED signal to reset the TIM counter each edge detection */
 192:Drivers/STM32F1xx_HAL_Driver/Src/stm32f1xx_hal_tim_ex.c ****   htim->Instance->SMCR &= ~TIM_SMCR_SMS;
 193:Drivers/STM32F1xx_HAL_Driver/Src/stm32f1xx_hal_tim_ex.c ****   htim->Instance->SMCR |= TIM_SLAVEMODE_RESET;
 194:Drivers/STM32F1xx_HAL_Driver/Src/stm32f1xx_hal_tim_ex.c **** 
 195:Drivers/STM32F1xx_HAL_Driver/Src/stm32f1xx_hal_tim_ex.c ****   /* Program channel 2 in PWM 2 mode with the desired Commutation_Delay*/
 196:Drivers/STM32F1xx_HAL_Driver/Src/stm32f1xx_hal_tim_ex.c ****   OC_Config.OCFastMode = TIM_OCFAST_DISABLE;
 197:Drivers/STM32F1xx_HAL_Driver/Src/stm32f1xx_hal_tim_ex.c ****   OC_Config.OCIdleState = TIM_OCIDLESTATE_RESET;
 198:Drivers/STM32F1xx_HAL_Driver/Src/stm32f1xx_hal_tim_ex.c ****   OC_Config.OCMode = TIM_OCMODE_PWM2;
 199:Drivers/STM32F1xx_HAL_Driver/Src/stm32f1xx_hal_tim_ex.c ****   OC_Config.OCNIdleState = TIM_OCNIDLESTATE_RESET;
 200:Drivers/STM32F1xx_HAL_Driver/Src/stm32f1xx_hal_tim_ex.c ****   OC_Config.OCNPolarity = TIM_OCNPOLARITY_HIGH;
 201:Drivers/STM32F1xx_HAL_Driver/Src/stm32f1xx_hal_tim_ex.c ****   OC_Config.OCPolarity = TIM_OCPOLARITY_HIGH;
ARM GAS  /var/folders/20/cstyxln53wn53rr40gj353bh0000gn/T//ccV5XGPK.s 			page 5


 202:Drivers/STM32F1xx_HAL_Driver/Src/stm32f1xx_hal_tim_ex.c ****   OC_Config.Pulse = sConfig->Commutation_Delay;
 203:Drivers/STM32F1xx_HAL_Driver/Src/stm32f1xx_hal_tim_ex.c **** 
 204:Drivers/STM32F1xx_HAL_Driver/Src/stm32f1xx_hal_tim_ex.c ****   TIM_OC2_SetConfig(htim->Instance, &OC_Config);
 205:Drivers/STM32F1xx_HAL_Driver/Src/stm32f1xx_hal_tim_ex.c **** 
 206:Drivers/STM32F1xx_HAL_Driver/Src/stm32f1xx_hal_tim_ex.c ****   /* Select OC2REF as trigger output on TRGO: write the MMS bits in the TIMx_CR2
 207:Drivers/STM32F1xx_HAL_Driver/Src/stm32f1xx_hal_tim_ex.c ****     register to 101 */
 208:Drivers/STM32F1xx_HAL_Driver/Src/stm32f1xx_hal_tim_ex.c ****   htim->Instance->CR2 &= ~TIM_CR2_MMS;
 209:Drivers/STM32F1xx_HAL_Driver/Src/stm32f1xx_hal_tim_ex.c ****   htim->Instance->CR2 |= TIM_TRGO_OC2REF;
 210:Drivers/STM32F1xx_HAL_Driver/Src/stm32f1xx_hal_tim_ex.c **** 
 211:Drivers/STM32F1xx_HAL_Driver/Src/stm32f1xx_hal_tim_ex.c ****   /* Initialize the TIM state*/
 212:Drivers/STM32F1xx_HAL_Driver/Src/stm32f1xx_hal_tim_ex.c ****   htim->State = HAL_TIM_STATE_READY;
 213:Drivers/STM32F1xx_HAL_Driver/Src/stm32f1xx_hal_tim_ex.c **** 
 214:Drivers/STM32F1xx_HAL_Driver/Src/stm32f1xx_hal_tim_ex.c ****   return HAL_OK;
 215:Drivers/STM32F1xx_HAL_Driver/Src/stm32f1xx_hal_tim_ex.c **** }
 216:Drivers/STM32F1xx_HAL_Driver/Src/stm32f1xx_hal_tim_ex.c **** 
 217:Drivers/STM32F1xx_HAL_Driver/Src/stm32f1xx_hal_tim_ex.c **** /**
 218:Drivers/STM32F1xx_HAL_Driver/Src/stm32f1xx_hal_tim_ex.c ****   * @brief  DeInitializes the TIM Hall Sensor interface
 219:Drivers/STM32F1xx_HAL_Driver/Src/stm32f1xx_hal_tim_ex.c ****   * @param  htim TIM Hall Sensor Interface handle
 220:Drivers/STM32F1xx_HAL_Driver/Src/stm32f1xx_hal_tim_ex.c ****   * @retval HAL status
 221:Drivers/STM32F1xx_HAL_Driver/Src/stm32f1xx_hal_tim_ex.c ****   */
 222:Drivers/STM32F1xx_HAL_Driver/Src/stm32f1xx_hal_tim_ex.c **** HAL_StatusTypeDef HAL_TIMEx_HallSensor_DeInit(TIM_HandleTypeDef *htim)
 223:Drivers/STM32F1xx_HAL_Driver/Src/stm32f1xx_hal_tim_ex.c **** {
 224:Drivers/STM32F1xx_HAL_Driver/Src/stm32f1xx_hal_tim_ex.c ****   /* Check the parameters */
 225:Drivers/STM32F1xx_HAL_Driver/Src/stm32f1xx_hal_tim_ex.c ****   assert_param(IS_TIM_INSTANCE(htim->Instance));
 226:Drivers/STM32F1xx_HAL_Driver/Src/stm32f1xx_hal_tim_ex.c **** 
 227:Drivers/STM32F1xx_HAL_Driver/Src/stm32f1xx_hal_tim_ex.c ****   htim->State = HAL_TIM_STATE_BUSY;
 228:Drivers/STM32F1xx_HAL_Driver/Src/stm32f1xx_hal_tim_ex.c **** 
 229:Drivers/STM32F1xx_HAL_Driver/Src/stm32f1xx_hal_tim_ex.c ****   /* Disable the TIM Peripheral Clock */
 230:Drivers/STM32F1xx_HAL_Driver/Src/stm32f1xx_hal_tim_ex.c ****   __HAL_TIM_DISABLE(htim);
 231:Drivers/STM32F1xx_HAL_Driver/Src/stm32f1xx_hal_tim_ex.c **** 
 232:Drivers/STM32F1xx_HAL_Driver/Src/stm32f1xx_hal_tim_ex.c **** #if (USE_HAL_TIM_REGISTER_CALLBACKS == 1)
 233:Drivers/STM32F1xx_HAL_Driver/Src/stm32f1xx_hal_tim_ex.c ****   if (htim->HallSensor_MspDeInitCallback == NULL)
 234:Drivers/STM32F1xx_HAL_Driver/Src/stm32f1xx_hal_tim_ex.c ****   {
 235:Drivers/STM32F1xx_HAL_Driver/Src/stm32f1xx_hal_tim_ex.c ****     htim->HallSensor_MspDeInitCallback = HAL_TIMEx_HallSensor_MspDeInit;
 236:Drivers/STM32F1xx_HAL_Driver/Src/stm32f1xx_hal_tim_ex.c ****   }
 237:Drivers/STM32F1xx_HAL_Driver/Src/stm32f1xx_hal_tim_ex.c ****   /* DeInit the low level hardware */
 238:Drivers/STM32F1xx_HAL_Driver/Src/stm32f1xx_hal_tim_ex.c ****   htim->HallSensor_MspDeInitCallback(htim);
 239:Drivers/STM32F1xx_HAL_Driver/Src/stm32f1xx_hal_tim_ex.c **** #else
 240:Drivers/STM32F1xx_HAL_Driver/Src/stm32f1xx_hal_tim_ex.c ****   /* DeInit the low level hardware: GPIO, CLOCK, NVIC */
 241:Drivers/STM32F1xx_HAL_Driver/Src/stm32f1xx_hal_tim_ex.c ****   HAL_TIMEx_HallSensor_MspDeInit(htim);
 242:Drivers/STM32F1xx_HAL_Driver/Src/stm32f1xx_hal_tim_ex.c **** #endif /* USE_HAL_TIM_REGISTER_CALLBACKS */
 243:Drivers/STM32F1xx_HAL_Driver/Src/stm32f1xx_hal_tim_ex.c **** 
 244:Drivers/STM32F1xx_HAL_Driver/Src/stm32f1xx_hal_tim_ex.c ****   /* Change TIM state */
 245:Drivers/STM32F1xx_HAL_Driver/Src/stm32f1xx_hal_tim_ex.c ****   htim->State = HAL_TIM_STATE_RESET;
 246:Drivers/STM32F1xx_HAL_Driver/Src/stm32f1xx_hal_tim_ex.c **** 
 247:Drivers/STM32F1xx_HAL_Driver/Src/stm32f1xx_hal_tim_ex.c ****   /* Release Lock */
 248:Drivers/STM32F1xx_HAL_Driver/Src/stm32f1xx_hal_tim_ex.c ****   __HAL_UNLOCK(htim);
 249:Drivers/STM32F1xx_HAL_Driver/Src/stm32f1xx_hal_tim_ex.c **** 
 250:Drivers/STM32F1xx_HAL_Driver/Src/stm32f1xx_hal_tim_ex.c ****   return HAL_OK;
 251:Drivers/STM32F1xx_HAL_Driver/Src/stm32f1xx_hal_tim_ex.c **** }
 252:Drivers/STM32F1xx_HAL_Driver/Src/stm32f1xx_hal_tim_ex.c **** 
 253:Drivers/STM32F1xx_HAL_Driver/Src/stm32f1xx_hal_tim_ex.c **** /**
 254:Drivers/STM32F1xx_HAL_Driver/Src/stm32f1xx_hal_tim_ex.c ****   * @brief  Initializes the TIM Hall Sensor MSP.
 255:Drivers/STM32F1xx_HAL_Driver/Src/stm32f1xx_hal_tim_ex.c ****   * @param  htim TIM Hall Sensor Interface handle
 256:Drivers/STM32F1xx_HAL_Driver/Src/stm32f1xx_hal_tim_ex.c ****   * @retval None
 257:Drivers/STM32F1xx_HAL_Driver/Src/stm32f1xx_hal_tim_ex.c ****   */
 258:Drivers/STM32F1xx_HAL_Driver/Src/stm32f1xx_hal_tim_ex.c **** __weak void HAL_TIMEx_HallSensor_MspInit(TIM_HandleTypeDef *htim)
ARM GAS  /var/folders/20/cstyxln53wn53rr40gj353bh0000gn/T//ccV5XGPK.s 			page 6


 259:Drivers/STM32F1xx_HAL_Driver/Src/stm32f1xx_hal_tim_ex.c **** {
  29              		.loc 1 259 1 view -0
  30              		.cfi_startproc
  31              		@ args = 0, pretend = 0, frame = 0
  32              		@ frame_needed = 0, uses_anonymous_args = 0
  33              		@ link register save eliminated.
 260:Drivers/STM32F1xx_HAL_Driver/Src/stm32f1xx_hal_tim_ex.c ****   /* Prevent unused argument(s) compilation warning */
 261:Drivers/STM32F1xx_HAL_Driver/Src/stm32f1xx_hal_tim_ex.c ****   UNUSED(htim);
  34              		.loc 1 261 3 view .LVU1
 262:Drivers/STM32F1xx_HAL_Driver/Src/stm32f1xx_hal_tim_ex.c **** 
 263:Drivers/STM32F1xx_HAL_Driver/Src/stm32f1xx_hal_tim_ex.c ****   /* NOTE : This function should not be modified, when the callback is needed,
 264:Drivers/STM32F1xx_HAL_Driver/Src/stm32f1xx_hal_tim_ex.c ****             the HAL_TIMEx_HallSensor_MspInit could be implemented in the user file
 265:Drivers/STM32F1xx_HAL_Driver/Src/stm32f1xx_hal_tim_ex.c ****    */
 266:Drivers/STM32F1xx_HAL_Driver/Src/stm32f1xx_hal_tim_ex.c **** }
  35              		.loc 1 266 1 is_stmt 0 view .LVU2
  36 0000 7047     		bx	lr
  37              		.cfi_endproc
  38              	.LFE67:
  40 0002 00BF     		.section	.text.HAL_TIMEx_HallSensor_Init,"ax",%progbits
  41              		.align	1
  42              		.p2align 2,,3
  43              		.global	HAL_TIMEx_HallSensor_Init
  44              		.syntax unified
  45              		.thumb
  46              		.thumb_func
  47              		.fpu softvfp
  49              	HAL_TIMEx_HallSensor_Init:
  50              	.LVL1:
  51              	.LFB65:
 131:Drivers/STM32F1xx_HAL_Driver/Src/stm32f1xx_hal_tim_ex.c ****   TIM_OC_InitTypeDef OC_Config;
  52              		.loc 1 131 1 is_stmt 1 view -0
  53              		.cfi_startproc
  54              		@ args = 0, pretend = 0, frame = 32
  55              		@ frame_needed = 0, uses_anonymous_args = 0
 132:Drivers/STM32F1xx_HAL_Driver/Src/stm32f1xx_hal_tim_ex.c **** 
  56              		.loc 1 132 3 view .LVU4
 135:Drivers/STM32F1xx_HAL_Driver/Src/stm32f1xx_hal_tim_ex.c ****   {
  57              		.loc 1 135 3 view .LVU5
 135:Drivers/STM32F1xx_HAL_Driver/Src/stm32f1xx_hal_tim_ex.c ****   {
  58              		.loc 1 135 6 is_stmt 0 view .LVU6
  59 0000 0028     		cmp	r0, #0
  60 0002 56D0     		beq	.L6
 141:Drivers/STM32F1xx_HAL_Driver/Src/stm32f1xx_hal_tim_ex.c ****   assert_param(IS_TIM_COUNTER_MODE(htim->Init.CounterMode));
  61              		.loc 1 141 3 is_stmt 1 view .LVU7
 142:Drivers/STM32F1xx_HAL_Driver/Src/stm32f1xx_hal_tim_ex.c ****   assert_param(IS_TIM_CLOCKDIVISION_DIV(htim->Init.ClockDivision));
  62              		.loc 1 142 3 view .LVU8
 143:Drivers/STM32F1xx_HAL_Driver/Src/stm32f1xx_hal_tim_ex.c ****   assert_param(IS_TIM_AUTORELOAD_PRELOAD(htim->Init.AutoReloadPreload));
  63              		.loc 1 143 3 view .LVU9
 144:Drivers/STM32F1xx_HAL_Driver/Src/stm32f1xx_hal_tim_ex.c ****   assert_param(IS_TIM_IC_POLARITY(sConfig->IC1Polarity));
  64              		.loc 1 144 3 view .LVU10
 145:Drivers/STM32F1xx_HAL_Driver/Src/stm32f1xx_hal_tim_ex.c ****   assert_param(IS_TIM_IC_PRESCALER(sConfig->IC1Prescaler));
  65              		.loc 1 145 3 view .LVU11
 146:Drivers/STM32F1xx_HAL_Driver/Src/stm32f1xx_hal_tim_ex.c ****   assert_param(IS_TIM_IC_FILTER(sConfig->IC1Filter));
  66              		.loc 1 146 3 view .LVU12
 147:Drivers/STM32F1xx_HAL_Driver/Src/stm32f1xx_hal_tim_ex.c **** 
  67              		.loc 1 147 3 view .LVU13
 149:Drivers/STM32F1xx_HAL_Driver/Src/stm32f1xx_hal_tim_ex.c ****   {
ARM GAS  /var/folders/20/cstyxln53wn53rr40gj353bh0000gn/T//ccV5XGPK.s 			page 7


  68              		.loc 1 149 3 view .LVU14
 131:Drivers/STM32F1xx_HAL_Driver/Src/stm32f1xx_hal_tim_ex.c ****   TIM_OC_InitTypeDef OC_Config;
  69              		.loc 1 131 1 is_stmt 0 view .LVU15
  70 0004 F0B5     		push	{r4, r5, r6, r7, lr}
  71              	.LCFI0:
  72              		.cfi_def_cfa_offset 20
  73              		.cfi_offset 4, -20
  74              		.cfi_offset 5, -16
  75              		.cfi_offset 6, -12
  76              		.cfi_offset 7, -8
  77              		.cfi_offset 14, -4
 149:Drivers/STM32F1xx_HAL_Driver/Src/stm32f1xx_hal_tim_ex.c ****   {
  78              		.loc 1 149 11 view .LVU16
  79 0006 90F83D30 		ldrb	r3, [r0, #61]	@ zero_extendqisi2
 131:Drivers/STM32F1xx_HAL_Driver/Src/stm32f1xx_hal_tim_ex.c ****   TIM_OC_InitTypeDef OC_Config;
  80              		.loc 1 131 1 view .LVU17
  81 000a 89B0     		sub	sp, sp, #36
  82              	.LCFI1:
  83              		.cfi_def_cfa_offset 56
  84 000c 0446     		mov	r4, r0
  85 000e 0E46     		mov	r6, r1
 149:Drivers/STM32F1xx_HAL_Driver/Src/stm32f1xx_hal_tim_ex.c ****   {
  86              		.loc 1 149 6 view .LVU18
  87 0010 03F0FF02 		and	r2, r3, #255
  88 0014 002B     		cmp	r3, #0
  89 0016 47D0     		beq	.L11
  90              	.LVL2:
  91              	.L5:
 171:Drivers/STM32F1xx_HAL_Driver/Src/stm32f1xx_hal_tim_ex.c **** 
  92              		.loc 1 171 3 is_stmt 1 view .LVU19
 174:Drivers/STM32F1xx_HAL_Driver/Src/stm32f1xx_hal_tim_ex.c **** 
  93              		.loc 1 174 3 is_stmt 0 view .LVU20
  94 0018 2146     		mov	r1, r4
 171:Drivers/STM32F1xx_HAL_Driver/Src/stm32f1xx_hal_tim_ex.c **** 
  95              		.loc 1 171 15 view .LVU21
  96 001a 0223     		movs	r3, #2
 196:Drivers/STM32F1xx_HAL_Driver/Src/stm32f1xx_hal_tim_ex.c ****   OC_Config.OCIdleState = TIM_OCIDLESTATE_RESET;
  97              		.loc 1 196 24 view .LVU22
  98 001c 0025     		movs	r5, #0
 174:Drivers/STM32F1xx_HAL_Driver/Src/stm32f1xx_hal_tim_ex.c **** 
  99              		.loc 1 174 3 view .LVU23
 100 001e 51F8040B 		ldr	r0, [r1], #4
 198:Drivers/STM32F1xx_HAL_Driver/Src/stm32f1xx_hal_tim_ex.c ****   OC_Config.OCNIdleState = TIM_OCNIDLESTATE_RESET;
 101              		.loc 1 198 20 view .LVU24
 102 0022 7027     		movs	r7, #112
 171:Drivers/STM32F1xx_HAL_Driver/Src/stm32f1xx_hal_tim_ex.c **** 
 103              		.loc 1 171 15 view .LVU25
 104 0024 84F83D30 		strb	r3, [r4, #61]
 174:Drivers/STM32F1xx_HAL_Driver/Src/stm32f1xx_hal_tim_ex.c **** 
 105              		.loc 1 174 3 is_stmt 1 view .LVU26
 106 0028 FFF7FEFF 		bl	TIM_Base_SetConfig
 107              	.LVL3:
 177:Drivers/STM32F1xx_HAL_Driver/Src/stm32f1xx_hal_tim_ex.c **** 
 108              		.loc 1 177 3 view .LVU27
 109 002c B368     		ldr	r3, [r6, #8]
 110 002e 3168     		ldr	r1, [r6]
 111 0030 2068     		ldr	r0, [r4]
ARM GAS  /var/folders/20/cstyxln53wn53rr40gj353bh0000gn/T//ccV5XGPK.s 			page 8


 112 0032 0322     		movs	r2, #3
 113 0034 FFF7FEFF 		bl	TIM_TI1_SetConfig
 114              	.LVL4:
 180:Drivers/STM32F1xx_HAL_Driver/Src/stm32f1xx_hal_tim_ex.c ****   /* Set the IC1PSC value */
 115              		.loc 1 180 3 view .LVU28
 180:Drivers/STM32F1xx_HAL_Driver/Src/stm32f1xx_hal_tim_ex.c ****   /* Set the IC1PSC value */
 116              		.loc 1 180 7 is_stmt 0 view .LVU29
 117 0038 2368     		ldr	r3, [r4]
 182:Drivers/STM32F1xx_HAL_Driver/Src/stm32f1xx_hal_tim_ex.c **** 
 118              		.loc 1 182 25 view .LVU30
 119 003a 7068     		ldr	r0, [r6, #4]
 180:Drivers/STM32F1xx_HAL_Driver/Src/stm32f1xx_hal_tim_ex.c ****   /* Set the IC1PSC value */
 120              		.loc 1 180 25 view .LVU31
 121 003c 9969     		ldr	r1, [r3, #24]
 202:Drivers/STM32F1xx_HAL_Driver/Src/stm32f1xx_hal_tim_ex.c **** 
 122              		.loc 1 202 19 view .LVU32
 123 003e F668     		ldr	r6, [r6, #12]
 124              	.LVL5:
 180:Drivers/STM32F1xx_HAL_Driver/Src/stm32f1xx_hal_tim_ex.c ****   /* Set the IC1PSC value */
 125              		.loc 1 180 25 view .LVU33
 126 0040 21F00C01 		bic	r1, r1, #12
 127 0044 9961     		str	r1, [r3, #24]
 182:Drivers/STM32F1xx_HAL_Driver/Src/stm32f1xx_hal_tim_ex.c **** 
 128              		.loc 1 182 3 is_stmt 1 view .LVU34
 182:Drivers/STM32F1xx_HAL_Driver/Src/stm32f1xx_hal_tim_ex.c **** 
 129              		.loc 1 182 25 is_stmt 0 view .LVU35
 130 0046 9A69     		ldr	r2, [r3, #24]
 204:Drivers/STM32F1xx_HAL_Driver/Src/stm32f1xx_hal_tim_ex.c **** 
 131              		.loc 1 204 3 view .LVU36
 132 0048 01A9     		add	r1, sp, #4
 182:Drivers/STM32F1xx_HAL_Driver/Src/stm32f1xx_hal_tim_ex.c **** 
 133              		.loc 1 182 25 view .LVU37
 134 004a 0243     		orrs	r2, r2, r0
 135 004c 9A61     		str	r2, [r3, #24]
 185:Drivers/STM32F1xx_HAL_Driver/Src/stm32f1xx_hal_tim_ex.c **** 
 136              		.loc 1 185 3 is_stmt 1 view .LVU38
 185:Drivers/STM32F1xx_HAL_Driver/Src/stm32f1xx_hal_tim_ex.c **** 
 137              		.loc 1 185 23 is_stmt 0 view .LVU39
 138 004e 5A68     		ldr	r2, [r3, #4]
 204:Drivers/STM32F1xx_HAL_Driver/Src/stm32f1xx_hal_tim_ex.c **** 
 139              		.loc 1 204 3 view .LVU40
 140 0050 1846     		mov	r0, r3
 185:Drivers/STM32F1xx_HAL_Driver/Src/stm32f1xx_hal_tim_ex.c **** 
 141              		.loc 1 185 23 view .LVU41
 142 0052 42F08002 		orr	r2, r2, #128
 143 0056 5A60     		str	r2, [r3, #4]
 188:Drivers/STM32F1xx_HAL_Driver/Src/stm32f1xx_hal_tim_ex.c ****   htim->Instance->SMCR |= TIM_TS_TI1F_ED;
 144              		.loc 1 188 3 is_stmt 1 view .LVU42
 188:Drivers/STM32F1xx_HAL_Driver/Src/stm32f1xx_hal_tim_ex.c ****   htim->Instance->SMCR |= TIM_TS_TI1F_ED;
 145              		.loc 1 188 24 is_stmt 0 view .LVU43
 146 0058 9A68     		ldr	r2, [r3, #8]
 198:Drivers/STM32F1xx_HAL_Driver/Src/stm32f1xx_hal_tim_ex.c ****   OC_Config.OCNIdleState = TIM_OCNIDLESTATE_RESET;
 147              		.loc 1 198 20 view .LVU44
 148 005a 0197     		str	r7, [sp, #4]
 188:Drivers/STM32F1xx_HAL_Driver/Src/stm32f1xx_hal_tim_ex.c ****   htim->Instance->SMCR |= TIM_TS_TI1F_ED;
 149              		.loc 1 188 24 view .LVU45
 150 005c 22F07002 		bic	r2, r2, #112
ARM GAS  /var/folders/20/cstyxln53wn53rr40gj353bh0000gn/T//ccV5XGPK.s 			page 9


 151 0060 9A60     		str	r2, [r3, #8]
 189:Drivers/STM32F1xx_HAL_Driver/Src/stm32f1xx_hal_tim_ex.c **** 
 152              		.loc 1 189 3 is_stmt 1 view .LVU46
 189:Drivers/STM32F1xx_HAL_Driver/Src/stm32f1xx_hal_tim_ex.c **** 
 153              		.loc 1 189 24 is_stmt 0 view .LVU47
 154 0062 9A68     		ldr	r2, [r3, #8]
 202:Drivers/STM32F1xx_HAL_Driver/Src/stm32f1xx_hal_tim_ex.c **** 
 155              		.loc 1 202 19 view .LVU48
 156 0064 0296     		str	r6, [sp, #8]
 189:Drivers/STM32F1xx_HAL_Driver/Src/stm32f1xx_hal_tim_ex.c **** 
 157              		.loc 1 189 24 view .LVU49
 158 0066 42F04002 		orr	r2, r2, #64
 159 006a 9A60     		str	r2, [r3, #8]
 192:Drivers/STM32F1xx_HAL_Driver/Src/stm32f1xx_hal_tim_ex.c ****   htim->Instance->SMCR |= TIM_SLAVEMODE_RESET;
 160              		.loc 1 192 3 is_stmt 1 view .LVU50
 192:Drivers/STM32F1xx_HAL_Driver/Src/stm32f1xx_hal_tim_ex.c ****   htim->Instance->SMCR |= TIM_SLAVEMODE_RESET;
 161              		.loc 1 192 24 is_stmt 0 view .LVU51
 162 006c 9A68     		ldr	r2, [r3, #8]
 163 006e 22F00702 		bic	r2, r2, #7
 164 0072 9A60     		str	r2, [r3, #8]
 193:Drivers/STM32F1xx_HAL_Driver/Src/stm32f1xx_hal_tim_ex.c **** 
 165              		.loc 1 193 3 is_stmt 1 view .LVU52
 193:Drivers/STM32F1xx_HAL_Driver/Src/stm32f1xx_hal_tim_ex.c **** 
 166              		.loc 1 193 24 is_stmt 0 view .LVU53
 167 0074 9A68     		ldr	r2, [r3, #8]
 168 0076 42F00402 		orr	r2, r2, #4
 169 007a 9A60     		str	r2, [r3, #8]
 196:Drivers/STM32F1xx_HAL_Driver/Src/stm32f1xx_hal_tim_ex.c ****   OC_Config.OCIdleState = TIM_OCIDLESTATE_RESET;
 170              		.loc 1 196 3 is_stmt 1 view .LVU54
 197:Drivers/STM32F1xx_HAL_Driver/Src/stm32f1xx_hal_tim_ex.c ****   OC_Config.OCMode = TIM_OCMODE_PWM2;
 171              		.loc 1 197 25 is_stmt 0 view .LVU55
 172 007c CDE90555 		strd	r5, r5, [sp, #20]
 198:Drivers/STM32F1xx_HAL_Driver/Src/stm32f1xx_hal_tim_ex.c ****   OC_Config.OCNIdleState = TIM_OCNIDLESTATE_RESET;
 173              		.loc 1 198 3 is_stmt 1 view .LVU56
 199:Drivers/STM32F1xx_HAL_Driver/Src/stm32f1xx_hal_tim_ex.c ****   OC_Config.OCNPolarity = TIM_OCNPOLARITY_HIGH;
 174              		.loc 1 199 3 view .LVU57
 199:Drivers/STM32F1xx_HAL_Driver/Src/stm32f1xx_hal_tim_ex.c ****   OC_Config.OCNPolarity = TIM_OCNPOLARITY_HIGH;
 175              		.loc 1 199 26 is_stmt 0 view .LVU58
 176 0080 0795     		str	r5, [sp, #28]
 200:Drivers/STM32F1xx_HAL_Driver/Src/stm32f1xx_hal_tim_ex.c ****   OC_Config.OCPolarity = TIM_OCPOLARITY_HIGH;
 177              		.loc 1 200 3 is_stmt 1 view .LVU59
 201:Drivers/STM32F1xx_HAL_Driver/Src/stm32f1xx_hal_tim_ex.c ****   OC_Config.Pulse = sConfig->Commutation_Delay;
 178              		.loc 1 201 24 is_stmt 0 view .LVU60
 179 0082 CDE90355 		strd	r5, r5, [sp, #12]
 202:Drivers/STM32F1xx_HAL_Driver/Src/stm32f1xx_hal_tim_ex.c **** 
 180              		.loc 1 202 3 is_stmt 1 view .LVU61
 204:Drivers/STM32F1xx_HAL_Driver/Src/stm32f1xx_hal_tim_ex.c **** 
 181              		.loc 1 204 3 view .LVU62
 182 0086 FFF7FEFF 		bl	TIM_OC2_SetConfig
 183              	.LVL6:
 208:Drivers/STM32F1xx_HAL_Driver/Src/stm32f1xx_hal_tim_ex.c ****   htim->Instance->CR2 |= TIM_TRGO_OC2REF;
 184              		.loc 1 208 3 view .LVU63
 212:Drivers/STM32F1xx_HAL_Driver/Src/stm32f1xx_hal_tim_ex.c **** 
 185              		.loc 1 212 15 is_stmt 0 view .LVU64
 186 008a 0121     		movs	r1, #1
 214:Drivers/STM32F1xx_HAL_Driver/Src/stm32f1xx_hal_tim_ex.c **** }
 187              		.loc 1 214 10 view .LVU65
ARM GAS  /var/folders/20/cstyxln53wn53rr40gj353bh0000gn/T//ccV5XGPK.s 			page 10


 188 008c 2846     		mov	r0, r5
 208:Drivers/STM32F1xx_HAL_Driver/Src/stm32f1xx_hal_tim_ex.c ****   htim->Instance->CR2 |= TIM_TRGO_OC2REF;
 189              		.loc 1 208 7 view .LVU66
 190 008e 2368     		ldr	r3, [r4]
 208:Drivers/STM32F1xx_HAL_Driver/Src/stm32f1xx_hal_tim_ex.c ****   htim->Instance->CR2 |= TIM_TRGO_OC2REF;
 191              		.loc 1 208 23 view .LVU67
 192 0090 5A68     		ldr	r2, [r3, #4]
 193 0092 22F07002 		bic	r2, r2, #112
 194 0096 5A60     		str	r2, [r3, #4]
 209:Drivers/STM32F1xx_HAL_Driver/Src/stm32f1xx_hal_tim_ex.c **** 
 195              		.loc 1 209 3 is_stmt 1 view .LVU68
 209:Drivers/STM32F1xx_HAL_Driver/Src/stm32f1xx_hal_tim_ex.c **** 
 196              		.loc 1 209 23 is_stmt 0 view .LVU69
 197 0098 5A68     		ldr	r2, [r3, #4]
 198 009a 42F05002 		orr	r2, r2, #80
 199 009e 5A60     		str	r2, [r3, #4]
 212:Drivers/STM32F1xx_HAL_Driver/Src/stm32f1xx_hal_tim_ex.c **** 
 200              		.loc 1 212 3 is_stmt 1 view .LVU70
 212:Drivers/STM32F1xx_HAL_Driver/Src/stm32f1xx_hal_tim_ex.c **** 
 201              		.loc 1 212 15 is_stmt 0 view .LVU71
 202 00a0 84F83D10 		strb	r1, [r4, #61]
 214:Drivers/STM32F1xx_HAL_Driver/Src/stm32f1xx_hal_tim_ex.c **** }
 203              		.loc 1 214 3 is_stmt 1 view .LVU72
 215:Drivers/STM32F1xx_HAL_Driver/Src/stm32f1xx_hal_tim_ex.c **** 
 204              		.loc 1 215 1 is_stmt 0 view .LVU73
 205 00a4 09B0     		add	sp, sp, #36
 206              	.LCFI2:
 207              		.cfi_remember_state
 208              		.cfi_def_cfa_offset 20
 209              		@ sp needed
 210 00a6 F0BD     		pop	{r4, r5, r6, r7, pc}
 211              	.LVL7:
 212              	.L11:
 213              	.LCFI3:
 214              		.cfi_restore_state
 152:Drivers/STM32F1xx_HAL_Driver/Src/stm32f1xx_hal_tim_ex.c **** 
 215              		.loc 1 152 5 is_stmt 1 view .LVU74
 152:Drivers/STM32F1xx_HAL_Driver/Src/stm32f1xx_hal_tim_ex.c **** 
 216              		.loc 1 152 16 is_stmt 0 view .LVU75
 217 00a8 80F83C20 		strb	r2, [r0, #60]
 166:Drivers/STM32F1xx_HAL_Driver/Src/stm32f1xx_hal_tim_ex.c **** #endif /* USE_HAL_TIM_REGISTER_CALLBACKS */
 218              		.loc 1 166 5 is_stmt 1 view .LVU76
 219 00ac FFF7FEFF 		bl	HAL_TIMEx_HallSensor_MspInit
 220              	.LVL8:
 166:Drivers/STM32F1xx_HAL_Driver/Src/stm32f1xx_hal_tim_ex.c **** #endif /* USE_HAL_TIM_REGISTER_CALLBACKS */
 221              		.loc 1 166 5 is_stmt 0 view .LVU77
 222 00b0 B2E7     		b	.L5
 223              	.LVL9:
 224              	.L6:
 225              	.LCFI4:
 226              		.cfi_def_cfa_offset 0
 227              		.cfi_restore 4
 228              		.cfi_restore 5
 229              		.cfi_restore 6
 230              		.cfi_restore 7
 231              		.cfi_restore 14
 137:Drivers/STM32F1xx_HAL_Driver/Src/stm32f1xx_hal_tim_ex.c ****   }
ARM GAS  /var/folders/20/cstyxln53wn53rr40gj353bh0000gn/T//ccV5XGPK.s 			page 11


 232              		.loc 1 137 12 view .LVU78
 233 00b2 0120     		movs	r0, #1
 234              	.LVL10:
 215:Drivers/STM32F1xx_HAL_Driver/Src/stm32f1xx_hal_tim_ex.c **** 
 235              		.loc 1 215 1 view .LVU79
 236 00b4 7047     		bx	lr
 237              		.cfi_endproc
 238              	.LFE65:
 240 00b6 00BF     		.section	.text.HAL_TIMEx_HallSensor_MspDeInit,"ax",%progbits
 241              		.align	1
 242              		.p2align 2,,3
 243              		.weak	HAL_TIMEx_HallSensor_MspDeInit
 244              		.syntax unified
 245              		.thumb
 246              		.thumb_func
 247              		.fpu softvfp
 249              	HAL_TIMEx_HallSensor_MspDeInit:
 250              	.LFB105:
 251              		.cfi_startproc
 252              		@ args = 0, pretend = 0, frame = 0
 253              		@ frame_needed = 0, uses_anonymous_args = 0
 254              		@ link register save eliminated.
 255 0000 7047     		bx	lr
 256              		.cfi_endproc
 257              	.LFE105:
 259 0002 00BF     		.section	.text.HAL_TIMEx_HallSensor_DeInit,"ax",%progbits
 260              		.align	1
 261              		.p2align 2,,3
 262              		.global	HAL_TIMEx_HallSensor_DeInit
 263              		.syntax unified
 264              		.thumb
 265              		.thumb_func
 266              		.fpu softvfp
 268              	HAL_TIMEx_HallSensor_DeInit:
 269              	.LVL11:
 270              	.LFB66:
 223:Drivers/STM32F1xx_HAL_Driver/Src/stm32f1xx_hal_tim_ex.c ****   /* Check the parameters */
 271              		.loc 1 223 1 is_stmt 1 view -0
 272              		.cfi_startproc
 273              		@ args = 0, pretend = 0, frame = 0
 274              		@ frame_needed = 0, uses_anonymous_args = 0
 225:Drivers/STM32F1xx_HAL_Driver/Src/stm32f1xx_hal_tim_ex.c **** 
 275              		.loc 1 225 3 view .LVU81
 227:Drivers/STM32F1xx_HAL_Driver/Src/stm32f1xx_hal_tim_ex.c **** 
 276              		.loc 1 227 3 view .LVU82
 227:Drivers/STM32F1xx_HAL_Driver/Src/stm32f1xx_hal_tim_ex.c **** 
 277              		.loc 1 227 15 is_stmt 0 view .LVU83
 278 0000 0221     		movs	r1, #2
 230:Drivers/STM32F1xx_HAL_Driver/Src/stm32f1xx_hal_tim_ex.c **** 
 279              		.loc 1 230 3 view .LVU84
 280 0002 41F21112 		movw	r2, #4369
 281 0006 0368     		ldr	r3, [r0]
 223:Drivers/STM32F1xx_HAL_Driver/Src/stm32f1xx_hal_tim_ex.c ****   /* Check the parameters */
 282              		.loc 1 223 1 view .LVU85
 283 0008 10B5     		push	{r4, lr}
 284              	.LCFI5:
 285              		.cfi_def_cfa_offset 8
ARM GAS  /var/folders/20/cstyxln53wn53rr40gj353bh0000gn/T//ccV5XGPK.s 			page 12


 286              		.cfi_offset 4, -8
 287              		.cfi_offset 14, -4
 227:Drivers/STM32F1xx_HAL_Driver/Src/stm32f1xx_hal_tim_ex.c **** 
 288              		.loc 1 227 15 view .LVU86
 289 000a 80F83D10 		strb	r1, [r0, #61]
 230:Drivers/STM32F1xx_HAL_Driver/Src/stm32f1xx_hal_tim_ex.c **** 
 290              		.loc 1 230 3 is_stmt 1 view .LVU87
 230:Drivers/STM32F1xx_HAL_Driver/Src/stm32f1xx_hal_tim_ex.c **** 
 291              		.loc 1 230 3 view .LVU88
 292 000e 196A     		ldr	r1, [r3, #32]
 223:Drivers/STM32F1xx_HAL_Driver/Src/stm32f1xx_hal_tim_ex.c ****   /* Check the parameters */
 293              		.loc 1 223 1 is_stmt 0 view .LVU89
 294 0010 0446     		mov	r4, r0
 230:Drivers/STM32F1xx_HAL_Driver/Src/stm32f1xx_hal_tim_ex.c **** 
 295              		.loc 1 230 3 view .LVU90
 296 0012 1142     		tst	r1, r2
 297 0014 08D1     		bne	.L14
 230:Drivers/STM32F1xx_HAL_Driver/Src/stm32f1xx_hal_tim_ex.c **** 
 298              		.loc 1 230 3 is_stmt 1 discriminator 1 view .LVU91
 299 0016 40F24442 		movw	r2, #1092
 300 001a 196A     		ldr	r1, [r3, #32]
 301 001c 1142     		tst	r1, r2
 302 001e 03D1     		bne	.L14
 230:Drivers/STM32F1xx_HAL_Driver/Src/stm32f1xx_hal_tim_ex.c **** 
 303              		.loc 1 230 3 discriminator 2 view .LVU92
 304 0020 1A68     		ldr	r2, [r3]
 305 0022 22F00102 		bic	r2, r2, #1
 306 0026 1A60     		str	r2, [r3]
 307              	.L14:
 241:Drivers/STM32F1xx_HAL_Driver/Src/stm32f1xx_hal_tim_ex.c **** #endif /* USE_HAL_TIM_REGISTER_CALLBACKS */
 308              		.loc 1 241 3 view .LVU93
 309 0028 2046     		mov	r0, r4
 310              	.LVL12:
 241:Drivers/STM32F1xx_HAL_Driver/Src/stm32f1xx_hal_tim_ex.c **** #endif /* USE_HAL_TIM_REGISTER_CALLBACKS */
 311              		.loc 1 241 3 is_stmt 0 view .LVU94
 312 002a FFF7FEFF 		bl	HAL_TIMEx_HallSensor_MspDeInit
 313              	.LVL13:
 245:Drivers/STM32F1xx_HAL_Driver/Src/stm32f1xx_hal_tim_ex.c **** 
 314              		.loc 1 245 3 is_stmt 1 view .LVU95
 245:Drivers/STM32F1xx_HAL_Driver/Src/stm32f1xx_hal_tim_ex.c **** 
 315              		.loc 1 245 15 is_stmt 0 view .LVU96
 316 002e 0020     		movs	r0, #0
 317 0030 84F83D00 		strb	r0, [r4, #61]
 248:Drivers/STM32F1xx_HAL_Driver/Src/stm32f1xx_hal_tim_ex.c **** 
 318              		.loc 1 248 3 is_stmt 1 view .LVU97
 248:Drivers/STM32F1xx_HAL_Driver/Src/stm32f1xx_hal_tim_ex.c **** 
 319              		.loc 1 248 3 view .LVU98
 320 0034 84F83C00 		strb	r0, [r4, #60]
 250:Drivers/STM32F1xx_HAL_Driver/Src/stm32f1xx_hal_tim_ex.c **** }
 321              		.loc 1 250 3 view .LVU99
 251:Drivers/STM32F1xx_HAL_Driver/Src/stm32f1xx_hal_tim_ex.c **** 
 322              		.loc 1 251 1 is_stmt 0 view .LVU100
 323 0038 10BD     		pop	{r4, pc}
 251:Drivers/STM32F1xx_HAL_Driver/Src/stm32f1xx_hal_tim_ex.c **** 
 324              		.loc 1 251 1 view .LVU101
 325              		.cfi_endproc
 326              	.LFE66:
ARM GAS  /var/folders/20/cstyxln53wn53rr40gj353bh0000gn/T//ccV5XGPK.s 			page 13


 328 003a 00BF     		.section	.text.HAL_TIMEx_HallSensor_Start,"ax",%progbits
 329              		.align	1
 330              		.p2align 2,,3
 331              		.global	HAL_TIMEx_HallSensor_Start
 332              		.syntax unified
 333              		.thumb
 334              		.thumb_func
 335              		.fpu softvfp
 337              	HAL_TIMEx_HallSensor_Start:
 338              	.LVL14:
 339              	.LFB69:
 267:Drivers/STM32F1xx_HAL_Driver/Src/stm32f1xx_hal_tim_ex.c **** 
 268:Drivers/STM32F1xx_HAL_Driver/Src/stm32f1xx_hal_tim_ex.c **** /**
 269:Drivers/STM32F1xx_HAL_Driver/Src/stm32f1xx_hal_tim_ex.c ****   * @brief  DeInitializes TIM Hall Sensor MSP.
 270:Drivers/STM32F1xx_HAL_Driver/Src/stm32f1xx_hal_tim_ex.c ****   * @param  htim TIM Hall Sensor Interface handle
 271:Drivers/STM32F1xx_HAL_Driver/Src/stm32f1xx_hal_tim_ex.c ****   * @retval None
 272:Drivers/STM32F1xx_HAL_Driver/Src/stm32f1xx_hal_tim_ex.c ****   */
 273:Drivers/STM32F1xx_HAL_Driver/Src/stm32f1xx_hal_tim_ex.c **** __weak void HAL_TIMEx_HallSensor_MspDeInit(TIM_HandleTypeDef *htim)
 274:Drivers/STM32F1xx_HAL_Driver/Src/stm32f1xx_hal_tim_ex.c **** {
 275:Drivers/STM32F1xx_HAL_Driver/Src/stm32f1xx_hal_tim_ex.c ****   /* Prevent unused argument(s) compilation warning */
 276:Drivers/STM32F1xx_HAL_Driver/Src/stm32f1xx_hal_tim_ex.c ****   UNUSED(htim);
 277:Drivers/STM32F1xx_HAL_Driver/Src/stm32f1xx_hal_tim_ex.c **** 
 278:Drivers/STM32F1xx_HAL_Driver/Src/stm32f1xx_hal_tim_ex.c ****   /* NOTE : This function should not be modified, when the callback is needed,
 279:Drivers/STM32F1xx_HAL_Driver/Src/stm32f1xx_hal_tim_ex.c ****             the HAL_TIMEx_HallSensor_MspDeInit could be implemented in the user file
 280:Drivers/STM32F1xx_HAL_Driver/Src/stm32f1xx_hal_tim_ex.c ****    */
 281:Drivers/STM32F1xx_HAL_Driver/Src/stm32f1xx_hal_tim_ex.c **** }
 282:Drivers/STM32F1xx_HAL_Driver/Src/stm32f1xx_hal_tim_ex.c **** 
 283:Drivers/STM32F1xx_HAL_Driver/Src/stm32f1xx_hal_tim_ex.c **** /**
 284:Drivers/STM32F1xx_HAL_Driver/Src/stm32f1xx_hal_tim_ex.c ****   * @brief  Starts the TIM Hall Sensor Interface.
 285:Drivers/STM32F1xx_HAL_Driver/Src/stm32f1xx_hal_tim_ex.c ****   * @param  htim TIM Hall Sensor Interface handle
 286:Drivers/STM32F1xx_HAL_Driver/Src/stm32f1xx_hal_tim_ex.c ****   * @retval HAL status
 287:Drivers/STM32F1xx_HAL_Driver/Src/stm32f1xx_hal_tim_ex.c ****   */
 288:Drivers/STM32F1xx_HAL_Driver/Src/stm32f1xx_hal_tim_ex.c **** HAL_StatusTypeDef HAL_TIMEx_HallSensor_Start(TIM_HandleTypeDef *htim)
 289:Drivers/STM32F1xx_HAL_Driver/Src/stm32f1xx_hal_tim_ex.c **** {
 340              		.loc 1 289 1 is_stmt 1 view -0
 341              		.cfi_startproc
 342              		@ args = 0, pretend = 0, frame = 0
 343              		@ frame_needed = 0, uses_anonymous_args = 0
 290:Drivers/STM32F1xx_HAL_Driver/Src/stm32f1xx_hal_tim_ex.c ****   uint32_t tmpsmcr;
 344              		.loc 1 290 3 view .LVU103
 291:Drivers/STM32F1xx_HAL_Driver/Src/stm32f1xx_hal_tim_ex.c **** 
 292:Drivers/STM32F1xx_HAL_Driver/Src/stm32f1xx_hal_tim_ex.c ****   /* Check the parameters */
 293:Drivers/STM32F1xx_HAL_Driver/Src/stm32f1xx_hal_tim_ex.c ****   assert_param(IS_TIM_HALL_SENSOR_INTERFACE_INSTANCE(htim->Instance));
 345              		.loc 1 293 3 view .LVU104
 294:Drivers/STM32F1xx_HAL_Driver/Src/stm32f1xx_hal_tim_ex.c **** 
 295:Drivers/STM32F1xx_HAL_Driver/Src/stm32f1xx_hal_tim_ex.c ****   /* Enable the Input Capture channel 1
 296:Drivers/STM32F1xx_HAL_Driver/Src/stm32f1xx_hal_tim_ex.c ****     (in the Hall Sensor Interface the three possible channels that can be used are TIM_CHANNEL_1, T
 297:Drivers/STM32F1xx_HAL_Driver/Src/stm32f1xx_hal_tim_ex.c ****   TIM_CCxChannelCmd(htim->Instance, TIM_CHANNEL_1, TIM_CCx_ENABLE);
 346              		.loc 1 297 3 view .LVU105
 289:Drivers/STM32F1xx_HAL_Driver/Src/stm32f1xx_hal_tim_ex.c ****   uint32_t tmpsmcr;
 347              		.loc 1 289 1 is_stmt 0 view .LVU106
 348 0000 10B5     		push	{r4, lr}
 349              	.LCFI6:
 350              		.cfi_def_cfa_offset 8
 351              		.cfi_offset 4, -8
 352              		.cfi_offset 14, -4
 289:Drivers/STM32F1xx_HAL_Driver/Src/stm32f1xx_hal_tim_ex.c ****   uint32_t tmpsmcr;
ARM GAS  /var/folders/20/cstyxln53wn53rr40gj353bh0000gn/T//ccV5XGPK.s 			page 14


 353              		.loc 1 289 1 view .LVU107
 354 0002 0446     		mov	r4, r0
 355              		.loc 1 297 3 view .LVU108
 356 0004 0122     		movs	r2, #1
 357 0006 0068     		ldr	r0, [r0]
 358              	.LVL15:
 359              		.loc 1 297 3 view .LVU109
 360 0008 0021     		movs	r1, #0
 361 000a FFF7FEFF 		bl	TIM_CCxChannelCmd
 362              	.LVL16:
 298:Drivers/STM32F1xx_HAL_Driver/Src/stm32f1xx_hal_tim_ex.c **** 
 299:Drivers/STM32F1xx_HAL_Driver/Src/stm32f1xx_hal_tim_ex.c ****   /* Enable the Peripheral, except in trigger mode where enable is automatically done with trigger 
 300:Drivers/STM32F1xx_HAL_Driver/Src/stm32f1xx_hal_tim_ex.c ****   tmpsmcr = htim->Instance->SMCR & TIM_SMCR_SMS;
 363              		.loc 1 300 3 is_stmt 1 view .LVU110
 364              		.loc 1 300 17 is_stmt 0 view .LVU111
 365 000e 2268     		ldr	r2, [r4]
 366              		.loc 1 300 27 view .LVU112
 367 0010 9368     		ldr	r3, [r2, #8]
 368              	.LVL17:
 301:Drivers/STM32F1xx_HAL_Driver/Src/stm32f1xx_hal_tim_ex.c ****   if (!IS_TIM_SLAVEMODE_TRIGGER_ENABLED(tmpsmcr))
 369              		.loc 1 301 3 is_stmt 1 view .LVU113
 300:Drivers/STM32F1xx_HAL_Driver/Src/stm32f1xx_hal_tim_ex.c ****   if (!IS_TIM_SLAVEMODE_TRIGGER_ENABLED(tmpsmcr))
 370              		.loc 1 300 11 is_stmt 0 view .LVU114
 371 0012 03F00703 		and	r3, r3, #7
 372              	.LVL18:
 373              		.loc 1 301 6 view .LVU115
 374 0016 062B     		cmp	r3, #6
 375 0018 03D0     		beq	.L17
 302:Drivers/STM32F1xx_HAL_Driver/Src/stm32f1xx_hal_tim_ex.c ****   {
 303:Drivers/STM32F1xx_HAL_Driver/Src/stm32f1xx_hal_tim_ex.c ****     __HAL_TIM_ENABLE(htim);
 376              		.loc 1 303 5 is_stmt 1 view .LVU116
 377 001a 1368     		ldr	r3, [r2]
 378              	.LVL19:
 379              		.loc 1 303 5 is_stmt 0 view .LVU117
 380 001c 43F00103 		orr	r3, r3, #1
 381 0020 1360     		str	r3, [r2]
 382              	.L17:
 304:Drivers/STM32F1xx_HAL_Driver/Src/stm32f1xx_hal_tim_ex.c ****   }
 305:Drivers/STM32F1xx_HAL_Driver/Src/stm32f1xx_hal_tim_ex.c **** 
 306:Drivers/STM32F1xx_HAL_Driver/Src/stm32f1xx_hal_tim_ex.c ****   /* Return function status */
 307:Drivers/STM32F1xx_HAL_Driver/Src/stm32f1xx_hal_tim_ex.c ****   return HAL_OK;
 383              		.loc 1 307 3 is_stmt 1 view .LVU118
 308:Drivers/STM32F1xx_HAL_Driver/Src/stm32f1xx_hal_tim_ex.c **** }
 384              		.loc 1 308 1 is_stmt 0 view .LVU119
 385 0022 0020     		movs	r0, #0
 386 0024 10BD     		pop	{r4, pc}
 387              		.loc 1 308 1 view .LVU120
 388              		.cfi_endproc
 389              	.LFE69:
 391 0026 00BF     		.section	.text.HAL_TIMEx_HallSensor_Stop,"ax",%progbits
 392              		.align	1
 393              		.p2align 2,,3
 394              		.global	HAL_TIMEx_HallSensor_Stop
 395              		.syntax unified
 396              		.thumb
 397              		.thumb_func
 398              		.fpu softvfp
ARM GAS  /var/folders/20/cstyxln53wn53rr40gj353bh0000gn/T//ccV5XGPK.s 			page 15


 400              	HAL_TIMEx_HallSensor_Stop:
 401              	.LVL20:
 402              	.LFB70:
 309:Drivers/STM32F1xx_HAL_Driver/Src/stm32f1xx_hal_tim_ex.c **** 
 310:Drivers/STM32F1xx_HAL_Driver/Src/stm32f1xx_hal_tim_ex.c **** /**
 311:Drivers/STM32F1xx_HAL_Driver/Src/stm32f1xx_hal_tim_ex.c ****   * @brief  Stops the TIM Hall sensor Interface.
 312:Drivers/STM32F1xx_HAL_Driver/Src/stm32f1xx_hal_tim_ex.c ****   * @param  htim TIM Hall Sensor Interface handle
 313:Drivers/STM32F1xx_HAL_Driver/Src/stm32f1xx_hal_tim_ex.c ****   * @retval HAL status
 314:Drivers/STM32F1xx_HAL_Driver/Src/stm32f1xx_hal_tim_ex.c ****   */
 315:Drivers/STM32F1xx_HAL_Driver/Src/stm32f1xx_hal_tim_ex.c **** HAL_StatusTypeDef HAL_TIMEx_HallSensor_Stop(TIM_HandleTypeDef *htim)
 316:Drivers/STM32F1xx_HAL_Driver/Src/stm32f1xx_hal_tim_ex.c **** {
 403              		.loc 1 316 1 is_stmt 1 view -0
 404              		.cfi_startproc
 405              		@ args = 0, pretend = 0, frame = 0
 406              		@ frame_needed = 0, uses_anonymous_args = 0
 317:Drivers/STM32F1xx_HAL_Driver/Src/stm32f1xx_hal_tim_ex.c ****   /* Check the parameters */
 318:Drivers/STM32F1xx_HAL_Driver/Src/stm32f1xx_hal_tim_ex.c ****   assert_param(IS_TIM_HALL_SENSOR_INTERFACE_INSTANCE(htim->Instance));
 407              		.loc 1 318 3 view .LVU122
 319:Drivers/STM32F1xx_HAL_Driver/Src/stm32f1xx_hal_tim_ex.c **** 
 320:Drivers/STM32F1xx_HAL_Driver/Src/stm32f1xx_hal_tim_ex.c ****   /* Disable the Input Capture channels 1, 2 and 3
 321:Drivers/STM32F1xx_HAL_Driver/Src/stm32f1xx_hal_tim_ex.c ****     (in the Hall Sensor Interface the three possible channels that can be used are TIM_CHANNEL_1, T
 322:Drivers/STM32F1xx_HAL_Driver/Src/stm32f1xx_hal_tim_ex.c ****   TIM_CCxChannelCmd(htim->Instance, TIM_CHANNEL_1, TIM_CCx_DISABLE);
 408              		.loc 1 322 3 view .LVU123
 409 0000 0022     		movs	r2, #0
 316:Drivers/STM32F1xx_HAL_Driver/Src/stm32f1xx_hal_tim_ex.c ****   /* Check the parameters */
 410              		.loc 1 316 1 is_stmt 0 view .LVU124
 411 0002 10B5     		push	{r4, lr}
 412              	.LCFI7:
 413              		.cfi_def_cfa_offset 8
 414              		.cfi_offset 4, -8
 415              		.cfi_offset 14, -4
 316:Drivers/STM32F1xx_HAL_Driver/Src/stm32f1xx_hal_tim_ex.c ****   /* Check the parameters */
 416              		.loc 1 316 1 view .LVU125
 417 0004 0446     		mov	r4, r0
 418              		.loc 1 322 3 view .LVU126
 419 0006 1146     		mov	r1, r2
 420 0008 0068     		ldr	r0, [r0]
 421              	.LVL21:
 422              		.loc 1 322 3 view .LVU127
 423 000a FFF7FEFF 		bl	TIM_CCxChannelCmd
 424              	.LVL22:
 323:Drivers/STM32F1xx_HAL_Driver/Src/stm32f1xx_hal_tim_ex.c **** 
 324:Drivers/STM32F1xx_HAL_Driver/Src/stm32f1xx_hal_tim_ex.c ****   /* Disable the Peripheral */
 325:Drivers/STM32F1xx_HAL_Driver/Src/stm32f1xx_hal_tim_ex.c ****   __HAL_TIM_DISABLE(htim);
 425              		.loc 1 325 3 is_stmt 1 view .LVU128
 426              		.loc 1 325 3 view .LVU129
 427 000e 41F21112 		movw	r2, #4369
 428 0012 2368     		ldr	r3, [r4]
 429 0014 196A     		ldr	r1, [r3, #32]
 430 0016 1142     		tst	r1, r2
 431 0018 08D1     		bne	.L23
 432              		.loc 1 325 3 discriminator 1 view .LVU130
 433 001a 40F24442 		movw	r2, #1092
 434 001e 196A     		ldr	r1, [r3, #32]
 435 0020 1142     		tst	r1, r2
 436 0022 03D1     		bne	.L23
 437              		.loc 1 325 3 discriminator 2 view .LVU131
ARM GAS  /var/folders/20/cstyxln53wn53rr40gj353bh0000gn/T//ccV5XGPK.s 			page 16


 438 0024 1A68     		ldr	r2, [r3]
 439 0026 22F00102 		bic	r2, r2, #1
 440 002a 1A60     		str	r2, [r3]
 441              	.L23:
 326:Drivers/STM32F1xx_HAL_Driver/Src/stm32f1xx_hal_tim_ex.c **** 
 327:Drivers/STM32F1xx_HAL_Driver/Src/stm32f1xx_hal_tim_ex.c ****   /* Return function status */
 328:Drivers/STM32F1xx_HAL_Driver/Src/stm32f1xx_hal_tim_ex.c ****   return HAL_OK;
 442              		.loc 1 328 3 view .LVU132
 329:Drivers/STM32F1xx_HAL_Driver/Src/stm32f1xx_hal_tim_ex.c **** }
 443              		.loc 1 329 1 is_stmt 0 view .LVU133
 444 002c 0020     		movs	r0, #0
 445 002e 10BD     		pop	{r4, pc}
 446              		.loc 1 329 1 view .LVU134
 447              		.cfi_endproc
 448              	.LFE70:
 450              		.section	.text.HAL_TIMEx_HallSensor_Start_IT,"ax",%progbits
 451              		.align	1
 452              		.p2align 2,,3
 453              		.global	HAL_TIMEx_HallSensor_Start_IT
 454              		.syntax unified
 455              		.thumb
 456              		.thumb_func
 457              		.fpu softvfp
 459              	HAL_TIMEx_HallSensor_Start_IT:
 460              	.LVL23:
 461              	.LFB71:
 330:Drivers/STM32F1xx_HAL_Driver/Src/stm32f1xx_hal_tim_ex.c **** 
 331:Drivers/STM32F1xx_HAL_Driver/Src/stm32f1xx_hal_tim_ex.c **** /**
 332:Drivers/STM32F1xx_HAL_Driver/Src/stm32f1xx_hal_tim_ex.c ****   * @brief  Starts the TIM Hall Sensor Interface in interrupt mode.
 333:Drivers/STM32F1xx_HAL_Driver/Src/stm32f1xx_hal_tim_ex.c ****   * @param  htim TIM Hall Sensor Interface handle
 334:Drivers/STM32F1xx_HAL_Driver/Src/stm32f1xx_hal_tim_ex.c ****   * @retval HAL status
 335:Drivers/STM32F1xx_HAL_Driver/Src/stm32f1xx_hal_tim_ex.c ****   */
 336:Drivers/STM32F1xx_HAL_Driver/Src/stm32f1xx_hal_tim_ex.c **** HAL_StatusTypeDef HAL_TIMEx_HallSensor_Start_IT(TIM_HandleTypeDef *htim)
 337:Drivers/STM32F1xx_HAL_Driver/Src/stm32f1xx_hal_tim_ex.c **** {
 462              		.loc 1 337 1 is_stmt 1 view -0
 463              		.cfi_startproc
 464              		@ args = 0, pretend = 0, frame = 0
 465              		@ frame_needed = 0, uses_anonymous_args = 0
 338:Drivers/STM32F1xx_HAL_Driver/Src/stm32f1xx_hal_tim_ex.c ****   uint32_t tmpsmcr;
 466              		.loc 1 338 3 view .LVU136
 339:Drivers/STM32F1xx_HAL_Driver/Src/stm32f1xx_hal_tim_ex.c **** 
 340:Drivers/STM32F1xx_HAL_Driver/Src/stm32f1xx_hal_tim_ex.c ****   /* Check the parameters */
 341:Drivers/STM32F1xx_HAL_Driver/Src/stm32f1xx_hal_tim_ex.c ****   assert_param(IS_TIM_HALL_SENSOR_INTERFACE_INSTANCE(htim->Instance));
 467              		.loc 1 341 3 view .LVU137
 342:Drivers/STM32F1xx_HAL_Driver/Src/stm32f1xx_hal_tim_ex.c **** 
 343:Drivers/STM32F1xx_HAL_Driver/Src/stm32f1xx_hal_tim_ex.c ****   /* Enable the capture compare Interrupts 1 event */
 344:Drivers/STM32F1xx_HAL_Driver/Src/stm32f1xx_hal_tim_ex.c ****   __HAL_TIM_ENABLE_IT(htim, TIM_IT_CC1);
 468              		.loc 1 344 3 view .LVU138
 337:Drivers/STM32F1xx_HAL_Driver/Src/stm32f1xx_hal_tim_ex.c ****   uint32_t tmpsmcr;
 469              		.loc 1 337 1 is_stmt 0 view .LVU139
 470 0000 10B5     		push	{r4, lr}
 471              	.LCFI8:
 472              		.cfi_def_cfa_offset 8
 473              		.cfi_offset 4, -8
 474              		.cfi_offset 14, -4
 337:Drivers/STM32F1xx_HAL_Driver/Src/stm32f1xx_hal_tim_ex.c ****   uint32_t tmpsmcr;
 475              		.loc 1 337 1 view .LVU140
ARM GAS  /var/folders/20/cstyxln53wn53rr40gj353bh0000gn/T//ccV5XGPK.s 			page 17


 476 0002 0446     		mov	r4, r0
 477              		.loc 1 344 3 view .LVU141
 478 0004 0368     		ldr	r3, [r0]
 345:Drivers/STM32F1xx_HAL_Driver/Src/stm32f1xx_hal_tim_ex.c **** 
 346:Drivers/STM32F1xx_HAL_Driver/Src/stm32f1xx_hal_tim_ex.c ****   /* Enable the Input Capture channel 1
 347:Drivers/STM32F1xx_HAL_Driver/Src/stm32f1xx_hal_tim_ex.c ****     (in the Hall Sensor Interface the three possible channels that can be used are TIM_CHANNEL_1, T
 348:Drivers/STM32F1xx_HAL_Driver/Src/stm32f1xx_hal_tim_ex.c ****   TIM_CCxChannelCmd(htim->Instance, TIM_CHANNEL_1, TIM_CCx_ENABLE);
 479              		.loc 1 348 3 view .LVU142
 480 0006 0122     		movs	r2, #1
 344:Drivers/STM32F1xx_HAL_Driver/Src/stm32f1xx_hal_tim_ex.c **** 
 481              		.loc 1 344 3 view .LVU143
 482 0008 D968     		ldr	r1, [r3, #12]
 483              		.loc 1 348 3 view .LVU144
 484 000a 1846     		mov	r0, r3
 485              	.LVL24:
 344:Drivers/STM32F1xx_HAL_Driver/Src/stm32f1xx_hal_tim_ex.c **** 
 486              		.loc 1 344 3 view .LVU145
 487 000c 41F00201 		orr	r1, r1, #2
 488 0010 D960     		str	r1, [r3, #12]
 489              		.loc 1 348 3 is_stmt 1 view .LVU146
 490 0012 0021     		movs	r1, #0
 491 0014 FFF7FEFF 		bl	TIM_CCxChannelCmd
 492              	.LVL25:
 349:Drivers/STM32F1xx_HAL_Driver/Src/stm32f1xx_hal_tim_ex.c **** 
 350:Drivers/STM32F1xx_HAL_Driver/Src/stm32f1xx_hal_tim_ex.c ****   /* Enable the Peripheral, except in trigger mode where enable is automatically done with trigger 
 351:Drivers/STM32F1xx_HAL_Driver/Src/stm32f1xx_hal_tim_ex.c ****   tmpsmcr = htim->Instance->SMCR & TIM_SMCR_SMS;
 493              		.loc 1 351 3 view .LVU147
 494              		.loc 1 351 17 is_stmt 0 view .LVU148
 495 0018 2268     		ldr	r2, [r4]
 496              		.loc 1 351 27 view .LVU149
 497 001a 9368     		ldr	r3, [r2, #8]
 498              	.LVL26:
 352:Drivers/STM32F1xx_HAL_Driver/Src/stm32f1xx_hal_tim_ex.c ****   if (!IS_TIM_SLAVEMODE_TRIGGER_ENABLED(tmpsmcr))
 499              		.loc 1 352 3 is_stmt 1 view .LVU150
 351:Drivers/STM32F1xx_HAL_Driver/Src/stm32f1xx_hal_tim_ex.c ****   if (!IS_TIM_SLAVEMODE_TRIGGER_ENABLED(tmpsmcr))
 500              		.loc 1 351 11 is_stmt 0 view .LVU151
 501 001c 03F00703 		and	r3, r3, #7
 502              	.LVL27:
 503              		.loc 1 352 6 view .LVU152
 504 0020 062B     		cmp	r3, #6
 505 0022 03D0     		beq	.L26
 353:Drivers/STM32F1xx_HAL_Driver/Src/stm32f1xx_hal_tim_ex.c ****   {
 354:Drivers/STM32F1xx_HAL_Driver/Src/stm32f1xx_hal_tim_ex.c ****     __HAL_TIM_ENABLE(htim);
 506              		.loc 1 354 5 is_stmt 1 view .LVU153
 507 0024 1368     		ldr	r3, [r2]
 508              	.LVL28:
 509              		.loc 1 354 5 is_stmt 0 view .LVU154
 510 0026 43F00103 		orr	r3, r3, #1
 511 002a 1360     		str	r3, [r2]
 512              	.L26:
 355:Drivers/STM32F1xx_HAL_Driver/Src/stm32f1xx_hal_tim_ex.c ****   }
 356:Drivers/STM32F1xx_HAL_Driver/Src/stm32f1xx_hal_tim_ex.c **** 
 357:Drivers/STM32F1xx_HAL_Driver/Src/stm32f1xx_hal_tim_ex.c ****   /* Return function status */
 358:Drivers/STM32F1xx_HAL_Driver/Src/stm32f1xx_hal_tim_ex.c ****   return HAL_OK;
 513              		.loc 1 358 3 is_stmt 1 view .LVU155
 359:Drivers/STM32F1xx_HAL_Driver/Src/stm32f1xx_hal_tim_ex.c **** }
 514              		.loc 1 359 1 is_stmt 0 view .LVU156
ARM GAS  /var/folders/20/cstyxln53wn53rr40gj353bh0000gn/T//ccV5XGPK.s 			page 18


 515 002c 0020     		movs	r0, #0
 516 002e 10BD     		pop	{r4, pc}
 517              		.loc 1 359 1 view .LVU157
 518              		.cfi_endproc
 519              	.LFE71:
 521              		.section	.text.HAL_TIMEx_HallSensor_Stop_IT,"ax",%progbits
 522              		.align	1
 523              		.p2align 2,,3
 524              		.global	HAL_TIMEx_HallSensor_Stop_IT
 525              		.syntax unified
 526              		.thumb
 527              		.thumb_func
 528              		.fpu softvfp
 530              	HAL_TIMEx_HallSensor_Stop_IT:
 531              	.LVL29:
 532              	.LFB72:
 360:Drivers/STM32F1xx_HAL_Driver/Src/stm32f1xx_hal_tim_ex.c **** 
 361:Drivers/STM32F1xx_HAL_Driver/Src/stm32f1xx_hal_tim_ex.c **** /**
 362:Drivers/STM32F1xx_HAL_Driver/Src/stm32f1xx_hal_tim_ex.c ****   * @brief  Stops the TIM Hall Sensor Interface in interrupt mode.
 363:Drivers/STM32F1xx_HAL_Driver/Src/stm32f1xx_hal_tim_ex.c ****   * @param  htim TIM Hall Sensor Interface handle
 364:Drivers/STM32F1xx_HAL_Driver/Src/stm32f1xx_hal_tim_ex.c ****   * @retval HAL status
 365:Drivers/STM32F1xx_HAL_Driver/Src/stm32f1xx_hal_tim_ex.c ****   */
 366:Drivers/STM32F1xx_HAL_Driver/Src/stm32f1xx_hal_tim_ex.c **** HAL_StatusTypeDef HAL_TIMEx_HallSensor_Stop_IT(TIM_HandleTypeDef *htim)
 367:Drivers/STM32F1xx_HAL_Driver/Src/stm32f1xx_hal_tim_ex.c **** {
 533              		.loc 1 367 1 is_stmt 1 view -0
 534              		.cfi_startproc
 535              		@ args = 0, pretend = 0, frame = 0
 536              		@ frame_needed = 0, uses_anonymous_args = 0
 368:Drivers/STM32F1xx_HAL_Driver/Src/stm32f1xx_hal_tim_ex.c ****   /* Check the parameters */
 369:Drivers/STM32F1xx_HAL_Driver/Src/stm32f1xx_hal_tim_ex.c ****   assert_param(IS_TIM_HALL_SENSOR_INTERFACE_INSTANCE(htim->Instance));
 537              		.loc 1 369 3 view .LVU159
 370:Drivers/STM32F1xx_HAL_Driver/Src/stm32f1xx_hal_tim_ex.c **** 
 371:Drivers/STM32F1xx_HAL_Driver/Src/stm32f1xx_hal_tim_ex.c ****   /* Disable the Input Capture channel 1
 372:Drivers/STM32F1xx_HAL_Driver/Src/stm32f1xx_hal_tim_ex.c ****     (in the Hall Sensor Interface the three possible channels that can be used are TIM_CHANNEL_1, T
 373:Drivers/STM32F1xx_HAL_Driver/Src/stm32f1xx_hal_tim_ex.c ****   TIM_CCxChannelCmd(htim->Instance, TIM_CHANNEL_1, TIM_CCx_DISABLE);
 538              		.loc 1 373 3 view .LVU160
 539 0000 0022     		movs	r2, #0
 367:Drivers/STM32F1xx_HAL_Driver/Src/stm32f1xx_hal_tim_ex.c ****   /* Check the parameters */
 540              		.loc 1 367 1 is_stmt 0 view .LVU161
 541 0002 10B5     		push	{r4, lr}
 542              	.LCFI9:
 543              		.cfi_def_cfa_offset 8
 544              		.cfi_offset 4, -8
 545              		.cfi_offset 14, -4
 367:Drivers/STM32F1xx_HAL_Driver/Src/stm32f1xx_hal_tim_ex.c ****   /* Check the parameters */
 546              		.loc 1 367 1 view .LVU162
 547 0004 0446     		mov	r4, r0
 548              		.loc 1 373 3 view .LVU163
 549 0006 1146     		mov	r1, r2
 550 0008 0068     		ldr	r0, [r0]
 551              	.LVL30:
 552              		.loc 1 373 3 view .LVU164
 553 000a FFF7FEFF 		bl	TIM_CCxChannelCmd
 554              	.LVL31:
 374:Drivers/STM32F1xx_HAL_Driver/Src/stm32f1xx_hal_tim_ex.c **** 
 375:Drivers/STM32F1xx_HAL_Driver/Src/stm32f1xx_hal_tim_ex.c ****   /* Disable the capture compare Interrupts event */
 376:Drivers/STM32F1xx_HAL_Driver/Src/stm32f1xx_hal_tim_ex.c ****   __HAL_TIM_DISABLE_IT(htim, TIM_IT_CC1);
ARM GAS  /var/folders/20/cstyxln53wn53rr40gj353bh0000gn/T//ccV5XGPK.s 			page 19


 555              		.loc 1 376 3 is_stmt 1 view .LVU165
 377:Drivers/STM32F1xx_HAL_Driver/Src/stm32f1xx_hal_tim_ex.c **** 
 378:Drivers/STM32F1xx_HAL_Driver/Src/stm32f1xx_hal_tim_ex.c ****   /* Disable the Peripheral */
 379:Drivers/STM32F1xx_HAL_Driver/Src/stm32f1xx_hal_tim_ex.c ****   __HAL_TIM_DISABLE(htim);
 556              		.loc 1 379 3 is_stmt 0 view .LVU166
 557 000e 41F21111 		movw	r1, #4369
 376:Drivers/STM32F1xx_HAL_Driver/Src/stm32f1xx_hal_tim_ex.c **** 
 558              		.loc 1 376 3 view .LVU167
 559 0012 2368     		ldr	r3, [r4]
 560 0014 DA68     		ldr	r2, [r3, #12]
 561 0016 22F00202 		bic	r2, r2, #2
 562 001a DA60     		str	r2, [r3, #12]
 563              		.loc 1 379 3 is_stmt 1 view .LVU168
 564              		.loc 1 379 3 view .LVU169
 565 001c 1A6A     		ldr	r2, [r3, #32]
 566 001e 0A42     		tst	r2, r1
 567 0020 08D1     		bne	.L32
 568              		.loc 1 379 3 discriminator 1 view .LVU170
 569 0022 40F24442 		movw	r2, #1092
 570 0026 196A     		ldr	r1, [r3, #32]
 571 0028 1142     		tst	r1, r2
 572 002a 03D1     		bne	.L32
 573              		.loc 1 379 3 discriminator 2 view .LVU171
 574 002c 1A68     		ldr	r2, [r3]
 575 002e 22F00102 		bic	r2, r2, #1
 576 0032 1A60     		str	r2, [r3]
 577              	.L32:
 380:Drivers/STM32F1xx_HAL_Driver/Src/stm32f1xx_hal_tim_ex.c **** 
 381:Drivers/STM32F1xx_HAL_Driver/Src/stm32f1xx_hal_tim_ex.c ****   /* Return function status */
 382:Drivers/STM32F1xx_HAL_Driver/Src/stm32f1xx_hal_tim_ex.c ****   return HAL_OK;
 578              		.loc 1 382 3 view .LVU172
 383:Drivers/STM32F1xx_HAL_Driver/Src/stm32f1xx_hal_tim_ex.c **** }
 579              		.loc 1 383 1 is_stmt 0 view .LVU173
 580 0034 0020     		movs	r0, #0
 581 0036 10BD     		pop	{r4, pc}
 582              		.loc 1 383 1 view .LVU174
 583              		.cfi_endproc
 584              	.LFE72:
 586              		.section	.text.HAL_TIMEx_HallSensor_Start_DMA,"ax",%progbits
 587              		.align	1
 588              		.p2align 2,,3
 589              		.global	HAL_TIMEx_HallSensor_Start_DMA
 590              		.syntax unified
 591              		.thumb
 592              		.thumb_func
 593              		.fpu softvfp
 595              	HAL_TIMEx_HallSensor_Start_DMA:
 596              	.LVL32:
 597              	.LFB73:
 384:Drivers/STM32F1xx_HAL_Driver/Src/stm32f1xx_hal_tim_ex.c **** 
 385:Drivers/STM32F1xx_HAL_Driver/Src/stm32f1xx_hal_tim_ex.c **** /**
 386:Drivers/STM32F1xx_HAL_Driver/Src/stm32f1xx_hal_tim_ex.c ****   * @brief  Starts the TIM Hall Sensor Interface in DMA mode.
 387:Drivers/STM32F1xx_HAL_Driver/Src/stm32f1xx_hal_tim_ex.c ****   * @param  htim TIM Hall Sensor Interface handle
 388:Drivers/STM32F1xx_HAL_Driver/Src/stm32f1xx_hal_tim_ex.c ****   * @param  pData The destination Buffer address.
 389:Drivers/STM32F1xx_HAL_Driver/Src/stm32f1xx_hal_tim_ex.c ****   * @param  Length The length of data to be transferred from TIM peripheral to memory.
 390:Drivers/STM32F1xx_HAL_Driver/Src/stm32f1xx_hal_tim_ex.c ****   * @retval HAL status
 391:Drivers/STM32F1xx_HAL_Driver/Src/stm32f1xx_hal_tim_ex.c ****   */
ARM GAS  /var/folders/20/cstyxln53wn53rr40gj353bh0000gn/T//ccV5XGPK.s 			page 20


 392:Drivers/STM32F1xx_HAL_Driver/Src/stm32f1xx_hal_tim_ex.c **** HAL_StatusTypeDef HAL_TIMEx_HallSensor_Start_DMA(TIM_HandleTypeDef *htim, uint32_t *pData, uint16_t
 393:Drivers/STM32F1xx_HAL_Driver/Src/stm32f1xx_hal_tim_ex.c **** {
 598              		.loc 1 393 1 is_stmt 1 view -0
 599              		.cfi_startproc
 600              		@ args = 0, pretend = 0, frame = 0
 601              		@ frame_needed = 0, uses_anonymous_args = 0
 394:Drivers/STM32F1xx_HAL_Driver/Src/stm32f1xx_hal_tim_ex.c ****   uint32_t tmpsmcr;
 602              		.loc 1 394 3 view .LVU176
 395:Drivers/STM32F1xx_HAL_Driver/Src/stm32f1xx_hal_tim_ex.c **** 
 396:Drivers/STM32F1xx_HAL_Driver/Src/stm32f1xx_hal_tim_ex.c ****   /* Check the parameters */
 397:Drivers/STM32F1xx_HAL_Driver/Src/stm32f1xx_hal_tim_ex.c ****   assert_param(IS_TIM_HALL_SENSOR_INTERFACE_INSTANCE(htim->Instance));
 603              		.loc 1 397 3 view .LVU177
 398:Drivers/STM32F1xx_HAL_Driver/Src/stm32f1xx_hal_tim_ex.c **** 
 399:Drivers/STM32F1xx_HAL_Driver/Src/stm32f1xx_hal_tim_ex.c ****   if (htim->State == HAL_TIM_STATE_BUSY)
 604              		.loc 1 399 3 view .LVU178
 393:Drivers/STM32F1xx_HAL_Driver/Src/stm32f1xx_hal_tim_ex.c ****   uint32_t tmpsmcr;
 605              		.loc 1 393 1 is_stmt 0 view .LVU179
 606 0000 F8B5     		push	{r3, r4, r5, r6, r7, lr}
 607              	.LCFI10:
 608              		.cfi_def_cfa_offset 24
 609              		.cfi_offset 3, -24
 610              		.cfi_offset 4, -20
 611              		.cfi_offset 5, -16
 612              		.cfi_offset 6, -12
 613              		.cfi_offset 7, -8
 614              		.cfi_offset 14, -4
 615              		.loc 1 399 11 view .LVU180
 616 0002 90F83D30 		ldrb	r3, [r0, #61]	@ zero_extendqisi2
 393:Drivers/STM32F1xx_HAL_Driver/Src/stm32f1xx_hal_tim_ex.c ****   uint32_t tmpsmcr;
 617              		.loc 1 393 1 view .LVU181
 618 0006 0446     		mov	r4, r0
 619              		.loc 1 399 11 view .LVU182
 620 0008 D8B2     		uxtb	r0, r3
 621              	.LVL33:
 622              		.loc 1 399 6 view .LVU183
 623 000a 0228     		cmp	r0, #2
 624 000c 2BD0     		beq	.L35
 400:Drivers/STM32F1xx_HAL_Driver/Src/stm32f1xx_hal_tim_ex.c ****   {
 401:Drivers/STM32F1xx_HAL_Driver/Src/stm32f1xx_hal_tim_ex.c ****     return HAL_BUSY;
 402:Drivers/STM32F1xx_HAL_Driver/Src/stm32f1xx_hal_tim_ex.c ****   }
 403:Drivers/STM32F1xx_HAL_Driver/Src/stm32f1xx_hal_tim_ex.c ****   else if (htim->State == HAL_TIM_STATE_READY)
 625              		.loc 1 403 8 is_stmt 1 view .LVU184
 626              		.loc 1 403 16 is_stmt 0 view .LVU185
 627 000e 94F83D30 		ldrb	r3, [r4, #61]	@ zero_extendqisi2
 628              		.loc 1 403 11 view .LVU186
 629 0012 012B     		cmp	r3, #1
 630 0014 03D1     		bne	.L36
 404:Drivers/STM32F1xx_HAL_Driver/Src/stm32f1xx_hal_tim_ex.c ****   {
 405:Drivers/STM32F1xx_HAL_Driver/Src/stm32f1xx_hal_tim_ex.c ****     if (((uint32_t)pData == 0U) && (Length > 0U))
 631              		.loc 1 405 5 is_stmt 1 view .LVU187
 632              		.loc 1 405 8 is_stmt 0 view .LVU188
 633 0016 39B3     		cbz	r1, .L49
 634              	.L37:
 406:Drivers/STM32F1xx_HAL_Driver/Src/stm32f1xx_hal_tim_ex.c ****     {
 407:Drivers/STM32F1xx_HAL_Driver/Src/stm32f1xx_hal_tim_ex.c ****       return HAL_ERROR;
 408:Drivers/STM32F1xx_HAL_Driver/Src/stm32f1xx_hal_tim_ex.c ****     }
 409:Drivers/STM32F1xx_HAL_Driver/Src/stm32f1xx_hal_tim_ex.c ****     else
ARM GAS  /var/folders/20/cstyxln53wn53rr40gj353bh0000gn/T//ccV5XGPK.s 			page 21


 410:Drivers/STM32F1xx_HAL_Driver/Src/stm32f1xx_hal_tim_ex.c ****     {
 411:Drivers/STM32F1xx_HAL_Driver/Src/stm32f1xx_hal_tim_ex.c ****       htim->State = HAL_TIM_STATE_BUSY;
 635              		.loc 1 411 7 is_stmt 1 view .LVU189
 636              		.loc 1 411 19 is_stmt 0 view .LVU190
 637 0018 0223     		movs	r3, #2
 638 001a 84F83D30 		strb	r3, [r4, #61]
 639              	.L36:
 412:Drivers/STM32F1xx_HAL_Driver/Src/stm32f1xx_hal_tim_ex.c ****     }
 413:Drivers/STM32F1xx_HAL_Driver/Src/stm32f1xx_hal_tim_ex.c ****   }
 414:Drivers/STM32F1xx_HAL_Driver/Src/stm32f1xx_hal_tim_ex.c ****   else
 415:Drivers/STM32F1xx_HAL_Driver/Src/stm32f1xx_hal_tim_ex.c ****   {
 416:Drivers/STM32F1xx_HAL_Driver/Src/stm32f1xx_hal_tim_ex.c ****     /* nothing to do */
 417:Drivers/STM32F1xx_HAL_Driver/Src/stm32f1xx_hal_tim_ex.c ****   }
 640              		.loc 1 417 3 is_stmt 1 view .LVU191
 418:Drivers/STM32F1xx_HAL_Driver/Src/stm32f1xx_hal_tim_ex.c ****   /* Enable the Input Capture channel 1
 419:Drivers/STM32F1xx_HAL_Driver/Src/stm32f1xx_hal_tim_ex.c ****     (in the Hall Sensor Interface the three possible channels that can be used are TIM_CHANNEL_1, T
 420:Drivers/STM32F1xx_HAL_Driver/Src/stm32f1xx_hal_tim_ex.c ****   TIM_CCxChannelCmd(htim->Instance, TIM_CHANNEL_1, TIM_CCx_ENABLE);
 641              		.loc 1 420 3 view .LVU192
 642 001e 1646     		mov	r6, r2
 643 0020 0D46     		mov	r5, r1
 644 0022 0122     		movs	r2, #1
 645              	.LVL34:
 646              		.loc 1 420 3 is_stmt 0 view .LVU193
 647 0024 0021     		movs	r1, #0
 648              	.LVL35:
 649              		.loc 1 420 3 view .LVU194
 650 0026 2068     		ldr	r0, [r4]
 651 0028 FFF7FEFF 		bl	TIM_CCxChannelCmd
 652              	.LVL36:
 421:Drivers/STM32F1xx_HAL_Driver/Src/stm32f1xx_hal_tim_ex.c **** 
 422:Drivers/STM32F1xx_HAL_Driver/Src/stm32f1xx_hal_tim_ex.c ****   /* Set the DMA Input Capture 1 Callbacks */
 423:Drivers/STM32F1xx_HAL_Driver/Src/stm32f1xx_hal_tim_ex.c ****   htim->hdma[TIM_DMA_ID_CC1]->XferCpltCallback = TIM_DMACaptureCplt;
 653              		.loc 1 423 3 is_stmt 1 view .LVU195
 654              		.loc 1 423 13 is_stmt 0 view .LVU196
 655 002c 606A     		ldr	r0, [r4, #36]
 656              		.loc 1 423 48 view .LVU197
 657 002e 1049     		ldr	r1, .L50
 424:Drivers/STM32F1xx_HAL_Driver/Src/stm32f1xx_hal_tim_ex.c ****   htim->hdma[TIM_DMA_ID_CC1]->XferHalfCpltCallback = TIM_DMACaptureHalfCplt;
 658              		.loc 1 424 52 view .LVU198
 659 0030 DFF844C0 		ldr	ip, .L50+8
 425:Drivers/STM32F1xx_HAL_Driver/Src/stm32f1xx_hal_tim_ex.c ****   /* Set the DMA error callback */
 426:Drivers/STM32F1xx_HAL_Driver/Src/stm32f1xx_hal_tim_ex.c ****   htim->hdma[TIM_DMA_ID_CC1]->XferErrorCallback = TIM_DMAError ;
 660              		.loc 1 426 49 view .LVU199
 661 0034 0F4F     		ldr	r7, .L50+4
 423:Drivers/STM32F1xx_HAL_Driver/Src/stm32f1xx_hal_tim_ex.c ****   htim->hdma[TIM_DMA_ID_CC1]->XferHalfCpltCallback = TIM_DMACaptureHalfCplt;
 662              		.loc 1 423 48 view .LVU200
 663 0036 8162     		str	r1, [r0, #40]
 424:Drivers/STM32F1xx_HAL_Driver/Src/stm32f1xx_hal_tim_ex.c ****   htim->hdma[TIM_DMA_ID_CC1]->XferHalfCpltCallback = TIM_DMACaptureHalfCplt;
 664              		.loc 1 424 3 is_stmt 1 view .LVU201
 427:Drivers/STM32F1xx_HAL_Driver/Src/stm32f1xx_hal_tim_ex.c **** 
 428:Drivers/STM32F1xx_HAL_Driver/Src/stm32f1xx_hal_tim_ex.c ****   /* Enable the DMA channel for Capture 1*/
 429:Drivers/STM32F1xx_HAL_Driver/Src/stm32f1xx_hal_tim_ex.c ****   if (HAL_DMA_Start_IT(htim->hdma[TIM_DMA_ID_CC1], (uint32_t)&htim->Instance->CCR1, (uint32_t)pData
 665              		.loc 1 429 62 is_stmt 0 view .LVU202
 666 0038 2168     		ldr	r1, [r4]
 667              		.loc 1 429 7 view .LVU203
 668 003a 3346     		mov	r3, r6
 669 003c 2A46     		mov	r2, r5
ARM GAS  /var/folders/20/cstyxln53wn53rr40gj353bh0000gn/T//ccV5XGPK.s 			page 22


 426:Drivers/STM32F1xx_HAL_Driver/Src/stm32f1xx_hal_tim_ex.c **** 
 670              		.loc 1 426 49 view .LVU204
 671 003e C0E90BC7 		strd	ip, r7, [r0, #44]
 672              		.loc 1 429 3 is_stmt 1 view .LVU205
 673              		.loc 1 429 7 is_stmt 0 view .LVU206
 674 0042 3431     		adds	r1, r1, #52
 675 0044 FFF7FEFF 		bl	HAL_DMA_Start_IT
 676              	.LVL37:
 677              		.loc 1 429 6 view .LVU207
 678 0048 80B9     		cbnz	r0, .L38
 430:Drivers/STM32F1xx_HAL_Driver/Src/stm32f1xx_hal_tim_ex.c ****   {
 431:Drivers/STM32F1xx_HAL_Driver/Src/stm32f1xx_hal_tim_ex.c ****     return HAL_ERROR;
 432:Drivers/STM32F1xx_HAL_Driver/Src/stm32f1xx_hal_tim_ex.c ****   }
 433:Drivers/STM32F1xx_HAL_Driver/Src/stm32f1xx_hal_tim_ex.c ****   /* Enable the capture compare 1 Interrupt */
 434:Drivers/STM32F1xx_HAL_Driver/Src/stm32f1xx_hal_tim_ex.c ****   __HAL_TIM_ENABLE_DMA(htim, TIM_DMA_CC1);
 679              		.loc 1 434 3 is_stmt 1 view .LVU208
 680 004a 2368     		ldr	r3, [r4]
 681 004c DA68     		ldr	r2, [r3, #12]
 682 004e 42F40072 		orr	r2, r2, #512
 683 0052 DA60     		str	r2, [r3, #12]
 435:Drivers/STM32F1xx_HAL_Driver/Src/stm32f1xx_hal_tim_ex.c **** 
 436:Drivers/STM32F1xx_HAL_Driver/Src/stm32f1xx_hal_tim_ex.c ****   /* Enable the Peripheral, except in trigger mode where enable is automatically done with trigger 
 437:Drivers/STM32F1xx_HAL_Driver/Src/stm32f1xx_hal_tim_ex.c ****   tmpsmcr = htim->Instance->SMCR & TIM_SMCR_SMS;
 684              		.loc 1 437 3 view .LVU209
 685              		.loc 1 437 27 is_stmt 0 view .LVU210
 686 0054 9A68     		ldr	r2, [r3, #8]
 687              	.LVL38:
 438:Drivers/STM32F1xx_HAL_Driver/Src/stm32f1xx_hal_tim_ex.c ****   if (!IS_TIM_SLAVEMODE_TRIGGER_ENABLED(tmpsmcr))
 688              		.loc 1 438 3 is_stmt 1 view .LVU211
 437:Drivers/STM32F1xx_HAL_Driver/Src/stm32f1xx_hal_tim_ex.c ****   if (!IS_TIM_SLAVEMODE_TRIGGER_ENABLED(tmpsmcr))
 689              		.loc 1 437 11 is_stmt 0 view .LVU212
 690 0056 02F00702 		and	r2, r2, #7
 691              	.LVL39:
 692              		.loc 1 438 6 view .LVU213
 693 005a 062A     		cmp	r2, #6
 694 005c 03D0     		beq	.L35
 439:Drivers/STM32F1xx_HAL_Driver/Src/stm32f1xx_hal_tim_ex.c ****   {
 440:Drivers/STM32F1xx_HAL_Driver/Src/stm32f1xx_hal_tim_ex.c ****     __HAL_TIM_ENABLE(htim);
 695              		.loc 1 440 5 is_stmt 1 view .LVU214
 696 005e 1A68     		ldr	r2, [r3]
 697              	.LVL40:
 698              		.loc 1 440 5 is_stmt 0 view .LVU215
 699 0060 42F00102 		orr	r2, r2, #1
 700 0064 1A60     		str	r2, [r3]
 701              	.LVL41:
 702              	.L35:
 441:Drivers/STM32F1xx_HAL_Driver/Src/stm32f1xx_hal_tim_ex.c ****   }
 442:Drivers/STM32F1xx_HAL_Driver/Src/stm32f1xx_hal_tim_ex.c **** 
 443:Drivers/STM32F1xx_HAL_Driver/Src/stm32f1xx_hal_tim_ex.c ****   /* Return function status */
 444:Drivers/STM32F1xx_HAL_Driver/Src/stm32f1xx_hal_tim_ex.c ****   return HAL_OK;
 445:Drivers/STM32F1xx_HAL_Driver/Src/stm32f1xx_hal_tim_ex.c **** }
 703              		.loc 1 445 1 view .LVU216
 704 0066 F8BD     		pop	{r3, r4, r5, r6, r7, pc}
 705              	.LVL42:
 706              	.L49:
 405:Drivers/STM32F1xx_HAL_Driver/Src/stm32f1xx_hal_tim_ex.c ****     {
 707              		.loc 1 405 33 discriminator 1 view .LVU217
ARM GAS  /var/folders/20/cstyxln53wn53rr40gj353bh0000gn/T//ccV5XGPK.s 			page 23


 708 0068 002A     		cmp	r2, #0
 709 006a D5D0     		beq	.L37
 710              	.LVL43:
 711              	.L38:
 407:Drivers/STM32F1xx_HAL_Driver/Src/stm32f1xx_hal_tim_ex.c ****     }
 712              		.loc 1 407 14 view .LVU218
 713 006c 0120     		movs	r0, #1
 714              		.loc 1 445 1 view .LVU219
 715 006e F8BD     		pop	{r3, r4, r5, r6, r7, pc}
 716              	.LVL44:
 717              	.L51:
 718              		.loc 1 445 1 view .LVU220
 719              		.align	2
 720              	.L50:
 721 0070 00000000 		.word	TIM_DMACaptureCplt
 722 0074 00000000 		.word	TIM_DMAError
 723 0078 00000000 		.word	TIM_DMACaptureHalfCplt
 724              		.cfi_endproc
 725              	.LFE73:
 727              		.section	.text.HAL_TIMEx_HallSensor_Stop_DMA,"ax",%progbits
 728              		.align	1
 729              		.p2align 2,,3
 730              		.global	HAL_TIMEx_HallSensor_Stop_DMA
 731              		.syntax unified
 732              		.thumb
 733              		.thumb_func
 734              		.fpu softvfp
 736              	HAL_TIMEx_HallSensor_Stop_DMA:
 737              	.LVL45:
 738              	.LFB74:
 446:Drivers/STM32F1xx_HAL_Driver/Src/stm32f1xx_hal_tim_ex.c **** 
 447:Drivers/STM32F1xx_HAL_Driver/Src/stm32f1xx_hal_tim_ex.c **** /**
 448:Drivers/STM32F1xx_HAL_Driver/Src/stm32f1xx_hal_tim_ex.c ****   * @brief  Stops the TIM Hall Sensor Interface in DMA mode.
 449:Drivers/STM32F1xx_HAL_Driver/Src/stm32f1xx_hal_tim_ex.c ****   * @param  htim TIM Hall Sensor Interface handle
 450:Drivers/STM32F1xx_HAL_Driver/Src/stm32f1xx_hal_tim_ex.c ****   * @retval HAL status
 451:Drivers/STM32F1xx_HAL_Driver/Src/stm32f1xx_hal_tim_ex.c ****   */
 452:Drivers/STM32F1xx_HAL_Driver/Src/stm32f1xx_hal_tim_ex.c **** HAL_StatusTypeDef HAL_TIMEx_HallSensor_Stop_DMA(TIM_HandleTypeDef *htim)
 453:Drivers/STM32F1xx_HAL_Driver/Src/stm32f1xx_hal_tim_ex.c **** {
 739              		.loc 1 453 1 is_stmt 1 view -0
 740              		.cfi_startproc
 741              		@ args = 0, pretend = 0, frame = 0
 742              		@ frame_needed = 0, uses_anonymous_args = 0
 454:Drivers/STM32F1xx_HAL_Driver/Src/stm32f1xx_hal_tim_ex.c ****   /* Check the parameters */
 455:Drivers/STM32F1xx_HAL_Driver/Src/stm32f1xx_hal_tim_ex.c ****   assert_param(IS_TIM_HALL_SENSOR_INTERFACE_INSTANCE(htim->Instance));
 743              		.loc 1 455 3 view .LVU222
 456:Drivers/STM32F1xx_HAL_Driver/Src/stm32f1xx_hal_tim_ex.c **** 
 457:Drivers/STM32F1xx_HAL_Driver/Src/stm32f1xx_hal_tim_ex.c ****   /* Disable the Input Capture channel 1
 458:Drivers/STM32F1xx_HAL_Driver/Src/stm32f1xx_hal_tim_ex.c ****     (in the Hall Sensor Interface the three possible channels that can be used are TIM_CHANNEL_1, T
 459:Drivers/STM32F1xx_HAL_Driver/Src/stm32f1xx_hal_tim_ex.c ****   TIM_CCxChannelCmd(htim->Instance, TIM_CHANNEL_1, TIM_CCx_DISABLE);
 744              		.loc 1 459 3 view .LVU223
 745 0000 0022     		movs	r2, #0
 453:Drivers/STM32F1xx_HAL_Driver/Src/stm32f1xx_hal_tim_ex.c ****   /* Check the parameters */
 746              		.loc 1 453 1 is_stmt 0 view .LVU224
 747 0002 10B5     		push	{r4, lr}
 748              	.LCFI11:
 749              		.cfi_def_cfa_offset 8
 750              		.cfi_offset 4, -8
ARM GAS  /var/folders/20/cstyxln53wn53rr40gj353bh0000gn/T//ccV5XGPK.s 			page 24


 751              		.cfi_offset 14, -4
 453:Drivers/STM32F1xx_HAL_Driver/Src/stm32f1xx_hal_tim_ex.c ****   /* Check the parameters */
 752              		.loc 1 453 1 view .LVU225
 753 0004 0446     		mov	r4, r0
 754              		.loc 1 459 3 view .LVU226
 755 0006 1146     		mov	r1, r2
 756 0008 0068     		ldr	r0, [r0]
 757              	.LVL46:
 758              		.loc 1 459 3 view .LVU227
 759 000a FFF7FEFF 		bl	TIM_CCxChannelCmd
 760              	.LVL47:
 460:Drivers/STM32F1xx_HAL_Driver/Src/stm32f1xx_hal_tim_ex.c **** 
 461:Drivers/STM32F1xx_HAL_Driver/Src/stm32f1xx_hal_tim_ex.c **** 
 462:Drivers/STM32F1xx_HAL_Driver/Src/stm32f1xx_hal_tim_ex.c ****   /* Disable the capture compare Interrupts 1 event */
 463:Drivers/STM32F1xx_HAL_Driver/Src/stm32f1xx_hal_tim_ex.c ****   __HAL_TIM_DISABLE_DMA(htim, TIM_DMA_CC1);
 761              		.loc 1 463 3 is_stmt 1 view .LVU228
 762 000e 2268     		ldr	r2, [r4]
 464:Drivers/STM32F1xx_HAL_Driver/Src/stm32f1xx_hal_tim_ex.c **** 
 465:Drivers/STM32F1xx_HAL_Driver/Src/stm32f1xx_hal_tim_ex.c ****   (void)HAL_DMA_Abort_IT(htim->hdma[TIM_DMA_ID_CC1]);
 763              		.loc 1 465 9 is_stmt 0 view .LVU229
 764 0010 606A     		ldr	r0, [r4, #36]
 463:Drivers/STM32F1xx_HAL_Driver/Src/stm32f1xx_hal_tim_ex.c **** 
 765              		.loc 1 463 3 view .LVU230
 766 0012 D368     		ldr	r3, [r2, #12]
 767 0014 23F40073 		bic	r3, r3, #512
 768 0018 D360     		str	r3, [r2, #12]
 769              		.loc 1 465 3 is_stmt 1 view .LVU231
 770              		.loc 1 465 9 is_stmt 0 view .LVU232
 771 001a FFF7FEFF 		bl	HAL_DMA_Abort_IT
 772              	.LVL48:
 466:Drivers/STM32F1xx_HAL_Driver/Src/stm32f1xx_hal_tim_ex.c ****   /* Disable the Peripheral */
 467:Drivers/STM32F1xx_HAL_Driver/Src/stm32f1xx_hal_tim_ex.c ****   __HAL_TIM_DISABLE(htim);
 773              		.loc 1 467 3 is_stmt 1 view .LVU233
 774              		.loc 1 467 3 view .LVU234
 775 001e 41F21112 		movw	r2, #4369
 776 0022 2368     		ldr	r3, [r4]
 777 0024 196A     		ldr	r1, [r3, #32]
 778 0026 1142     		tst	r1, r2
 779 0028 08D1     		bne	.L53
 780              		.loc 1 467 3 discriminator 1 view .LVU235
 781 002a 40F24442 		movw	r2, #1092
 782 002e 196A     		ldr	r1, [r3, #32]
 783 0030 1142     		tst	r1, r2
 784 0032 03D1     		bne	.L53
 785              		.loc 1 467 3 discriminator 2 view .LVU236
 786 0034 1A68     		ldr	r2, [r3]
 787 0036 22F00102 		bic	r2, r2, #1
 788 003a 1A60     		str	r2, [r3]
 789              	.L53:
 468:Drivers/STM32F1xx_HAL_Driver/Src/stm32f1xx_hal_tim_ex.c **** 
 469:Drivers/STM32F1xx_HAL_Driver/Src/stm32f1xx_hal_tim_ex.c ****   /* Return function status */
 470:Drivers/STM32F1xx_HAL_Driver/Src/stm32f1xx_hal_tim_ex.c ****   return HAL_OK;
 790              		.loc 1 470 3 view .LVU237
 471:Drivers/STM32F1xx_HAL_Driver/Src/stm32f1xx_hal_tim_ex.c **** }
 791              		.loc 1 471 1 is_stmt 0 view .LVU238
 792 003c 0020     		movs	r0, #0
 793 003e 10BD     		pop	{r4, pc}
ARM GAS  /var/folders/20/cstyxln53wn53rr40gj353bh0000gn/T//ccV5XGPK.s 			page 25


 794              		.loc 1 471 1 view .LVU239
 795              		.cfi_endproc
 796              	.LFE74:
 798              		.section	.text.HAL_TIMEx_OCN_Start,"ax",%progbits
 799              		.align	1
 800              		.p2align 2,,3
 801              		.global	HAL_TIMEx_OCN_Start
 802              		.syntax unified
 803              		.thumb
 804              		.thumb_func
 805              		.fpu softvfp
 807              	HAL_TIMEx_OCN_Start:
 808              	.LVL49:
 809              	.LFB75:
 472:Drivers/STM32F1xx_HAL_Driver/Src/stm32f1xx_hal_tim_ex.c **** 
 473:Drivers/STM32F1xx_HAL_Driver/Src/stm32f1xx_hal_tim_ex.c **** /**
 474:Drivers/STM32F1xx_HAL_Driver/Src/stm32f1xx_hal_tim_ex.c ****   * @}
 475:Drivers/STM32F1xx_HAL_Driver/Src/stm32f1xx_hal_tim_ex.c ****   */
 476:Drivers/STM32F1xx_HAL_Driver/Src/stm32f1xx_hal_tim_ex.c **** 
 477:Drivers/STM32F1xx_HAL_Driver/Src/stm32f1xx_hal_tim_ex.c **** /** @defgroup TIMEx_Exported_Functions_Group2 Extended Timer Complementary Output Compare functions
 478:Drivers/STM32F1xx_HAL_Driver/Src/stm32f1xx_hal_tim_ex.c ****   *  @brief   Timer Complementary Output Compare functions
 479:Drivers/STM32F1xx_HAL_Driver/Src/stm32f1xx_hal_tim_ex.c ****   *
 480:Drivers/STM32F1xx_HAL_Driver/Src/stm32f1xx_hal_tim_ex.c **** @verbatim
 481:Drivers/STM32F1xx_HAL_Driver/Src/stm32f1xx_hal_tim_ex.c ****   ==============================================================================
 482:Drivers/STM32F1xx_HAL_Driver/Src/stm32f1xx_hal_tim_ex.c ****               ##### Timer Complementary Output Compare functions #####
 483:Drivers/STM32F1xx_HAL_Driver/Src/stm32f1xx_hal_tim_ex.c ****   ==============================================================================
 484:Drivers/STM32F1xx_HAL_Driver/Src/stm32f1xx_hal_tim_ex.c ****   [..]
 485:Drivers/STM32F1xx_HAL_Driver/Src/stm32f1xx_hal_tim_ex.c ****     This section provides functions allowing to:
 486:Drivers/STM32F1xx_HAL_Driver/Src/stm32f1xx_hal_tim_ex.c ****     (+) Start the Complementary Output Compare/PWM.
 487:Drivers/STM32F1xx_HAL_Driver/Src/stm32f1xx_hal_tim_ex.c ****     (+) Stop the Complementary Output Compare/PWM.
 488:Drivers/STM32F1xx_HAL_Driver/Src/stm32f1xx_hal_tim_ex.c ****     (+) Start the Complementary Output Compare/PWM and enable interrupts.
 489:Drivers/STM32F1xx_HAL_Driver/Src/stm32f1xx_hal_tim_ex.c ****     (+) Stop the Complementary Output Compare/PWM and disable interrupts.
 490:Drivers/STM32F1xx_HAL_Driver/Src/stm32f1xx_hal_tim_ex.c ****     (+) Start the Complementary Output Compare/PWM and enable DMA transfers.
 491:Drivers/STM32F1xx_HAL_Driver/Src/stm32f1xx_hal_tim_ex.c ****     (+) Stop the Complementary Output Compare/PWM and disable DMA transfers.
 492:Drivers/STM32F1xx_HAL_Driver/Src/stm32f1xx_hal_tim_ex.c **** 
 493:Drivers/STM32F1xx_HAL_Driver/Src/stm32f1xx_hal_tim_ex.c **** @endverbatim
 494:Drivers/STM32F1xx_HAL_Driver/Src/stm32f1xx_hal_tim_ex.c ****   * @{
 495:Drivers/STM32F1xx_HAL_Driver/Src/stm32f1xx_hal_tim_ex.c ****   */
 496:Drivers/STM32F1xx_HAL_Driver/Src/stm32f1xx_hal_tim_ex.c **** 
 497:Drivers/STM32F1xx_HAL_Driver/Src/stm32f1xx_hal_tim_ex.c **** /**
 498:Drivers/STM32F1xx_HAL_Driver/Src/stm32f1xx_hal_tim_ex.c ****   * @brief  Starts the TIM Output Compare signal generation on the complementary
 499:Drivers/STM32F1xx_HAL_Driver/Src/stm32f1xx_hal_tim_ex.c ****   *         output.
 500:Drivers/STM32F1xx_HAL_Driver/Src/stm32f1xx_hal_tim_ex.c ****   * @param  htim TIM Output Compare handle
 501:Drivers/STM32F1xx_HAL_Driver/Src/stm32f1xx_hal_tim_ex.c ****   * @param  Channel TIM Channel to be enabled
 502:Drivers/STM32F1xx_HAL_Driver/Src/stm32f1xx_hal_tim_ex.c ****   *          This parameter can be one of the following values:
 503:Drivers/STM32F1xx_HAL_Driver/Src/stm32f1xx_hal_tim_ex.c ****   *            @arg TIM_CHANNEL_1: TIM Channel 1 selected
 504:Drivers/STM32F1xx_HAL_Driver/Src/stm32f1xx_hal_tim_ex.c ****   *            @arg TIM_CHANNEL_2: TIM Channel 2 selected
 505:Drivers/STM32F1xx_HAL_Driver/Src/stm32f1xx_hal_tim_ex.c ****   *            @arg TIM_CHANNEL_3: TIM Channel 3 selected
 506:Drivers/STM32F1xx_HAL_Driver/Src/stm32f1xx_hal_tim_ex.c ****   * @retval HAL status
 507:Drivers/STM32F1xx_HAL_Driver/Src/stm32f1xx_hal_tim_ex.c ****   */
 508:Drivers/STM32F1xx_HAL_Driver/Src/stm32f1xx_hal_tim_ex.c **** HAL_StatusTypeDef HAL_TIMEx_OCN_Start(TIM_HandleTypeDef *htim, uint32_t Channel)
 509:Drivers/STM32F1xx_HAL_Driver/Src/stm32f1xx_hal_tim_ex.c **** {
 810              		.loc 1 509 1 is_stmt 1 view -0
 811              		.cfi_startproc
 812              		@ args = 0, pretend = 0, frame = 0
 813              		@ frame_needed = 0, uses_anonymous_args = 0
 814              		@ link register save eliminated.
ARM GAS  /var/folders/20/cstyxln53wn53rr40gj353bh0000gn/T//ccV5XGPK.s 			page 26


 510:Drivers/STM32F1xx_HAL_Driver/Src/stm32f1xx_hal_tim_ex.c ****   uint32_t tmpsmcr;
 815              		.loc 1 510 3 view .LVU241
 511:Drivers/STM32F1xx_HAL_Driver/Src/stm32f1xx_hal_tim_ex.c **** 
 512:Drivers/STM32F1xx_HAL_Driver/Src/stm32f1xx_hal_tim_ex.c ****   /* Check the parameters */
 513:Drivers/STM32F1xx_HAL_Driver/Src/stm32f1xx_hal_tim_ex.c ****   assert_param(IS_TIM_CCXN_INSTANCE(htim->Instance, Channel));
 816              		.loc 1 513 3 view .LVU242
 514:Drivers/STM32F1xx_HAL_Driver/Src/stm32f1xx_hal_tim_ex.c **** 
 515:Drivers/STM32F1xx_HAL_Driver/Src/stm32f1xx_hal_tim_ex.c ****   /* Enable the Capture compare channel N */
 516:Drivers/STM32F1xx_HAL_Driver/Src/stm32f1xx_hal_tim_ex.c ****   TIM_CCxNChannelCmd(htim->Instance, Channel, TIM_CCxN_ENABLE);
 817              		.loc 1 516 3 view .LVU243
 818              	.LBB36:
 819              	.LBB37:
 517:Drivers/STM32F1xx_HAL_Driver/Src/stm32f1xx_hal_tim_ex.c **** 
 518:Drivers/STM32F1xx_HAL_Driver/Src/stm32f1xx_hal_tim_ex.c ****   /* Enable the Main Output */
 519:Drivers/STM32F1xx_HAL_Driver/Src/stm32f1xx_hal_tim_ex.c ****   __HAL_TIM_MOE_ENABLE(htim);
 520:Drivers/STM32F1xx_HAL_Driver/Src/stm32f1xx_hal_tim_ex.c **** 
 521:Drivers/STM32F1xx_HAL_Driver/Src/stm32f1xx_hal_tim_ex.c ****   /* Enable the Peripheral, except in trigger mode where enable is automatically done with trigger 
 522:Drivers/STM32F1xx_HAL_Driver/Src/stm32f1xx_hal_tim_ex.c ****   tmpsmcr = htim->Instance->SMCR & TIM_SMCR_SMS;
 523:Drivers/STM32F1xx_HAL_Driver/Src/stm32f1xx_hal_tim_ex.c ****   if (!IS_TIM_SLAVEMODE_TRIGGER_ENABLED(tmpsmcr))
 524:Drivers/STM32F1xx_HAL_Driver/Src/stm32f1xx_hal_tim_ex.c ****   {
 525:Drivers/STM32F1xx_HAL_Driver/Src/stm32f1xx_hal_tim_ex.c ****     __HAL_TIM_ENABLE(htim);
 526:Drivers/STM32F1xx_HAL_Driver/Src/stm32f1xx_hal_tim_ex.c ****   }
 527:Drivers/STM32F1xx_HAL_Driver/Src/stm32f1xx_hal_tim_ex.c **** 
 528:Drivers/STM32F1xx_HAL_Driver/Src/stm32f1xx_hal_tim_ex.c ****   /* Return function status */
 529:Drivers/STM32F1xx_HAL_Driver/Src/stm32f1xx_hal_tim_ex.c ****   return HAL_OK;
 530:Drivers/STM32F1xx_HAL_Driver/Src/stm32f1xx_hal_tim_ex.c **** }
 531:Drivers/STM32F1xx_HAL_Driver/Src/stm32f1xx_hal_tim_ex.c **** 
 532:Drivers/STM32F1xx_HAL_Driver/Src/stm32f1xx_hal_tim_ex.c **** /**
 533:Drivers/STM32F1xx_HAL_Driver/Src/stm32f1xx_hal_tim_ex.c ****   * @brief  Stops the TIM Output Compare signal generation on the complementary
 534:Drivers/STM32F1xx_HAL_Driver/Src/stm32f1xx_hal_tim_ex.c ****   *         output.
 535:Drivers/STM32F1xx_HAL_Driver/Src/stm32f1xx_hal_tim_ex.c ****   * @param  htim TIM handle
 536:Drivers/STM32F1xx_HAL_Driver/Src/stm32f1xx_hal_tim_ex.c ****   * @param  Channel TIM Channel to be disabled
 537:Drivers/STM32F1xx_HAL_Driver/Src/stm32f1xx_hal_tim_ex.c ****   *          This parameter can be one of the following values:
 538:Drivers/STM32F1xx_HAL_Driver/Src/stm32f1xx_hal_tim_ex.c ****   *            @arg TIM_CHANNEL_1: TIM Channel 1 selected
 539:Drivers/STM32F1xx_HAL_Driver/Src/stm32f1xx_hal_tim_ex.c ****   *            @arg TIM_CHANNEL_2: TIM Channel 2 selected
 540:Drivers/STM32F1xx_HAL_Driver/Src/stm32f1xx_hal_tim_ex.c ****   *            @arg TIM_CHANNEL_3: TIM Channel 3 selected
 541:Drivers/STM32F1xx_HAL_Driver/Src/stm32f1xx_hal_tim_ex.c ****   * @retval HAL status
 542:Drivers/STM32F1xx_HAL_Driver/Src/stm32f1xx_hal_tim_ex.c ****   */
 543:Drivers/STM32F1xx_HAL_Driver/Src/stm32f1xx_hal_tim_ex.c **** HAL_StatusTypeDef HAL_TIMEx_OCN_Stop(TIM_HandleTypeDef *htim, uint32_t Channel)
 544:Drivers/STM32F1xx_HAL_Driver/Src/stm32f1xx_hal_tim_ex.c **** {
 545:Drivers/STM32F1xx_HAL_Driver/Src/stm32f1xx_hal_tim_ex.c ****   /* Check the parameters */
 546:Drivers/STM32F1xx_HAL_Driver/Src/stm32f1xx_hal_tim_ex.c ****   assert_param(IS_TIM_CCXN_INSTANCE(htim->Instance, Channel));
 547:Drivers/STM32F1xx_HAL_Driver/Src/stm32f1xx_hal_tim_ex.c **** 
 548:Drivers/STM32F1xx_HAL_Driver/Src/stm32f1xx_hal_tim_ex.c ****   /* Disable the Capture compare channel N */
 549:Drivers/STM32F1xx_HAL_Driver/Src/stm32f1xx_hal_tim_ex.c ****   TIM_CCxNChannelCmd(htim->Instance, Channel, TIM_CCxN_DISABLE);
 550:Drivers/STM32F1xx_HAL_Driver/Src/stm32f1xx_hal_tim_ex.c **** 
 551:Drivers/STM32F1xx_HAL_Driver/Src/stm32f1xx_hal_tim_ex.c ****   /* Disable the Main Output */
 552:Drivers/STM32F1xx_HAL_Driver/Src/stm32f1xx_hal_tim_ex.c ****   __HAL_TIM_MOE_DISABLE(htim);
 553:Drivers/STM32F1xx_HAL_Driver/Src/stm32f1xx_hal_tim_ex.c **** 
 554:Drivers/STM32F1xx_HAL_Driver/Src/stm32f1xx_hal_tim_ex.c ****   /* Disable the Peripheral */
 555:Drivers/STM32F1xx_HAL_Driver/Src/stm32f1xx_hal_tim_ex.c ****   __HAL_TIM_DISABLE(htim);
 556:Drivers/STM32F1xx_HAL_Driver/Src/stm32f1xx_hal_tim_ex.c **** 
 557:Drivers/STM32F1xx_HAL_Driver/Src/stm32f1xx_hal_tim_ex.c ****   /* Return function status */
 558:Drivers/STM32F1xx_HAL_Driver/Src/stm32f1xx_hal_tim_ex.c ****   return HAL_OK;
 559:Drivers/STM32F1xx_HAL_Driver/Src/stm32f1xx_hal_tim_ex.c **** }
 560:Drivers/STM32F1xx_HAL_Driver/Src/stm32f1xx_hal_tim_ex.c **** 
 561:Drivers/STM32F1xx_HAL_Driver/Src/stm32f1xx_hal_tim_ex.c **** /**
ARM GAS  /var/folders/20/cstyxln53wn53rr40gj353bh0000gn/T//ccV5XGPK.s 			page 27


 562:Drivers/STM32F1xx_HAL_Driver/Src/stm32f1xx_hal_tim_ex.c ****   * @brief  Starts the TIM Output Compare signal generation in interrupt mode
 563:Drivers/STM32F1xx_HAL_Driver/Src/stm32f1xx_hal_tim_ex.c ****   *         on the complementary output.
 564:Drivers/STM32F1xx_HAL_Driver/Src/stm32f1xx_hal_tim_ex.c ****   * @param  htim TIM OC handle
 565:Drivers/STM32F1xx_HAL_Driver/Src/stm32f1xx_hal_tim_ex.c ****   * @param  Channel TIM Channel to be enabled
 566:Drivers/STM32F1xx_HAL_Driver/Src/stm32f1xx_hal_tim_ex.c ****   *          This parameter can be one of the following values:
 567:Drivers/STM32F1xx_HAL_Driver/Src/stm32f1xx_hal_tim_ex.c ****   *            @arg TIM_CHANNEL_1: TIM Channel 1 selected
 568:Drivers/STM32F1xx_HAL_Driver/Src/stm32f1xx_hal_tim_ex.c ****   *            @arg TIM_CHANNEL_2: TIM Channel 2 selected
 569:Drivers/STM32F1xx_HAL_Driver/Src/stm32f1xx_hal_tim_ex.c ****   *            @arg TIM_CHANNEL_3: TIM Channel 3 selected
 570:Drivers/STM32F1xx_HAL_Driver/Src/stm32f1xx_hal_tim_ex.c ****   * @retval HAL status
 571:Drivers/STM32F1xx_HAL_Driver/Src/stm32f1xx_hal_tim_ex.c ****   */
 572:Drivers/STM32F1xx_HAL_Driver/Src/stm32f1xx_hal_tim_ex.c **** HAL_StatusTypeDef HAL_TIMEx_OCN_Start_IT(TIM_HandleTypeDef *htim, uint32_t Channel)
 573:Drivers/STM32F1xx_HAL_Driver/Src/stm32f1xx_hal_tim_ex.c **** {
 574:Drivers/STM32F1xx_HAL_Driver/Src/stm32f1xx_hal_tim_ex.c ****   uint32_t tmpsmcr;
 575:Drivers/STM32F1xx_HAL_Driver/Src/stm32f1xx_hal_tim_ex.c **** 
 576:Drivers/STM32F1xx_HAL_Driver/Src/stm32f1xx_hal_tim_ex.c ****   /* Check the parameters */
 577:Drivers/STM32F1xx_HAL_Driver/Src/stm32f1xx_hal_tim_ex.c ****   assert_param(IS_TIM_CCXN_INSTANCE(htim->Instance, Channel));
 578:Drivers/STM32F1xx_HAL_Driver/Src/stm32f1xx_hal_tim_ex.c **** 
 579:Drivers/STM32F1xx_HAL_Driver/Src/stm32f1xx_hal_tim_ex.c ****   switch (Channel)
 580:Drivers/STM32F1xx_HAL_Driver/Src/stm32f1xx_hal_tim_ex.c ****   {
 581:Drivers/STM32F1xx_HAL_Driver/Src/stm32f1xx_hal_tim_ex.c ****     case TIM_CHANNEL_1:
 582:Drivers/STM32F1xx_HAL_Driver/Src/stm32f1xx_hal_tim_ex.c ****     {
 583:Drivers/STM32F1xx_HAL_Driver/Src/stm32f1xx_hal_tim_ex.c ****       /* Enable the TIM Output Compare interrupt */
 584:Drivers/STM32F1xx_HAL_Driver/Src/stm32f1xx_hal_tim_ex.c ****       __HAL_TIM_ENABLE_IT(htim, TIM_IT_CC1);
 585:Drivers/STM32F1xx_HAL_Driver/Src/stm32f1xx_hal_tim_ex.c ****       break;
 586:Drivers/STM32F1xx_HAL_Driver/Src/stm32f1xx_hal_tim_ex.c ****     }
 587:Drivers/STM32F1xx_HAL_Driver/Src/stm32f1xx_hal_tim_ex.c **** 
 588:Drivers/STM32F1xx_HAL_Driver/Src/stm32f1xx_hal_tim_ex.c ****     case TIM_CHANNEL_2:
 589:Drivers/STM32F1xx_HAL_Driver/Src/stm32f1xx_hal_tim_ex.c ****     {
 590:Drivers/STM32F1xx_HAL_Driver/Src/stm32f1xx_hal_tim_ex.c ****       /* Enable the TIM Output Compare interrupt */
 591:Drivers/STM32F1xx_HAL_Driver/Src/stm32f1xx_hal_tim_ex.c ****       __HAL_TIM_ENABLE_IT(htim, TIM_IT_CC2);
 592:Drivers/STM32F1xx_HAL_Driver/Src/stm32f1xx_hal_tim_ex.c ****       break;
 593:Drivers/STM32F1xx_HAL_Driver/Src/stm32f1xx_hal_tim_ex.c ****     }
 594:Drivers/STM32F1xx_HAL_Driver/Src/stm32f1xx_hal_tim_ex.c **** 
 595:Drivers/STM32F1xx_HAL_Driver/Src/stm32f1xx_hal_tim_ex.c ****     case TIM_CHANNEL_3:
 596:Drivers/STM32F1xx_HAL_Driver/Src/stm32f1xx_hal_tim_ex.c ****     {
 597:Drivers/STM32F1xx_HAL_Driver/Src/stm32f1xx_hal_tim_ex.c ****       /* Enable the TIM Output Compare interrupt */
 598:Drivers/STM32F1xx_HAL_Driver/Src/stm32f1xx_hal_tim_ex.c ****       __HAL_TIM_ENABLE_IT(htim, TIM_IT_CC3);
 599:Drivers/STM32F1xx_HAL_Driver/Src/stm32f1xx_hal_tim_ex.c ****       break;
 600:Drivers/STM32F1xx_HAL_Driver/Src/stm32f1xx_hal_tim_ex.c ****     }
 601:Drivers/STM32F1xx_HAL_Driver/Src/stm32f1xx_hal_tim_ex.c **** 
 602:Drivers/STM32F1xx_HAL_Driver/Src/stm32f1xx_hal_tim_ex.c **** 
 603:Drivers/STM32F1xx_HAL_Driver/Src/stm32f1xx_hal_tim_ex.c ****     default:
 604:Drivers/STM32F1xx_HAL_Driver/Src/stm32f1xx_hal_tim_ex.c ****       break;
 605:Drivers/STM32F1xx_HAL_Driver/Src/stm32f1xx_hal_tim_ex.c ****   }
 606:Drivers/STM32F1xx_HAL_Driver/Src/stm32f1xx_hal_tim_ex.c **** 
 607:Drivers/STM32F1xx_HAL_Driver/Src/stm32f1xx_hal_tim_ex.c ****   /* Enable the TIM Break interrupt */
 608:Drivers/STM32F1xx_HAL_Driver/Src/stm32f1xx_hal_tim_ex.c ****   __HAL_TIM_ENABLE_IT(htim, TIM_IT_BREAK);
 609:Drivers/STM32F1xx_HAL_Driver/Src/stm32f1xx_hal_tim_ex.c **** 
 610:Drivers/STM32F1xx_HAL_Driver/Src/stm32f1xx_hal_tim_ex.c ****   /* Enable the Capture compare channel N */
 611:Drivers/STM32F1xx_HAL_Driver/Src/stm32f1xx_hal_tim_ex.c ****   TIM_CCxNChannelCmd(htim->Instance, Channel, TIM_CCxN_ENABLE);
 612:Drivers/STM32F1xx_HAL_Driver/Src/stm32f1xx_hal_tim_ex.c **** 
 613:Drivers/STM32F1xx_HAL_Driver/Src/stm32f1xx_hal_tim_ex.c ****   /* Enable the Main Output */
 614:Drivers/STM32F1xx_HAL_Driver/Src/stm32f1xx_hal_tim_ex.c ****   __HAL_TIM_MOE_ENABLE(htim);
 615:Drivers/STM32F1xx_HAL_Driver/Src/stm32f1xx_hal_tim_ex.c **** 
 616:Drivers/STM32F1xx_HAL_Driver/Src/stm32f1xx_hal_tim_ex.c ****   /* Enable the Peripheral, except in trigger mode where enable is automatically done with trigger 
 617:Drivers/STM32F1xx_HAL_Driver/Src/stm32f1xx_hal_tim_ex.c ****   tmpsmcr = htim->Instance->SMCR & TIM_SMCR_SMS;
 618:Drivers/STM32F1xx_HAL_Driver/Src/stm32f1xx_hal_tim_ex.c ****   if (!IS_TIM_SLAVEMODE_TRIGGER_ENABLED(tmpsmcr))
ARM GAS  /var/folders/20/cstyxln53wn53rr40gj353bh0000gn/T//ccV5XGPK.s 			page 28


 619:Drivers/STM32F1xx_HAL_Driver/Src/stm32f1xx_hal_tim_ex.c ****   {
 620:Drivers/STM32F1xx_HAL_Driver/Src/stm32f1xx_hal_tim_ex.c ****     __HAL_TIM_ENABLE(htim);
 621:Drivers/STM32F1xx_HAL_Driver/Src/stm32f1xx_hal_tim_ex.c ****   }
 622:Drivers/STM32F1xx_HAL_Driver/Src/stm32f1xx_hal_tim_ex.c **** 
 623:Drivers/STM32F1xx_HAL_Driver/Src/stm32f1xx_hal_tim_ex.c ****   /* Return function status */
 624:Drivers/STM32F1xx_HAL_Driver/Src/stm32f1xx_hal_tim_ex.c ****   return HAL_OK;
 625:Drivers/STM32F1xx_HAL_Driver/Src/stm32f1xx_hal_tim_ex.c **** }
 626:Drivers/STM32F1xx_HAL_Driver/Src/stm32f1xx_hal_tim_ex.c **** 
 627:Drivers/STM32F1xx_HAL_Driver/Src/stm32f1xx_hal_tim_ex.c **** /**
 628:Drivers/STM32F1xx_HAL_Driver/Src/stm32f1xx_hal_tim_ex.c ****   * @brief  Stops the TIM Output Compare signal generation in interrupt mode
 629:Drivers/STM32F1xx_HAL_Driver/Src/stm32f1xx_hal_tim_ex.c ****   *         on the complementary output.
 630:Drivers/STM32F1xx_HAL_Driver/Src/stm32f1xx_hal_tim_ex.c ****   * @param  htim TIM Output Compare handle
 631:Drivers/STM32F1xx_HAL_Driver/Src/stm32f1xx_hal_tim_ex.c ****   * @param  Channel TIM Channel to be disabled
 632:Drivers/STM32F1xx_HAL_Driver/Src/stm32f1xx_hal_tim_ex.c ****   *          This parameter can be one of the following values:
 633:Drivers/STM32F1xx_HAL_Driver/Src/stm32f1xx_hal_tim_ex.c ****   *            @arg TIM_CHANNEL_1: TIM Channel 1 selected
 634:Drivers/STM32F1xx_HAL_Driver/Src/stm32f1xx_hal_tim_ex.c ****   *            @arg TIM_CHANNEL_2: TIM Channel 2 selected
 635:Drivers/STM32F1xx_HAL_Driver/Src/stm32f1xx_hal_tim_ex.c ****   *            @arg TIM_CHANNEL_3: TIM Channel 3 selected
 636:Drivers/STM32F1xx_HAL_Driver/Src/stm32f1xx_hal_tim_ex.c ****   * @retval HAL status
 637:Drivers/STM32F1xx_HAL_Driver/Src/stm32f1xx_hal_tim_ex.c ****   */
 638:Drivers/STM32F1xx_HAL_Driver/Src/stm32f1xx_hal_tim_ex.c **** HAL_StatusTypeDef HAL_TIMEx_OCN_Stop_IT(TIM_HandleTypeDef *htim, uint32_t Channel)
 639:Drivers/STM32F1xx_HAL_Driver/Src/stm32f1xx_hal_tim_ex.c **** {
 640:Drivers/STM32F1xx_HAL_Driver/Src/stm32f1xx_hal_tim_ex.c ****   uint32_t tmpccer;
 641:Drivers/STM32F1xx_HAL_Driver/Src/stm32f1xx_hal_tim_ex.c ****   /* Check the parameters */
 642:Drivers/STM32F1xx_HAL_Driver/Src/stm32f1xx_hal_tim_ex.c ****   assert_param(IS_TIM_CCXN_INSTANCE(htim->Instance, Channel));
 643:Drivers/STM32F1xx_HAL_Driver/Src/stm32f1xx_hal_tim_ex.c **** 
 644:Drivers/STM32F1xx_HAL_Driver/Src/stm32f1xx_hal_tim_ex.c ****   switch (Channel)
 645:Drivers/STM32F1xx_HAL_Driver/Src/stm32f1xx_hal_tim_ex.c ****   {
 646:Drivers/STM32F1xx_HAL_Driver/Src/stm32f1xx_hal_tim_ex.c ****     case TIM_CHANNEL_1:
 647:Drivers/STM32F1xx_HAL_Driver/Src/stm32f1xx_hal_tim_ex.c ****     {
 648:Drivers/STM32F1xx_HAL_Driver/Src/stm32f1xx_hal_tim_ex.c ****       /* Disable the TIM Output Compare interrupt */
 649:Drivers/STM32F1xx_HAL_Driver/Src/stm32f1xx_hal_tim_ex.c ****       __HAL_TIM_DISABLE_IT(htim, TIM_IT_CC1);
 650:Drivers/STM32F1xx_HAL_Driver/Src/stm32f1xx_hal_tim_ex.c ****       break;
 651:Drivers/STM32F1xx_HAL_Driver/Src/stm32f1xx_hal_tim_ex.c ****     }
 652:Drivers/STM32F1xx_HAL_Driver/Src/stm32f1xx_hal_tim_ex.c **** 
 653:Drivers/STM32F1xx_HAL_Driver/Src/stm32f1xx_hal_tim_ex.c ****     case TIM_CHANNEL_2:
 654:Drivers/STM32F1xx_HAL_Driver/Src/stm32f1xx_hal_tim_ex.c ****     {
 655:Drivers/STM32F1xx_HAL_Driver/Src/stm32f1xx_hal_tim_ex.c ****       /* Disable the TIM Output Compare interrupt */
 656:Drivers/STM32F1xx_HAL_Driver/Src/stm32f1xx_hal_tim_ex.c ****       __HAL_TIM_DISABLE_IT(htim, TIM_IT_CC2);
 657:Drivers/STM32F1xx_HAL_Driver/Src/stm32f1xx_hal_tim_ex.c ****       break;
 658:Drivers/STM32F1xx_HAL_Driver/Src/stm32f1xx_hal_tim_ex.c ****     }
 659:Drivers/STM32F1xx_HAL_Driver/Src/stm32f1xx_hal_tim_ex.c **** 
 660:Drivers/STM32F1xx_HAL_Driver/Src/stm32f1xx_hal_tim_ex.c ****     case TIM_CHANNEL_3:
 661:Drivers/STM32F1xx_HAL_Driver/Src/stm32f1xx_hal_tim_ex.c ****     {
 662:Drivers/STM32F1xx_HAL_Driver/Src/stm32f1xx_hal_tim_ex.c ****       /* Disable the TIM Output Compare interrupt */
 663:Drivers/STM32F1xx_HAL_Driver/Src/stm32f1xx_hal_tim_ex.c ****       __HAL_TIM_DISABLE_IT(htim, TIM_IT_CC3);
 664:Drivers/STM32F1xx_HAL_Driver/Src/stm32f1xx_hal_tim_ex.c ****       break;
 665:Drivers/STM32F1xx_HAL_Driver/Src/stm32f1xx_hal_tim_ex.c ****     }
 666:Drivers/STM32F1xx_HAL_Driver/Src/stm32f1xx_hal_tim_ex.c **** 
 667:Drivers/STM32F1xx_HAL_Driver/Src/stm32f1xx_hal_tim_ex.c ****     default:
 668:Drivers/STM32F1xx_HAL_Driver/Src/stm32f1xx_hal_tim_ex.c ****       break;
 669:Drivers/STM32F1xx_HAL_Driver/Src/stm32f1xx_hal_tim_ex.c ****   }
 670:Drivers/STM32F1xx_HAL_Driver/Src/stm32f1xx_hal_tim_ex.c **** 
 671:Drivers/STM32F1xx_HAL_Driver/Src/stm32f1xx_hal_tim_ex.c ****   /* Disable the Capture compare channel N */
 672:Drivers/STM32F1xx_HAL_Driver/Src/stm32f1xx_hal_tim_ex.c ****   TIM_CCxNChannelCmd(htim->Instance, Channel, TIM_CCxN_DISABLE);
 673:Drivers/STM32F1xx_HAL_Driver/Src/stm32f1xx_hal_tim_ex.c **** 
 674:Drivers/STM32F1xx_HAL_Driver/Src/stm32f1xx_hal_tim_ex.c ****   /* Disable the TIM Break interrupt (only if no more channel is active) */
 675:Drivers/STM32F1xx_HAL_Driver/Src/stm32f1xx_hal_tim_ex.c ****   tmpccer = htim->Instance->CCER;
ARM GAS  /var/folders/20/cstyxln53wn53rr40gj353bh0000gn/T//ccV5XGPK.s 			page 29


 676:Drivers/STM32F1xx_HAL_Driver/Src/stm32f1xx_hal_tim_ex.c ****   if ((tmpccer & (TIM_CCER_CC1NE | TIM_CCER_CC2NE | TIM_CCER_CC3NE)) == (uint32_t)RESET)
 677:Drivers/STM32F1xx_HAL_Driver/Src/stm32f1xx_hal_tim_ex.c ****   {
 678:Drivers/STM32F1xx_HAL_Driver/Src/stm32f1xx_hal_tim_ex.c ****     __HAL_TIM_DISABLE_IT(htim, TIM_IT_BREAK);
 679:Drivers/STM32F1xx_HAL_Driver/Src/stm32f1xx_hal_tim_ex.c ****   }
 680:Drivers/STM32F1xx_HAL_Driver/Src/stm32f1xx_hal_tim_ex.c **** 
 681:Drivers/STM32F1xx_HAL_Driver/Src/stm32f1xx_hal_tim_ex.c ****   /* Disable the Main Output */
 682:Drivers/STM32F1xx_HAL_Driver/Src/stm32f1xx_hal_tim_ex.c ****   __HAL_TIM_MOE_DISABLE(htim);
 683:Drivers/STM32F1xx_HAL_Driver/Src/stm32f1xx_hal_tim_ex.c **** 
 684:Drivers/STM32F1xx_HAL_Driver/Src/stm32f1xx_hal_tim_ex.c ****   /* Disable the Peripheral */
 685:Drivers/STM32F1xx_HAL_Driver/Src/stm32f1xx_hal_tim_ex.c ****   __HAL_TIM_DISABLE(htim);
 686:Drivers/STM32F1xx_HAL_Driver/Src/stm32f1xx_hal_tim_ex.c **** 
 687:Drivers/STM32F1xx_HAL_Driver/Src/stm32f1xx_hal_tim_ex.c ****   /* Return function status */
 688:Drivers/STM32F1xx_HAL_Driver/Src/stm32f1xx_hal_tim_ex.c ****   return HAL_OK;
 689:Drivers/STM32F1xx_HAL_Driver/Src/stm32f1xx_hal_tim_ex.c **** }
 690:Drivers/STM32F1xx_HAL_Driver/Src/stm32f1xx_hal_tim_ex.c **** 
 691:Drivers/STM32F1xx_HAL_Driver/Src/stm32f1xx_hal_tim_ex.c **** /**
 692:Drivers/STM32F1xx_HAL_Driver/Src/stm32f1xx_hal_tim_ex.c ****   * @brief  Starts the TIM Output Compare signal generation in DMA mode
 693:Drivers/STM32F1xx_HAL_Driver/Src/stm32f1xx_hal_tim_ex.c ****   *         on the complementary output.
 694:Drivers/STM32F1xx_HAL_Driver/Src/stm32f1xx_hal_tim_ex.c ****   * @param  htim TIM Output Compare handle
 695:Drivers/STM32F1xx_HAL_Driver/Src/stm32f1xx_hal_tim_ex.c ****   * @param  Channel TIM Channel to be enabled
 696:Drivers/STM32F1xx_HAL_Driver/Src/stm32f1xx_hal_tim_ex.c ****   *          This parameter can be one of the following values:
 697:Drivers/STM32F1xx_HAL_Driver/Src/stm32f1xx_hal_tim_ex.c ****   *            @arg TIM_CHANNEL_1: TIM Channel 1 selected
 698:Drivers/STM32F1xx_HAL_Driver/Src/stm32f1xx_hal_tim_ex.c ****   *            @arg TIM_CHANNEL_2: TIM Channel 2 selected
 699:Drivers/STM32F1xx_HAL_Driver/Src/stm32f1xx_hal_tim_ex.c ****   *            @arg TIM_CHANNEL_3: TIM Channel 3 selected
 700:Drivers/STM32F1xx_HAL_Driver/Src/stm32f1xx_hal_tim_ex.c ****   * @param  pData The source Buffer address.
 701:Drivers/STM32F1xx_HAL_Driver/Src/stm32f1xx_hal_tim_ex.c ****   * @param  Length The length of data to be transferred from memory to TIM peripheral
 702:Drivers/STM32F1xx_HAL_Driver/Src/stm32f1xx_hal_tim_ex.c ****   * @retval HAL status
 703:Drivers/STM32F1xx_HAL_Driver/Src/stm32f1xx_hal_tim_ex.c ****   */
 704:Drivers/STM32F1xx_HAL_Driver/Src/stm32f1xx_hal_tim_ex.c **** HAL_StatusTypeDef HAL_TIMEx_OCN_Start_DMA(TIM_HandleTypeDef *htim, uint32_t Channel, uint32_t *pDat
 705:Drivers/STM32F1xx_HAL_Driver/Src/stm32f1xx_hal_tim_ex.c **** {
 706:Drivers/STM32F1xx_HAL_Driver/Src/stm32f1xx_hal_tim_ex.c ****   uint32_t tmpsmcr;
 707:Drivers/STM32F1xx_HAL_Driver/Src/stm32f1xx_hal_tim_ex.c **** 
 708:Drivers/STM32F1xx_HAL_Driver/Src/stm32f1xx_hal_tim_ex.c ****   /* Check the parameters */
 709:Drivers/STM32F1xx_HAL_Driver/Src/stm32f1xx_hal_tim_ex.c ****   assert_param(IS_TIM_CCXN_INSTANCE(htim->Instance, Channel));
 710:Drivers/STM32F1xx_HAL_Driver/Src/stm32f1xx_hal_tim_ex.c **** 
 711:Drivers/STM32F1xx_HAL_Driver/Src/stm32f1xx_hal_tim_ex.c ****   if (htim->State == HAL_TIM_STATE_BUSY)
 712:Drivers/STM32F1xx_HAL_Driver/Src/stm32f1xx_hal_tim_ex.c ****   {
 713:Drivers/STM32F1xx_HAL_Driver/Src/stm32f1xx_hal_tim_ex.c ****     return HAL_BUSY;
 714:Drivers/STM32F1xx_HAL_Driver/Src/stm32f1xx_hal_tim_ex.c ****   }
 715:Drivers/STM32F1xx_HAL_Driver/Src/stm32f1xx_hal_tim_ex.c ****   else if (htim->State == HAL_TIM_STATE_READY)
 716:Drivers/STM32F1xx_HAL_Driver/Src/stm32f1xx_hal_tim_ex.c ****   {
 717:Drivers/STM32F1xx_HAL_Driver/Src/stm32f1xx_hal_tim_ex.c ****     if (((uint32_t)pData == 0U) && (Length > 0U))
 718:Drivers/STM32F1xx_HAL_Driver/Src/stm32f1xx_hal_tim_ex.c ****     {
 719:Drivers/STM32F1xx_HAL_Driver/Src/stm32f1xx_hal_tim_ex.c ****       return HAL_ERROR;
 720:Drivers/STM32F1xx_HAL_Driver/Src/stm32f1xx_hal_tim_ex.c ****     }
 721:Drivers/STM32F1xx_HAL_Driver/Src/stm32f1xx_hal_tim_ex.c ****     else
 722:Drivers/STM32F1xx_HAL_Driver/Src/stm32f1xx_hal_tim_ex.c ****     {
 723:Drivers/STM32F1xx_HAL_Driver/Src/stm32f1xx_hal_tim_ex.c ****       htim->State = HAL_TIM_STATE_BUSY;
 724:Drivers/STM32F1xx_HAL_Driver/Src/stm32f1xx_hal_tim_ex.c ****     }
 725:Drivers/STM32F1xx_HAL_Driver/Src/stm32f1xx_hal_tim_ex.c ****   }
 726:Drivers/STM32F1xx_HAL_Driver/Src/stm32f1xx_hal_tim_ex.c ****   else
 727:Drivers/STM32F1xx_HAL_Driver/Src/stm32f1xx_hal_tim_ex.c ****   {
 728:Drivers/STM32F1xx_HAL_Driver/Src/stm32f1xx_hal_tim_ex.c ****     /* nothing to do  */
 729:Drivers/STM32F1xx_HAL_Driver/Src/stm32f1xx_hal_tim_ex.c ****   }
 730:Drivers/STM32F1xx_HAL_Driver/Src/stm32f1xx_hal_tim_ex.c **** 
 731:Drivers/STM32F1xx_HAL_Driver/Src/stm32f1xx_hal_tim_ex.c ****   switch (Channel)
 732:Drivers/STM32F1xx_HAL_Driver/Src/stm32f1xx_hal_tim_ex.c ****   {
ARM GAS  /var/folders/20/cstyxln53wn53rr40gj353bh0000gn/T//ccV5XGPK.s 			page 30


 733:Drivers/STM32F1xx_HAL_Driver/Src/stm32f1xx_hal_tim_ex.c ****     case TIM_CHANNEL_1:
 734:Drivers/STM32F1xx_HAL_Driver/Src/stm32f1xx_hal_tim_ex.c ****     {
 735:Drivers/STM32F1xx_HAL_Driver/Src/stm32f1xx_hal_tim_ex.c ****       /* Set the DMA compare callbacks */
 736:Drivers/STM32F1xx_HAL_Driver/Src/stm32f1xx_hal_tim_ex.c ****       htim->hdma[TIM_DMA_ID_CC1]->XferCpltCallback = TIM_DMADelayPulseCplt;
 737:Drivers/STM32F1xx_HAL_Driver/Src/stm32f1xx_hal_tim_ex.c ****       htim->hdma[TIM_DMA_ID_CC1]->XferHalfCpltCallback = TIM_DMADelayPulseHalfCplt;
 738:Drivers/STM32F1xx_HAL_Driver/Src/stm32f1xx_hal_tim_ex.c **** 
 739:Drivers/STM32F1xx_HAL_Driver/Src/stm32f1xx_hal_tim_ex.c ****       /* Set the DMA error callback */
 740:Drivers/STM32F1xx_HAL_Driver/Src/stm32f1xx_hal_tim_ex.c ****       htim->hdma[TIM_DMA_ID_CC1]->XferErrorCallback = TIM_DMAError ;
 741:Drivers/STM32F1xx_HAL_Driver/Src/stm32f1xx_hal_tim_ex.c **** 
 742:Drivers/STM32F1xx_HAL_Driver/Src/stm32f1xx_hal_tim_ex.c ****       /* Enable the DMA channel */
 743:Drivers/STM32F1xx_HAL_Driver/Src/stm32f1xx_hal_tim_ex.c ****       if (HAL_DMA_Start_IT(htim->hdma[TIM_DMA_ID_CC1], (uint32_t)pData, (uint32_t)&htim->Instance->
 744:Drivers/STM32F1xx_HAL_Driver/Src/stm32f1xx_hal_tim_ex.c ****       {
 745:Drivers/STM32F1xx_HAL_Driver/Src/stm32f1xx_hal_tim_ex.c ****         return HAL_ERROR;
 746:Drivers/STM32F1xx_HAL_Driver/Src/stm32f1xx_hal_tim_ex.c ****       }
 747:Drivers/STM32F1xx_HAL_Driver/Src/stm32f1xx_hal_tim_ex.c ****       /* Enable the TIM Output Compare DMA request */
 748:Drivers/STM32F1xx_HAL_Driver/Src/stm32f1xx_hal_tim_ex.c ****       __HAL_TIM_ENABLE_DMA(htim, TIM_DMA_CC1);
 749:Drivers/STM32F1xx_HAL_Driver/Src/stm32f1xx_hal_tim_ex.c ****       break;
 750:Drivers/STM32F1xx_HAL_Driver/Src/stm32f1xx_hal_tim_ex.c ****     }
 751:Drivers/STM32F1xx_HAL_Driver/Src/stm32f1xx_hal_tim_ex.c **** 
 752:Drivers/STM32F1xx_HAL_Driver/Src/stm32f1xx_hal_tim_ex.c ****     case TIM_CHANNEL_2:
 753:Drivers/STM32F1xx_HAL_Driver/Src/stm32f1xx_hal_tim_ex.c ****     {
 754:Drivers/STM32F1xx_HAL_Driver/Src/stm32f1xx_hal_tim_ex.c ****       /* Set the DMA compare callbacks */
 755:Drivers/STM32F1xx_HAL_Driver/Src/stm32f1xx_hal_tim_ex.c ****       htim->hdma[TIM_DMA_ID_CC2]->XferCpltCallback = TIM_DMADelayPulseCplt;
 756:Drivers/STM32F1xx_HAL_Driver/Src/stm32f1xx_hal_tim_ex.c ****       htim->hdma[TIM_DMA_ID_CC2]->XferHalfCpltCallback = TIM_DMADelayPulseHalfCplt;
 757:Drivers/STM32F1xx_HAL_Driver/Src/stm32f1xx_hal_tim_ex.c **** 
 758:Drivers/STM32F1xx_HAL_Driver/Src/stm32f1xx_hal_tim_ex.c ****       /* Set the DMA error callback */
 759:Drivers/STM32F1xx_HAL_Driver/Src/stm32f1xx_hal_tim_ex.c ****       htim->hdma[TIM_DMA_ID_CC2]->XferErrorCallback = TIM_DMAError ;
 760:Drivers/STM32F1xx_HAL_Driver/Src/stm32f1xx_hal_tim_ex.c **** 
 761:Drivers/STM32F1xx_HAL_Driver/Src/stm32f1xx_hal_tim_ex.c ****       /* Enable the DMA channel */
 762:Drivers/STM32F1xx_HAL_Driver/Src/stm32f1xx_hal_tim_ex.c ****       if (HAL_DMA_Start_IT(htim->hdma[TIM_DMA_ID_CC2], (uint32_t)pData, (uint32_t)&htim->Instance->
 763:Drivers/STM32F1xx_HAL_Driver/Src/stm32f1xx_hal_tim_ex.c ****       {
 764:Drivers/STM32F1xx_HAL_Driver/Src/stm32f1xx_hal_tim_ex.c ****         return HAL_ERROR;
 765:Drivers/STM32F1xx_HAL_Driver/Src/stm32f1xx_hal_tim_ex.c ****       }
 766:Drivers/STM32F1xx_HAL_Driver/Src/stm32f1xx_hal_tim_ex.c ****       /* Enable the TIM Output Compare DMA request */
 767:Drivers/STM32F1xx_HAL_Driver/Src/stm32f1xx_hal_tim_ex.c ****       __HAL_TIM_ENABLE_DMA(htim, TIM_DMA_CC2);
 768:Drivers/STM32F1xx_HAL_Driver/Src/stm32f1xx_hal_tim_ex.c ****       break;
 769:Drivers/STM32F1xx_HAL_Driver/Src/stm32f1xx_hal_tim_ex.c ****     }
 770:Drivers/STM32F1xx_HAL_Driver/Src/stm32f1xx_hal_tim_ex.c **** 
 771:Drivers/STM32F1xx_HAL_Driver/Src/stm32f1xx_hal_tim_ex.c ****     case TIM_CHANNEL_3:
 772:Drivers/STM32F1xx_HAL_Driver/Src/stm32f1xx_hal_tim_ex.c ****     {
 773:Drivers/STM32F1xx_HAL_Driver/Src/stm32f1xx_hal_tim_ex.c ****       /* Set the DMA compare callbacks */
 774:Drivers/STM32F1xx_HAL_Driver/Src/stm32f1xx_hal_tim_ex.c ****       htim->hdma[TIM_DMA_ID_CC3]->XferCpltCallback = TIM_DMADelayPulseCplt;
 775:Drivers/STM32F1xx_HAL_Driver/Src/stm32f1xx_hal_tim_ex.c ****       htim->hdma[TIM_DMA_ID_CC3]->XferHalfCpltCallback = TIM_DMADelayPulseHalfCplt;
 776:Drivers/STM32F1xx_HAL_Driver/Src/stm32f1xx_hal_tim_ex.c **** 
 777:Drivers/STM32F1xx_HAL_Driver/Src/stm32f1xx_hal_tim_ex.c ****       /* Set the DMA error callback */
 778:Drivers/STM32F1xx_HAL_Driver/Src/stm32f1xx_hal_tim_ex.c ****       htim->hdma[TIM_DMA_ID_CC3]->XferErrorCallback = TIM_DMAError ;
 779:Drivers/STM32F1xx_HAL_Driver/Src/stm32f1xx_hal_tim_ex.c **** 
 780:Drivers/STM32F1xx_HAL_Driver/Src/stm32f1xx_hal_tim_ex.c ****       /* Enable the DMA channel */
 781:Drivers/STM32F1xx_HAL_Driver/Src/stm32f1xx_hal_tim_ex.c ****       if (HAL_DMA_Start_IT(htim->hdma[TIM_DMA_ID_CC3], (uint32_t)pData, (uint32_t)&htim->Instance->
 782:Drivers/STM32F1xx_HAL_Driver/Src/stm32f1xx_hal_tim_ex.c ****       {
 783:Drivers/STM32F1xx_HAL_Driver/Src/stm32f1xx_hal_tim_ex.c ****         return HAL_ERROR;
 784:Drivers/STM32F1xx_HAL_Driver/Src/stm32f1xx_hal_tim_ex.c ****       }
 785:Drivers/STM32F1xx_HAL_Driver/Src/stm32f1xx_hal_tim_ex.c ****       /* Enable the TIM Output Compare DMA request */
 786:Drivers/STM32F1xx_HAL_Driver/Src/stm32f1xx_hal_tim_ex.c ****       __HAL_TIM_ENABLE_DMA(htim, TIM_DMA_CC3);
 787:Drivers/STM32F1xx_HAL_Driver/Src/stm32f1xx_hal_tim_ex.c ****       break;
 788:Drivers/STM32F1xx_HAL_Driver/Src/stm32f1xx_hal_tim_ex.c ****     }
 789:Drivers/STM32F1xx_HAL_Driver/Src/stm32f1xx_hal_tim_ex.c **** 
ARM GAS  /var/folders/20/cstyxln53wn53rr40gj353bh0000gn/T//ccV5XGPK.s 			page 31


 790:Drivers/STM32F1xx_HAL_Driver/Src/stm32f1xx_hal_tim_ex.c ****     default:
 791:Drivers/STM32F1xx_HAL_Driver/Src/stm32f1xx_hal_tim_ex.c ****       break;
 792:Drivers/STM32F1xx_HAL_Driver/Src/stm32f1xx_hal_tim_ex.c ****   }
 793:Drivers/STM32F1xx_HAL_Driver/Src/stm32f1xx_hal_tim_ex.c **** 
 794:Drivers/STM32F1xx_HAL_Driver/Src/stm32f1xx_hal_tim_ex.c ****   /* Enable the Capture compare channel N */
 795:Drivers/STM32F1xx_HAL_Driver/Src/stm32f1xx_hal_tim_ex.c ****   TIM_CCxNChannelCmd(htim->Instance, Channel, TIM_CCxN_ENABLE);
 796:Drivers/STM32F1xx_HAL_Driver/Src/stm32f1xx_hal_tim_ex.c **** 
 797:Drivers/STM32F1xx_HAL_Driver/Src/stm32f1xx_hal_tim_ex.c ****   /* Enable the Main Output */
 798:Drivers/STM32F1xx_HAL_Driver/Src/stm32f1xx_hal_tim_ex.c ****   __HAL_TIM_MOE_ENABLE(htim);
 799:Drivers/STM32F1xx_HAL_Driver/Src/stm32f1xx_hal_tim_ex.c **** 
 800:Drivers/STM32F1xx_HAL_Driver/Src/stm32f1xx_hal_tim_ex.c ****   /* Enable the Peripheral, except in trigger mode where enable is automatically done with trigger 
 801:Drivers/STM32F1xx_HAL_Driver/Src/stm32f1xx_hal_tim_ex.c ****   tmpsmcr = htim->Instance->SMCR & TIM_SMCR_SMS;
 802:Drivers/STM32F1xx_HAL_Driver/Src/stm32f1xx_hal_tim_ex.c ****   if (!IS_TIM_SLAVEMODE_TRIGGER_ENABLED(tmpsmcr))
 803:Drivers/STM32F1xx_HAL_Driver/Src/stm32f1xx_hal_tim_ex.c ****   {
 804:Drivers/STM32F1xx_HAL_Driver/Src/stm32f1xx_hal_tim_ex.c ****     __HAL_TIM_ENABLE(htim);
 805:Drivers/STM32F1xx_HAL_Driver/Src/stm32f1xx_hal_tim_ex.c ****   }
 806:Drivers/STM32F1xx_HAL_Driver/Src/stm32f1xx_hal_tim_ex.c **** 
 807:Drivers/STM32F1xx_HAL_Driver/Src/stm32f1xx_hal_tim_ex.c ****   /* Return function status */
 808:Drivers/STM32F1xx_HAL_Driver/Src/stm32f1xx_hal_tim_ex.c ****   return HAL_OK;
 809:Drivers/STM32F1xx_HAL_Driver/Src/stm32f1xx_hal_tim_ex.c **** }
 810:Drivers/STM32F1xx_HAL_Driver/Src/stm32f1xx_hal_tim_ex.c **** 
 811:Drivers/STM32F1xx_HAL_Driver/Src/stm32f1xx_hal_tim_ex.c **** /**
 812:Drivers/STM32F1xx_HAL_Driver/Src/stm32f1xx_hal_tim_ex.c ****   * @brief  Stops the TIM Output Compare signal generation in DMA mode
 813:Drivers/STM32F1xx_HAL_Driver/Src/stm32f1xx_hal_tim_ex.c ****   *         on the complementary output.
 814:Drivers/STM32F1xx_HAL_Driver/Src/stm32f1xx_hal_tim_ex.c ****   * @param  htim TIM Output Compare handle
 815:Drivers/STM32F1xx_HAL_Driver/Src/stm32f1xx_hal_tim_ex.c ****   * @param  Channel TIM Channel to be disabled
 816:Drivers/STM32F1xx_HAL_Driver/Src/stm32f1xx_hal_tim_ex.c ****   *          This parameter can be one of the following values:
 817:Drivers/STM32F1xx_HAL_Driver/Src/stm32f1xx_hal_tim_ex.c ****   *            @arg TIM_CHANNEL_1: TIM Channel 1 selected
 818:Drivers/STM32F1xx_HAL_Driver/Src/stm32f1xx_hal_tim_ex.c ****   *            @arg TIM_CHANNEL_2: TIM Channel 2 selected
 819:Drivers/STM32F1xx_HAL_Driver/Src/stm32f1xx_hal_tim_ex.c ****   *            @arg TIM_CHANNEL_3: TIM Channel 3 selected
 820:Drivers/STM32F1xx_HAL_Driver/Src/stm32f1xx_hal_tim_ex.c ****   * @retval HAL status
 821:Drivers/STM32F1xx_HAL_Driver/Src/stm32f1xx_hal_tim_ex.c ****   */
 822:Drivers/STM32F1xx_HAL_Driver/Src/stm32f1xx_hal_tim_ex.c **** HAL_StatusTypeDef HAL_TIMEx_OCN_Stop_DMA(TIM_HandleTypeDef *htim, uint32_t Channel)
 823:Drivers/STM32F1xx_HAL_Driver/Src/stm32f1xx_hal_tim_ex.c **** {
 824:Drivers/STM32F1xx_HAL_Driver/Src/stm32f1xx_hal_tim_ex.c ****   /* Check the parameters */
 825:Drivers/STM32F1xx_HAL_Driver/Src/stm32f1xx_hal_tim_ex.c ****   assert_param(IS_TIM_CCXN_INSTANCE(htim->Instance, Channel));
 826:Drivers/STM32F1xx_HAL_Driver/Src/stm32f1xx_hal_tim_ex.c **** 
 827:Drivers/STM32F1xx_HAL_Driver/Src/stm32f1xx_hal_tim_ex.c ****   switch (Channel)
 828:Drivers/STM32F1xx_HAL_Driver/Src/stm32f1xx_hal_tim_ex.c ****   {
 829:Drivers/STM32F1xx_HAL_Driver/Src/stm32f1xx_hal_tim_ex.c ****     case TIM_CHANNEL_1:
 830:Drivers/STM32F1xx_HAL_Driver/Src/stm32f1xx_hal_tim_ex.c ****     {
 831:Drivers/STM32F1xx_HAL_Driver/Src/stm32f1xx_hal_tim_ex.c ****       /* Disable the TIM Output Compare DMA request */
 832:Drivers/STM32F1xx_HAL_Driver/Src/stm32f1xx_hal_tim_ex.c ****       __HAL_TIM_DISABLE_DMA(htim, TIM_DMA_CC1);
 833:Drivers/STM32F1xx_HAL_Driver/Src/stm32f1xx_hal_tim_ex.c ****       (void)HAL_DMA_Abort_IT(htim->hdma[TIM_DMA_ID_CC1]);
 834:Drivers/STM32F1xx_HAL_Driver/Src/stm32f1xx_hal_tim_ex.c ****       break;
 835:Drivers/STM32F1xx_HAL_Driver/Src/stm32f1xx_hal_tim_ex.c ****     }
 836:Drivers/STM32F1xx_HAL_Driver/Src/stm32f1xx_hal_tim_ex.c **** 
 837:Drivers/STM32F1xx_HAL_Driver/Src/stm32f1xx_hal_tim_ex.c ****     case TIM_CHANNEL_2:
 838:Drivers/STM32F1xx_HAL_Driver/Src/stm32f1xx_hal_tim_ex.c ****     {
 839:Drivers/STM32F1xx_HAL_Driver/Src/stm32f1xx_hal_tim_ex.c ****       /* Disable the TIM Output Compare DMA request */
 840:Drivers/STM32F1xx_HAL_Driver/Src/stm32f1xx_hal_tim_ex.c ****       __HAL_TIM_DISABLE_DMA(htim, TIM_DMA_CC2);
 841:Drivers/STM32F1xx_HAL_Driver/Src/stm32f1xx_hal_tim_ex.c ****       (void)HAL_DMA_Abort_IT(htim->hdma[TIM_DMA_ID_CC2]);
 842:Drivers/STM32F1xx_HAL_Driver/Src/stm32f1xx_hal_tim_ex.c ****       break;
 843:Drivers/STM32F1xx_HAL_Driver/Src/stm32f1xx_hal_tim_ex.c ****     }
 844:Drivers/STM32F1xx_HAL_Driver/Src/stm32f1xx_hal_tim_ex.c **** 
 845:Drivers/STM32F1xx_HAL_Driver/Src/stm32f1xx_hal_tim_ex.c ****     case TIM_CHANNEL_3:
 846:Drivers/STM32F1xx_HAL_Driver/Src/stm32f1xx_hal_tim_ex.c ****     {
ARM GAS  /var/folders/20/cstyxln53wn53rr40gj353bh0000gn/T//ccV5XGPK.s 			page 32


 847:Drivers/STM32F1xx_HAL_Driver/Src/stm32f1xx_hal_tim_ex.c ****       /* Disable the TIM Output Compare DMA request */
 848:Drivers/STM32F1xx_HAL_Driver/Src/stm32f1xx_hal_tim_ex.c ****       __HAL_TIM_DISABLE_DMA(htim, TIM_DMA_CC3);
 849:Drivers/STM32F1xx_HAL_Driver/Src/stm32f1xx_hal_tim_ex.c ****       (void)HAL_DMA_Abort_IT(htim->hdma[TIM_DMA_ID_CC3]);
 850:Drivers/STM32F1xx_HAL_Driver/Src/stm32f1xx_hal_tim_ex.c ****       break;
 851:Drivers/STM32F1xx_HAL_Driver/Src/stm32f1xx_hal_tim_ex.c ****     }
 852:Drivers/STM32F1xx_HAL_Driver/Src/stm32f1xx_hal_tim_ex.c **** 
 853:Drivers/STM32F1xx_HAL_Driver/Src/stm32f1xx_hal_tim_ex.c ****     default:
 854:Drivers/STM32F1xx_HAL_Driver/Src/stm32f1xx_hal_tim_ex.c ****       break;
 855:Drivers/STM32F1xx_HAL_Driver/Src/stm32f1xx_hal_tim_ex.c ****   }
 856:Drivers/STM32F1xx_HAL_Driver/Src/stm32f1xx_hal_tim_ex.c **** 
 857:Drivers/STM32F1xx_HAL_Driver/Src/stm32f1xx_hal_tim_ex.c ****   /* Disable the Capture compare channel N */
 858:Drivers/STM32F1xx_HAL_Driver/Src/stm32f1xx_hal_tim_ex.c ****   TIM_CCxNChannelCmd(htim->Instance, Channel, TIM_CCxN_DISABLE);
 859:Drivers/STM32F1xx_HAL_Driver/Src/stm32f1xx_hal_tim_ex.c **** 
 860:Drivers/STM32F1xx_HAL_Driver/Src/stm32f1xx_hal_tim_ex.c ****   /* Disable the Main Output */
 861:Drivers/STM32F1xx_HAL_Driver/Src/stm32f1xx_hal_tim_ex.c ****   __HAL_TIM_MOE_DISABLE(htim);
 862:Drivers/STM32F1xx_HAL_Driver/Src/stm32f1xx_hal_tim_ex.c **** 
 863:Drivers/STM32F1xx_HAL_Driver/Src/stm32f1xx_hal_tim_ex.c ****   /* Disable the Peripheral */
 864:Drivers/STM32F1xx_HAL_Driver/Src/stm32f1xx_hal_tim_ex.c ****   __HAL_TIM_DISABLE(htim);
 865:Drivers/STM32F1xx_HAL_Driver/Src/stm32f1xx_hal_tim_ex.c **** 
 866:Drivers/STM32F1xx_HAL_Driver/Src/stm32f1xx_hal_tim_ex.c ****   /* Change the htim state */
 867:Drivers/STM32F1xx_HAL_Driver/Src/stm32f1xx_hal_tim_ex.c ****   htim->State = HAL_TIM_STATE_READY;
 868:Drivers/STM32F1xx_HAL_Driver/Src/stm32f1xx_hal_tim_ex.c **** 
 869:Drivers/STM32F1xx_HAL_Driver/Src/stm32f1xx_hal_tim_ex.c ****   /* Return function status */
 870:Drivers/STM32F1xx_HAL_Driver/Src/stm32f1xx_hal_tim_ex.c ****   return HAL_OK;
 871:Drivers/STM32F1xx_HAL_Driver/Src/stm32f1xx_hal_tim_ex.c **** }
 872:Drivers/STM32F1xx_HAL_Driver/Src/stm32f1xx_hal_tim_ex.c **** 
 873:Drivers/STM32F1xx_HAL_Driver/Src/stm32f1xx_hal_tim_ex.c **** /**
 874:Drivers/STM32F1xx_HAL_Driver/Src/stm32f1xx_hal_tim_ex.c ****   * @}
 875:Drivers/STM32F1xx_HAL_Driver/Src/stm32f1xx_hal_tim_ex.c ****   */
 876:Drivers/STM32F1xx_HAL_Driver/Src/stm32f1xx_hal_tim_ex.c **** 
 877:Drivers/STM32F1xx_HAL_Driver/Src/stm32f1xx_hal_tim_ex.c **** /** @defgroup TIMEx_Exported_Functions_Group3 Extended Timer Complementary PWM functions
 878:Drivers/STM32F1xx_HAL_Driver/Src/stm32f1xx_hal_tim_ex.c ****   * @brief    Timer Complementary PWM functions
 879:Drivers/STM32F1xx_HAL_Driver/Src/stm32f1xx_hal_tim_ex.c ****   *
 880:Drivers/STM32F1xx_HAL_Driver/Src/stm32f1xx_hal_tim_ex.c **** @verbatim
 881:Drivers/STM32F1xx_HAL_Driver/Src/stm32f1xx_hal_tim_ex.c ****   ==============================================================================
 882:Drivers/STM32F1xx_HAL_Driver/Src/stm32f1xx_hal_tim_ex.c ****                  ##### Timer Complementary PWM functions #####
 883:Drivers/STM32F1xx_HAL_Driver/Src/stm32f1xx_hal_tim_ex.c ****   ==============================================================================
 884:Drivers/STM32F1xx_HAL_Driver/Src/stm32f1xx_hal_tim_ex.c ****   [..]
 885:Drivers/STM32F1xx_HAL_Driver/Src/stm32f1xx_hal_tim_ex.c ****     This section provides functions allowing to:
 886:Drivers/STM32F1xx_HAL_Driver/Src/stm32f1xx_hal_tim_ex.c ****     (+) Start the Complementary PWM.
 887:Drivers/STM32F1xx_HAL_Driver/Src/stm32f1xx_hal_tim_ex.c ****     (+) Stop the Complementary PWM.
 888:Drivers/STM32F1xx_HAL_Driver/Src/stm32f1xx_hal_tim_ex.c ****     (+) Start the Complementary PWM and enable interrupts.
 889:Drivers/STM32F1xx_HAL_Driver/Src/stm32f1xx_hal_tim_ex.c ****     (+) Stop the Complementary PWM and disable interrupts.
 890:Drivers/STM32F1xx_HAL_Driver/Src/stm32f1xx_hal_tim_ex.c ****     (+) Start the Complementary PWM and enable DMA transfers.
 891:Drivers/STM32F1xx_HAL_Driver/Src/stm32f1xx_hal_tim_ex.c ****     (+) Stop the Complementary PWM and disable DMA transfers.
 892:Drivers/STM32F1xx_HAL_Driver/Src/stm32f1xx_hal_tim_ex.c ****     (+) Start the Complementary Input Capture measurement.
 893:Drivers/STM32F1xx_HAL_Driver/Src/stm32f1xx_hal_tim_ex.c ****     (+) Stop the Complementary Input Capture.
 894:Drivers/STM32F1xx_HAL_Driver/Src/stm32f1xx_hal_tim_ex.c ****     (+) Start the Complementary Input Capture and enable interrupts.
 895:Drivers/STM32F1xx_HAL_Driver/Src/stm32f1xx_hal_tim_ex.c ****     (+) Stop the Complementary Input Capture and disable interrupts.
 896:Drivers/STM32F1xx_HAL_Driver/Src/stm32f1xx_hal_tim_ex.c ****     (+) Start the Complementary Input Capture and enable DMA transfers.
 897:Drivers/STM32F1xx_HAL_Driver/Src/stm32f1xx_hal_tim_ex.c ****     (+) Stop the Complementary Input Capture and disable DMA transfers.
 898:Drivers/STM32F1xx_HAL_Driver/Src/stm32f1xx_hal_tim_ex.c ****     (+) Start the Complementary One Pulse generation.
 899:Drivers/STM32F1xx_HAL_Driver/Src/stm32f1xx_hal_tim_ex.c ****     (+) Stop the Complementary One Pulse.
 900:Drivers/STM32F1xx_HAL_Driver/Src/stm32f1xx_hal_tim_ex.c ****     (+) Start the Complementary One Pulse and enable interrupts.
 901:Drivers/STM32F1xx_HAL_Driver/Src/stm32f1xx_hal_tim_ex.c ****     (+) Stop the Complementary One Pulse and disable interrupts.
 902:Drivers/STM32F1xx_HAL_Driver/Src/stm32f1xx_hal_tim_ex.c **** 
 903:Drivers/STM32F1xx_HAL_Driver/Src/stm32f1xx_hal_tim_ex.c **** @endverbatim
ARM GAS  /var/folders/20/cstyxln53wn53rr40gj353bh0000gn/T//ccV5XGPK.s 			page 33


 904:Drivers/STM32F1xx_HAL_Driver/Src/stm32f1xx_hal_tim_ex.c ****   * @{
 905:Drivers/STM32F1xx_HAL_Driver/Src/stm32f1xx_hal_tim_ex.c ****   */
 906:Drivers/STM32F1xx_HAL_Driver/Src/stm32f1xx_hal_tim_ex.c **** 
 907:Drivers/STM32F1xx_HAL_Driver/Src/stm32f1xx_hal_tim_ex.c **** /**
 908:Drivers/STM32F1xx_HAL_Driver/Src/stm32f1xx_hal_tim_ex.c ****   * @brief  Starts the PWM signal generation on the complementary output.
 909:Drivers/STM32F1xx_HAL_Driver/Src/stm32f1xx_hal_tim_ex.c ****   * @param  htim TIM handle
 910:Drivers/STM32F1xx_HAL_Driver/Src/stm32f1xx_hal_tim_ex.c ****   * @param  Channel TIM Channel to be enabled
 911:Drivers/STM32F1xx_HAL_Driver/Src/stm32f1xx_hal_tim_ex.c ****   *          This parameter can be one of the following values:
 912:Drivers/STM32F1xx_HAL_Driver/Src/stm32f1xx_hal_tim_ex.c ****   *            @arg TIM_CHANNEL_1: TIM Channel 1 selected
 913:Drivers/STM32F1xx_HAL_Driver/Src/stm32f1xx_hal_tim_ex.c ****   *            @arg TIM_CHANNEL_2: TIM Channel 2 selected
 914:Drivers/STM32F1xx_HAL_Driver/Src/stm32f1xx_hal_tim_ex.c ****   *            @arg TIM_CHANNEL_3: TIM Channel 3 selected
 915:Drivers/STM32F1xx_HAL_Driver/Src/stm32f1xx_hal_tim_ex.c ****   * @retval HAL status
 916:Drivers/STM32F1xx_HAL_Driver/Src/stm32f1xx_hal_tim_ex.c ****   */
 917:Drivers/STM32F1xx_HAL_Driver/Src/stm32f1xx_hal_tim_ex.c **** HAL_StatusTypeDef HAL_TIMEx_PWMN_Start(TIM_HandleTypeDef *htim, uint32_t Channel)
 918:Drivers/STM32F1xx_HAL_Driver/Src/stm32f1xx_hal_tim_ex.c **** {
 919:Drivers/STM32F1xx_HAL_Driver/Src/stm32f1xx_hal_tim_ex.c ****   uint32_t tmpsmcr;
 920:Drivers/STM32F1xx_HAL_Driver/Src/stm32f1xx_hal_tim_ex.c **** 
 921:Drivers/STM32F1xx_HAL_Driver/Src/stm32f1xx_hal_tim_ex.c ****   /* Check the parameters */
 922:Drivers/STM32F1xx_HAL_Driver/Src/stm32f1xx_hal_tim_ex.c ****   assert_param(IS_TIM_CCXN_INSTANCE(htim->Instance, Channel));
 923:Drivers/STM32F1xx_HAL_Driver/Src/stm32f1xx_hal_tim_ex.c **** 
 924:Drivers/STM32F1xx_HAL_Driver/Src/stm32f1xx_hal_tim_ex.c ****   /* Enable the complementary PWM output  */
 925:Drivers/STM32F1xx_HAL_Driver/Src/stm32f1xx_hal_tim_ex.c ****   TIM_CCxNChannelCmd(htim->Instance, Channel, TIM_CCxN_ENABLE);
 926:Drivers/STM32F1xx_HAL_Driver/Src/stm32f1xx_hal_tim_ex.c **** 
 927:Drivers/STM32F1xx_HAL_Driver/Src/stm32f1xx_hal_tim_ex.c ****   /* Enable the Main Output */
 928:Drivers/STM32F1xx_HAL_Driver/Src/stm32f1xx_hal_tim_ex.c ****   __HAL_TIM_MOE_ENABLE(htim);
 929:Drivers/STM32F1xx_HAL_Driver/Src/stm32f1xx_hal_tim_ex.c **** 
 930:Drivers/STM32F1xx_HAL_Driver/Src/stm32f1xx_hal_tim_ex.c ****   /* Enable the Peripheral, except in trigger mode where enable is automatically done with trigger 
 931:Drivers/STM32F1xx_HAL_Driver/Src/stm32f1xx_hal_tim_ex.c ****   tmpsmcr = htim->Instance->SMCR & TIM_SMCR_SMS;
 932:Drivers/STM32F1xx_HAL_Driver/Src/stm32f1xx_hal_tim_ex.c ****   if (!IS_TIM_SLAVEMODE_TRIGGER_ENABLED(tmpsmcr))
 933:Drivers/STM32F1xx_HAL_Driver/Src/stm32f1xx_hal_tim_ex.c ****   {
 934:Drivers/STM32F1xx_HAL_Driver/Src/stm32f1xx_hal_tim_ex.c ****     __HAL_TIM_ENABLE(htim);
 935:Drivers/STM32F1xx_HAL_Driver/Src/stm32f1xx_hal_tim_ex.c ****   }
 936:Drivers/STM32F1xx_HAL_Driver/Src/stm32f1xx_hal_tim_ex.c **** 
 937:Drivers/STM32F1xx_HAL_Driver/Src/stm32f1xx_hal_tim_ex.c ****   /* Return function status */
 938:Drivers/STM32F1xx_HAL_Driver/Src/stm32f1xx_hal_tim_ex.c ****   return HAL_OK;
 939:Drivers/STM32F1xx_HAL_Driver/Src/stm32f1xx_hal_tim_ex.c **** }
 940:Drivers/STM32F1xx_HAL_Driver/Src/stm32f1xx_hal_tim_ex.c **** 
 941:Drivers/STM32F1xx_HAL_Driver/Src/stm32f1xx_hal_tim_ex.c **** /**
 942:Drivers/STM32F1xx_HAL_Driver/Src/stm32f1xx_hal_tim_ex.c ****   * @brief  Stops the PWM signal generation on the complementary output.
 943:Drivers/STM32F1xx_HAL_Driver/Src/stm32f1xx_hal_tim_ex.c ****   * @param  htim TIM handle
 944:Drivers/STM32F1xx_HAL_Driver/Src/stm32f1xx_hal_tim_ex.c ****   * @param  Channel TIM Channel to be disabled
 945:Drivers/STM32F1xx_HAL_Driver/Src/stm32f1xx_hal_tim_ex.c ****   *          This parameter can be one of the following values:
 946:Drivers/STM32F1xx_HAL_Driver/Src/stm32f1xx_hal_tim_ex.c ****   *            @arg TIM_CHANNEL_1: TIM Channel 1 selected
 947:Drivers/STM32F1xx_HAL_Driver/Src/stm32f1xx_hal_tim_ex.c ****   *            @arg TIM_CHANNEL_2: TIM Channel 2 selected
 948:Drivers/STM32F1xx_HAL_Driver/Src/stm32f1xx_hal_tim_ex.c ****   *            @arg TIM_CHANNEL_3: TIM Channel 3 selected
 949:Drivers/STM32F1xx_HAL_Driver/Src/stm32f1xx_hal_tim_ex.c ****   * @retval HAL status
 950:Drivers/STM32F1xx_HAL_Driver/Src/stm32f1xx_hal_tim_ex.c ****   */
 951:Drivers/STM32F1xx_HAL_Driver/Src/stm32f1xx_hal_tim_ex.c **** HAL_StatusTypeDef HAL_TIMEx_PWMN_Stop(TIM_HandleTypeDef *htim, uint32_t Channel)
 952:Drivers/STM32F1xx_HAL_Driver/Src/stm32f1xx_hal_tim_ex.c **** {
 953:Drivers/STM32F1xx_HAL_Driver/Src/stm32f1xx_hal_tim_ex.c ****   /* Check the parameters */
 954:Drivers/STM32F1xx_HAL_Driver/Src/stm32f1xx_hal_tim_ex.c ****   assert_param(IS_TIM_CCXN_INSTANCE(htim->Instance, Channel));
 955:Drivers/STM32F1xx_HAL_Driver/Src/stm32f1xx_hal_tim_ex.c **** 
 956:Drivers/STM32F1xx_HAL_Driver/Src/stm32f1xx_hal_tim_ex.c ****   /* Disable the complementary PWM output  */
 957:Drivers/STM32F1xx_HAL_Driver/Src/stm32f1xx_hal_tim_ex.c ****   TIM_CCxNChannelCmd(htim->Instance, Channel, TIM_CCxN_DISABLE);
 958:Drivers/STM32F1xx_HAL_Driver/Src/stm32f1xx_hal_tim_ex.c **** 
 959:Drivers/STM32F1xx_HAL_Driver/Src/stm32f1xx_hal_tim_ex.c ****   /* Disable the Main Output */
 960:Drivers/STM32F1xx_HAL_Driver/Src/stm32f1xx_hal_tim_ex.c ****   __HAL_TIM_MOE_DISABLE(htim);
ARM GAS  /var/folders/20/cstyxln53wn53rr40gj353bh0000gn/T//ccV5XGPK.s 			page 34


 961:Drivers/STM32F1xx_HAL_Driver/Src/stm32f1xx_hal_tim_ex.c **** 
 962:Drivers/STM32F1xx_HAL_Driver/Src/stm32f1xx_hal_tim_ex.c ****   /* Disable the Peripheral */
 963:Drivers/STM32F1xx_HAL_Driver/Src/stm32f1xx_hal_tim_ex.c ****   __HAL_TIM_DISABLE(htim);
 964:Drivers/STM32F1xx_HAL_Driver/Src/stm32f1xx_hal_tim_ex.c **** 
 965:Drivers/STM32F1xx_HAL_Driver/Src/stm32f1xx_hal_tim_ex.c ****   /* Return function status */
 966:Drivers/STM32F1xx_HAL_Driver/Src/stm32f1xx_hal_tim_ex.c ****   return HAL_OK;
 967:Drivers/STM32F1xx_HAL_Driver/Src/stm32f1xx_hal_tim_ex.c **** }
 968:Drivers/STM32F1xx_HAL_Driver/Src/stm32f1xx_hal_tim_ex.c **** 
 969:Drivers/STM32F1xx_HAL_Driver/Src/stm32f1xx_hal_tim_ex.c **** /**
 970:Drivers/STM32F1xx_HAL_Driver/Src/stm32f1xx_hal_tim_ex.c ****   * @brief  Starts the PWM signal generation in interrupt mode on the
 971:Drivers/STM32F1xx_HAL_Driver/Src/stm32f1xx_hal_tim_ex.c ****   *         complementary output.
 972:Drivers/STM32F1xx_HAL_Driver/Src/stm32f1xx_hal_tim_ex.c ****   * @param  htim TIM handle
 973:Drivers/STM32F1xx_HAL_Driver/Src/stm32f1xx_hal_tim_ex.c ****   * @param  Channel TIM Channel to be disabled
 974:Drivers/STM32F1xx_HAL_Driver/Src/stm32f1xx_hal_tim_ex.c ****   *          This parameter can be one of the following values:
 975:Drivers/STM32F1xx_HAL_Driver/Src/stm32f1xx_hal_tim_ex.c ****   *            @arg TIM_CHANNEL_1: TIM Channel 1 selected
 976:Drivers/STM32F1xx_HAL_Driver/Src/stm32f1xx_hal_tim_ex.c ****   *            @arg TIM_CHANNEL_2: TIM Channel 2 selected
 977:Drivers/STM32F1xx_HAL_Driver/Src/stm32f1xx_hal_tim_ex.c ****   *            @arg TIM_CHANNEL_3: TIM Channel 3 selected
 978:Drivers/STM32F1xx_HAL_Driver/Src/stm32f1xx_hal_tim_ex.c ****   * @retval HAL status
 979:Drivers/STM32F1xx_HAL_Driver/Src/stm32f1xx_hal_tim_ex.c ****   */
 980:Drivers/STM32F1xx_HAL_Driver/Src/stm32f1xx_hal_tim_ex.c **** HAL_StatusTypeDef HAL_TIMEx_PWMN_Start_IT(TIM_HandleTypeDef *htim, uint32_t Channel)
 981:Drivers/STM32F1xx_HAL_Driver/Src/stm32f1xx_hal_tim_ex.c **** {
 982:Drivers/STM32F1xx_HAL_Driver/Src/stm32f1xx_hal_tim_ex.c ****   uint32_t tmpsmcr;
 983:Drivers/STM32F1xx_HAL_Driver/Src/stm32f1xx_hal_tim_ex.c **** 
 984:Drivers/STM32F1xx_HAL_Driver/Src/stm32f1xx_hal_tim_ex.c ****   /* Check the parameters */
 985:Drivers/STM32F1xx_HAL_Driver/Src/stm32f1xx_hal_tim_ex.c ****   assert_param(IS_TIM_CCXN_INSTANCE(htim->Instance, Channel));
 986:Drivers/STM32F1xx_HAL_Driver/Src/stm32f1xx_hal_tim_ex.c **** 
 987:Drivers/STM32F1xx_HAL_Driver/Src/stm32f1xx_hal_tim_ex.c ****   switch (Channel)
 988:Drivers/STM32F1xx_HAL_Driver/Src/stm32f1xx_hal_tim_ex.c ****   {
 989:Drivers/STM32F1xx_HAL_Driver/Src/stm32f1xx_hal_tim_ex.c ****     case TIM_CHANNEL_1:
 990:Drivers/STM32F1xx_HAL_Driver/Src/stm32f1xx_hal_tim_ex.c ****     {
 991:Drivers/STM32F1xx_HAL_Driver/Src/stm32f1xx_hal_tim_ex.c ****       /* Enable the TIM Capture/Compare 1 interrupt */
 992:Drivers/STM32F1xx_HAL_Driver/Src/stm32f1xx_hal_tim_ex.c ****       __HAL_TIM_ENABLE_IT(htim, TIM_IT_CC1);
 993:Drivers/STM32F1xx_HAL_Driver/Src/stm32f1xx_hal_tim_ex.c ****       break;
 994:Drivers/STM32F1xx_HAL_Driver/Src/stm32f1xx_hal_tim_ex.c ****     }
 995:Drivers/STM32F1xx_HAL_Driver/Src/stm32f1xx_hal_tim_ex.c **** 
 996:Drivers/STM32F1xx_HAL_Driver/Src/stm32f1xx_hal_tim_ex.c ****     case TIM_CHANNEL_2:
 997:Drivers/STM32F1xx_HAL_Driver/Src/stm32f1xx_hal_tim_ex.c ****     {
 998:Drivers/STM32F1xx_HAL_Driver/Src/stm32f1xx_hal_tim_ex.c ****       /* Enable the TIM Capture/Compare 2 interrupt */
 999:Drivers/STM32F1xx_HAL_Driver/Src/stm32f1xx_hal_tim_ex.c ****       __HAL_TIM_ENABLE_IT(htim, TIM_IT_CC2);
1000:Drivers/STM32F1xx_HAL_Driver/Src/stm32f1xx_hal_tim_ex.c ****       break;
1001:Drivers/STM32F1xx_HAL_Driver/Src/stm32f1xx_hal_tim_ex.c ****     }
1002:Drivers/STM32F1xx_HAL_Driver/Src/stm32f1xx_hal_tim_ex.c **** 
1003:Drivers/STM32F1xx_HAL_Driver/Src/stm32f1xx_hal_tim_ex.c ****     case TIM_CHANNEL_3:
1004:Drivers/STM32F1xx_HAL_Driver/Src/stm32f1xx_hal_tim_ex.c ****     {
1005:Drivers/STM32F1xx_HAL_Driver/Src/stm32f1xx_hal_tim_ex.c ****       /* Enable the TIM Capture/Compare 3 interrupt */
1006:Drivers/STM32F1xx_HAL_Driver/Src/stm32f1xx_hal_tim_ex.c ****       __HAL_TIM_ENABLE_IT(htim, TIM_IT_CC3);
1007:Drivers/STM32F1xx_HAL_Driver/Src/stm32f1xx_hal_tim_ex.c ****       break;
1008:Drivers/STM32F1xx_HAL_Driver/Src/stm32f1xx_hal_tim_ex.c ****     }
1009:Drivers/STM32F1xx_HAL_Driver/Src/stm32f1xx_hal_tim_ex.c **** 
1010:Drivers/STM32F1xx_HAL_Driver/Src/stm32f1xx_hal_tim_ex.c ****     default:
1011:Drivers/STM32F1xx_HAL_Driver/Src/stm32f1xx_hal_tim_ex.c ****       break;
1012:Drivers/STM32F1xx_HAL_Driver/Src/stm32f1xx_hal_tim_ex.c ****   }
1013:Drivers/STM32F1xx_HAL_Driver/Src/stm32f1xx_hal_tim_ex.c **** 
1014:Drivers/STM32F1xx_HAL_Driver/Src/stm32f1xx_hal_tim_ex.c ****   /* Enable the TIM Break interrupt */
1015:Drivers/STM32F1xx_HAL_Driver/Src/stm32f1xx_hal_tim_ex.c ****   __HAL_TIM_ENABLE_IT(htim, TIM_IT_BREAK);
1016:Drivers/STM32F1xx_HAL_Driver/Src/stm32f1xx_hal_tim_ex.c **** 
1017:Drivers/STM32F1xx_HAL_Driver/Src/stm32f1xx_hal_tim_ex.c ****   /* Enable the complementary PWM output  */
ARM GAS  /var/folders/20/cstyxln53wn53rr40gj353bh0000gn/T//ccV5XGPK.s 			page 35


1018:Drivers/STM32F1xx_HAL_Driver/Src/stm32f1xx_hal_tim_ex.c ****   TIM_CCxNChannelCmd(htim->Instance, Channel, TIM_CCxN_ENABLE);
1019:Drivers/STM32F1xx_HAL_Driver/Src/stm32f1xx_hal_tim_ex.c **** 
1020:Drivers/STM32F1xx_HAL_Driver/Src/stm32f1xx_hal_tim_ex.c ****   /* Enable the Main Output */
1021:Drivers/STM32F1xx_HAL_Driver/Src/stm32f1xx_hal_tim_ex.c ****   __HAL_TIM_MOE_ENABLE(htim);
1022:Drivers/STM32F1xx_HAL_Driver/Src/stm32f1xx_hal_tim_ex.c **** 
1023:Drivers/STM32F1xx_HAL_Driver/Src/stm32f1xx_hal_tim_ex.c ****   /* Enable the Peripheral, except in trigger mode where enable is automatically done with trigger 
1024:Drivers/STM32F1xx_HAL_Driver/Src/stm32f1xx_hal_tim_ex.c ****   tmpsmcr = htim->Instance->SMCR & TIM_SMCR_SMS;
1025:Drivers/STM32F1xx_HAL_Driver/Src/stm32f1xx_hal_tim_ex.c ****   if (!IS_TIM_SLAVEMODE_TRIGGER_ENABLED(tmpsmcr))
1026:Drivers/STM32F1xx_HAL_Driver/Src/stm32f1xx_hal_tim_ex.c ****   {
1027:Drivers/STM32F1xx_HAL_Driver/Src/stm32f1xx_hal_tim_ex.c ****     __HAL_TIM_ENABLE(htim);
1028:Drivers/STM32F1xx_HAL_Driver/Src/stm32f1xx_hal_tim_ex.c ****   }
1029:Drivers/STM32F1xx_HAL_Driver/Src/stm32f1xx_hal_tim_ex.c **** 
1030:Drivers/STM32F1xx_HAL_Driver/Src/stm32f1xx_hal_tim_ex.c ****   /* Return function status */
1031:Drivers/STM32F1xx_HAL_Driver/Src/stm32f1xx_hal_tim_ex.c ****   return HAL_OK;
1032:Drivers/STM32F1xx_HAL_Driver/Src/stm32f1xx_hal_tim_ex.c **** }
1033:Drivers/STM32F1xx_HAL_Driver/Src/stm32f1xx_hal_tim_ex.c **** 
1034:Drivers/STM32F1xx_HAL_Driver/Src/stm32f1xx_hal_tim_ex.c **** /**
1035:Drivers/STM32F1xx_HAL_Driver/Src/stm32f1xx_hal_tim_ex.c ****   * @brief  Stops the PWM signal generation in interrupt mode on the
1036:Drivers/STM32F1xx_HAL_Driver/Src/stm32f1xx_hal_tim_ex.c ****   *         complementary output.
1037:Drivers/STM32F1xx_HAL_Driver/Src/stm32f1xx_hal_tim_ex.c ****   * @param  htim TIM handle
1038:Drivers/STM32F1xx_HAL_Driver/Src/stm32f1xx_hal_tim_ex.c ****   * @param  Channel TIM Channel to be disabled
1039:Drivers/STM32F1xx_HAL_Driver/Src/stm32f1xx_hal_tim_ex.c ****   *          This parameter can be one of the following values:
1040:Drivers/STM32F1xx_HAL_Driver/Src/stm32f1xx_hal_tim_ex.c ****   *            @arg TIM_CHANNEL_1: TIM Channel 1 selected
1041:Drivers/STM32F1xx_HAL_Driver/Src/stm32f1xx_hal_tim_ex.c ****   *            @arg TIM_CHANNEL_2: TIM Channel 2 selected
1042:Drivers/STM32F1xx_HAL_Driver/Src/stm32f1xx_hal_tim_ex.c ****   *            @arg TIM_CHANNEL_3: TIM Channel 3 selected
1043:Drivers/STM32F1xx_HAL_Driver/Src/stm32f1xx_hal_tim_ex.c ****   * @retval HAL status
1044:Drivers/STM32F1xx_HAL_Driver/Src/stm32f1xx_hal_tim_ex.c ****   */
1045:Drivers/STM32F1xx_HAL_Driver/Src/stm32f1xx_hal_tim_ex.c **** HAL_StatusTypeDef HAL_TIMEx_PWMN_Stop_IT(TIM_HandleTypeDef *htim, uint32_t Channel)
1046:Drivers/STM32F1xx_HAL_Driver/Src/stm32f1xx_hal_tim_ex.c **** {
1047:Drivers/STM32F1xx_HAL_Driver/Src/stm32f1xx_hal_tim_ex.c ****   uint32_t tmpccer;
1048:Drivers/STM32F1xx_HAL_Driver/Src/stm32f1xx_hal_tim_ex.c **** 
1049:Drivers/STM32F1xx_HAL_Driver/Src/stm32f1xx_hal_tim_ex.c ****   /* Check the parameters */
1050:Drivers/STM32F1xx_HAL_Driver/Src/stm32f1xx_hal_tim_ex.c ****   assert_param(IS_TIM_CCXN_INSTANCE(htim->Instance, Channel));
1051:Drivers/STM32F1xx_HAL_Driver/Src/stm32f1xx_hal_tim_ex.c **** 
1052:Drivers/STM32F1xx_HAL_Driver/Src/stm32f1xx_hal_tim_ex.c ****   switch (Channel)
1053:Drivers/STM32F1xx_HAL_Driver/Src/stm32f1xx_hal_tim_ex.c ****   {
1054:Drivers/STM32F1xx_HAL_Driver/Src/stm32f1xx_hal_tim_ex.c ****     case TIM_CHANNEL_1:
1055:Drivers/STM32F1xx_HAL_Driver/Src/stm32f1xx_hal_tim_ex.c ****     {
1056:Drivers/STM32F1xx_HAL_Driver/Src/stm32f1xx_hal_tim_ex.c ****       /* Disable the TIM Capture/Compare 1 interrupt */
1057:Drivers/STM32F1xx_HAL_Driver/Src/stm32f1xx_hal_tim_ex.c ****       __HAL_TIM_DISABLE_IT(htim, TIM_IT_CC1);
1058:Drivers/STM32F1xx_HAL_Driver/Src/stm32f1xx_hal_tim_ex.c ****       break;
1059:Drivers/STM32F1xx_HAL_Driver/Src/stm32f1xx_hal_tim_ex.c ****     }
1060:Drivers/STM32F1xx_HAL_Driver/Src/stm32f1xx_hal_tim_ex.c **** 
1061:Drivers/STM32F1xx_HAL_Driver/Src/stm32f1xx_hal_tim_ex.c ****     case TIM_CHANNEL_2:
1062:Drivers/STM32F1xx_HAL_Driver/Src/stm32f1xx_hal_tim_ex.c ****     {
1063:Drivers/STM32F1xx_HAL_Driver/Src/stm32f1xx_hal_tim_ex.c ****       /* Disable the TIM Capture/Compare 2 interrupt */
1064:Drivers/STM32F1xx_HAL_Driver/Src/stm32f1xx_hal_tim_ex.c ****       __HAL_TIM_DISABLE_IT(htim, TIM_IT_CC2);
1065:Drivers/STM32F1xx_HAL_Driver/Src/stm32f1xx_hal_tim_ex.c ****       break;
1066:Drivers/STM32F1xx_HAL_Driver/Src/stm32f1xx_hal_tim_ex.c ****     }
1067:Drivers/STM32F1xx_HAL_Driver/Src/stm32f1xx_hal_tim_ex.c **** 
1068:Drivers/STM32F1xx_HAL_Driver/Src/stm32f1xx_hal_tim_ex.c ****     case TIM_CHANNEL_3:
1069:Drivers/STM32F1xx_HAL_Driver/Src/stm32f1xx_hal_tim_ex.c ****     {
1070:Drivers/STM32F1xx_HAL_Driver/Src/stm32f1xx_hal_tim_ex.c ****       /* Disable the TIM Capture/Compare 3 interrupt */
1071:Drivers/STM32F1xx_HAL_Driver/Src/stm32f1xx_hal_tim_ex.c ****       __HAL_TIM_DISABLE_IT(htim, TIM_IT_CC3);
1072:Drivers/STM32F1xx_HAL_Driver/Src/stm32f1xx_hal_tim_ex.c ****       break;
1073:Drivers/STM32F1xx_HAL_Driver/Src/stm32f1xx_hal_tim_ex.c ****     }
1074:Drivers/STM32F1xx_HAL_Driver/Src/stm32f1xx_hal_tim_ex.c **** 
ARM GAS  /var/folders/20/cstyxln53wn53rr40gj353bh0000gn/T//ccV5XGPK.s 			page 36


1075:Drivers/STM32F1xx_HAL_Driver/Src/stm32f1xx_hal_tim_ex.c ****     default:
1076:Drivers/STM32F1xx_HAL_Driver/Src/stm32f1xx_hal_tim_ex.c ****       break;
1077:Drivers/STM32F1xx_HAL_Driver/Src/stm32f1xx_hal_tim_ex.c ****   }
1078:Drivers/STM32F1xx_HAL_Driver/Src/stm32f1xx_hal_tim_ex.c **** 
1079:Drivers/STM32F1xx_HAL_Driver/Src/stm32f1xx_hal_tim_ex.c ****   /* Disable the complementary PWM output  */
1080:Drivers/STM32F1xx_HAL_Driver/Src/stm32f1xx_hal_tim_ex.c ****   TIM_CCxNChannelCmd(htim->Instance, Channel, TIM_CCxN_DISABLE);
1081:Drivers/STM32F1xx_HAL_Driver/Src/stm32f1xx_hal_tim_ex.c **** 
1082:Drivers/STM32F1xx_HAL_Driver/Src/stm32f1xx_hal_tim_ex.c ****   /* Disable the TIM Break interrupt (only if no more channel is active) */
1083:Drivers/STM32F1xx_HAL_Driver/Src/stm32f1xx_hal_tim_ex.c ****   tmpccer = htim->Instance->CCER;
1084:Drivers/STM32F1xx_HAL_Driver/Src/stm32f1xx_hal_tim_ex.c ****   if ((tmpccer & (TIM_CCER_CC1NE | TIM_CCER_CC2NE | TIM_CCER_CC3NE)) == (uint32_t)RESET)
1085:Drivers/STM32F1xx_HAL_Driver/Src/stm32f1xx_hal_tim_ex.c ****   {
1086:Drivers/STM32F1xx_HAL_Driver/Src/stm32f1xx_hal_tim_ex.c ****     __HAL_TIM_DISABLE_IT(htim, TIM_IT_BREAK);
1087:Drivers/STM32F1xx_HAL_Driver/Src/stm32f1xx_hal_tim_ex.c ****   }
1088:Drivers/STM32F1xx_HAL_Driver/Src/stm32f1xx_hal_tim_ex.c **** 
1089:Drivers/STM32F1xx_HAL_Driver/Src/stm32f1xx_hal_tim_ex.c ****   /* Disable the Main Output */
1090:Drivers/STM32F1xx_HAL_Driver/Src/stm32f1xx_hal_tim_ex.c ****   __HAL_TIM_MOE_DISABLE(htim);
1091:Drivers/STM32F1xx_HAL_Driver/Src/stm32f1xx_hal_tim_ex.c **** 
1092:Drivers/STM32F1xx_HAL_Driver/Src/stm32f1xx_hal_tim_ex.c ****   /* Disable the Peripheral */
1093:Drivers/STM32F1xx_HAL_Driver/Src/stm32f1xx_hal_tim_ex.c ****   __HAL_TIM_DISABLE(htim);
1094:Drivers/STM32F1xx_HAL_Driver/Src/stm32f1xx_hal_tim_ex.c **** 
1095:Drivers/STM32F1xx_HAL_Driver/Src/stm32f1xx_hal_tim_ex.c ****   /* Return function status */
1096:Drivers/STM32F1xx_HAL_Driver/Src/stm32f1xx_hal_tim_ex.c ****   return HAL_OK;
1097:Drivers/STM32F1xx_HAL_Driver/Src/stm32f1xx_hal_tim_ex.c **** }
1098:Drivers/STM32F1xx_HAL_Driver/Src/stm32f1xx_hal_tim_ex.c **** 
1099:Drivers/STM32F1xx_HAL_Driver/Src/stm32f1xx_hal_tim_ex.c **** /**
1100:Drivers/STM32F1xx_HAL_Driver/Src/stm32f1xx_hal_tim_ex.c ****   * @brief  Starts the TIM PWM signal generation in DMA mode on the
1101:Drivers/STM32F1xx_HAL_Driver/Src/stm32f1xx_hal_tim_ex.c ****   *         complementary output
1102:Drivers/STM32F1xx_HAL_Driver/Src/stm32f1xx_hal_tim_ex.c ****   * @param  htim TIM handle
1103:Drivers/STM32F1xx_HAL_Driver/Src/stm32f1xx_hal_tim_ex.c ****   * @param  Channel TIM Channel to be enabled
1104:Drivers/STM32F1xx_HAL_Driver/Src/stm32f1xx_hal_tim_ex.c ****   *          This parameter can be one of the following values:
1105:Drivers/STM32F1xx_HAL_Driver/Src/stm32f1xx_hal_tim_ex.c ****   *            @arg TIM_CHANNEL_1: TIM Channel 1 selected
1106:Drivers/STM32F1xx_HAL_Driver/Src/stm32f1xx_hal_tim_ex.c ****   *            @arg TIM_CHANNEL_2: TIM Channel 2 selected
1107:Drivers/STM32F1xx_HAL_Driver/Src/stm32f1xx_hal_tim_ex.c ****   *            @arg TIM_CHANNEL_3: TIM Channel 3 selected
1108:Drivers/STM32F1xx_HAL_Driver/Src/stm32f1xx_hal_tim_ex.c ****   * @param  pData The source Buffer address.
1109:Drivers/STM32F1xx_HAL_Driver/Src/stm32f1xx_hal_tim_ex.c ****   * @param  Length The length of data to be transferred from memory to TIM peripheral
1110:Drivers/STM32F1xx_HAL_Driver/Src/stm32f1xx_hal_tim_ex.c ****   * @retval HAL status
1111:Drivers/STM32F1xx_HAL_Driver/Src/stm32f1xx_hal_tim_ex.c ****   */
1112:Drivers/STM32F1xx_HAL_Driver/Src/stm32f1xx_hal_tim_ex.c **** HAL_StatusTypeDef HAL_TIMEx_PWMN_Start_DMA(TIM_HandleTypeDef *htim, uint32_t Channel, uint32_t *pDa
1113:Drivers/STM32F1xx_HAL_Driver/Src/stm32f1xx_hal_tim_ex.c **** {
1114:Drivers/STM32F1xx_HAL_Driver/Src/stm32f1xx_hal_tim_ex.c ****   uint32_t tmpsmcr;
1115:Drivers/STM32F1xx_HAL_Driver/Src/stm32f1xx_hal_tim_ex.c **** 
1116:Drivers/STM32F1xx_HAL_Driver/Src/stm32f1xx_hal_tim_ex.c ****   /* Check the parameters */
1117:Drivers/STM32F1xx_HAL_Driver/Src/stm32f1xx_hal_tim_ex.c ****   assert_param(IS_TIM_CCXN_INSTANCE(htim->Instance, Channel));
1118:Drivers/STM32F1xx_HAL_Driver/Src/stm32f1xx_hal_tim_ex.c **** 
1119:Drivers/STM32F1xx_HAL_Driver/Src/stm32f1xx_hal_tim_ex.c ****   if (htim->State == HAL_TIM_STATE_BUSY)
1120:Drivers/STM32F1xx_HAL_Driver/Src/stm32f1xx_hal_tim_ex.c ****   {
1121:Drivers/STM32F1xx_HAL_Driver/Src/stm32f1xx_hal_tim_ex.c ****     return HAL_BUSY;
1122:Drivers/STM32F1xx_HAL_Driver/Src/stm32f1xx_hal_tim_ex.c ****   }
1123:Drivers/STM32F1xx_HAL_Driver/Src/stm32f1xx_hal_tim_ex.c ****   else if (htim->State == HAL_TIM_STATE_READY)
1124:Drivers/STM32F1xx_HAL_Driver/Src/stm32f1xx_hal_tim_ex.c ****   {
1125:Drivers/STM32F1xx_HAL_Driver/Src/stm32f1xx_hal_tim_ex.c ****     if (((uint32_t)pData == 0U) && (Length > 0U))
1126:Drivers/STM32F1xx_HAL_Driver/Src/stm32f1xx_hal_tim_ex.c ****     {
1127:Drivers/STM32F1xx_HAL_Driver/Src/stm32f1xx_hal_tim_ex.c ****       return HAL_ERROR;
1128:Drivers/STM32F1xx_HAL_Driver/Src/stm32f1xx_hal_tim_ex.c ****     }
1129:Drivers/STM32F1xx_HAL_Driver/Src/stm32f1xx_hal_tim_ex.c ****     else
1130:Drivers/STM32F1xx_HAL_Driver/Src/stm32f1xx_hal_tim_ex.c ****     {
1131:Drivers/STM32F1xx_HAL_Driver/Src/stm32f1xx_hal_tim_ex.c ****       htim->State = HAL_TIM_STATE_BUSY;
ARM GAS  /var/folders/20/cstyxln53wn53rr40gj353bh0000gn/T//ccV5XGPK.s 			page 37


1132:Drivers/STM32F1xx_HAL_Driver/Src/stm32f1xx_hal_tim_ex.c ****     }
1133:Drivers/STM32F1xx_HAL_Driver/Src/stm32f1xx_hal_tim_ex.c ****   }
1134:Drivers/STM32F1xx_HAL_Driver/Src/stm32f1xx_hal_tim_ex.c ****   else
1135:Drivers/STM32F1xx_HAL_Driver/Src/stm32f1xx_hal_tim_ex.c ****   {
1136:Drivers/STM32F1xx_HAL_Driver/Src/stm32f1xx_hal_tim_ex.c ****     /* nothing to do */
1137:Drivers/STM32F1xx_HAL_Driver/Src/stm32f1xx_hal_tim_ex.c ****   }
1138:Drivers/STM32F1xx_HAL_Driver/Src/stm32f1xx_hal_tim_ex.c ****   switch (Channel)
1139:Drivers/STM32F1xx_HAL_Driver/Src/stm32f1xx_hal_tim_ex.c ****   {
1140:Drivers/STM32F1xx_HAL_Driver/Src/stm32f1xx_hal_tim_ex.c ****     case TIM_CHANNEL_1:
1141:Drivers/STM32F1xx_HAL_Driver/Src/stm32f1xx_hal_tim_ex.c ****     {
1142:Drivers/STM32F1xx_HAL_Driver/Src/stm32f1xx_hal_tim_ex.c ****       /* Set the DMA compare callbacks */
1143:Drivers/STM32F1xx_HAL_Driver/Src/stm32f1xx_hal_tim_ex.c ****       htim->hdma[TIM_DMA_ID_CC1]->XferCpltCallback = TIM_DMADelayPulseCplt;
1144:Drivers/STM32F1xx_HAL_Driver/Src/stm32f1xx_hal_tim_ex.c ****       htim->hdma[TIM_DMA_ID_CC1]->XferHalfCpltCallback = TIM_DMADelayPulseHalfCplt;
1145:Drivers/STM32F1xx_HAL_Driver/Src/stm32f1xx_hal_tim_ex.c **** 
1146:Drivers/STM32F1xx_HAL_Driver/Src/stm32f1xx_hal_tim_ex.c ****       /* Set the DMA error callback */
1147:Drivers/STM32F1xx_HAL_Driver/Src/stm32f1xx_hal_tim_ex.c ****       htim->hdma[TIM_DMA_ID_CC1]->XferErrorCallback = TIM_DMAError ;
1148:Drivers/STM32F1xx_HAL_Driver/Src/stm32f1xx_hal_tim_ex.c **** 
1149:Drivers/STM32F1xx_HAL_Driver/Src/stm32f1xx_hal_tim_ex.c ****       /* Enable the DMA channel */
1150:Drivers/STM32F1xx_HAL_Driver/Src/stm32f1xx_hal_tim_ex.c ****       if (HAL_DMA_Start_IT(htim->hdma[TIM_DMA_ID_CC1], (uint32_t)pData, (uint32_t)&htim->Instance->
1151:Drivers/STM32F1xx_HAL_Driver/Src/stm32f1xx_hal_tim_ex.c ****       {
1152:Drivers/STM32F1xx_HAL_Driver/Src/stm32f1xx_hal_tim_ex.c ****         return HAL_ERROR;
1153:Drivers/STM32F1xx_HAL_Driver/Src/stm32f1xx_hal_tim_ex.c ****       }
1154:Drivers/STM32F1xx_HAL_Driver/Src/stm32f1xx_hal_tim_ex.c ****       /* Enable the TIM Capture/Compare 1 DMA request */
1155:Drivers/STM32F1xx_HAL_Driver/Src/stm32f1xx_hal_tim_ex.c ****       __HAL_TIM_ENABLE_DMA(htim, TIM_DMA_CC1);
1156:Drivers/STM32F1xx_HAL_Driver/Src/stm32f1xx_hal_tim_ex.c ****       break;
1157:Drivers/STM32F1xx_HAL_Driver/Src/stm32f1xx_hal_tim_ex.c ****     }
1158:Drivers/STM32F1xx_HAL_Driver/Src/stm32f1xx_hal_tim_ex.c **** 
1159:Drivers/STM32F1xx_HAL_Driver/Src/stm32f1xx_hal_tim_ex.c ****     case TIM_CHANNEL_2:
1160:Drivers/STM32F1xx_HAL_Driver/Src/stm32f1xx_hal_tim_ex.c ****     {
1161:Drivers/STM32F1xx_HAL_Driver/Src/stm32f1xx_hal_tim_ex.c ****       /* Set the DMA compare callbacks */
1162:Drivers/STM32F1xx_HAL_Driver/Src/stm32f1xx_hal_tim_ex.c ****       htim->hdma[TIM_DMA_ID_CC2]->XferCpltCallback = TIM_DMADelayPulseCplt;
1163:Drivers/STM32F1xx_HAL_Driver/Src/stm32f1xx_hal_tim_ex.c ****       htim->hdma[TIM_DMA_ID_CC2]->XferHalfCpltCallback = TIM_DMADelayPulseHalfCplt;
1164:Drivers/STM32F1xx_HAL_Driver/Src/stm32f1xx_hal_tim_ex.c **** 
1165:Drivers/STM32F1xx_HAL_Driver/Src/stm32f1xx_hal_tim_ex.c ****       /* Set the DMA error callback */
1166:Drivers/STM32F1xx_HAL_Driver/Src/stm32f1xx_hal_tim_ex.c ****       htim->hdma[TIM_DMA_ID_CC2]->XferErrorCallback = TIM_DMAError ;
1167:Drivers/STM32F1xx_HAL_Driver/Src/stm32f1xx_hal_tim_ex.c **** 
1168:Drivers/STM32F1xx_HAL_Driver/Src/stm32f1xx_hal_tim_ex.c ****       /* Enable the DMA channel */
1169:Drivers/STM32F1xx_HAL_Driver/Src/stm32f1xx_hal_tim_ex.c ****       if (HAL_DMA_Start_IT(htim->hdma[TIM_DMA_ID_CC2], (uint32_t)pData, (uint32_t)&htim->Instance->
1170:Drivers/STM32F1xx_HAL_Driver/Src/stm32f1xx_hal_tim_ex.c ****       {
1171:Drivers/STM32F1xx_HAL_Driver/Src/stm32f1xx_hal_tim_ex.c ****         return HAL_ERROR;
1172:Drivers/STM32F1xx_HAL_Driver/Src/stm32f1xx_hal_tim_ex.c ****       }
1173:Drivers/STM32F1xx_HAL_Driver/Src/stm32f1xx_hal_tim_ex.c ****       /* Enable the TIM Capture/Compare 2 DMA request */
1174:Drivers/STM32F1xx_HAL_Driver/Src/stm32f1xx_hal_tim_ex.c ****       __HAL_TIM_ENABLE_DMA(htim, TIM_DMA_CC2);
1175:Drivers/STM32F1xx_HAL_Driver/Src/stm32f1xx_hal_tim_ex.c ****       break;
1176:Drivers/STM32F1xx_HAL_Driver/Src/stm32f1xx_hal_tim_ex.c ****     }
1177:Drivers/STM32F1xx_HAL_Driver/Src/stm32f1xx_hal_tim_ex.c **** 
1178:Drivers/STM32F1xx_HAL_Driver/Src/stm32f1xx_hal_tim_ex.c ****     case TIM_CHANNEL_3:
1179:Drivers/STM32F1xx_HAL_Driver/Src/stm32f1xx_hal_tim_ex.c ****     {
1180:Drivers/STM32F1xx_HAL_Driver/Src/stm32f1xx_hal_tim_ex.c ****       /* Set the DMA compare callbacks */
1181:Drivers/STM32F1xx_HAL_Driver/Src/stm32f1xx_hal_tim_ex.c ****       htim->hdma[TIM_DMA_ID_CC3]->XferCpltCallback = TIM_DMADelayPulseCplt;
1182:Drivers/STM32F1xx_HAL_Driver/Src/stm32f1xx_hal_tim_ex.c ****       htim->hdma[TIM_DMA_ID_CC3]->XferHalfCpltCallback = TIM_DMADelayPulseHalfCplt;
1183:Drivers/STM32F1xx_HAL_Driver/Src/stm32f1xx_hal_tim_ex.c **** 
1184:Drivers/STM32F1xx_HAL_Driver/Src/stm32f1xx_hal_tim_ex.c ****       /* Set the DMA error callback */
1185:Drivers/STM32F1xx_HAL_Driver/Src/stm32f1xx_hal_tim_ex.c ****       htim->hdma[TIM_DMA_ID_CC3]->XferErrorCallback = TIM_DMAError ;
1186:Drivers/STM32F1xx_HAL_Driver/Src/stm32f1xx_hal_tim_ex.c **** 
1187:Drivers/STM32F1xx_HAL_Driver/Src/stm32f1xx_hal_tim_ex.c ****       /* Enable the DMA channel */
1188:Drivers/STM32F1xx_HAL_Driver/Src/stm32f1xx_hal_tim_ex.c ****       if (HAL_DMA_Start_IT(htim->hdma[TIM_DMA_ID_CC3], (uint32_t)pData, (uint32_t)&htim->Instance->
ARM GAS  /var/folders/20/cstyxln53wn53rr40gj353bh0000gn/T//ccV5XGPK.s 			page 38


1189:Drivers/STM32F1xx_HAL_Driver/Src/stm32f1xx_hal_tim_ex.c ****       {
1190:Drivers/STM32F1xx_HAL_Driver/Src/stm32f1xx_hal_tim_ex.c ****         return HAL_ERROR;
1191:Drivers/STM32F1xx_HAL_Driver/Src/stm32f1xx_hal_tim_ex.c ****       }
1192:Drivers/STM32F1xx_HAL_Driver/Src/stm32f1xx_hal_tim_ex.c ****       /* Enable the TIM Capture/Compare 3 DMA request */
1193:Drivers/STM32F1xx_HAL_Driver/Src/stm32f1xx_hal_tim_ex.c ****       __HAL_TIM_ENABLE_DMA(htim, TIM_DMA_CC3);
1194:Drivers/STM32F1xx_HAL_Driver/Src/stm32f1xx_hal_tim_ex.c ****       break;
1195:Drivers/STM32F1xx_HAL_Driver/Src/stm32f1xx_hal_tim_ex.c ****     }
1196:Drivers/STM32F1xx_HAL_Driver/Src/stm32f1xx_hal_tim_ex.c **** 
1197:Drivers/STM32F1xx_HAL_Driver/Src/stm32f1xx_hal_tim_ex.c ****     default:
1198:Drivers/STM32F1xx_HAL_Driver/Src/stm32f1xx_hal_tim_ex.c ****       break;
1199:Drivers/STM32F1xx_HAL_Driver/Src/stm32f1xx_hal_tim_ex.c ****   }
1200:Drivers/STM32F1xx_HAL_Driver/Src/stm32f1xx_hal_tim_ex.c **** 
1201:Drivers/STM32F1xx_HAL_Driver/Src/stm32f1xx_hal_tim_ex.c ****   /* Enable the complementary PWM output  */
1202:Drivers/STM32F1xx_HAL_Driver/Src/stm32f1xx_hal_tim_ex.c ****   TIM_CCxNChannelCmd(htim->Instance, Channel, TIM_CCxN_ENABLE);
1203:Drivers/STM32F1xx_HAL_Driver/Src/stm32f1xx_hal_tim_ex.c **** 
1204:Drivers/STM32F1xx_HAL_Driver/Src/stm32f1xx_hal_tim_ex.c ****   /* Enable the Main Output */
1205:Drivers/STM32F1xx_HAL_Driver/Src/stm32f1xx_hal_tim_ex.c ****   __HAL_TIM_MOE_ENABLE(htim);
1206:Drivers/STM32F1xx_HAL_Driver/Src/stm32f1xx_hal_tim_ex.c **** 
1207:Drivers/STM32F1xx_HAL_Driver/Src/stm32f1xx_hal_tim_ex.c ****   /* Enable the Peripheral, except in trigger mode where enable is automatically done with trigger 
1208:Drivers/STM32F1xx_HAL_Driver/Src/stm32f1xx_hal_tim_ex.c ****   tmpsmcr = htim->Instance->SMCR & TIM_SMCR_SMS;
1209:Drivers/STM32F1xx_HAL_Driver/Src/stm32f1xx_hal_tim_ex.c ****   if (!IS_TIM_SLAVEMODE_TRIGGER_ENABLED(tmpsmcr))
1210:Drivers/STM32F1xx_HAL_Driver/Src/stm32f1xx_hal_tim_ex.c ****   {
1211:Drivers/STM32F1xx_HAL_Driver/Src/stm32f1xx_hal_tim_ex.c ****     __HAL_TIM_ENABLE(htim);
1212:Drivers/STM32F1xx_HAL_Driver/Src/stm32f1xx_hal_tim_ex.c ****   }
1213:Drivers/STM32F1xx_HAL_Driver/Src/stm32f1xx_hal_tim_ex.c **** 
1214:Drivers/STM32F1xx_HAL_Driver/Src/stm32f1xx_hal_tim_ex.c ****   /* Return function status */
1215:Drivers/STM32F1xx_HAL_Driver/Src/stm32f1xx_hal_tim_ex.c ****   return HAL_OK;
1216:Drivers/STM32F1xx_HAL_Driver/Src/stm32f1xx_hal_tim_ex.c **** }
1217:Drivers/STM32F1xx_HAL_Driver/Src/stm32f1xx_hal_tim_ex.c **** 
1218:Drivers/STM32F1xx_HAL_Driver/Src/stm32f1xx_hal_tim_ex.c **** /**
1219:Drivers/STM32F1xx_HAL_Driver/Src/stm32f1xx_hal_tim_ex.c ****   * @brief  Stops the TIM PWM signal generation in DMA mode on the complementary
1220:Drivers/STM32F1xx_HAL_Driver/Src/stm32f1xx_hal_tim_ex.c ****   *         output
1221:Drivers/STM32F1xx_HAL_Driver/Src/stm32f1xx_hal_tim_ex.c ****   * @param  htim TIM handle
1222:Drivers/STM32F1xx_HAL_Driver/Src/stm32f1xx_hal_tim_ex.c ****   * @param  Channel TIM Channel to be disabled
1223:Drivers/STM32F1xx_HAL_Driver/Src/stm32f1xx_hal_tim_ex.c ****   *          This parameter can be one of the following values:
1224:Drivers/STM32F1xx_HAL_Driver/Src/stm32f1xx_hal_tim_ex.c ****   *            @arg TIM_CHANNEL_1: TIM Channel 1 selected
1225:Drivers/STM32F1xx_HAL_Driver/Src/stm32f1xx_hal_tim_ex.c ****   *            @arg TIM_CHANNEL_2: TIM Channel 2 selected
1226:Drivers/STM32F1xx_HAL_Driver/Src/stm32f1xx_hal_tim_ex.c ****   *            @arg TIM_CHANNEL_3: TIM Channel 3 selected
1227:Drivers/STM32F1xx_HAL_Driver/Src/stm32f1xx_hal_tim_ex.c ****   * @retval HAL status
1228:Drivers/STM32F1xx_HAL_Driver/Src/stm32f1xx_hal_tim_ex.c ****   */
1229:Drivers/STM32F1xx_HAL_Driver/Src/stm32f1xx_hal_tim_ex.c **** HAL_StatusTypeDef HAL_TIMEx_PWMN_Stop_DMA(TIM_HandleTypeDef *htim, uint32_t Channel)
1230:Drivers/STM32F1xx_HAL_Driver/Src/stm32f1xx_hal_tim_ex.c **** {
1231:Drivers/STM32F1xx_HAL_Driver/Src/stm32f1xx_hal_tim_ex.c ****   /* Check the parameters */
1232:Drivers/STM32F1xx_HAL_Driver/Src/stm32f1xx_hal_tim_ex.c ****   assert_param(IS_TIM_CCXN_INSTANCE(htim->Instance, Channel));
1233:Drivers/STM32F1xx_HAL_Driver/Src/stm32f1xx_hal_tim_ex.c **** 
1234:Drivers/STM32F1xx_HAL_Driver/Src/stm32f1xx_hal_tim_ex.c ****   switch (Channel)
1235:Drivers/STM32F1xx_HAL_Driver/Src/stm32f1xx_hal_tim_ex.c ****   {
1236:Drivers/STM32F1xx_HAL_Driver/Src/stm32f1xx_hal_tim_ex.c ****     case TIM_CHANNEL_1:
1237:Drivers/STM32F1xx_HAL_Driver/Src/stm32f1xx_hal_tim_ex.c ****     {
1238:Drivers/STM32F1xx_HAL_Driver/Src/stm32f1xx_hal_tim_ex.c ****       /* Disable the TIM Capture/Compare 1 DMA request */
1239:Drivers/STM32F1xx_HAL_Driver/Src/stm32f1xx_hal_tim_ex.c ****       __HAL_TIM_DISABLE_DMA(htim, TIM_DMA_CC1);
1240:Drivers/STM32F1xx_HAL_Driver/Src/stm32f1xx_hal_tim_ex.c ****       (void)HAL_DMA_Abort_IT(htim->hdma[TIM_DMA_ID_CC1]);
1241:Drivers/STM32F1xx_HAL_Driver/Src/stm32f1xx_hal_tim_ex.c ****       break;
1242:Drivers/STM32F1xx_HAL_Driver/Src/stm32f1xx_hal_tim_ex.c ****     }
1243:Drivers/STM32F1xx_HAL_Driver/Src/stm32f1xx_hal_tim_ex.c **** 
1244:Drivers/STM32F1xx_HAL_Driver/Src/stm32f1xx_hal_tim_ex.c ****     case TIM_CHANNEL_2:
1245:Drivers/STM32F1xx_HAL_Driver/Src/stm32f1xx_hal_tim_ex.c ****     {
ARM GAS  /var/folders/20/cstyxln53wn53rr40gj353bh0000gn/T//ccV5XGPK.s 			page 39


1246:Drivers/STM32F1xx_HAL_Driver/Src/stm32f1xx_hal_tim_ex.c ****       /* Disable the TIM Capture/Compare 2 DMA request */
1247:Drivers/STM32F1xx_HAL_Driver/Src/stm32f1xx_hal_tim_ex.c ****       __HAL_TIM_DISABLE_DMA(htim, TIM_DMA_CC2);
1248:Drivers/STM32F1xx_HAL_Driver/Src/stm32f1xx_hal_tim_ex.c ****       (void)HAL_DMA_Abort_IT(htim->hdma[TIM_DMA_ID_CC2]);
1249:Drivers/STM32F1xx_HAL_Driver/Src/stm32f1xx_hal_tim_ex.c ****       break;
1250:Drivers/STM32F1xx_HAL_Driver/Src/stm32f1xx_hal_tim_ex.c ****     }
1251:Drivers/STM32F1xx_HAL_Driver/Src/stm32f1xx_hal_tim_ex.c **** 
1252:Drivers/STM32F1xx_HAL_Driver/Src/stm32f1xx_hal_tim_ex.c ****     case TIM_CHANNEL_3:
1253:Drivers/STM32F1xx_HAL_Driver/Src/stm32f1xx_hal_tim_ex.c ****     {
1254:Drivers/STM32F1xx_HAL_Driver/Src/stm32f1xx_hal_tim_ex.c ****       /* Disable the TIM Capture/Compare 3 DMA request */
1255:Drivers/STM32F1xx_HAL_Driver/Src/stm32f1xx_hal_tim_ex.c ****       __HAL_TIM_DISABLE_DMA(htim, TIM_DMA_CC3);
1256:Drivers/STM32F1xx_HAL_Driver/Src/stm32f1xx_hal_tim_ex.c ****       (void)HAL_DMA_Abort_IT(htim->hdma[TIM_DMA_ID_CC3]);
1257:Drivers/STM32F1xx_HAL_Driver/Src/stm32f1xx_hal_tim_ex.c ****       break;
1258:Drivers/STM32F1xx_HAL_Driver/Src/stm32f1xx_hal_tim_ex.c ****     }
1259:Drivers/STM32F1xx_HAL_Driver/Src/stm32f1xx_hal_tim_ex.c **** 
1260:Drivers/STM32F1xx_HAL_Driver/Src/stm32f1xx_hal_tim_ex.c ****     default:
1261:Drivers/STM32F1xx_HAL_Driver/Src/stm32f1xx_hal_tim_ex.c ****       break;
1262:Drivers/STM32F1xx_HAL_Driver/Src/stm32f1xx_hal_tim_ex.c ****   }
1263:Drivers/STM32F1xx_HAL_Driver/Src/stm32f1xx_hal_tim_ex.c **** 
1264:Drivers/STM32F1xx_HAL_Driver/Src/stm32f1xx_hal_tim_ex.c ****   /* Disable the complementary PWM output */
1265:Drivers/STM32F1xx_HAL_Driver/Src/stm32f1xx_hal_tim_ex.c ****   TIM_CCxNChannelCmd(htim->Instance, Channel, TIM_CCxN_DISABLE);
1266:Drivers/STM32F1xx_HAL_Driver/Src/stm32f1xx_hal_tim_ex.c **** 
1267:Drivers/STM32F1xx_HAL_Driver/Src/stm32f1xx_hal_tim_ex.c ****   /* Disable the Main Output */
1268:Drivers/STM32F1xx_HAL_Driver/Src/stm32f1xx_hal_tim_ex.c ****   __HAL_TIM_MOE_DISABLE(htim);
1269:Drivers/STM32F1xx_HAL_Driver/Src/stm32f1xx_hal_tim_ex.c **** 
1270:Drivers/STM32F1xx_HAL_Driver/Src/stm32f1xx_hal_tim_ex.c ****   /* Disable the Peripheral */
1271:Drivers/STM32F1xx_HAL_Driver/Src/stm32f1xx_hal_tim_ex.c ****   __HAL_TIM_DISABLE(htim);
1272:Drivers/STM32F1xx_HAL_Driver/Src/stm32f1xx_hal_tim_ex.c **** 
1273:Drivers/STM32F1xx_HAL_Driver/Src/stm32f1xx_hal_tim_ex.c ****   /* Change the htim state */
1274:Drivers/STM32F1xx_HAL_Driver/Src/stm32f1xx_hal_tim_ex.c ****   htim->State = HAL_TIM_STATE_READY;
1275:Drivers/STM32F1xx_HAL_Driver/Src/stm32f1xx_hal_tim_ex.c **** 
1276:Drivers/STM32F1xx_HAL_Driver/Src/stm32f1xx_hal_tim_ex.c ****   /* Return function status */
1277:Drivers/STM32F1xx_HAL_Driver/Src/stm32f1xx_hal_tim_ex.c ****   return HAL_OK;
1278:Drivers/STM32F1xx_HAL_Driver/Src/stm32f1xx_hal_tim_ex.c **** }
1279:Drivers/STM32F1xx_HAL_Driver/Src/stm32f1xx_hal_tim_ex.c **** 
1280:Drivers/STM32F1xx_HAL_Driver/Src/stm32f1xx_hal_tim_ex.c **** /**
1281:Drivers/STM32F1xx_HAL_Driver/Src/stm32f1xx_hal_tim_ex.c ****   * @}
1282:Drivers/STM32F1xx_HAL_Driver/Src/stm32f1xx_hal_tim_ex.c ****   */
1283:Drivers/STM32F1xx_HAL_Driver/Src/stm32f1xx_hal_tim_ex.c **** 
1284:Drivers/STM32F1xx_HAL_Driver/Src/stm32f1xx_hal_tim_ex.c **** /** @defgroup TIMEx_Exported_Functions_Group4 Extended Timer Complementary One Pulse functions
1285:Drivers/STM32F1xx_HAL_Driver/Src/stm32f1xx_hal_tim_ex.c ****   * @brief    Timer Complementary One Pulse functions
1286:Drivers/STM32F1xx_HAL_Driver/Src/stm32f1xx_hal_tim_ex.c ****   *
1287:Drivers/STM32F1xx_HAL_Driver/Src/stm32f1xx_hal_tim_ex.c **** @verbatim
1288:Drivers/STM32F1xx_HAL_Driver/Src/stm32f1xx_hal_tim_ex.c ****   ==============================================================================
1289:Drivers/STM32F1xx_HAL_Driver/Src/stm32f1xx_hal_tim_ex.c ****                 ##### Timer Complementary One Pulse functions #####
1290:Drivers/STM32F1xx_HAL_Driver/Src/stm32f1xx_hal_tim_ex.c ****   ==============================================================================
1291:Drivers/STM32F1xx_HAL_Driver/Src/stm32f1xx_hal_tim_ex.c ****   [..]
1292:Drivers/STM32F1xx_HAL_Driver/Src/stm32f1xx_hal_tim_ex.c ****     This section provides functions allowing to:
1293:Drivers/STM32F1xx_HAL_Driver/Src/stm32f1xx_hal_tim_ex.c ****     (+) Start the Complementary One Pulse generation.
1294:Drivers/STM32F1xx_HAL_Driver/Src/stm32f1xx_hal_tim_ex.c ****     (+) Stop the Complementary One Pulse.
1295:Drivers/STM32F1xx_HAL_Driver/Src/stm32f1xx_hal_tim_ex.c ****     (+) Start the Complementary One Pulse and enable interrupts.
1296:Drivers/STM32F1xx_HAL_Driver/Src/stm32f1xx_hal_tim_ex.c ****     (+) Stop the Complementary One Pulse and disable interrupts.
1297:Drivers/STM32F1xx_HAL_Driver/Src/stm32f1xx_hal_tim_ex.c **** 
1298:Drivers/STM32F1xx_HAL_Driver/Src/stm32f1xx_hal_tim_ex.c **** @endverbatim
1299:Drivers/STM32F1xx_HAL_Driver/Src/stm32f1xx_hal_tim_ex.c ****   * @{
1300:Drivers/STM32F1xx_HAL_Driver/Src/stm32f1xx_hal_tim_ex.c ****   */
1301:Drivers/STM32F1xx_HAL_Driver/Src/stm32f1xx_hal_tim_ex.c **** 
1302:Drivers/STM32F1xx_HAL_Driver/Src/stm32f1xx_hal_tim_ex.c **** /**
ARM GAS  /var/folders/20/cstyxln53wn53rr40gj353bh0000gn/T//ccV5XGPK.s 			page 40


1303:Drivers/STM32F1xx_HAL_Driver/Src/stm32f1xx_hal_tim_ex.c ****   * @brief  Starts the TIM One Pulse signal generation on the complementary
1304:Drivers/STM32F1xx_HAL_Driver/Src/stm32f1xx_hal_tim_ex.c ****   *         output.
1305:Drivers/STM32F1xx_HAL_Driver/Src/stm32f1xx_hal_tim_ex.c ****   * @param  htim TIM One Pulse handle
1306:Drivers/STM32F1xx_HAL_Driver/Src/stm32f1xx_hal_tim_ex.c ****   * @param  OutputChannel TIM Channel to be enabled
1307:Drivers/STM32F1xx_HAL_Driver/Src/stm32f1xx_hal_tim_ex.c ****   *          This parameter can be one of the following values:
1308:Drivers/STM32F1xx_HAL_Driver/Src/stm32f1xx_hal_tim_ex.c ****   *            @arg TIM_CHANNEL_1: TIM Channel 1 selected
1309:Drivers/STM32F1xx_HAL_Driver/Src/stm32f1xx_hal_tim_ex.c ****   *            @arg TIM_CHANNEL_2: TIM Channel 2 selected
1310:Drivers/STM32F1xx_HAL_Driver/Src/stm32f1xx_hal_tim_ex.c ****   * @retval HAL status
1311:Drivers/STM32F1xx_HAL_Driver/Src/stm32f1xx_hal_tim_ex.c ****   */
1312:Drivers/STM32F1xx_HAL_Driver/Src/stm32f1xx_hal_tim_ex.c **** HAL_StatusTypeDef HAL_TIMEx_OnePulseN_Start(TIM_HandleTypeDef *htim, uint32_t OutputChannel)
1313:Drivers/STM32F1xx_HAL_Driver/Src/stm32f1xx_hal_tim_ex.c **** {
1314:Drivers/STM32F1xx_HAL_Driver/Src/stm32f1xx_hal_tim_ex.c ****   /* Check the parameters */
1315:Drivers/STM32F1xx_HAL_Driver/Src/stm32f1xx_hal_tim_ex.c ****   assert_param(IS_TIM_CCXN_INSTANCE(htim->Instance, OutputChannel));
1316:Drivers/STM32F1xx_HAL_Driver/Src/stm32f1xx_hal_tim_ex.c **** 
1317:Drivers/STM32F1xx_HAL_Driver/Src/stm32f1xx_hal_tim_ex.c ****   /* Enable the complementary One Pulse output */
1318:Drivers/STM32F1xx_HAL_Driver/Src/stm32f1xx_hal_tim_ex.c ****   TIM_CCxNChannelCmd(htim->Instance, OutputChannel, TIM_CCxN_ENABLE);
1319:Drivers/STM32F1xx_HAL_Driver/Src/stm32f1xx_hal_tim_ex.c **** 
1320:Drivers/STM32F1xx_HAL_Driver/Src/stm32f1xx_hal_tim_ex.c ****   /* Enable the Main Output */
1321:Drivers/STM32F1xx_HAL_Driver/Src/stm32f1xx_hal_tim_ex.c ****   __HAL_TIM_MOE_ENABLE(htim);
1322:Drivers/STM32F1xx_HAL_Driver/Src/stm32f1xx_hal_tim_ex.c **** 
1323:Drivers/STM32F1xx_HAL_Driver/Src/stm32f1xx_hal_tim_ex.c ****   /* Return function status */
1324:Drivers/STM32F1xx_HAL_Driver/Src/stm32f1xx_hal_tim_ex.c ****   return HAL_OK;
1325:Drivers/STM32F1xx_HAL_Driver/Src/stm32f1xx_hal_tim_ex.c **** }
1326:Drivers/STM32F1xx_HAL_Driver/Src/stm32f1xx_hal_tim_ex.c **** 
1327:Drivers/STM32F1xx_HAL_Driver/Src/stm32f1xx_hal_tim_ex.c **** /**
1328:Drivers/STM32F1xx_HAL_Driver/Src/stm32f1xx_hal_tim_ex.c ****   * @brief  Stops the TIM One Pulse signal generation on the complementary
1329:Drivers/STM32F1xx_HAL_Driver/Src/stm32f1xx_hal_tim_ex.c ****   *         output.
1330:Drivers/STM32F1xx_HAL_Driver/Src/stm32f1xx_hal_tim_ex.c ****   * @param  htim TIM One Pulse handle
1331:Drivers/STM32F1xx_HAL_Driver/Src/stm32f1xx_hal_tim_ex.c ****   * @param  OutputChannel TIM Channel to be disabled
1332:Drivers/STM32F1xx_HAL_Driver/Src/stm32f1xx_hal_tim_ex.c ****   *          This parameter can be one of the following values:
1333:Drivers/STM32F1xx_HAL_Driver/Src/stm32f1xx_hal_tim_ex.c ****   *            @arg TIM_CHANNEL_1: TIM Channel 1 selected
1334:Drivers/STM32F1xx_HAL_Driver/Src/stm32f1xx_hal_tim_ex.c ****   *            @arg TIM_CHANNEL_2: TIM Channel 2 selected
1335:Drivers/STM32F1xx_HAL_Driver/Src/stm32f1xx_hal_tim_ex.c ****   * @retval HAL status
1336:Drivers/STM32F1xx_HAL_Driver/Src/stm32f1xx_hal_tim_ex.c ****   */
1337:Drivers/STM32F1xx_HAL_Driver/Src/stm32f1xx_hal_tim_ex.c **** HAL_StatusTypeDef HAL_TIMEx_OnePulseN_Stop(TIM_HandleTypeDef *htim, uint32_t OutputChannel)
1338:Drivers/STM32F1xx_HAL_Driver/Src/stm32f1xx_hal_tim_ex.c **** {
1339:Drivers/STM32F1xx_HAL_Driver/Src/stm32f1xx_hal_tim_ex.c **** 
1340:Drivers/STM32F1xx_HAL_Driver/Src/stm32f1xx_hal_tim_ex.c ****   /* Check the parameters */
1341:Drivers/STM32F1xx_HAL_Driver/Src/stm32f1xx_hal_tim_ex.c ****   assert_param(IS_TIM_CCXN_INSTANCE(htim->Instance, OutputChannel));
1342:Drivers/STM32F1xx_HAL_Driver/Src/stm32f1xx_hal_tim_ex.c **** 
1343:Drivers/STM32F1xx_HAL_Driver/Src/stm32f1xx_hal_tim_ex.c ****   /* Disable the complementary One Pulse output */
1344:Drivers/STM32F1xx_HAL_Driver/Src/stm32f1xx_hal_tim_ex.c ****   TIM_CCxNChannelCmd(htim->Instance, OutputChannel, TIM_CCxN_DISABLE);
1345:Drivers/STM32F1xx_HAL_Driver/Src/stm32f1xx_hal_tim_ex.c **** 
1346:Drivers/STM32F1xx_HAL_Driver/Src/stm32f1xx_hal_tim_ex.c ****   /* Disable the Main Output */
1347:Drivers/STM32F1xx_HAL_Driver/Src/stm32f1xx_hal_tim_ex.c ****   __HAL_TIM_MOE_DISABLE(htim);
1348:Drivers/STM32F1xx_HAL_Driver/Src/stm32f1xx_hal_tim_ex.c **** 
1349:Drivers/STM32F1xx_HAL_Driver/Src/stm32f1xx_hal_tim_ex.c ****   /* Disable the Peripheral */
1350:Drivers/STM32F1xx_HAL_Driver/Src/stm32f1xx_hal_tim_ex.c ****   __HAL_TIM_DISABLE(htim);
1351:Drivers/STM32F1xx_HAL_Driver/Src/stm32f1xx_hal_tim_ex.c **** 
1352:Drivers/STM32F1xx_HAL_Driver/Src/stm32f1xx_hal_tim_ex.c ****   /* Return function status */
1353:Drivers/STM32F1xx_HAL_Driver/Src/stm32f1xx_hal_tim_ex.c ****   return HAL_OK;
1354:Drivers/STM32F1xx_HAL_Driver/Src/stm32f1xx_hal_tim_ex.c **** }
1355:Drivers/STM32F1xx_HAL_Driver/Src/stm32f1xx_hal_tim_ex.c **** 
1356:Drivers/STM32F1xx_HAL_Driver/Src/stm32f1xx_hal_tim_ex.c **** /**
1357:Drivers/STM32F1xx_HAL_Driver/Src/stm32f1xx_hal_tim_ex.c ****   * @brief  Starts the TIM One Pulse signal generation in interrupt mode on the
1358:Drivers/STM32F1xx_HAL_Driver/Src/stm32f1xx_hal_tim_ex.c ****   *         complementary channel.
1359:Drivers/STM32F1xx_HAL_Driver/Src/stm32f1xx_hal_tim_ex.c ****   * @param  htim TIM One Pulse handle
ARM GAS  /var/folders/20/cstyxln53wn53rr40gj353bh0000gn/T//ccV5XGPK.s 			page 41


1360:Drivers/STM32F1xx_HAL_Driver/Src/stm32f1xx_hal_tim_ex.c ****   * @param  OutputChannel TIM Channel to be enabled
1361:Drivers/STM32F1xx_HAL_Driver/Src/stm32f1xx_hal_tim_ex.c ****   *          This parameter can be one of the following values:
1362:Drivers/STM32F1xx_HAL_Driver/Src/stm32f1xx_hal_tim_ex.c ****   *            @arg TIM_CHANNEL_1: TIM Channel 1 selected
1363:Drivers/STM32F1xx_HAL_Driver/Src/stm32f1xx_hal_tim_ex.c ****   *            @arg TIM_CHANNEL_2: TIM Channel 2 selected
1364:Drivers/STM32F1xx_HAL_Driver/Src/stm32f1xx_hal_tim_ex.c ****   * @retval HAL status
1365:Drivers/STM32F1xx_HAL_Driver/Src/stm32f1xx_hal_tim_ex.c ****   */
1366:Drivers/STM32F1xx_HAL_Driver/Src/stm32f1xx_hal_tim_ex.c **** HAL_StatusTypeDef HAL_TIMEx_OnePulseN_Start_IT(TIM_HandleTypeDef *htim, uint32_t OutputChannel)
1367:Drivers/STM32F1xx_HAL_Driver/Src/stm32f1xx_hal_tim_ex.c **** {
1368:Drivers/STM32F1xx_HAL_Driver/Src/stm32f1xx_hal_tim_ex.c ****   /* Check the parameters */
1369:Drivers/STM32F1xx_HAL_Driver/Src/stm32f1xx_hal_tim_ex.c ****   assert_param(IS_TIM_CCXN_INSTANCE(htim->Instance, OutputChannel));
1370:Drivers/STM32F1xx_HAL_Driver/Src/stm32f1xx_hal_tim_ex.c **** 
1371:Drivers/STM32F1xx_HAL_Driver/Src/stm32f1xx_hal_tim_ex.c ****   /* Enable the TIM Capture/Compare 1 interrupt */
1372:Drivers/STM32F1xx_HAL_Driver/Src/stm32f1xx_hal_tim_ex.c ****   __HAL_TIM_ENABLE_IT(htim, TIM_IT_CC1);
1373:Drivers/STM32F1xx_HAL_Driver/Src/stm32f1xx_hal_tim_ex.c **** 
1374:Drivers/STM32F1xx_HAL_Driver/Src/stm32f1xx_hal_tim_ex.c ****   /* Enable the TIM Capture/Compare 2 interrupt */
1375:Drivers/STM32F1xx_HAL_Driver/Src/stm32f1xx_hal_tim_ex.c ****   __HAL_TIM_ENABLE_IT(htim, TIM_IT_CC2);
1376:Drivers/STM32F1xx_HAL_Driver/Src/stm32f1xx_hal_tim_ex.c **** 
1377:Drivers/STM32F1xx_HAL_Driver/Src/stm32f1xx_hal_tim_ex.c ****   /* Enable the complementary One Pulse output */
1378:Drivers/STM32F1xx_HAL_Driver/Src/stm32f1xx_hal_tim_ex.c ****   TIM_CCxNChannelCmd(htim->Instance, OutputChannel, TIM_CCxN_ENABLE);
1379:Drivers/STM32F1xx_HAL_Driver/Src/stm32f1xx_hal_tim_ex.c **** 
1380:Drivers/STM32F1xx_HAL_Driver/Src/stm32f1xx_hal_tim_ex.c ****   /* Enable the Main Output */
1381:Drivers/STM32F1xx_HAL_Driver/Src/stm32f1xx_hal_tim_ex.c ****   __HAL_TIM_MOE_ENABLE(htim);
1382:Drivers/STM32F1xx_HAL_Driver/Src/stm32f1xx_hal_tim_ex.c **** 
1383:Drivers/STM32F1xx_HAL_Driver/Src/stm32f1xx_hal_tim_ex.c ****   /* Return function status */
1384:Drivers/STM32F1xx_HAL_Driver/Src/stm32f1xx_hal_tim_ex.c ****   return HAL_OK;
1385:Drivers/STM32F1xx_HAL_Driver/Src/stm32f1xx_hal_tim_ex.c **** }
1386:Drivers/STM32F1xx_HAL_Driver/Src/stm32f1xx_hal_tim_ex.c **** 
1387:Drivers/STM32F1xx_HAL_Driver/Src/stm32f1xx_hal_tim_ex.c **** /**
1388:Drivers/STM32F1xx_HAL_Driver/Src/stm32f1xx_hal_tim_ex.c ****   * @brief  Stops the TIM One Pulse signal generation in interrupt mode on the
1389:Drivers/STM32F1xx_HAL_Driver/Src/stm32f1xx_hal_tim_ex.c ****   *         complementary channel.
1390:Drivers/STM32F1xx_HAL_Driver/Src/stm32f1xx_hal_tim_ex.c ****   * @param  htim TIM One Pulse handle
1391:Drivers/STM32F1xx_HAL_Driver/Src/stm32f1xx_hal_tim_ex.c ****   * @param  OutputChannel TIM Channel to be disabled
1392:Drivers/STM32F1xx_HAL_Driver/Src/stm32f1xx_hal_tim_ex.c ****   *          This parameter can be one of the following values:
1393:Drivers/STM32F1xx_HAL_Driver/Src/stm32f1xx_hal_tim_ex.c ****   *            @arg TIM_CHANNEL_1: TIM Channel 1 selected
1394:Drivers/STM32F1xx_HAL_Driver/Src/stm32f1xx_hal_tim_ex.c ****   *            @arg TIM_CHANNEL_2: TIM Channel 2 selected
1395:Drivers/STM32F1xx_HAL_Driver/Src/stm32f1xx_hal_tim_ex.c ****   * @retval HAL status
1396:Drivers/STM32F1xx_HAL_Driver/Src/stm32f1xx_hal_tim_ex.c ****   */
1397:Drivers/STM32F1xx_HAL_Driver/Src/stm32f1xx_hal_tim_ex.c **** HAL_StatusTypeDef HAL_TIMEx_OnePulseN_Stop_IT(TIM_HandleTypeDef *htim, uint32_t OutputChannel)
1398:Drivers/STM32F1xx_HAL_Driver/Src/stm32f1xx_hal_tim_ex.c **** {
1399:Drivers/STM32F1xx_HAL_Driver/Src/stm32f1xx_hal_tim_ex.c ****   /* Check the parameters */
1400:Drivers/STM32F1xx_HAL_Driver/Src/stm32f1xx_hal_tim_ex.c ****   assert_param(IS_TIM_CCXN_INSTANCE(htim->Instance, OutputChannel));
1401:Drivers/STM32F1xx_HAL_Driver/Src/stm32f1xx_hal_tim_ex.c **** 
1402:Drivers/STM32F1xx_HAL_Driver/Src/stm32f1xx_hal_tim_ex.c ****   /* Disable the TIM Capture/Compare 1 interrupt */
1403:Drivers/STM32F1xx_HAL_Driver/Src/stm32f1xx_hal_tim_ex.c ****   __HAL_TIM_DISABLE_IT(htim, TIM_IT_CC1);
1404:Drivers/STM32F1xx_HAL_Driver/Src/stm32f1xx_hal_tim_ex.c **** 
1405:Drivers/STM32F1xx_HAL_Driver/Src/stm32f1xx_hal_tim_ex.c ****   /* Disable the TIM Capture/Compare 2 interrupt */
1406:Drivers/STM32F1xx_HAL_Driver/Src/stm32f1xx_hal_tim_ex.c ****   __HAL_TIM_DISABLE_IT(htim, TIM_IT_CC2);
1407:Drivers/STM32F1xx_HAL_Driver/Src/stm32f1xx_hal_tim_ex.c **** 
1408:Drivers/STM32F1xx_HAL_Driver/Src/stm32f1xx_hal_tim_ex.c ****   /* Disable the complementary One Pulse output */
1409:Drivers/STM32F1xx_HAL_Driver/Src/stm32f1xx_hal_tim_ex.c ****   TIM_CCxNChannelCmd(htim->Instance, OutputChannel, TIM_CCxN_DISABLE);
1410:Drivers/STM32F1xx_HAL_Driver/Src/stm32f1xx_hal_tim_ex.c **** 
1411:Drivers/STM32F1xx_HAL_Driver/Src/stm32f1xx_hal_tim_ex.c ****   /* Disable the Main Output */
1412:Drivers/STM32F1xx_HAL_Driver/Src/stm32f1xx_hal_tim_ex.c ****   __HAL_TIM_MOE_DISABLE(htim);
1413:Drivers/STM32F1xx_HAL_Driver/Src/stm32f1xx_hal_tim_ex.c **** 
1414:Drivers/STM32F1xx_HAL_Driver/Src/stm32f1xx_hal_tim_ex.c ****   /* Disable the Peripheral */
1415:Drivers/STM32F1xx_HAL_Driver/Src/stm32f1xx_hal_tim_ex.c ****   __HAL_TIM_DISABLE(htim);
1416:Drivers/STM32F1xx_HAL_Driver/Src/stm32f1xx_hal_tim_ex.c **** 
ARM GAS  /var/folders/20/cstyxln53wn53rr40gj353bh0000gn/T//ccV5XGPK.s 			page 42


1417:Drivers/STM32F1xx_HAL_Driver/Src/stm32f1xx_hal_tim_ex.c ****   /* Return function status */
1418:Drivers/STM32F1xx_HAL_Driver/Src/stm32f1xx_hal_tim_ex.c ****   return HAL_OK;
1419:Drivers/STM32F1xx_HAL_Driver/Src/stm32f1xx_hal_tim_ex.c **** }
1420:Drivers/STM32F1xx_HAL_Driver/Src/stm32f1xx_hal_tim_ex.c **** 
1421:Drivers/STM32F1xx_HAL_Driver/Src/stm32f1xx_hal_tim_ex.c **** /**
1422:Drivers/STM32F1xx_HAL_Driver/Src/stm32f1xx_hal_tim_ex.c ****   * @}
1423:Drivers/STM32F1xx_HAL_Driver/Src/stm32f1xx_hal_tim_ex.c ****   */
1424:Drivers/STM32F1xx_HAL_Driver/Src/stm32f1xx_hal_tim_ex.c **** 
1425:Drivers/STM32F1xx_HAL_Driver/Src/stm32f1xx_hal_tim_ex.c **** /** @defgroup TIMEx_Exported_Functions_Group5 Extended Peripheral Control functions
1426:Drivers/STM32F1xx_HAL_Driver/Src/stm32f1xx_hal_tim_ex.c ****   * @brief    Peripheral Control functions
1427:Drivers/STM32F1xx_HAL_Driver/Src/stm32f1xx_hal_tim_ex.c ****   *
1428:Drivers/STM32F1xx_HAL_Driver/Src/stm32f1xx_hal_tim_ex.c **** @verbatim
1429:Drivers/STM32F1xx_HAL_Driver/Src/stm32f1xx_hal_tim_ex.c ****   ==============================================================================
1430:Drivers/STM32F1xx_HAL_Driver/Src/stm32f1xx_hal_tim_ex.c ****                     ##### Peripheral Control functions #####
1431:Drivers/STM32F1xx_HAL_Driver/Src/stm32f1xx_hal_tim_ex.c ****   ==============================================================================
1432:Drivers/STM32F1xx_HAL_Driver/Src/stm32f1xx_hal_tim_ex.c ****   [..]
1433:Drivers/STM32F1xx_HAL_Driver/Src/stm32f1xx_hal_tim_ex.c ****     This section provides functions allowing to:
1434:Drivers/STM32F1xx_HAL_Driver/Src/stm32f1xx_hal_tim_ex.c ****       (+) Configure the commutation event in case of use of the Hall sensor interface.
1435:Drivers/STM32F1xx_HAL_Driver/Src/stm32f1xx_hal_tim_ex.c ****       (+) Configure Output channels for OC and PWM mode.
1436:Drivers/STM32F1xx_HAL_Driver/Src/stm32f1xx_hal_tim_ex.c **** 
1437:Drivers/STM32F1xx_HAL_Driver/Src/stm32f1xx_hal_tim_ex.c ****       (+) Configure Complementary channels, break features and dead time.
1438:Drivers/STM32F1xx_HAL_Driver/Src/stm32f1xx_hal_tim_ex.c ****       (+) Configure Master synchronization.
1439:Drivers/STM32F1xx_HAL_Driver/Src/stm32f1xx_hal_tim_ex.c ****       (+) Configure timer remapping capabilities.
1440:Drivers/STM32F1xx_HAL_Driver/Src/stm32f1xx_hal_tim_ex.c **** 
1441:Drivers/STM32F1xx_HAL_Driver/Src/stm32f1xx_hal_tim_ex.c **** @endverbatim
1442:Drivers/STM32F1xx_HAL_Driver/Src/stm32f1xx_hal_tim_ex.c ****   * @{
1443:Drivers/STM32F1xx_HAL_Driver/Src/stm32f1xx_hal_tim_ex.c ****   */
1444:Drivers/STM32F1xx_HAL_Driver/Src/stm32f1xx_hal_tim_ex.c **** 
1445:Drivers/STM32F1xx_HAL_Driver/Src/stm32f1xx_hal_tim_ex.c **** /**
1446:Drivers/STM32F1xx_HAL_Driver/Src/stm32f1xx_hal_tim_ex.c ****   * @brief  Configure the TIM commutation event sequence.
1447:Drivers/STM32F1xx_HAL_Driver/Src/stm32f1xx_hal_tim_ex.c ****   * @note  This function is mandatory to use the commutation event in order to
1448:Drivers/STM32F1xx_HAL_Driver/Src/stm32f1xx_hal_tim_ex.c ****   *        update the configuration at each commutation detection on the TRGI input of the Timer,
1449:Drivers/STM32F1xx_HAL_Driver/Src/stm32f1xx_hal_tim_ex.c ****   *        the typical use of this feature is with the use of another Timer(interface Timer)
1450:Drivers/STM32F1xx_HAL_Driver/Src/stm32f1xx_hal_tim_ex.c ****   *        configured in Hall sensor interface, this interface Timer will generate the
1451:Drivers/STM32F1xx_HAL_Driver/Src/stm32f1xx_hal_tim_ex.c ****   *        commutation at its TRGO output (connected to Timer used in this function) each time
1452:Drivers/STM32F1xx_HAL_Driver/Src/stm32f1xx_hal_tim_ex.c ****   *        the TI1 of the Interface Timer detect a commutation at its input TI1.
1453:Drivers/STM32F1xx_HAL_Driver/Src/stm32f1xx_hal_tim_ex.c ****   * @param  htim TIM handle
1454:Drivers/STM32F1xx_HAL_Driver/Src/stm32f1xx_hal_tim_ex.c ****   * @param  InputTrigger the Internal trigger corresponding to the Timer Interfacing with the Hall 
1455:Drivers/STM32F1xx_HAL_Driver/Src/stm32f1xx_hal_tim_ex.c ****   *          This parameter can be one of the following values:
1456:Drivers/STM32F1xx_HAL_Driver/Src/stm32f1xx_hal_tim_ex.c ****   *            @arg TIM_TS_ITR0: Internal trigger 0 selected
1457:Drivers/STM32F1xx_HAL_Driver/Src/stm32f1xx_hal_tim_ex.c ****   *            @arg TIM_TS_ITR1: Internal trigger 1 selected
1458:Drivers/STM32F1xx_HAL_Driver/Src/stm32f1xx_hal_tim_ex.c ****   *            @arg TIM_TS_ITR2: Internal trigger 2 selected
1459:Drivers/STM32F1xx_HAL_Driver/Src/stm32f1xx_hal_tim_ex.c ****   *            @arg TIM_TS_ITR3: Internal trigger 3 selected
1460:Drivers/STM32F1xx_HAL_Driver/Src/stm32f1xx_hal_tim_ex.c ****   *            @arg TIM_TS_NONE: No trigger is needed
1461:Drivers/STM32F1xx_HAL_Driver/Src/stm32f1xx_hal_tim_ex.c ****   * @param  CommutationSource the Commutation Event source
1462:Drivers/STM32F1xx_HAL_Driver/Src/stm32f1xx_hal_tim_ex.c ****   *          This parameter can be one of the following values:
1463:Drivers/STM32F1xx_HAL_Driver/Src/stm32f1xx_hal_tim_ex.c ****   *            @arg TIM_COMMUTATION_TRGI: Commutation source is the TRGI of the Interface Timer
1464:Drivers/STM32F1xx_HAL_Driver/Src/stm32f1xx_hal_tim_ex.c ****   *            @arg TIM_COMMUTATION_SOFTWARE:  Commutation source is set by software using the COMG
1465:Drivers/STM32F1xx_HAL_Driver/Src/stm32f1xx_hal_tim_ex.c ****   * @retval HAL status
1466:Drivers/STM32F1xx_HAL_Driver/Src/stm32f1xx_hal_tim_ex.c ****   */
1467:Drivers/STM32F1xx_HAL_Driver/Src/stm32f1xx_hal_tim_ex.c **** HAL_StatusTypeDef HAL_TIMEx_ConfigCommutEvent(TIM_HandleTypeDef *htim, uint32_t  InputTrigger,
1468:Drivers/STM32F1xx_HAL_Driver/Src/stm32f1xx_hal_tim_ex.c ****                                               uint32_t  CommutationSource)
1469:Drivers/STM32F1xx_HAL_Driver/Src/stm32f1xx_hal_tim_ex.c **** {
1470:Drivers/STM32F1xx_HAL_Driver/Src/stm32f1xx_hal_tim_ex.c ****   /* Check the parameters */
1471:Drivers/STM32F1xx_HAL_Driver/Src/stm32f1xx_hal_tim_ex.c ****   assert_param(IS_TIM_COMMUTATION_EVENT_INSTANCE(htim->Instance));
1472:Drivers/STM32F1xx_HAL_Driver/Src/stm32f1xx_hal_tim_ex.c ****   assert_param(IS_TIM_INTERNAL_TRIGGEREVENT_SELECTION(InputTrigger));
1473:Drivers/STM32F1xx_HAL_Driver/Src/stm32f1xx_hal_tim_ex.c **** 
ARM GAS  /var/folders/20/cstyxln53wn53rr40gj353bh0000gn/T//ccV5XGPK.s 			page 43


1474:Drivers/STM32F1xx_HAL_Driver/Src/stm32f1xx_hal_tim_ex.c ****   __HAL_LOCK(htim);
1475:Drivers/STM32F1xx_HAL_Driver/Src/stm32f1xx_hal_tim_ex.c **** 
1476:Drivers/STM32F1xx_HAL_Driver/Src/stm32f1xx_hal_tim_ex.c ****   if ((InputTrigger == TIM_TS_ITR0) || (InputTrigger == TIM_TS_ITR1) ||
1477:Drivers/STM32F1xx_HAL_Driver/Src/stm32f1xx_hal_tim_ex.c ****       (InputTrigger == TIM_TS_ITR2) || (InputTrigger == TIM_TS_ITR3))
1478:Drivers/STM32F1xx_HAL_Driver/Src/stm32f1xx_hal_tim_ex.c ****   {
1479:Drivers/STM32F1xx_HAL_Driver/Src/stm32f1xx_hal_tim_ex.c ****     /* Select the Input trigger */
1480:Drivers/STM32F1xx_HAL_Driver/Src/stm32f1xx_hal_tim_ex.c ****     htim->Instance->SMCR &= ~TIM_SMCR_TS;
1481:Drivers/STM32F1xx_HAL_Driver/Src/stm32f1xx_hal_tim_ex.c ****     htim->Instance->SMCR |= InputTrigger;
1482:Drivers/STM32F1xx_HAL_Driver/Src/stm32f1xx_hal_tim_ex.c ****   }
1483:Drivers/STM32F1xx_HAL_Driver/Src/stm32f1xx_hal_tim_ex.c **** 
1484:Drivers/STM32F1xx_HAL_Driver/Src/stm32f1xx_hal_tim_ex.c ****   /* Select the Capture Compare preload feature */
1485:Drivers/STM32F1xx_HAL_Driver/Src/stm32f1xx_hal_tim_ex.c ****   htim->Instance->CR2 |= TIM_CR2_CCPC;
1486:Drivers/STM32F1xx_HAL_Driver/Src/stm32f1xx_hal_tim_ex.c ****   /* Select the Commutation event source */
1487:Drivers/STM32F1xx_HAL_Driver/Src/stm32f1xx_hal_tim_ex.c ****   htim->Instance->CR2 &= ~TIM_CR2_CCUS;
1488:Drivers/STM32F1xx_HAL_Driver/Src/stm32f1xx_hal_tim_ex.c ****   htim->Instance->CR2 |= CommutationSource;
1489:Drivers/STM32F1xx_HAL_Driver/Src/stm32f1xx_hal_tim_ex.c **** 
1490:Drivers/STM32F1xx_HAL_Driver/Src/stm32f1xx_hal_tim_ex.c ****   /* Disable Commutation Interrupt */
1491:Drivers/STM32F1xx_HAL_Driver/Src/stm32f1xx_hal_tim_ex.c ****   __HAL_TIM_DISABLE_IT(htim, TIM_IT_COM);
1492:Drivers/STM32F1xx_HAL_Driver/Src/stm32f1xx_hal_tim_ex.c **** 
1493:Drivers/STM32F1xx_HAL_Driver/Src/stm32f1xx_hal_tim_ex.c ****   /* Disable Commutation DMA request */
1494:Drivers/STM32F1xx_HAL_Driver/Src/stm32f1xx_hal_tim_ex.c ****   __HAL_TIM_DISABLE_DMA(htim, TIM_DMA_COM);
1495:Drivers/STM32F1xx_HAL_Driver/Src/stm32f1xx_hal_tim_ex.c **** 
1496:Drivers/STM32F1xx_HAL_Driver/Src/stm32f1xx_hal_tim_ex.c ****   __HAL_UNLOCK(htim);
1497:Drivers/STM32F1xx_HAL_Driver/Src/stm32f1xx_hal_tim_ex.c **** 
1498:Drivers/STM32F1xx_HAL_Driver/Src/stm32f1xx_hal_tim_ex.c ****   return HAL_OK;
1499:Drivers/STM32F1xx_HAL_Driver/Src/stm32f1xx_hal_tim_ex.c **** }
1500:Drivers/STM32F1xx_HAL_Driver/Src/stm32f1xx_hal_tim_ex.c **** 
1501:Drivers/STM32F1xx_HAL_Driver/Src/stm32f1xx_hal_tim_ex.c **** /**
1502:Drivers/STM32F1xx_HAL_Driver/Src/stm32f1xx_hal_tim_ex.c ****   * @brief  Configure the TIM commutation event sequence with interrupt.
1503:Drivers/STM32F1xx_HAL_Driver/Src/stm32f1xx_hal_tim_ex.c ****   * @note  This function is mandatory to use the commutation event in order to
1504:Drivers/STM32F1xx_HAL_Driver/Src/stm32f1xx_hal_tim_ex.c ****   *        update the configuration at each commutation detection on the TRGI input of the Timer,
1505:Drivers/STM32F1xx_HAL_Driver/Src/stm32f1xx_hal_tim_ex.c ****   *        the typical use of this feature is with the use of another Timer(interface Timer)
1506:Drivers/STM32F1xx_HAL_Driver/Src/stm32f1xx_hal_tim_ex.c ****   *        configured in Hall sensor interface, this interface Timer will generate the
1507:Drivers/STM32F1xx_HAL_Driver/Src/stm32f1xx_hal_tim_ex.c ****   *        commutation at its TRGO output (connected to Timer used in this function) each time
1508:Drivers/STM32F1xx_HAL_Driver/Src/stm32f1xx_hal_tim_ex.c ****   *        the TI1 of the Interface Timer detect a commutation at its input TI1.
1509:Drivers/STM32F1xx_HAL_Driver/Src/stm32f1xx_hal_tim_ex.c ****   * @param  htim TIM handle
1510:Drivers/STM32F1xx_HAL_Driver/Src/stm32f1xx_hal_tim_ex.c ****   * @param  InputTrigger the Internal trigger corresponding to the Timer Interfacing with the Hall 
1511:Drivers/STM32F1xx_HAL_Driver/Src/stm32f1xx_hal_tim_ex.c ****   *          This parameter can be one of the following values:
1512:Drivers/STM32F1xx_HAL_Driver/Src/stm32f1xx_hal_tim_ex.c ****   *            @arg TIM_TS_ITR0: Internal trigger 0 selected
1513:Drivers/STM32F1xx_HAL_Driver/Src/stm32f1xx_hal_tim_ex.c ****   *            @arg TIM_TS_ITR1: Internal trigger 1 selected
1514:Drivers/STM32F1xx_HAL_Driver/Src/stm32f1xx_hal_tim_ex.c ****   *            @arg TIM_TS_ITR2: Internal trigger 2 selected
1515:Drivers/STM32F1xx_HAL_Driver/Src/stm32f1xx_hal_tim_ex.c ****   *            @arg TIM_TS_ITR3: Internal trigger 3 selected
1516:Drivers/STM32F1xx_HAL_Driver/Src/stm32f1xx_hal_tim_ex.c ****   *            @arg TIM_TS_NONE: No trigger is needed
1517:Drivers/STM32F1xx_HAL_Driver/Src/stm32f1xx_hal_tim_ex.c ****   * @param  CommutationSource the Commutation Event source
1518:Drivers/STM32F1xx_HAL_Driver/Src/stm32f1xx_hal_tim_ex.c ****   *          This parameter can be one of the following values:
1519:Drivers/STM32F1xx_HAL_Driver/Src/stm32f1xx_hal_tim_ex.c ****   *            @arg TIM_COMMUTATION_TRGI: Commutation source is the TRGI of the Interface Timer
1520:Drivers/STM32F1xx_HAL_Driver/Src/stm32f1xx_hal_tim_ex.c ****   *            @arg TIM_COMMUTATION_SOFTWARE:  Commutation source is set by software using the COMG
1521:Drivers/STM32F1xx_HAL_Driver/Src/stm32f1xx_hal_tim_ex.c ****   * @retval HAL status
1522:Drivers/STM32F1xx_HAL_Driver/Src/stm32f1xx_hal_tim_ex.c ****   */
1523:Drivers/STM32F1xx_HAL_Driver/Src/stm32f1xx_hal_tim_ex.c **** HAL_StatusTypeDef HAL_TIMEx_ConfigCommutEvent_IT(TIM_HandleTypeDef *htim, uint32_t  InputTrigger,
1524:Drivers/STM32F1xx_HAL_Driver/Src/stm32f1xx_hal_tim_ex.c ****                                                  uint32_t  CommutationSource)
1525:Drivers/STM32F1xx_HAL_Driver/Src/stm32f1xx_hal_tim_ex.c **** {
1526:Drivers/STM32F1xx_HAL_Driver/Src/stm32f1xx_hal_tim_ex.c ****   /* Check the parameters */
1527:Drivers/STM32F1xx_HAL_Driver/Src/stm32f1xx_hal_tim_ex.c ****   assert_param(IS_TIM_COMMUTATION_EVENT_INSTANCE(htim->Instance));
1528:Drivers/STM32F1xx_HAL_Driver/Src/stm32f1xx_hal_tim_ex.c ****   assert_param(IS_TIM_INTERNAL_TRIGGEREVENT_SELECTION(InputTrigger));
1529:Drivers/STM32F1xx_HAL_Driver/Src/stm32f1xx_hal_tim_ex.c **** 
1530:Drivers/STM32F1xx_HAL_Driver/Src/stm32f1xx_hal_tim_ex.c ****   __HAL_LOCK(htim);
ARM GAS  /var/folders/20/cstyxln53wn53rr40gj353bh0000gn/T//ccV5XGPK.s 			page 44


1531:Drivers/STM32F1xx_HAL_Driver/Src/stm32f1xx_hal_tim_ex.c **** 
1532:Drivers/STM32F1xx_HAL_Driver/Src/stm32f1xx_hal_tim_ex.c ****   if ((InputTrigger == TIM_TS_ITR0) || (InputTrigger == TIM_TS_ITR1) ||
1533:Drivers/STM32F1xx_HAL_Driver/Src/stm32f1xx_hal_tim_ex.c ****       (InputTrigger == TIM_TS_ITR2) || (InputTrigger == TIM_TS_ITR3))
1534:Drivers/STM32F1xx_HAL_Driver/Src/stm32f1xx_hal_tim_ex.c ****   {
1535:Drivers/STM32F1xx_HAL_Driver/Src/stm32f1xx_hal_tim_ex.c ****     /* Select the Input trigger */
1536:Drivers/STM32F1xx_HAL_Driver/Src/stm32f1xx_hal_tim_ex.c ****     htim->Instance->SMCR &= ~TIM_SMCR_TS;
1537:Drivers/STM32F1xx_HAL_Driver/Src/stm32f1xx_hal_tim_ex.c ****     htim->Instance->SMCR |= InputTrigger;
1538:Drivers/STM32F1xx_HAL_Driver/Src/stm32f1xx_hal_tim_ex.c ****   }
1539:Drivers/STM32F1xx_HAL_Driver/Src/stm32f1xx_hal_tim_ex.c **** 
1540:Drivers/STM32F1xx_HAL_Driver/Src/stm32f1xx_hal_tim_ex.c ****   /* Select the Capture Compare preload feature */
1541:Drivers/STM32F1xx_HAL_Driver/Src/stm32f1xx_hal_tim_ex.c ****   htim->Instance->CR2 |= TIM_CR2_CCPC;
1542:Drivers/STM32F1xx_HAL_Driver/Src/stm32f1xx_hal_tim_ex.c ****   /* Select the Commutation event source */
1543:Drivers/STM32F1xx_HAL_Driver/Src/stm32f1xx_hal_tim_ex.c ****   htim->Instance->CR2 &= ~TIM_CR2_CCUS;
1544:Drivers/STM32F1xx_HAL_Driver/Src/stm32f1xx_hal_tim_ex.c ****   htim->Instance->CR2 |= CommutationSource;
1545:Drivers/STM32F1xx_HAL_Driver/Src/stm32f1xx_hal_tim_ex.c **** 
1546:Drivers/STM32F1xx_HAL_Driver/Src/stm32f1xx_hal_tim_ex.c ****   /* Disable Commutation DMA request */
1547:Drivers/STM32F1xx_HAL_Driver/Src/stm32f1xx_hal_tim_ex.c ****   __HAL_TIM_DISABLE_DMA(htim, TIM_DMA_COM);
1548:Drivers/STM32F1xx_HAL_Driver/Src/stm32f1xx_hal_tim_ex.c **** 
1549:Drivers/STM32F1xx_HAL_Driver/Src/stm32f1xx_hal_tim_ex.c ****   /* Enable the Commutation Interrupt */
1550:Drivers/STM32F1xx_HAL_Driver/Src/stm32f1xx_hal_tim_ex.c ****   __HAL_TIM_ENABLE_IT(htim, TIM_IT_COM);
1551:Drivers/STM32F1xx_HAL_Driver/Src/stm32f1xx_hal_tim_ex.c **** 
1552:Drivers/STM32F1xx_HAL_Driver/Src/stm32f1xx_hal_tim_ex.c ****   __HAL_UNLOCK(htim);
1553:Drivers/STM32F1xx_HAL_Driver/Src/stm32f1xx_hal_tim_ex.c **** 
1554:Drivers/STM32F1xx_HAL_Driver/Src/stm32f1xx_hal_tim_ex.c ****   return HAL_OK;
1555:Drivers/STM32F1xx_HAL_Driver/Src/stm32f1xx_hal_tim_ex.c **** }
1556:Drivers/STM32F1xx_HAL_Driver/Src/stm32f1xx_hal_tim_ex.c **** 
1557:Drivers/STM32F1xx_HAL_Driver/Src/stm32f1xx_hal_tim_ex.c **** /**
1558:Drivers/STM32F1xx_HAL_Driver/Src/stm32f1xx_hal_tim_ex.c ****   * @brief  Configure the TIM commutation event sequence with DMA.
1559:Drivers/STM32F1xx_HAL_Driver/Src/stm32f1xx_hal_tim_ex.c ****   * @note  This function is mandatory to use the commutation event in order to
1560:Drivers/STM32F1xx_HAL_Driver/Src/stm32f1xx_hal_tim_ex.c ****   *        update the configuration at each commutation detection on the TRGI input of the Timer,
1561:Drivers/STM32F1xx_HAL_Driver/Src/stm32f1xx_hal_tim_ex.c ****   *        the typical use of this feature is with the use of another Timer(interface Timer)
1562:Drivers/STM32F1xx_HAL_Driver/Src/stm32f1xx_hal_tim_ex.c ****   *        configured in Hall sensor interface, this interface Timer will generate the
1563:Drivers/STM32F1xx_HAL_Driver/Src/stm32f1xx_hal_tim_ex.c ****   *        commutation at its TRGO output (connected to Timer used in this function) each time
1564:Drivers/STM32F1xx_HAL_Driver/Src/stm32f1xx_hal_tim_ex.c ****   *        the TI1 of the Interface Timer detect a commutation at its input TI1.
1565:Drivers/STM32F1xx_HAL_Driver/Src/stm32f1xx_hal_tim_ex.c ****   * @note  The user should configure the DMA in his own software, in This function only the COMDE b
1566:Drivers/STM32F1xx_HAL_Driver/Src/stm32f1xx_hal_tim_ex.c ****   * @param  htim TIM handle
1567:Drivers/STM32F1xx_HAL_Driver/Src/stm32f1xx_hal_tim_ex.c ****   * @param  InputTrigger the Internal trigger corresponding to the Timer Interfacing with the Hall 
1568:Drivers/STM32F1xx_HAL_Driver/Src/stm32f1xx_hal_tim_ex.c ****   *          This parameter can be one of the following values:
1569:Drivers/STM32F1xx_HAL_Driver/Src/stm32f1xx_hal_tim_ex.c ****   *            @arg TIM_TS_ITR0: Internal trigger 0 selected
1570:Drivers/STM32F1xx_HAL_Driver/Src/stm32f1xx_hal_tim_ex.c ****   *            @arg TIM_TS_ITR1: Internal trigger 1 selected
1571:Drivers/STM32F1xx_HAL_Driver/Src/stm32f1xx_hal_tim_ex.c ****   *            @arg TIM_TS_ITR2: Internal trigger 2 selected
1572:Drivers/STM32F1xx_HAL_Driver/Src/stm32f1xx_hal_tim_ex.c ****   *            @arg TIM_TS_ITR3: Internal trigger 3 selected
1573:Drivers/STM32F1xx_HAL_Driver/Src/stm32f1xx_hal_tim_ex.c ****   *            @arg TIM_TS_NONE: No trigger is needed
1574:Drivers/STM32F1xx_HAL_Driver/Src/stm32f1xx_hal_tim_ex.c ****   * @param  CommutationSource the Commutation Event source
1575:Drivers/STM32F1xx_HAL_Driver/Src/stm32f1xx_hal_tim_ex.c ****   *          This parameter can be one of the following values:
1576:Drivers/STM32F1xx_HAL_Driver/Src/stm32f1xx_hal_tim_ex.c ****   *            @arg TIM_COMMUTATION_TRGI: Commutation source is the TRGI of the Interface Timer
1577:Drivers/STM32F1xx_HAL_Driver/Src/stm32f1xx_hal_tim_ex.c ****   *            @arg TIM_COMMUTATION_SOFTWARE:  Commutation source is set by software using the COMG
1578:Drivers/STM32F1xx_HAL_Driver/Src/stm32f1xx_hal_tim_ex.c ****   * @retval HAL status
1579:Drivers/STM32F1xx_HAL_Driver/Src/stm32f1xx_hal_tim_ex.c ****   */
1580:Drivers/STM32F1xx_HAL_Driver/Src/stm32f1xx_hal_tim_ex.c **** HAL_StatusTypeDef HAL_TIMEx_ConfigCommutEvent_DMA(TIM_HandleTypeDef *htim, uint32_t  InputTrigger,
1581:Drivers/STM32F1xx_HAL_Driver/Src/stm32f1xx_hal_tim_ex.c ****                                                   uint32_t  CommutationSource)
1582:Drivers/STM32F1xx_HAL_Driver/Src/stm32f1xx_hal_tim_ex.c **** {
1583:Drivers/STM32F1xx_HAL_Driver/Src/stm32f1xx_hal_tim_ex.c ****   /* Check the parameters */
1584:Drivers/STM32F1xx_HAL_Driver/Src/stm32f1xx_hal_tim_ex.c ****   assert_param(IS_TIM_COMMUTATION_EVENT_INSTANCE(htim->Instance));
1585:Drivers/STM32F1xx_HAL_Driver/Src/stm32f1xx_hal_tim_ex.c ****   assert_param(IS_TIM_INTERNAL_TRIGGEREVENT_SELECTION(InputTrigger));
1586:Drivers/STM32F1xx_HAL_Driver/Src/stm32f1xx_hal_tim_ex.c **** 
1587:Drivers/STM32F1xx_HAL_Driver/Src/stm32f1xx_hal_tim_ex.c ****   __HAL_LOCK(htim);
ARM GAS  /var/folders/20/cstyxln53wn53rr40gj353bh0000gn/T//ccV5XGPK.s 			page 45


1588:Drivers/STM32F1xx_HAL_Driver/Src/stm32f1xx_hal_tim_ex.c **** 
1589:Drivers/STM32F1xx_HAL_Driver/Src/stm32f1xx_hal_tim_ex.c ****   if ((InputTrigger == TIM_TS_ITR0) || (InputTrigger == TIM_TS_ITR1) ||
1590:Drivers/STM32F1xx_HAL_Driver/Src/stm32f1xx_hal_tim_ex.c ****       (InputTrigger == TIM_TS_ITR2) || (InputTrigger == TIM_TS_ITR3))
1591:Drivers/STM32F1xx_HAL_Driver/Src/stm32f1xx_hal_tim_ex.c ****   {
1592:Drivers/STM32F1xx_HAL_Driver/Src/stm32f1xx_hal_tim_ex.c ****     /* Select the Input trigger */
1593:Drivers/STM32F1xx_HAL_Driver/Src/stm32f1xx_hal_tim_ex.c ****     htim->Instance->SMCR &= ~TIM_SMCR_TS;
1594:Drivers/STM32F1xx_HAL_Driver/Src/stm32f1xx_hal_tim_ex.c ****     htim->Instance->SMCR |= InputTrigger;
1595:Drivers/STM32F1xx_HAL_Driver/Src/stm32f1xx_hal_tim_ex.c ****   }
1596:Drivers/STM32F1xx_HAL_Driver/Src/stm32f1xx_hal_tim_ex.c **** 
1597:Drivers/STM32F1xx_HAL_Driver/Src/stm32f1xx_hal_tim_ex.c ****   /* Select the Capture Compare preload feature */
1598:Drivers/STM32F1xx_HAL_Driver/Src/stm32f1xx_hal_tim_ex.c ****   htim->Instance->CR2 |= TIM_CR2_CCPC;
1599:Drivers/STM32F1xx_HAL_Driver/Src/stm32f1xx_hal_tim_ex.c ****   /* Select the Commutation event source */
1600:Drivers/STM32F1xx_HAL_Driver/Src/stm32f1xx_hal_tim_ex.c ****   htim->Instance->CR2 &= ~TIM_CR2_CCUS;
1601:Drivers/STM32F1xx_HAL_Driver/Src/stm32f1xx_hal_tim_ex.c ****   htim->Instance->CR2 |= CommutationSource;
1602:Drivers/STM32F1xx_HAL_Driver/Src/stm32f1xx_hal_tim_ex.c **** 
1603:Drivers/STM32F1xx_HAL_Driver/Src/stm32f1xx_hal_tim_ex.c ****   /* Enable the Commutation DMA Request */
1604:Drivers/STM32F1xx_HAL_Driver/Src/stm32f1xx_hal_tim_ex.c ****   /* Set the DMA Commutation Callback */
1605:Drivers/STM32F1xx_HAL_Driver/Src/stm32f1xx_hal_tim_ex.c ****   htim->hdma[TIM_DMA_ID_COMMUTATION]->XferCpltCallback = TIMEx_DMACommutationCplt;
1606:Drivers/STM32F1xx_HAL_Driver/Src/stm32f1xx_hal_tim_ex.c ****   htim->hdma[TIM_DMA_ID_COMMUTATION]->XferHalfCpltCallback = TIMEx_DMACommutationHalfCplt;
1607:Drivers/STM32F1xx_HAL_Driver/Src/stm32f1xx_hal_tim_ex.c ****   /* Set the DMA error callback */
1608:Drivers/STM32F1xx_HAL_Driver/Src/stm32f1xx_hal_tim_ex.c ****   htim->hdma[TIM_DMA_ID_COMMUTATION]->XferErrorCallback = TIM_DMAError;
1609:Drivers/STM32F1xx_HAL_Driver/Src/stm32f1xx_hal_tim_ex.c **** 
1610:Drivers/STM32F1xx_HAL_Driver/Src/stm32f1xx_hal_tim_ex.c ****   /* Disable Commutation Interrupt */
1611:Drivers/STM32F1xx_HAL_Driver/Src/stm32f1xx_hal_tim_ex.c ****   __HAL_TIM_DISABLE_IT(htim, TIM_IT_COM);
1612:Drivers/STM32F1xx_HAL_Driver/Src/stm32f1xx_hal_tim_ex.c **** 
1613:Drivers/STM32F1xx_HAL_Driver/Src/stm32f1xx_hal_tim_ex.c ****   /* Enable the Commutation DMA Request */
1614:Drivers/STM32F1xx_HAL_Driver/Src/stm32f1xx_hal_tim_ex.c ****   __HAL_TIM_ENABLE_DMA(htim, TIM_DMA_COM);
1615:Drivers/STM32F1xx_HAL_Driver/Src/stm32f1xx_hal_tim_ex.c **** 
1616:Drivers/STM32F1xx_HAL_Driver/Src/stm32f1xx_hal_tim_ex.c ****   __HAL_UNLOCK(htim);
1617:Drivers/STM32F1xx_HAL_Driver/Src/stm32f1xx_hal_tim_ex.c **** 
1618:Drivers/STM32F1xx_HAL_Driver/Src/stm32f1xx_hal_tim_ex.c ****   return HAL_OK;
1619:Drivers/STM32F1xx_HAL_Driver/Src/stm32f1xx_hal_tim_ex.c **** }
1620:Drivers/STM32F1xx_HAL_Driver/Src/stm32f1xx_hal_tim_ex.c **** 
1621:Drivers/STM32F1xx_HAL_Driver/Src/stm32f1xx_hal_tim_ex.c **** /**
1622:Drivers/STM32F1xx_HAL_Driver/Src/stm32f1xx_hal_tim_ex.c ****   * @brief  Configures the TIM in master mode.
1623:Drivers/STM32F1xx_HAL_Driver/Src/stm32f1xx_hal_tim_ex.c ****   * @param  htim TIM handle.
1624:Drivers/STM32F1xx_HAL_Driver/Src/stm32f1xx_hal_tim_ex.c ****   * @param  sMasterConfig pointer to a TIM_MasterConfigTypeDef structure that
1625:Drivers/STM32F1xx_HAL_Driver/Src/stm32f1xx_hal_tim_ex.c ****   *         contains the selected trigger output (TRGO) and the Master/Slave
1626:Drivers/STM32F1xx_HAL_Driver/Src/stm32f1xx_hal_tim_ex.c ****   *         mode.
1627:Drivers/STM32F1xx_HAL_Driver/Src/stm32f1xx_hal_tim_ex.c ****   * @retval HAL status
1628:Drivers/STM32F1xx_HAL_Driver/Src/stm32f1xx_hal_tim_ex.c ****   */
1629:Drivers/STM32F1xx_HAL_Driver/Src/stm32f1xx_hal_tim_ex.c **** HAL_StatusTypeDef HAL_TIMEx_MasterConfigSynchronization(TIM_HandleTypeDef *htim,
1630:Drivers/STM32F1xx_HAL_Driver/Src/stm32f1xx_hal_tim_ex.c ****                                                         TIM_MasterConfigTypeDef *sMasterConfig)
1631:Drivers/STM32F1xx_HAL_Driver/Src/stm32f1xx_hal_tim_ex.c **** {
1632:Drivers/STM32F1xx_HAL_Driver/Src/stm32f1xx_hal_tim_ex.c ****   uint32_t tmpcr2;
1633:Drivers/STM32F1xx_HAL_Driver/Src/stm32f1xx_hal_tim_ex.c ****   uint32_t tmpsmcr;
1634:Drivers/STM32F1xx_HAL_Driver/Src/stm32f1xx_hal_tim_ex.c **** 
1635:Drivers/STM32F1xx_HAL_Driver/Src/stm32f1xx_hal_tim_ex.c ****   /* Check the parameters */
1636:Drivers/STM32F1xx_HAL_Driver/Src/stm32f1xx_hal_tim_ex.c ****   assert_param(IS_TIM_SYNCHRO_INSTANCE(htim->Instance));
1637:Drivers/STM32F1xx_HAL_Driver/Src/stm32f1xx_hal_tim_ex.c ****   assert_param(IS_TIM_TRGO_SOURCE(sMasterConfig->MasterOutputTrigger));
1638:Drivers/STM32F1xx_HAL_Driver/Src/stm32f1xx_hal_tim_ex.c ****   assert_param(IS_TIM_MSM_STATE(sMasterConfig->MasterSlaveMode));
1639:Drivers/STM32F1xx_HAL_Driver/Src/stm32f1xx_hal_tim_ex.c **** 
1640:Drivers/STM32F1xx_HAL_Driver/Src/stm32f1xx_hal_tim_ex.c ****   /* Check input state */
1641:Drivers/STM32F1xx_HAL_Driver/Src/stm32f1xx_hal_tim_ex.c ****   __HAL_LOCK(htim);
1642:Drivers/STM32F1xx_HAL_Driver/Src/stm32f1xx_hal_tim_ex.c **** 
1643:Drivers/STM32F1xx_HAL_Driver/Src/stm32f1xx_hal_tim_ex.c ****   /* Change the handler state */
1644:Drivers/STM32F1xx_HAL_Driver/Src/stm32f1xx_hal_tim_ex.c ****   htim->State = HAL_TIM_STATE_BUSY;
ARM GAS  /var/folders/20/cstyxln53wn53rr40gj353bh0000gn/T//ccV5XGPK.s 			page 46


1645:Drivers/STM32F1xx_HAL_Driver/Src/stm32f1xx_hal_tim_ex.c **** 
1646:Drivers/STM32F1xx_HAL_Driver/Src/stm32f1xx_hal_tim_ex.c ****   /* Get the TIMx CR2 register value */
1647:Drivers/STM32F1xx_HAL_Driver/Src/stm32f1xx_hal_tim_ex.c ****   tmpcr2 = htim->Instance->CR2;
1648:Drivers/STM32F1xx_HAL_Driver/Src/stm32f1xx_hal_tim_ex.c **** 
1649:Drivers/STM32F1xx_HAL_Driver/Src/stm32f1xx_hal_tim_ex.c ****   /* Get the TIMx SMCR register value */
1650:Drivers/STM32F1xx_HAL_Driver/Src/stm32f1xx_hal_tim_ex.c ****   tmpsmcr = htim->Instance->SMCR;
1651:Drivers/STM32F1xx_HAL_Driver/Src/stm32f1xx_hal_tim_ex.c **** 
1652:Drivers/STM32F1xx_HAL_Driver/Src/stm32f1xx_hal_tim_ex.c ****   /* Reset the MMS Bits */
1653:Drivers/STM32F1xx_HAL_Driver/Src/stm32f1xx_hal_tim_ex.c ****   tmpcr2 &= ~TIM_CR2_MMS;
1654:Drivers/STM32F1xx_HAL_Driver/Src/stm32f1xx_hal_tim_ex.c ****   /* Select the TRGO source */
1655:Drivers/STM32F1xx_HAL_Driver/Src/stm32f1xx_hal_tim_ex.c ****   tmpcr2 |=  sMasterConfig->MasterOutputTrigger;
1656:Drivers/STM32F1xx_HAL_Driver/Src/stm32f1xx_hal_tim_ex.c **** 
1657:Drivers/STM32F1xx_HAL_Driver/Src/stm32f1xx_hal_tim_ex.c ****   /* Reset the MSM Bit */
1658:Drivers/STM32F1xx_HAL_Driver/Src/stm32f1xx_hal_tim_ex.c ****   tmpsmcr &= ~TIM_SMCR_MSM;
1659:Drivers/STM32F1xx_HAL_Driver/Src/stm32f1xx_hal_tim_ex.c ****   /* Set master mode */
1660:Drivers/STM32F1xx_HAL_Driver/Src/stm32f1xx_hal_tim_ex.c ****   tmpsmcr |= sMasterConfig->MasterSlaveMode;
1661:Drivers/STM32F1xx_HAL_Driver/Src/stm32f1xx_hal_tim_ex.c **** 
1662:Drivers/STM32F1xx_HAL_Driver/Src/stm32f1xx_hal_tim_ex.c ****   /* Update TIMx CR2 */
1663:Drivers/STM32F1xx_HAL_Driver/Src/stm32f1xx_hal_tim_ex.c ****   htim->Instance->CR2 = tmpcr2;
1664:Drivers/STM32F1xx_HAL_Driver/Src/stm32f1xx_hal_tim_ex.c **** 
1665:Drivers/STM32F1xx_HAL_Driver/Src/stm32f1xx_hal_tim_ex.c ****   /* Update TIMx SMCR */
1666:Drivers/STM32F1xx_HAL_Driver/Src/stm32f1xx_hal_tim_ex.c ****   htim->Instance->SMCR = tmpsmcr;
1667:Drivers/STM32F1xx_HAL_Driver/Src/stm32f1xx_hal_tim_ex.c **** 
1668:Drivers/STM32F1xx_HAL_Driver/Src/stm32f1xx_hal_tim_ex.c ****   /* Change the htim state */
1669:Drivers/STM32F1xx_HAL_Driver/Src/stm32f1xx_hal_tim_ex.c ****   htim->State = HAL_TIM_STATE_READY;
1670:Drivers/STM32F1xx_HAL_Driver/Src/stm32f1xx_hal_tim_ex.c **** 
1671:Drivers/STM32F1xx_HAL_Driver/Src/stm32f1xx_hal_tim_ex.c ****   __HAL_UNLOCK(htim);
1672:Drivers/STM32F1xx_HAL_Driver/Src/stm32f1xx_hal_tim_ex.c **** 
1673:Drivers/STM32F1xx_HAL_Driver/Src/stm32f1xx_hal_tim_ex.c ****   return HAL_OK;
1674:Drivers/STM32F1xx_HAL_Driver/Src/stm32f1xx_hal_tim_ex.c **** }
1675:Drivers/STM32F1xx_HAL_Driver/Src/stm32f1xx_hal_tim_ex.c **** 
1676:Drivers/STM32F1xx_HAL_Driver/Src/stm32f1xx_hal_tim_ex.c **** /**
1677:Drivers/STM32F1xx_HAL_Driver/Src/stm32f1xx_hal_tim_ex.c ****   * @brief  Configures the Break feature, dead time, Lock level, OSSI/OSSR State
1678:Drivers/STM32F1xx_HAL_Driver/Src/stm32f1xx_hal_tim_ex.c ****   *         and the AOE(automatic output enable).
1679:Drivers/STM32F1xx_HAL_Driver/Src/stm32f1xx_hal_tim_ex.c ****   * @param  htim TIM handle
1680:Drivers/STM32F1xx_HAL_Driver/Src/stm32f1xx_hal_tim_ex.c ****   * @param  sBreakDeadTimeConfig pointer to a TIM_ConfigBreakDeadConfigTypeDef structure that
1681:Drivers/STM32F1xx_HAL_Driver/Src/stm32f1xx_hal_tim_ex.c ****   *         contains the BDTR Register configuration  information for the TIM peripheral.
1682:Drivers/STM32F1xx_HAL_Driver/Src/stm32f1xx_hal_tim_ex.c ****   * @note   Interrupts can be generated when an active level is detected on the
1683:Drivers/STM32F1xx_HAL_Driver/Src/stm32f1xx_hal_tim_ex.c ****   *         break input, the break 2 input or the system break input. Break
1684:Drivers/STM32F1xx_HAL_Driver/Src/stm32f1xx_hal_tim_ex.c ****   *         interrupt can be enabled by calling the @ref __HAL_TIM_ENABLE_IT macro.
1685:Drivers/STM32F1xx_HAL_Driver/Src/stm32f1xx_hal_tim_ex.c ****   * @retval HAL status
1686:Drivers/STM32F1xx_HAL_Driver/Src/stm32f1xx_hal_tim_ex.c ****   */
1687:Drivers/STM32F1xx_HAL_Driver/Src/stm32f1xx_hal_tim_ex.c **** HAL_StatusTypeDef HAL_TIMEx_ConfigBreakDeadTime(TIM_HandleTypeDef *htim,
1688:Drivers/STM32F1xx_HAL_Driver/Src/stm32f1xx_hal_tim_ex.c ****                                                 TIM_BreakDeadTimeConfigTypeDef *sBreakDeadTimeConfi
1689:Drivers/STM32F1xx_HAL_Driver/Src/stm32f1xx_hal_tim_ex.c **** {
1690:Drivers/STM32F1xx_HAL_Driver/Src/stm32f1xx_hal_tim_ex.c ****   /* Keep this variable initialized to 0 as it is used to configure BDTR register */
1691:Drivers/STM32F1xx_HAL_Driver/Src/stm32f1xx_hal_tim_ex.c ****   uint32_t tmpbdtr = 0U;
1692:Drivers/STM32F1xx_HAL_Driver/Src/stm32f1xx_hal_tim_ex.c **** 
1693:Drivers/STM32F1xx_HAL_Driver/Src/stm32f1xx_hal_tim_ex.c ****   /* Check the parameters */
1694:Drivers/STM32F1xx_HAL_Driver/Src/stm32f1xx_hal_tim_ex.c ****   assert_param(IS_TIM_BREAK_INSTANCE(htim->Instance));
1695:Drivers/STM32F1xx_HAL_Driver/Src/stm32f1xx_hal_tim_ex.c ****   assert_param(IS_TIM_OSSR_STATE(sBreakDeadTimeConfig->OffStateRunMode));
1696:Drivers/STM32F1xx_HAL_Driver/Src/stm32f1xx_hal_tim_ex.c ****   assert_param(IS_TIM_OSSI_STATE(sBreakDeadTimeConfig->OffStateIDLEMode));
1697:Drivers/STM32F1xx_HAL_Driver/Src/stm32f1xx_hal_tim_ex.c ****   assert_param(IS_TIM_LOCK_LEVEL(sBreakDeadTimeConfig->LockLevel));
1698:Drivers/STM32F1xx_HAL_Driver/Src/stm32f1xx_hal_tim_ex.c ****   assert_param(IS_TIM_DEADTIME(sBreakDeadTimeConfig->DeadTime));
1699:Drivers/STM32F1xx_HAL_Driver/Src/stm32f1xx_hal_tim_ex.c ****   assert_param(IS_TIM_BREAK_STATE(sBreakDeadTimeConfig->BreakState));
1700:Drivers/STM32F1xx_HAL_Driver/Src/stm32f1xx_hal_tim_ex.c ****   assert_param(IS_TIM_BREAK_POLARITY(sBreakDeadTimeConfig->BreakPolarity));
1701:Drivers/STM32F1xx_HAL_Driver/Src/stm32f1xx_hal_tim_ex.c ****   assert_param(IS_TIM_AUTOMATIC_OUTPUT_STATE(sBreakDeadTimeConfig->AutomaticOutput));
ARM GAS  /var/folders/20/cstyxln53wn53rr40gj353bh0000gn/T//ccV5XGPK.s 			page 47


1702:Drivers/STM32F1xx_HAL_Driver/Src/stm32f1xx_hal_tim_ex.c **** 
1703:Drivers/STM32F1xx_HAL_Driver/Src/stm32f1xx_hal_tim_ex.c ****   /* Check input state */
1704:Drivers/STM32F1xx_HAL_Driver/Src/stm32f1xx_hal_tim_ex.c ****   __HAL_LOCK(htim);
1705:Drivers/STM32F1xx_HAL_Driver/Src/stm32f1xx_hal_tim_ex.c **** 
1706:Drivers/STM32F1xx_HAL_Driver/Src/stm32f1xx_hal_tim_ex.c ****   /* Set the Lock level, the Break enable Bit and the Polarity, the OSSR State,
1707:Drivers/STM32F1xx_HAL_Driver/Src/stm32f1xx_hal_tim_ex.c ****      the OSSI State, the dead time value and the Automatic Output Enable Bit */
1708:Drivers/STM32F1xx_HAL_Driver/Src/stm32f1xx_hal_tim_ex.c **** 
1709:Drivers/STM32F1xx_HAL_Driver/Src/stm32f1xx_hal_tim_ex.c ****   /* Set the BDTR bits */
1710:Drivers/STM32F1xx_HAL_Driver/Src/stm32f1xx_hal_tim_ex.c ****   MODIFY_REG(tmpbdtr, TIM_BDTR_DTG, sBreakDeadTimeConfig->DeadTime);
1711:Drivers/STM32F1xx_HAL_Driver/Src/stm32f1xx_hal_tim_ex.c ****   MODIFY_REG(tmpbdtr, TIM_BDTR_LOCK, sBreakDeadTimeConfig->LockLevel);
1712:Drivers/STM32F1xx_HAL_Driver/Src/stm32f1xx_hal_tim_ex.c ****   MODIFY_REG(tmpbdtr, TIM_BDTR_OSSI, sBreakDeadTimeConfig->OffStateIDLEMode);
1713:Drivers/STM32F1xx_HAL_Driver/Src/stm32f1xx_hal_tim_ex.c ****   MODIFY_REG(tmpbdtr, TIM_BDTR_OSSR, sBreakDeadTimeConfig->OffStateRunMode);
1714:Drivers/STM32F1xx_HAL_Driver/Src/stm32f1xx_hal_tim_ex.c ****   MODIFY_REG(tmpbdtr, TIM_BDTR_BKE, sBreakDeadTimeConfig->BreakState);
1715:Drivers/STM32F1xx_HAL_Driver/Src/stm32f1xx_hal_tim_ex.c ****   MODIFY_REG(tmpbdtr, TIM_BDTR_BKP, sBreakDeadTimeConfig->BreakPolarity);
1716:Drivers/STM32F1xx_HAL_Driver/Src/stm32f1xx_hal_tim_ex.c ****   MODIFY_REG(tmpbdtr, TIM_BDTR_AOE, sBreakDeadTimeConfig->AutomaticOutput);
1717:Drivers/STM32F1xx_HAL_Driver/Src/stm32f1xx_hal_tim_ex.c **** 
1718:Drivers/STM32F1xx_HAL_Driver/Src/stm32f1xx_hal_tim_ex.c **** 
1719:Drivers/STM32F1xx_HAL_Driver/Src/stm32f1xx_hal_tim_ex.c ****   /* Set TIMx_BDTR */
1720:Drivers/STM32F1xx_HAL_Driver/Src/stm32f1xx_hal_tim_ex.c ****   htim->Instance->BDTR = tmpbdtr;
1721:Drivers/STM32F1xx_HAL_Driver/Src/stm32f1xx_hal_tim_ex.c **** 
1722:Drivers/STM32F1xx_HAL_Driver/Src/stm32f1xx_hal_tim_ex.c ****   __HAL_UNLOCK(htim);
1723:Drivers/STM32F1xx_HAL_Driver/Src/stm32f1xx_hal_tim_ex.c **** 
1724:Drivers/STM32F1xx_HAL_Driver/Src/stm32f1xx_hal_tim_ex.c ****   return HAL_OK;
1725:Drivers/STM32F1xx_HAL_Driver/Src/stm32f1xx_hal_tim_ex.c **** }
1726:Drivers/STM32F1xx_HAL_Driver/Src/stm32f1xx_hal_tim_ex.c **** 
1727:Drivers/STM32F1xx_HAL_Driver/Src/stm32f1xx_hal_tim_ex.c **** /**
1728:Drivers/STM32F1xx_HAL_Driver/Src/stm32f1xx_hal_tim_ex.c ****   * @brief  Configures the TIMx Remapping input capabilities.
1729:Drivers/STM32F1xx_HAL_Driver/Src/stm32f1xx_hal_tim_ex.c ****   * @param  htim TIM handle.
1730:Drivers/STM32F1xx_HAL_Driver/Src/stm32f1xx_hal_tim_ex.c ****   * @param  Remap specifies the TIM remapping source.
1731:Drivers/STM32F1xx_HAL_Driver/Src/stm32f1xx_hal_tim_ex.c ****   *
1732:Drivers/STM32F1xx_HAL_Driver/Src/stm32f1xx_hal_tim_ex.c ****   * @retval HAL status
1733:Drivers/STM32F1xx_HAL_Driver/Src/stm32f1xx_hal_tim_ex.c ****   */
1734:Drivers/STM32F1xx_HAL_Driver/Src/stm32f1xx_hal_tim_ex.c **** HAL_StatusTypeDef HAL_TIMEx_RemapConfig(TIM_HandleTypeDef *htim, uint32_t Remap)
1735:Drivers/STM32F1xx_HAL_Driver/Src/stm32f1xx_hal_tim_ex.c **** {
1736:Drivers/STM32F1xx_HAL_Driver/Src/stm32f1xx_hal_tim_ex.c **** 
1737:Drivers/STM32F1xx_HAL_Driver/Src/stm32f1xx_hal_tim_ex.c ****   return HAL_OK;
1738:Drivers/STM32F1xx_HAL_Driver/Src/stm32f1xx_hal_tim_ex.c **** }
1739:Drivers/STM32F1xx_HAL_Driver/Src/stm32f1xx_hal_tim_ex.c **** 
1740:Drivers/STM32F1xx_HAL_Driver/Src/stm32f1xx_hal_tim_ex.c **** /**
1741:Drivers/STM32F1xx_HAL_Driver/Src/stm32f1xx_hal_tim_ex.c ****   * @}
1742:Drivers/STM32F1xx_HAL_Driver/Src/stm32f1xx_hal_tim_ex.c ****   */
1743:Drivers/STM32F1xx_HAL_Driver/Src/stm32f1xx_hal_tim_ex.c **** 
1744:Drivers/STM32F1xx_HAL_Driver/Src/stm32f1xx_hal_tim_ex.c **** /** @defgroup TIMEx_Exported_Functions_Group6 Extended Callbacks functions
1745:Drivers/STM32F1xx_HAL_Driver/Src/stm32f1xx_hal_tim_ex.c ****   * @brief    Extended Callbacks functions
1746:Drivers/STM32F1xx_HAL_Driver/Src/stm32f1xx_hal_tim_ex.c ****   *
1747:Drivers/STM32F1xx_HAL_Driver/Src/stm32f1xx_hal_tim_ex.c **** @verbatim
1748:Drivers/STM32F1xx_HAL_Driver/Src/stm32f1xx_hal_tim_ex.c ****   ==============================================================================
1749:Drivers/STM32F1xx_HAL_Driver/Src/stm32f1xx_hal_tim_ex.c ****                     ##### Extended Callbacks functions #####
1750:Drivers/STM32F1xx_HAL_Driver/Src/stm32f1xx_hal_tim_ex.c ****   ==============================================================================
1751:Drivers/STM32F1xx_HAL_Driver/Src/stm32f1xx_hal_tim_ex.c ****   [..]
1752:Drivers/STM32F1xx_HAL_Driver/Src/stm32f1xx_hal_tim_ex.c ****     This section provides Extended TIM callback functions:
1753:Drivers/STM32F1xx_HAL_Driver/Src/stm32f1xx_hal_tim_ex.c ****     (+) Timer Commutation callback
1754:Drivers/STM32F1xx_HAL_Driver/Src/stm32f1xx_hal_tim_ex.c ****     (+) Timer Break callback
1755:Drivers/STM32F1xx_HAL_Driver/Src/stm32f1xx_hal_tim_ex.c **** 
1756:Drivers/STM32F1xx_HAL_Driver/Src/stm32f1xx_hal_tim_ex.c **** @endverbatim
1757:Drivers/STM32F1xx_HAL_Driver/Src/stm32f1xx_hal_tim_ex.c ****   * @{
1758:Drivers/STM32F1xx_HAL_Driver/Src/stm32f1xx_hal_tim_ex.c ****   */
ARM GAS  /var/folders/20/cstyxln53wn53rr40gj353bh0000gn/T//ccV5XGPK.s 			page 48


1759:Drivers/STM32F1xx_HAL_Driver/Src/stm32f1xx_hal_tim_ex.c **** 
1760:Drivers/STM32F1xx_HAL_Driver/Src/stm32f1xx_hal_tim_ex.c **** /**
1761:Drivers/STM32F1xx_HAL_Driver/Src/stm32f1xx_hal_tim_ex.c ****   * @brief  Hall commutation changed callback in non-blocking mode
1762:Drivers/STM32F1xx_HAL_Driver/Src/stm32f1xx_hal_tim_ex.c ****   * @param  htim TIM handle
1763:Drivers/STM32F1xx_HAL_Driver/Src/stm32f1xx_hal_tim_ex.c ****   * @retval None
1764:Drivers/STM32F1xx_HAL_Driver/Src/stm32f1xx_hal_tim_ex.c ****   */
1765:Drivers/STM32F1xx_HAL_Driver/Src/stm32f1xx_hal_tim_ex.c **** __weak void HAL_TIMEx_CommutCallback(TIM_HandleTypeDef *htim)
1766:Drivers/STM32F1xx_HAL_Driver/Src/stm32f1xx_hal_tim_ex.c **** {
1767:Drivers/STM32F1xx_HAL_Driver/Src/stm32f1xx_hal_tim_ex.c ****   /* Prevent unused argument(s) compilation warning */
1768:Drivers/STM32F1xx_HAL_Driver/Src/stm32f1xx_hal_tim_ex.c ****   UNUSED(htim);
1769:Drivers/STM32F1xx_HAL_Driver/Src/stm32f1xx_hal_tim_ex.c **** 
1770:Drivers/STM32F1xx_HAL_Driver/Src/stm32f1xx_hal_tim_ex.c ****   /* NOTE : This function should not be modified, when the callback is needed,
1771:Drivers/STM32F1xx_HAL_Driver/Src/stm32f1xx_hal_tim_ex.c ****             the HAL_TIMEx_CommutCallback could be implemented in the user file
1772:Drivers/STM32F1xx_HAL_Driver/Src/stm32f1xx_hal_tim_ex.c ****    */
1773:Drivers/STM32F1xx_HAL_Driver/Src/stm32f1xx_hal_tim_ex.c **** }
1774:Drivers/STM32F1xx_HAL_Driver/Src/stm32f1xx_hal_tim_ex.c **** /**
1775:Drivers/STM32F1xx_HAL_Driver/Src/stm32f1xx_hal_tim_ex.c ****   * @brief  Hall commutation changed half complete callback in non-blocking mode
1776:Drivers/STM32F1xx_HAL_Driver/Src/stm32f1xx_hal_tim_ex.c ****   * @param  htim TIM handle
1777:Drivers/STM32F1xx_HAL_Driver/Src/stm32f1xx_hal_tim_ex.c ****   * @retval None
1778:Drivers/STM32F1xx_HAL_Driver/Src/stm32f1xx_hal_tim_ex.c ****   */
1779:Drivers/STM32F1xx_HAL_Driver/Src/stm32f1xx_hal_tim_ex.c **** __weak void HAL_TIMEx_CommutHalfCpltCallback(TIM_HandleTypeDef *htim)
1780:Drivers/STM32F1xx_HAL_Driver/Src/stm32f1xx_hal_tim_ex.c **** {
1781:Drivers/STM32F1xx_HAL_Driver/Src/stm32f1xx_hal_tim_ex.c ****   /* Prevent unused argument(s) compilation warning */
1782:Drivers/STM32F1xx_HAL_Driver/Src/stm32f1xx_hal_tim_ex.c ****   UNUSED(htim);
1783:Drivers/STM32F1xx_HAL_Driver/Src/stm32f1xx_hal_tim_ex.c **** 
1784:Drivers/STM32F1xx_HAL_Driver/Src/stm32f1xx_hal_tim_ex.c ****   /* NOTE : This function should not be modified, when the callback is needed,
1785:Drivers/STM32F1xx_HAL_Driver/Src/stm32f1xx_hal_tim_ex.c ****             the HAL_TIMEx_CommutHalfCpltCallback could be implemented in the user file
1786:Drivers/STM32F1xx_HAL_Driver/Src/stm32f1xx_hal_tim_ex.c ****    */
1787:Drivers/STM32F1xx_HAL_Driver/Src/stm32f1xx_hal_tim_ex.c **** }
1788:Drivers/STM32F1xx_HAL_Driver/Src/stm32f1xx_hal_tim_ex.c **** 
1789:Drivers/STM32F1xx_HAL_Driver/Src/stm32f1xx_hal_tim_ex.c **** /**
1790:Drivers/STM32F1xx_HAL_Driver/Src/stm32f1xx_hal_tim_ex.c ****   * @brief  Hall Break detection callback in non-blocking mode
1791:Drivers/STM32F1xx_HAL_Driver/Src/stm32f1xx_hal_tim_ex.c ****   * @param  htim TIM handle
1792:Drivers/STM32F1xx_HAL_Driver/Src/stm32f1xx_hal_tim_ex.c ****   * @retval None
1793:Drivers/STM32F1xx_HAL_Driver/Src/stm32f1xx_hal_tim_ex.c ****   */
1794:Drivers/STM32F1xx_HAL_Driver/Src/stm32f1xx_hal_tim_ex.c **** __weak void HAL_TIMEx_BreakCallback(TIM_HandleTypeDef *htim)
1795:Drivers/STM32F1xx_HAL_Driver/Src/stm32f1xx_hal_tim_ex.c **** {
1796:Drivers/STM32F1xx_HAL_Driver/Src/stm32f1xx_hal_tim_ex.c ****   /* Prevent unused argument(s) compilation warning */
1797:Drivers/STM32F1xx_HAL_Driver/Src/stm32f1xx_hal_tim_ex.c ****   UNUSED(htim);
1798:Drivers/STM32F1xx_HAL_Driver/Src/stm32f1xx_hal_tim_ex.c **** 
1799:Drivers/STM32F1xx_HAL_Driver/Src/stm32f1xx_hal_tim_ex.c ****   /* NOTE : This function should not be modified, when the callback is needed,
1800:Drivers/STM32F1xx_HAL_Driver/Src/stm32f1xx_hal_tim_ex.c ****             the HAL_TIMEx_BreakCallback could be implemented in the user file
1801:Drivers/STM32F1xx_HAL_Driver/Src/stm32f1xx_hal_tim_ex.c ****    */
1802:Drivers/STM32F1xx_HAL_Driver/Src/stm32f1xx_hal_tim_ex.c **** }
1803:Drivers/STM32F1xx_HAL_Driver/Src/stm32f1xx_hal_tim_ex.c **** /**
1804:Drivers/STM32F1xx_HAL_Driver/Src/stm32f1xx_hal_tim_ex.c ****   * @}
1805:Drivers/STM32F1xx_HAL_Driver/Src/stm32f1xx_hal_tim_ex.c ****   */
1806:Drivers/STM32F1xx_HAL_Driver/Src/stm32f1xx_hal_tim_ex.c **** 
1807:Drivers/STM32F1xx_HAL_Driver/Src/stm32f1xx_hal_tim_ex.c **** /** @defgroup TIMEx_Exported_Functions_Group7 Extended Peripheral State functions
1808:Drivers/STM32F1xx_HAL_Driver/Src/stm32f1xx_hal_tim_ex.c ****   * @brief    Extended Peripheral State functions
1809:Drivers/STM32F1xx_HAL_Driver/Src/stm32f1xx_hal_tim_ex.c ****   *
1810:Drivers/STM32F1xx_HAL_Driver/Src/stm32f1xx_hal_tim_ex.c **** @verbatim
1811:Drivers/STM32F1xx_HAL_Driver/Src/stm32f1xx_hal_tim_ex.c ****   ==============================================================================
1812:Drivers/STM32F1xx_HAL_Driver/Src/stm32f1xx_hal_tim_ex.c ****                 ##### Extended Peripheral State functions #####
1813:Drivers/STM32F1xx_HAL_Driver/Src/stm32f1xx_hal_tim_ex.c ****   ==============================================================================
1814:Drivers/STM32F1xx_HAL_Driver/Src/stm32f1xx_hal_tim_ex.c ****   [..]
1815:Drivers/STM32F1xx_HAL_Driver/Src/stm32f1xx_hal_tim_ex.c ****     This subsection permits to get in run-time the status of the peripheral
ARM GAS  /var/folders/20/cstyxln53wn53rr40gj353bh0000gn/T//ccV5XGPK.s 			page 49


1816:Drivers/STM32F1xx_HAL_Driver/Src/stm32f1xx_hal_tim_ex.c ****     and the data flow.
1817:Drivers/STM32F1xx_HAL_Driver/Src/stm32f1xx_hal_tim_ex.c **** 
1818:Drivers/STM32F1xx_HAL_Driver/Src/stm32f1xx_hal_tim_ex.c **** @endverbatim
1819:Drivers/STM32F1xx_HAL_Driver/Src/stm32f1xx_hal_tim_ex.c ****   * @{
1820:Drivers/STM32F1xx_HAL_Driver/Src/stm32f1xx_hal_tim_ex.c ****   */
1821:Drivers/STM32F1xx_HAL_Driver/Src/stm32f1xx_hal_tim_ex.c **** 
1822:Drivers/STM32F1xx_HAL_Driver/Src/stm32f1xx_hal_tim_ex.c **** /**
1823:Drivers/STM32F1xx_HAL_Driver/Src/stm32f1xx_hal_tim_ex.c ****   * @brief  Return the TIM Hall Sensor interface handle state.
1824:Drivers/STM32F1xx_HAL_Driver/Src/stm32f1xx_hal_tim_ex.c ****   * @param  htim TIM Hall Sensor handle
1825:Drivers/STM32F1xx_HAL_Driver/Src/stm32f1xx_hal_tim_ex.c ****   * @retval HAL state
1826:Drivers/STM32F1xx_HAL_Driver/Src/stm32f1xx_hal_tim_ex.c ****   */
1827:Drivers/STM32F1xx_HAL_Driver/Src/stm32f1xx_hal_tim_ex.c **** HAL_TIM_StateTypeDef HAL_TIMEx_HallSensor_GetState(TIM_HandleTypeDef *htim)
1828:Drivers/STM32F1xx_HAL_Driver/Src/stm32f1xx_hal_tim_ex.c **** {
1829:Drivers/STM32F1xx_HAL_Driver/Src/stm32f1xx_hal_tim_ex.c ****   return htim->State;
1830:Drivers/STM32F1xx_HAL_Driver/Src/stm32f1xx_hal_tim_ex.c **** }
1831:Drivers/STM32F1xx_HAL_Driver/Src/stm32f1xx_hal_tim_ex.c **** 
1832:Drivers/STM32F1xx_HAL_Driver/Src/stm32f1xx_hal_tim_ex.c **** /**
1833:Drivers/STM32F1xx_HAL_Driver/Src/stm32f1xx_hal_tim_ex.c ****   * @}
1834:Drivers/STM32F1xx_HAL_Driver/Src/stm32f1xx_hal_tim_ex.c ****   */
1835:Drivers/STM32F1xx_HAL_Driver/Src/stm32f1xx_hal_tim_ex.c **** 
1836:Drivers/STM32F1xx_HAL_Driver/Src/stm32f1xx_hal_tim_ex.c **** /**
1837:Drivers/STM32F1xx_HAL_Driver/Src/stm32f1xx_hal_tim_ex.c ****   * @}
1838:Drivers/STM32F1xx_HAL_Driver/Src/stm32f1xx_hal_tim_ex.c ****   */
1839:Drivers/STM32F1xx_HAL_Driver/Src/stm32f1xx_hal_tim_ex.c **** 
1840:Drivers/STM32F1xx_HAL_Driver/Src/stm32f1xx_hal_tim_ex.c **** /* Private functions ---------------------------------------------------------*/
1841:Drivers/STM32F1xx_HAL_Driver/Src/stm32f1xx_hal_tim_ex.c **** /** @defgroup TIMEx_Private_Functions TIMEx Private Functions
1842:Drivers/STM32F1xx_HAL_Driver/Src/stm32f1xx_hal_tim_ex.c ****   * @{
1843:Drivers/STM32F1xx_HAL_Driver/Src/stm32f1xx_hal_tim_ex.c ****   */
1844:Drivers/STM32F1xx_HAL_Driver/Src/stm32f1xx_hal_tim_ex.c **** 
1845:Drivers/STM32F1xx_HAL_Driver/Src/stm32f1xx_hal_tim_ex.c **** /**
1846:Drivers/STM32F1xx_HAL_Driver/Src/stm32f1xx_hal_tim_ex.c ****   * @brief  TIM DMA Commutation callback.
1847:Drivers/STM32F1xx_HAL_Driver/Src/stm32f1xx_hal_tim_ex.c ****   * @param  hdma pointer to DMA handle.
1848:Drivers/STM32F1xx_HAL_Driver/Src/stm32f1xx_hal_tim_ex.c ****   * @retval None
1849:Drivers/STM32F1xx_HAL_Driver/Src/stm32f1xx_hal_tim_ex.c ****   */
1850:Drivers/STM32F1xx_HAL_Driver/Src/stm32f1xx_hal_tim_ex.c **** void TIMEx_DMACommutationCplt(DMA_HandleTypeDef *hdma)
1851:Drivers/STM32F1xx_HAL_Driver/Src/stm32f1xx_hal_tim_ex.c **** {
1852:Drivers/STM32F1xx_HAL_Driver/Src/stm32f1xx_hal_tim_ex.c ****   TIM_HandleTypeDef *htim = (TIM_HandleTypeDef *)((DMA_HandleTypeDef *)hdma)->Parent;
1853:Drivers/STM32F1xx_HAL_Driver/Src/stm32f1xx_hal_tim_ex.c **** 
1854:Drivers/STM32F1xx_HAL_Driver/Src/stm32f1xx_hal_tim_ex.c ****   /* Change the htim state */
1855:Drivers/STM32F1xx_HAL_Driver/Src/stm32f1xx_hal_tim_ex.c ****   htim->State = HAL_TIM_STATE_READY;
1856:Drivers/STM32F1xx_HAL_Driver/Src/stm32f1xx_hal_tim_ex.c **** 
1857:Drivers/STM32F1xx_HAL_Driver/Src/stm32f1xx_hal_tim_ex.c **** #if (USE_HAL_TIM_REGISTER_CALLBACKS == 1)
1858:Drivers/STM32F1xx_HAL_Driver/Src/stm32f1xx_hal_tim_ex.c ****   htim->CommutationCallback(htim);
1859:Drivers/STM32F1xx_HAL_Driver/Src/stm32f1xx_hal_tim_ex.c **** #else
1860:Drivers/STM32F1xx_HAL_Driver/Src/stm32f1xx_hal_tim_ex.c ****   HAL_TIMEx_CommutCallback(htim);
1861:Drivers/STM32F1xx_HAL_Driver/Src/stm32f1xx_hal_tim_ex.c **** #endif /* USE_HAL_TIM_REGISTER_CALLBACKS */
1862:Drivers/STM32F1xx_HAL_Driver/Src/stm32f1xx_hal_tim_ex.c **** }
1863:Drivers/STM32F1xx_HAL_Driver/Src/stm32f1xx_hal_tim_ex.c **** 
1864:Drivers/STM32F1xx_HAL_Driver/Src/stm32f1xx_hal_tim_ex.c **** /**
1865:Drivers/STM32F1xx_HAL_Driver/Src/stm32f1xx_hal_tim_ex.c ****   * @brief  TIM DMA Commutation half complete callback.
1866:Drivers/STM32F1xx_HAL_Driver/Src/stm32f1xx_hal_tim_ex.c ****   * @param  hdma pointer to DMA handle.
1867:Drivers/STM32F1xx_HAL_Driver/Src/stm32f1xx_hal_tim_ex.c ****   * @retval None
1868:Drivers/STM32F1xx_HAL_Driver/Src/stm32f1xx_hal_tim_ex.c ****   */
1869:Drivers/STM32F1xx_HAL_Driver/Src/stm32f1xx_hal_tim_ex.c **** void TIMEx_DMACommutationHalfCplt(DMA_HandleTypeDef *hdma)
1870:Drivers/STM32F1xx_HAL_Driver/Src/stm32f1xx_hal_tim_ex.c **** {
1871:Drivers/STM32F1xx_HAL_Driver/Src/stm32f1xx_hal_tim_ex.c ****   TIM_HandleTypeDef *htim = (TIM_HandleTypeDef *)((DMA_HandleTypeDef *)hdma)->Parent;
1872:Drivers/STM32F1xx_HAL_Driver/Src/stm32f1xx_hal_tim_ex.c **** 
ARM GAS  /var/folders/20/cstyxln53wn53rr40gj353bh0000gn/T//ccV5XGPK.s 			page 50


1873:Drivers/STM32F1xx_HAL_Driver/Src/stm32f1xx_hal_tim_ex.c ****   /* Change the htim state */
1874:Drivers/STM32F1xx_HAL_Driver/Src/stm32f1xx_hal_tim_ex.c ****   htim->State = HAL_TIM_STATE_READY;
1875:Drivers/STM32F1xx_HAL_Driver/Src/stm32f1xx_hal_tim_ex.c **** 
1876:Drivers/STM32F1xx_HAL_Driver/Src/stm32f1xx_hal_tim_ex.c **** #if (USE_HAL_TIM_REGISTER_CALLBACKS == 1)
1877:Drivers/STM32F1xx_HAL_Driver/Src/stm32f1xx_hal_tim_ex.c ****   htim->CommutationHalfCpltCallback(htim);
1878:Drivers/STM32F1xx_HAL_Driver/Src/stm32f1xx_hal_tim_ex.c **** #else
1879:Drivers/STM32F1xx_HAL_Driver/Src/stm32f1xx_hal_tim_ex.c ****   HAL_TIMEx_CommutHalfCpltCallback(htim);
1880:Drivers/STM32F1xx_HAL_Driver/Src/stm32f1xx_hal_tim_ex.c **** #endif /* USE_HAL_TIM_REGISTER_CALLBACKS */
1881:Drivers/STM32F1xx_HAL_Driver/Src/stm32f1xx_hal_tim_ex.c **** }
1882:Drivers/STM32F1xx_HAL_Driver/Src/stm32f1xx_hal_tim_ex.c **** 
1883:Drivers/STM32F1xx_HAL_Driver/Src/stm32f1xx_hal_tim_ex.c **** 
1884:Drivers/STM32F1xx_HAL_Driver/Src/stm32f1xx_hal_tim_ex.c **** /**
1885:Drivers/STM32F1xx_HAL_Driver/Src/stm32f1xx_hal_tim_ex.c ****   * @brief  Enables or disables the TIM Capture Compare Channel xN.
1886:Drivers/STM32F1xx_HAL_Driver/Src/stm32f1xx_hal_tim_ex.c ****   * @param  TIMx to select the TIM peripheral
1887:Drivers/STM32F1xx_HAL_Driver/Src/stm32f1xx_hal_tim_ex.c ****   * @param  Channel specifies the TIM Channel
1888:Drivers/STM32F1xx_HAL_Driver/Src/stm32f1xx_hal_tim_ex.c ****   *          This parameter can be one of the following values:
1889:Drivers/STM32F1xx_HAL_Driver/Src/stm32f1xx_hal_tim_ex.c ****   *            @arg TIM_CHANNEL_1: TIM Channel 1
1890:Drivers/STM32F1xx_HAL_Driver/Src/stm32f1xx_hal_tim_ex.c ****   *            @arg TIM_CHANNEL_2: TIM Channel 2
1891:Drivers/STM32F1xx_HAL_Driver/Src/stm32f1xx_hal_tim_ex.c ****   *            @arg TIM_CHANNEL_3: TIM Channel 3
1892:Drivers/STM32F1xx_HAL_Driver/Src/stm32f1xx_hal_tim_ex.c ****   * @param  ChannelNState specifies the TIM Channel CCxNE bit new state.
1893:Drivers/STM32F1xx_HAL_Driver/Src/stm32f1xx_hal_tim_ex.c ****   *          This parameter can be: TIM_CCxN_ENABLE or TIM_CCxN_Disable.
1894:Drivers/STM32F1xx_HAL_Driver/Src/stm32f1xx_hal_tim_ex.c ****   * @retval None
1895:Drivers/STM32F1xx_HAL_Driver/Src/stm32f1xx_hal_tim_ex.c ****   */
1896:Drivers/STM32F1xx_HAL_Driver/Src/stm32f1xx_hal_tim_ex.c **** static void TIM_CCxNChannelCmd(TIM_TypeDef *TIMx, uint32_t Channel, uint32_t ChannelNState)
1897:Drivers/STM32F1xx_HAL_Driver/Src/stm32f1xx_hal_tim_ex.c **** {
1898:Drivers/STM32F1xx_HAL_Driver/Src/stm32f1xx_hal_tim_ex.c ****   uint32_t tmp;
1899:Drivers/STM32F1xx_HAL_Driver/Src/stm32f1xx_hal_tim_ex.c **** 
1900:Drivers/STM32F1xx_HAL_Driver/Src/stm32f1xx_hal_tim_ex.c ****   tmp = TIM_CCER_CC1NE << (Channel & 0x1FU); /* 0x1FU = 31 bits max shift */
 820              		.loc 1 1900 7 is_stmt 0 view .LVU244
 821 0000 0422     		movs	r2, #4
 822              	.LBE37:
 823              	.LBE36:
 516:Drivers/STM32F1xx_HAL_Driver/Src/stm32f1xx_hal_tim_ex.c **** 
 824              		.loc 1 516 3 view .LVU245
 825 0002 0368     		ldr	r3, [r0]
 826              	.LVL50:
 827              	.LBB39:
 828              	.LBI36:
1896:Drivers/STM32F1xx_HAL_Driver/Src/stm32f1xx_hal_tim_ex.c **** {
 829              		.loc 1 1896 13 is_stmt 1 view .LVU246
 830              	.LBB38:
1898:Drivers/STM32F1xx_HAL_Driver/Src/stm32f1xx_hal_tim_ex.c **** 
 831              		.loc 1 1898 3 view .LVU247
 832              		.loc 1 1900 3 view .LVU248
 833              		.loc 1 1900 36 is_stmt 0 view .LVU249
 834 0004 01F01F01 		and	r1, r1, #31
 835              	.LVL51:
1901:Drivers/STM32F1xx_HAL_Driver/Src/stm32f1xx_hal_tim_ex.c **** 
1902:Drivers/STM32F1xx_HAL_Driver/Src/stm32f1xx_hal_tim_ex.c ****   /* Reset the CCxNE Bit */
1903:Drivers/STM32F1xx_HAL_Driver/Src/stm32f1xx_hal_tim_ex.c ****   TIMx->CCER &=  ~tmp;
 836              		.loc 1 1903 14 view .LVU250
 837 0008 186A     		ldr	r0, [r3, #32]
 838              	.LVL52:
1900:Drivers/STM32F1xx_HAL_Driver/Src/stm32f1xx_hal_tim_ex.c **** 
 839              		.loc 1 1900 7 view .LVU251
 840 000a 02FA01F1 		lsl	r1, r2, r1
 841              	.LVL53:
ARM GAS  /var/folders/20/cstyxln53wn53rr40gj353bh0000gn/T//ccV5XGPK.s 			page 51


 842              		.loc 1 1903 3 is_stmt 1 view .LVU252
 843              		.loc 1 1903 14 is_stmt 0 view .LVU253
 844 000e 20EA0100 		bic	r0, r0, r1
 845 0012 1862     		str	r0, [r3, #32]
1904:Drivers/STM32F1xx_HAL_Driver/Src/stm32f1xx_hal_tim_ex.c **** 
1905:Drivers/STM32F1xx_HAL_Driver/Src/stm32f1xx_hal_tim_ex.c ****   /* Set or reset the CCxNE Bit */
1906:Drivers/STM32F1xx_HAL_Driver/Src/stm32f1xx_hal_tim_ex.c ****   TIMx->CCER |= (uint32_t)(ChannelNState << (Channel & 0x1FU)); /* 0x1FU = 31 bits max shift */
 846              		.loc 1 1906 3 is_stmt 1 view .LVU254
 847              		.loc 1 1906 14 is_stmt 0 view .LVU255
 848 0014 1A6A     		ldr	r2, [r3, #32]
 849 0016 1143     		orrs	r1, r1, r2
 850              	.LVL54:
 851              		.loc 1 1906 14 view .LVU256
 852 0018 1962     		str	r1, [r3, #32]
 853              	.LVL55:
 854              		.loc 1 1906 14 view .LVU257
 855              	.LBE38:
 856              	.LBE39:
 519:Drivers/STM32F1xx_HAL_Driver/Src/stm32f1xx_hal_tim_ex.c **** 
 857              		.loc 1 519 3 is_stmt 1 view .LVU258
 858 001a 5A6C     		ldr	r2, [r3, #68]
 859 001c 42F40042 		orr	r2, r2, #32768
 860 0020 5A64     		str	r2, [r3, #68]
 522:Drivers/STM32F1xx_HAL_Driver/Src/stm32f1xx_hal_tim_ex.c ****   if (!IS_TIM_SLAVEMODE_TRIGGER_ENABLED(tmpsmcr))
 861              		.loc 1 522 3 view .LVU259
 522:Drivers/STM32F1xx_HAL_Driver/Src/stm32f1xx_hal_tim_ex.c ****   if (!IS_TIM_SLAVEMODE_TRIGGER_ENABLED(tmpsmcr))
 862              		.loc 1 522 27 is_stmt 0 view .LVU260
 863 0022 9A68     		ldr	r2, [r3, #8]
 864              	.LVL56:
 523:Drivers/STM32F1xx_HAL_Driver/Src/stm32f1xx_hal_tim_ex.c ****   {
 865              		.loc 1 523 3 is_stmt 1 view .LVU261
 522:Drivers/STM32F1xx_HAL_Driver/Src/stm32f1xx_hal_tim_ex.c ****   if (!IS_TIM_SLAVEMODE_TRIGGER_ENABLED(tmpsmcr))
 866              		.loc 1 522 11 is_stmt 0 view .LVU262
 867 0024 02F00702 		and	r2, r2, #7
 868              	.LVL57:
 523:Drivers/STM32F1xx_HAL_Driver/Src/stm32f1xx_hal_tim_ex.c ****   {
 869              		.loc 1 523 6 view .LVU263
 870 0028 062A     		cmp	r2, #6
 871 002a 03D0     		beq	.L56
 525:Drivers/STM32F1xx_HAL_Driver/Src/stm32f1xx_hal_tim_ex.c ****   }
 872              		.loc 1 525 5 is_stmt 1 view .LVU264
 873 002c 1A68     		ldr	r2, [r3]
 874              	.LVL58:
 525:Drivers/STM32F1xx_HAL_Driver/Src/stm32f1xx_hal_tim_ex.c ****   }
 875              		.loc 1 525 5 is_stmt 0 view .LVU265
 876 002e 42F00102 		orr	r2, r2, #1
 877 0032 1A60     		str	r2, [r3]
 878              	.L56:
 529:Drivers/STM32F1xx_HAL_Driver/Src/stm32f1xx_hal_tim_ex.c **** }
 879              		.loc 1 529 3 is_stmt 1 view .LVU266
 530:Drivers/STM32F1xx_HAL_Driver/Src/stm32f1xx_hal_tim_ex.c **** 
 880              		.loc 1 530 1 is_stmt 0 view .LVU267
 881 0034 0020     		movs	r0, #0
 882 0036 7047     		bx	lr
 883              		.cfi_endproc
 884              	.LFE75:
 886              		.section	.text.HAL_TIMEx_OCN_Stop,"ax",%progbits
ARM GAS  /var/folders/20/cstyxln53wn53rr40gj353bh0000gn/T//ccV5XGPK.s 			page 52


 887              		.align	1
 888              		.p2align 2,,3
 889              		.global	HAL_TIMEx_OCN_Stop
 890              		.syntax unified
 891              		.thumb
 892              		.thumb_func
 893              		.fpu softvfp
 895              	HAL_TIMEx_OCN_Stop:
 896              	.LVL59:
 897              	.LFB76:
 544:Drivers/STM32F1xx_HAL_Driver/Src/stm32f1xx_hal_tim_ex.c ****   /* Check the parameters */
 898              		.loc 1 544 1 is_stmt 1 view -0
 899              		.cfi_startproc
 900              		@ args = 0, pretend = 0, frame = 0
 901              		@ frame_needed = 0, uses_anonymous_args = 0
 902              		@ link register save eliminated.
 546:Drivers/STM32F1xx_HAL_Driver/Src/stm32f1xx_hal_tim_ex.c **** 
 903              		.loc 1 546 3 view .LVU269
 549:Drivers/STM32F1xx_HAL_Driver/Src/stm32f1xx_hal_tim_ex.c **** 
 904              		.loc 1 549 3 view .LVU270
 544:Drivers/STM32F1xx_HAL_Driver/Src/stm32f1xx_hal_tim_ex.c ****   /* Check the parameters */
 905              		.loc 1 544 1 is_stmt 0 view .LVU271
 906 0000 30B4     		push	{r4, r5}
 907              	.LCFI12:
 908              		.cfi_def_cfa_offset 8
 909              		.cfi_offset 4, -8
 910              		.cfi_offset 5, -4
 911              	.LBB42:
 912              	.LBB43:
1900:Drivers/STM32F1xx_HAL_Driver/Src/stm32f1xx_hal_tim_ex.c **** 
 913              		.loc 1 1900 7 view .LVU272
 914 0002 0424     		movs	r4, #4
 915              	.LBE43:
 916              	.LBE42:
 552:Drivers/STM32F1xx_HAL_Driver/Src/stm32f1xx_hal_tim_ex.c **** 
 917              		.loc 1 552 3 view .LVU273
 918 0004 41F21115 		movw	r5, #4369
 549:Drivers/STM32F1xx_HAL_Driver/Src/stm32f1xx_hal_tim_ex.c **** 
 919              		.loc 1 549 3 view .LVU274
 920 0008 0368     		ldr	r3, [r0]
 921              	.LVL60:
 922              	.LBB45:
 923              	.LBI42:
1896:Drivers/STM32F1xx_HAL_Driver/Src/stm32f1xx_hal_tim_ex.c **** {
 924              		.loc 1 1896 13 is_stmt 1 view .LVU275
 925              	.LBB44:
1898:Drivers/STM32F1xx_HAL_Driver/Src/stm32f1xx_hal_tim_ex.c **** 
 926              		.loc 1 1898 3 view .LVU276
1900:Drivers/STM32F1xx_HAL_Driver/Src/stm32f1xx_hal_tim_ex.c **** 
 927              		.loc 1 1900 3 view .LVU277
1903:Drivers/STM32F1xx_HAL_Driver/Src/stm32f1xx_hal_tim_ex.c **** 
 928              		.loc 1 1903 3 view .LVU278
1900:Drivers/STM32F1xx_HAL_Driver/Src/stm32f1xx_hal_tim_ex.c **** 
 929              		.loc 1 1900 36 is_stmt 0 view .LVU279
 930 000a 01F01F01 		and	r1, r1, #31
 931              	.LVL61:
1903:Drivers/STM32F1xx_HAL_Driver/Src/stm32f1xx_hal_tim_ex.c **** 
ARM GAS  /var/folders/20/cstyxln53wn53rr40gj353bh0000gn/T//ccV5XGPK.s 			page 53


 932              		.loc 1 1903 14 view .LVU280
 933 000e 1A6A     		ldr	r2, [r3, #32]
1900:Drivers/STM32F1xx_HAL_Driver/Src/stm32f1xx_hal_tim_ex.c **** 
 934              		.loc 1 1900 7 view .LVU281
 935 0010 8C40     		lsls	r4, r4, r1
 936              	.LVL62:
1903:Drivers/STM32F1xx_HAL_Driver/Src/stm32f1xx_hal_tim_ex.c **** 
 937              		.loc 1 1903 14 view .LVU282
 938 0012 22EA0402 		bic	r2, r2, r4
 939 0016 1A62     		str	r2, [r3, #32]
 940              		.loc 1 1906 3 is_stmt 1 view .LVU283
 941              		.loc 1 1906 14 is_stmt 0 view .LVU284
 942 0018 1A6A     		ldr	r2, [r3, #32]
 943 001a 1A62     		str	r2, [r3, #32]
 944              	.LVL63:
 945              		.loc 1 1906 14 view .LVU285
 946              	.LBE44:
 947              	.LBE45:
 552:Drivers/STM32F1xx_HAL_Driver/Src/stm32f1xx_hal_tim_ex.c **** 
 948              		.loc 1 552 3 is_stmt 1 view .LVU286
 552:Drivers/STM32F1xx_HAL_Driver/Src/stm32f1xx_hal_tim_ex.c **** 
 949              		.loc 1 552 3 view .LVU287
 950 001c 1A6A     		ldr	r2, [r3, #32]
 951 001e 2A42     		tst	r2, r5
 952 0020 04D1     		bne	.L61
 552:Drivers/STM32F1xx_HAL_Driver/Src/stm32f1xx_hal_tim_ex.c **** 
 953              		.loc 1 552 3 discriminator 1 view .LVU288
 954 0022 40F24442 		movw	r2, #1092
 955 0026 196A     		ldr	r1, [r3, #32]
 956 0028 1142     		tst	r1, r2
 957 002a 10D0     		beq	.L64
 958              	.L61:
 555:Drivers/STM32F1xx_HAL_Driver/Src/stm32f1xx_hal_tim_ex.c **** 
 959              		.loc 1 555 3 view .LVU289
 555:Drivers/STM32F1xx_HAL_Driver/Src/stm32f1xx_hal_tim_ex.c **** 
 960              		.loc 1 555 3 view .LVU290
 961 002c 41F21112 		movw	r2, #4369
 962 0030 196A     		ldr	r1, [r3, #32]
 963 0032 1142     		tst	r1, r2
 964 0034 08D1     		bne	.L62
 555:Drivers/STM32F1xx_HAL_Driver/Src/stm32f1xx_hal_tim_ex.c **** 
 965              		.loc 1 555 3 discriminator 1 view .LVU291
 966 0036 40F24442 		movw	r2, #1092
 967 003a 196A     		ldr	r1, [r3, #32]
 968 003c 1142     		tst	r1, r2
 969 003e 03D1     		bne	.L62
 555:Drivers/STM32F1xx_HAL_Driver/Src/stm32f1xx_hal_tim_ex.c **** 
 970              		.loc 1 555 3 discriminator 2 view .LVU292
 971 0040 1A68     		ldr	r2, [r3]
 972 0042 22F00102 		bic	r2, r2, #1
 973 0046 1A60     		str	r2, [r3]
 974              	.L62:
 558:Drivers/STM32F1xx_HAL_Driver/Src/stm32f1xx_hal_tim_ex.c **** }
 975              		.loc 1 558 3 view .LVU293
 559:Drivers/STM32F1xx_HAL_Driver/Src/stm32f1xx_hal_tim_ex.c **** 
 976              		.loc 1 559 1 is_stmt 0 view .LVU294
 977 0048 0020     		movs	r0, #0
ARM GAS  /var/folders/20/cstyxln53wn53rr40gj353bh0000gn/T//ccV5XGPK.s 			page 54


 978              	.LVL64:
 559:Drivers/STM32F1xx_HAL_Driver/Src/stm32f1xx_hal_tim_ex.c **** 
 979              		.loc 1 559 1 view .LVU295
 980 004a 30BC     		pop	{r4, r5}
 981              	.LCFI13:
 982              		.cfi_remember_state
 983              		.cfi_restore 5
 984              		.cfi_restore 4
 985              		.cfi_def_cfa_offset 0
 986 004c 7047     		bx	lr
 987              	.LVL65:
 988              	.L64:
 989              	.LCFI14:
 990              		.cfi_restore_state
 552:Drivers/STM32F1xx_HAL_Driver/Src/stm32f1xx_hal_tim_ex.c **** 
 991              		.loc 1 552 3 is_stmt 1 discriminator 2 view .LVU296
 992 004e 5A6C     		ldr	r2, [r3, #68]
 993 0050 22F40042 		bic	r2, r2, #32768
 994 0054 5A64     		str	r2, [r3, #68]
 995 0056 E9E7     		b	.L61
 996              		.cfi_endproc
 997              	.LFE76:
 999              		.section	.text.HAL_TIMEx_OCN_Start_IT,"ax",%progbits
 1000              		.align	1
 1001              		.p2align 2,,3
 1002              		.global	HAL_TIMEx_OCN_Start_IT
 1003              		.syntax unified
 1004              		.thumb
 1005              		.thumb_func
 1006              		.fpu softvfp
 1008              	HAL_TIMEx_OCN_Start_IT:
 1009              	.LVL66:
 1010              	.LFB77:
 573:Drivers/STM32F1xx_HAL_Driver/Src/stm32f1xx_hal_tim_ex.c ****   uint32_t tmpsmcr;
 1011              		.loc 1 573 1 view -0
 1012              		.cfi_startproc
 1013              		@ args = 0, pretend = 0, frame = 0
 1014              		@ frame_needed = 0, uses_anonymous_args = 0
 1015              		@ link register save eliminated.
 574:Drivers/STM32F1xx_HAL_Driver/Src/stm32f1xx_hal_tim_ex.c **** 
 1016              		.loc 1 574 3 view .LVU298
 577:Drivers/STM32F1xx_HAL_Driver/Src/stm32f1xx_hal_tim_ex.c **** 
 1017              		.loc 1 577 3 view .LVU299
 579:Drivers/STM32F1xx_HAL_Driver/Src/stm32f1xx_hal_tim_ex.c ****   {
 1018              		.loc 1 579 3 view .LVU300
 1019 0000 0429     		cmp	r1, #4
 1020 0002 0368     		ldr	r3, [r0]
 1021 0004 21D0     		beq	.L66
 1022 0006 0829     		cmp	r1, #8
 1023 0008 29D0     		beq	.L67
 1024 000a 19B3     		cbz	r1, .L73
 1025              	.L68:
 608:Drivers/STM32F1xx_HAL_Driver/Src/stm32f1xx_hal_tim_ex.c **** 
 1026              		.loc 1 608 3 view .LVU301
 1027              	.LBB48:
 1028              	.LBB49:
1900:Drivers/STM32F1xx_HAL_Driver/Src/stm32f1xx_hal_tim_ex.c **** 
ARM GAS  /var/folders/20/cstyxln53wn53rr40gj353bh0000gn/T//ccV5XGPK.s 			page 55


 1029              		.loc 1 1900 7 is_stmt 0 view .LVU302
 1030 000c 0422     		movs	r2, #4
 1031              	.LBE49:
 1032              	.LBE48:
 608:Drivers/STM32F1xx_HAL_Driver/Src/stm32f1xx_hal_tim_ex.c **** 
 1033              		.loc 1 608 3 view .LVU303
 1034 000e D868     		ldr	r0, [r3, #12]
 1035              	.LVL67:
 1036              	.LBB52:
 1037              	.LBB50:
1900:Drivers/STM32F1xx_HAL_Driver/Src/stm32f1xx_hal_tim_ex.c **** 
 1038              		.loc 1 1900 36 view .LVU304
 1039 0010 01F01F01 		and	r1, r1, #31
 1040              	.LVL68:
1900:Drivers/STM32F1xx_HAL_Driver/Src/stm32f1xx_hal_tim_ex.c **** 
 1041              		.loc 1 1900 36 view .LVU305
 1042              	.LBE50:
 1043              	.LBE52:
 608:Drivers/STM32F1xx_HAL_Driver/Src/stm32f1xx_hal_tim_ex.c **** 
 1044              		.loc 1 608 3 view .LVU306
 1045 0014 40F08000 		orr	r0, r0, #128
 1046 0018 D860     		str	r0, [r3, #12]
 611:Drivers/STM32F1xx_HAL_Driver/Src/stm32f1xx_hal_tim_ex.c **** 
 1047              		.loc 1 611 3 is_stmt 1 view .LVU307
 1048              	.LVL69:
 1049              	.LBB53:
 1050              	.LBI48:
1896:Drivers/STM32F1xx_HAL_Driver/Src/stm32f1xx_hal_tim_ex.c **** {
 1051              		.loc 1 1896 13 view .LVU308
 1052              	.LBB51:
1898:Drivers/STM32F1xx_HAL_Driver/Src/stm32f1xx_hal_tim_ex.c **** 
 1053              		.loc 1 1898 3 view .LVU309
1900:Drivers/STM32F1xx_HAL_Driver/Src/stm32f1xx_hal_tim_ex.c **** 
 1054              		.loc 1 1900 3 view .LVU310
1903:Drivers/STM32F1xx_HAL_Driver/Src/stm32f1xx_hal_tim_ex.c **** 
 1055              		.loc 1 1903 14 is_stmt 0 view .LVU311
 1056 001a 186A     		ldr	r0, [r3, #32]
1900:Drivers/STM32F1xx_HAL_Driver/Src/stm32f1xx_hal_tim_ex.c **** 
 1057              		.loc 1 1900 7 view .LVU312
 1058 001c 02FA01F1 		lsl	r1, r2, r1
 1059              	.LVL70:
1903:Drivers/STM32F1xx_HAL_Driver/Src/stm32f1xx_hal_tim_ex.c **** 
 1060              		.loc 1 1903 3 is_stmt 1 view .LVU313
1903:Drivers/STM32F1xx_HAL_Driver/Src/stm32f1xx_hal_tim_ex.c **** 
 1061              		.loc 1 1903 14 is_stmt 0 view .LVU314
 1062 0020 20EA0100 		bic	r0, r0, r1
 1063 0024 1862     		str	r0, [r3, #32]
 1064              		.loc 1 1906 3 is_stmt 1 view .LVU315
 1065              		.loc 1 1906 14 is_stmt 0 view .LVU316
 1066 0026 1A6A     		ldr	r2, [r3, #32]
 1067 0028 1143     		orrs	r1, r1, r2
 1068              	.LVL71:
 1069              		.loc 1 1906 14 view .LVU317
 1070 002a 1962     		str	r1, [r3, #32]
 1071              	.LVL72:
 1072              		.loc 1 1906 14 view .LVU318
 1073              	.LBE51:
ARM GAS  /var/folders/20/cstyxln53wn53rr40gj353bh0000gn/T//ccV5XGPK.s 			page 56


 1074              	.LBE53:
 614:Drivers/STM32F1xx_HAL_Driver/Src/stm32f1xx_hal_tim_ex.c **** 
 1075              		.loc 1 614 3 is_stmt 1 view .LVU319
 1076 002c 5A6C     		ldr	r2, [r3, #68]
 1077 002e 42F40042 		orr	r2, r2, #32768
 1078 0032 5A64     		str	r2, [r3, #68]
 617:Drivers/STM32F1xx_HAL_Driver/Src/stm32f1xx_hal_tim_ex.c ****   if (!IS_TIM_SLAVEMODE_TRIGGER_ENABLED(tmpsmcr))
 1079              		.loc 1 617 3 view .LVU320
 617:Drivers/STM32F1xx_HAL_Driver/Src/stm32f1xx_hal_tim_ex.c ****   if (!IS_TIM_SLAVEMODE_TRIGGER_ENABLED(tmpsmcr))
 1080              		.loc 1 617 27 is_stmt 0 view .LVU321
 1081 0034 9A68     		ldr	r2, [r3, #8]
 1082              	.LVL73:
 618:Drivers/STM32F1xx_HAL_Driver/Src/stm32f1xx_hal_tim_ex.c ****   {
 1083              		.loc 1 618 3 is_stmt 1 view .LVU322
 617:Drivers/STM32F1xx_HAL_Driver/Src/stm32f1xx_hal_tim_ex.c ****   if (!IS_TIM_SLAVEMODE_TRIGGER_ENABLED(tmpsmcr))
 1084              		.loc 1 617 11 is_stmt 0 view .LVU323
 1085 0036 02F00702 		and	r2, r2, #7
 1086              	.LVL74:
 618:Drivers/STM32F1xx_HAL_Driver/Src/stm32f1xx_hal_tim_ex.c ****   {
 1087              		.loc 1 618 6 view .LVU324
 1088 003a 062A     		cmp	r2, #6
 1089 003c 03D0     		beq	.L69
 620:Drivers/STM32F1xx_HAL_Driver/Src/stm32f1xx_hal_tim_ex.c ****   }
 1090              		.loc 1 620 5 is_stmt 1 view .LVU325
 1091 003e 1A68     		ldr	r2, [r3]
 1092              	.LVL75:
 620:Drivers/STM32F1xx_HAL_Driver/Src/stm32f1xx_hal_tim_ex.c ****   }
 1093              		.loc 1 620 5 is_stmt 0 view .LVU326
 1094 0040 42F00102 		orr	r2, r2, #1
 1095 0044 1A60     		str	r2, [r3]
 1096              	.L69:
 624:Drivers/STM32F1xx_HAL_Driver/Src/stm32f1xx_hal_tim_ex.c **** }
 1097              		.loc 1 624 3 is_stmt 1 view .LVU327
 625:Drivers/STM32F1xx_HAL_Driver/Src/stm32f1xx_hal_tim_ex.c **** 
 1098              		.loc 1 625 1 is_stmt 0 view .LVU328
 1099 0046 0020     		movs	r0, #0
 1100 0048 7047     		bx	lr
 1101              	.LVL76:
 1102              	.L66:
 591:Drivers/STM32F1xx_HAL_Driver/Src/stm32f1xx_hal_tim_ex.c ****       break;
 1103              		.loc 1 591 7 is_stmt 1 view .LVU329
 1104 004a DA68     		ldr	r2, [r3, #12]
 1105 004c 42F00402 		orr	r2, r2, #4
 1106 0050 DA60     		str	r2, [r3, #12]
 592:Drivers/STM32F1xx_HAL_Driver/Src/stm32f1xx_hal_tim_ex.c ****     }
 1107              		.loc 1 592 7 view .LVU330
 1108 0052 DBE7     		b	.L68
 1109              	.L73:
 584:Drivers/STM32F1xx_HAL_Driver/Src/stm32f1xx_hal_tim_ex.c ****       break;
 1110              		.loc 1 584 7 view .LVU331
 1111 0054 DA68     		ldr	r2, [r3, #12]
 1112 0056 42F00202 		orr	r2, r2, #2
 1113 005a DA60     		str	r2, [r3, #12]
 585:Drivers/STM32F1xx_HAL_Driver/Src/stm32f1xx_hal_tim_ex.c ****     }
 1114              		.loc 1 585 7 view .LVU332
 1115 005c D6E7     		b	.L68
 1116              	.L67:
ARM GAS  /var/folders/20/cstyxln53wn53rr40gj353bh0000gn/T//ccV5XGPK.s 			page 57


 598:Drivers/STM32F1xx_HAL_Driver/Src/stm32f1xx_hal_tim_ex.c ****       break;
 1117              		.loc 1 598 7 view .LVU333
 1118 005e DA68     		ldr	r2, [r3, #12]
 1119 0060 42F00802 		orr	r2, r2, #8
 1120 0064 DA60     		str	r2, [r3, #12]
 599:Drivers/STM32F1xx_HAL_Driver/Src/stm32f1xx_hal_tim_ex.c ****     }
 1121              		.loc 1 599 7 view .LVU334
 1122 0066 D1E7     		b	.L68
 1123              		.cfi_endproc
 1124              	.LFE77:
 1126              		.section	.text.HAL_TIMEx_OCN_Stop_IT,"ax",%progbits
 1127              		.align	1
 1128              		.p2align 2,,3
 1129              		.global	HAL_TIMEx_OCN_Stop_IT
 1130              		.syntax unified
 1131              		.thumb
 1132              		.thumb_func
 1133              		.fpu softvfp
 1135              	HAL_TIMEx_OCN_Stop_IT:
 1136              	.LVL77:
 1137              	.LFB78:
 639:Drivers/STM32F1xx_HAL_Driver/Src/stm32f1xx_hal_tim_ex.c ****   uint32_t tmpccer;
 1138              		.loc 1 639 1 view -0
 1139              		.cfi_startproc
 1140              		@ args = 0, pretend = 0, frame = 0
 1141              		@ frame_needed = 0, uses_anonymous_args = 0
 1142              		@ link register save eliminated.
 640:Drivers/STM32F1xx_HAL_Driver/Src/stm32f1xx_hal_tim_ex.c ****   /* Check the parameters */
 1143              		.loc 1 640 3 view .LVU336
 642:Drivers/STM32F1xx_HAL_Driver/Src/stm32f1xx_hal_tim_ex.c **** 
 1144              		.loc 1 642 3 view .LVU337
 644:Drivers/STM32F1xx_HAL_Driver/Src/stm32f1xx_hal_tim_ex.c ****   {
 1145              		.loc 1 644 3 view .LVU338
 1146 0000 0429     		cmp	r1, #4
 639:Drivers/STM32F1xx_HAL_Driver/Src/stm32f1xx_hal_tim_ex.c ****   uint32_t tmpccer;
 1147              		.loc 1 639 1 is_stmt 0 view .LVU339
 1148 0002 10B4     		push	{r4}
 1149              	.LCFI15:
 1150              		.cfi_def_cfa_offset 4
 1151              		.cfi_offset 4, -4
 1152 0004 0368     		ldr	r3, [r0]
 644:Drivers/STM32F1xx_HAL_Driver/Src/stm32f1xx_hal_tim_ex.c ****   {
 1153              		.loc 1 644 3 view .LVU340
 1154 0006 41D0     		beq	.L75
 1155 0008 0829     		cmp	r1, #8
 1156 000a 3AD0     		beq	.L76
 1157 000c 0029     		cmp	r1, #0
 1158 000e 33D0     		beq	.L82
 1159              	.L77:
 672:Drivers/STM32F1xx_HAL_Driver/Src/stm32f1xx_hal_tim_ex.c **** 
 1160              		.loc 1 672 3 is_stmt 1 view .LVU341
 1161              	.LVL78:
 1162              	.LBB56:
 1163              	.LBI56:
1896:Drivers/STM32F1xx_HAL_Driver/Src/stm32f1xx_hal_tim_ex.c **** {
 1164              		.loc 1 1896 13 view .LVU342
 1165              	.LBB57:
ARM GAS  /var/folders/20/cstyxln53wn53rr40gj353bh0000gn/T//ccV5XGPK.s 			page 58


1898:Drivers/STM32F1xx_HAL_Driver/Src/stm32f1xx_hal_tim_ex.c **** 
 1166              		.loc 1 1898 3 view .LVU343
1900:Drivers/STM32F1xx_HAL_Driver/Src/stm32f1xx_hal_tim_ex.c **** 
 1167              		.loc 1 1900 3 view .LVU344
1903:Drivers/STM32F1xx_HAL_Driver/Src/stm32f1xx_hal_tim_ex.c **** 
 1168              		.loc 1 1903 3 view .LVU345
1900:Drivers/STM32F1xx_HAL_Driver/Src/stm32f1xx_hal_tim_ex.c **** 
 1169              		.loc 1 1900 7 is_stmt 0 view .LVU346
 1170 0010 0420     		movs	r0, #4
 1171              	.LVL79:
1900:Drivers/STM32F1xx_HAL_Driver/Src/stm32f1xx_hal_tim_ex.c **** 
 1172              		.loc 1 1900 7 view .LVU347
 1173              	.LBE57:
 1174              	.LBE56:
 676:Drivers/STM32F1xx_HAL_Driver/Src/stm32f1xx_hal_tim_ex.c ****   {
 1175              		.loc 1 676 16 view .LVU348
 1176 0012 40F24444 		movw	r4, #1092
 1177              	.LBB59:
 1178              	.LBB58:
1903:Drivers/STM32F1xx_HAL_Driver/Src/stm32f1xx_hal_tim_ex.c **** 
 1179              		.loc 1 1903 14 view .LVU349
 1180 0016 1A6A     		ldr	r2, [r3, #32]
1900:Drivers/STM32F1xx_HAL_Driver/Src/stm32f1xx_hal_tim_ex.c **** 
 1181              		.loc 1 1900 36 view .LVU350
 1182 0018 01F01F01 		and	r1, r1, #31
 1183              	.LVL80:
1900:Drivers/STM32F1xx_HAL_Driver/Src/stm32f1xx_hal_tim_ex.c **** 
 1184              		.loc 1 1900 7 view .LVU351
 1185 001c 00FA01F1 		lsl	r1, r0, r1
 1186              	.LVL81:
1903:Drivers/STM32F1xx_HAL_Driver/Src/stm32f1xx_hal_tim_ex.c **** 
 1187              		.loc 1 1903 14 view .LVU352
 1188 0020 22EA0101 		bic	r1, r2, r1
 1189              	.LVL82:
1903:Drivers/STM32F1xx_HAL_Driver/Src/stm32f1xx_hal_tim_ex.c **** 
 1190              		.loc 1 1903 14 view .LVU353
 1191 0024 1962     		str	r1, [r3, #32]
 1192              		.loc 1 1906 3 is_stmt 1 view .LVU354
 1193              		.loc 1 1906 14 is_stmt 0 view .LVU355
 1194 0026 1A6A     		ldr	r2, [r3, #32]
 1195 0028 1A62     		str	r2, [r3, #32]
 1196              	.LVL83:
 1197              		.loc 1 1906 14 view .LVU356
 1198              	.LBE58:
 1199              	.LBE59:
 675:Drivers/STM32F1xx_HAL_Driver/Src/stm32f1xx_hal_tim_ex.c ****   if ((tmpccer & (TIM_CCER_CC1NE | TIM_CCER_CC2NE | TIM_CCER_CC3NE)) == (uint32_t)RESET)
 1200              		.loc 1 675 3 is_stmt 1 view .LVU357
 675:Drivers/STM32F1xx_HAL_Driver/Src/stm32f1xx_hal_tim_ex.c ****   if ((tmpccer & (TIM_CCER_CC1NE | TIM_CCER_CC2NE | TIM_CCER_CC3NE)) == (uint32_t)RESET)
 1201              		.loc 1 675 11 is_stmt 0 view .LVU358
 1202 002a 1A6A     		ldr	r2, [r3, #32]
 1203              	.LVL84:
 676:Drivers/STM32F1xx_HAL_Driver/Src/stm32f1xx_hal_tim_ex.c ****   {
 1204              		.loc 1 676 3 is_stmt 1 view .LVU359
 676:Drivers/STM32F1xx_HAL_Driver/Src/stm32f1xx_hal_tim_ex.c ****   {
 1205              		.loc 1 676 6 is_stmt 0 view .LVU360
 1206 002c 2242     		tst	r2, r4
 1207 002e 03D1     		bne	.L78
ARM GAS  /var/folders/20/cstyxln53wn53rr40gj353bh0000gn/T//ccV5XGPK.s 			page 59


 678:Drivers/STM32F1xx_HAL_Driver/Src/stm32f1xx_hal_tim_ex.c ****   }
 1208              		.loc 1 678 5 is_stmt 1 view .LVU361
 1209 0030 DA68     		ldr	r2, [r3, #12]
 1210              	.LVL85:
 678:Drivers/STM32F1xx_HAL_Driver/Src/stm32f1xx_hal_tim_ex.c ****   }
 1211              		.loc 1 678 5 is_stmt 0 view .LVU362
 1212 0032 22F08002 		bic	r2, r2, #128
 1213 0036 DA60     		str	r2, [r3, #12]
 1214              	.L78:
 682:Drivers/STM32F1xx_HAL_Driver/Src/stm32f1xx_hal_tim_ex.c **** 
 1215              		.loc 1 682 3 is_stmt 1 view .LVU363
 682:Drivers/STM32F1xx_HAL_Driver/Src/stm32f1xx_hal_tim_ex.c **** 
 1216              		.loc 1 682 3 view .LVU364
 1217 0038 41F21112 		movw	r2, #4369
 1218 003c 196A     		ldr	r1, [r3, #32]
 1219 003e 1142     		tst	r1, r2
 1220 0040 04D1     		bne	.L79
 682:Drivers/STM32F1xx_HAL_Driver/Src/stm32f1xx_hal_tim_ex.c **** 
 1221              		.loc 1 682 3 discriminator 1 view .LVU365
 1222 0042 40F24442 		movw	r2, #1092
 1223 0046 196A     		ldr	r1, [r3, #32]
 1224 0048 1142     		tst	r1, r2
 1225 004a 10D0     		beq	.L83
 1226              	.L79:
 685:Drivers/STM32F1xx_HAL_Driver/Src/stm32f1xx_hal_tim_ex.c **** 
 1227              		.loc 1 685 3 view .LVU366
 685:Drivers/STM32F1xx_HAL_Driver/Src/stm32f1xx_hal_tim_ex.c **** 
 1228              		.loc 1 685 3 view .LVU367
 1229 004c 41F21112 		movw	r2, #4369
 1230 0050 196A     		ldr	r1, [r3, #32]
 1231 0052 1142     		tst	r1, r2
 1232 0054 08D1     		bne	.L80
 685:Drivers/STM32F1xx_HAL_Driver/Src/stm32f1xx_hal_tim_ex.c **** 
 1233              		.loc 1 685 3 discriminator 1 view .LVU368
 1234 0056 40F24442 		movw	r2, #1092
 1235 005a 196A     		ldr	r1, [r3, #32]
 1236 005c 1142     		tst	r1, r2
 1237 005e 03D1     		bne	.L80
 685:Drivers/STM32F1xx_HAL_Driver/Src/stm32f1xx_hal_tim_ex.c **** 
 1238              		.loc 1 685 3 discriminator 2 view .LVU369
 1239 0060 1A68     		ldr	r2, [r3]
 1240 0062 22F00102 		bic	r2, r2, #1
 1241 0066 1A60     		str	r2, [r3]
 1242              	.L80:
 688:Drivers/STM32F1xx_HAL_Driver/Src/stm32f1xx_hal_tim_ex.c **** }
 1243              		.loc 1 688 3 view .LVU370
 689:Drivers/STM32F1xx_HAL_Driver/Src/stm32f1xx_hal_tim_ex.c **** 
 1244              		.loc 1 689 1 is_stmt 0 view .LVU371
 1245 0068 0020     		movs	r0, #0
 1246 006a 10BC     		pop	{r4}
 1247              	.LCFI16:
 1248              		.cfi_remember_state
 1249              		.cfi_restore 4
 1250              		.cfi_def_cfa_offset 0
 1251 006c 7047     		bx	lr
 1252              	.L83:
 1253              	.LCFI17:
ARM GAS  /var/folders/20/cstyxln53wn53rr40gj353bh0000gn/T//ccV5XGPK.s 			page 60


 1254              		.cfi_restore_state
 682:Drivers/STM32F1xx_HAL_Driver/Src/stm32f1xx_hal_tim_ex.c **** 
 1255              		.loc 1 682 3 is_stmt 1 discriminator 2 view .LVU372
 1256 006e 5A6C     		ldr	r2, [r3, #68]
 1257 0070 22F40042 		bic	r2, r2, #32768
 1258 0074 5A64     		str	r2, [r3, #68]
 1259 0076 E9E7     		b	.L79
 1260              	.LVL86:
 1261              	.L82:
 649:Drivers/STM32F1xx_HAL_Driver/Src/stm32f1xx_hal_tim_ex.c ****       break;
 1262              		.loc 1 649 7 view .LVU373
 1263 0078 DA68     		ldr	r2, [r3, #12]
 1264 007a 22F00202 		bic	r2, r2, #2
 1265 007e DA60     		str	r2, [r3, #12]
 650:Drivers/STM32F1xx_HAL_Driver/Src/stm32f1xx_hal_tim_ex.c ****     }
 1266              		.loc 1 650 7 view .LVU374
 1267 0080 C6E7     		b	.L77
 1268              	.L76:
 663:Drivers/STM32F1xx_HAL_Driver/Src/stm32f1xx_hal_tim_ex.c ****       break;
 1269              		.loc 1 663 7 view .LVU375
 1270 0082 DA68     		ldr	r2, [r3, #12]
 1271 0084 22F00802 		bic	r2, r2, #8
 1272 0088 DA60     		str	r2, [r3, #12]
 664:Drivers/STM32F1xx_HAL_Driver/Src/stm32f1xx_hal_tim_ex.c ****     }
 1273              		.loc 1 664 7 view .LVU376
 1274 008a C1E7     		b	.L77
 1275              	.L75:
 656:Drivers/STM32F1xx_HAL_Driver/Src/stm32f1xx_hal_tim_ex.c ****       break;
 1276              		.loc 1 656 7 view .LVU377
 1277 008c DA68     		ldr	r2, [r3, #12]
 1278 008e 22F00402 		bic	r2, r2, #4
 1279 0092 DA60     		str	r2, [r3, #12]
 657:Drivers/STM32F1xx_HAL_Driver/Src/stm32f1xx_hal_tim_ex.c ****     }
 1280              		.loc 1 657 7 view .LVU378
 1281 0094 BCE7     		b	.L77
 1282              		.cfi_endproc
 1283              	.LFE78:
 1285 0096 00BF     		.section	.text.HAL_TIMEx_OCN_Start_DMA,"ax",%progbits
 1286              		.align	1
 1287              		.p2align 2,,3
 1288              		.global	HAL_TIMEx_OCN_Start_DMA
 1289              		.syntax unified
 1290              		.thumb
 1291              		.thumb_func
 1292              		.fpu softvfp
 1294              	HAL_TIMEx_OCN_Start_DMA:
 1295              	.LVL87:
 1296              	.LFB79:
 705:Drivers/STM32F1xx_HAL_Driver/Src/stm32f1xx_hal_tim_ex.c ****   uint32_t tmpsmcr;
 1297              		.loc 1 705 1 view -0
 1298              		.cfi_startproc
 1299              		@ args = 0, pretend = 0, frame = 0
 1300              		@ frame_needed = 0, uses_anonymous_args = 0
 706:Drivers/STM32F1xx_HAL_Driver/Src/stm32f1xx_hal_tim_ex.c **** 
 1301              		.loc 1 706 3 view .LVU380
 709:Drivers/STM32F1xx_HAL_Driver/Src/stm32f1xx_hal_tim_ex.c **** 
 1302              		.loc 1 709 3 view .LVU381
ARM GAS  /var/folders/20/cstyxln53wn53rr40gj353bh0000gn/T//ccV5XGPK.s 			page 61


 711:Drivers/STM32F1xx_HAL_Driver/Src/stm32f1xx_hal_tim_ex.c ****   {
 1303              		.loc 1 711 3 view .LVU382
 705:Drivers/STM32F1xx_HAL_Driver/Src/stm32f1xx_hal_tim_ex.c ****   uint32_t tmpsmcr;
 1304              		.loc 1 705 1 is_stmt 0 view .LVU383
 1305 0000 F8B5     		push	{r3, r4, r5, r6, r7, lr}
 1306              	.LCFI18:
 1307              		.cfi_def_cfa_offset 24
 1308              		.cfi_offset 3, -24
 1309              		.cfi_offset 4, -20
 1310              		.cfi_offset 5, -16
 1311              		.cfi_offset 6, -12
 1312              		.cfi_offset 7, -8
 1313              		.cfi_offset 14, -4
 711:Drivers/STM32F1xx_HAL_Driver/Src/stm32f1xx_hal_tim_ex.c ****   {
 1314              		.loc 1 711 11 view .LVU384
 1315 0002 90F83D60 		ldrb	r6, [r0, #61]	@ zero_extendqisi2
 1316 0006 F6B2     		uxtb	r6, r6
 711:Drivers/STM32F1xx_HAL_Driver/Src/stm32f1xx_hal_tim_ex.c ****   {
 1317              		.loc 1 711 6 view .LVU385
 1318 0008 022E     		cmp	r6, #2
 1319 000a 27D0     		beq	.L85
 715:Drivers/STM32F1xx_HAL_Driver/Src/stm32f1xx_hal_tim_ex.c ****   {
 1320              		.loc 1 715 8 is_stmt 1 view .LVU386
 715:Drivers/STM32F1xx_HAL_Driver/Src/stm32f1xx_hal_tim_ex.c ****   {
 1321              		.loc 1 715 16 is_stmt 0 view .LVU387
 1322 000c 90F83D40 		ldrb	r4, [r0, #61]	@ zero_extendqisi2
 715:Drivers/STM32F1xx_HAL_Driver/Src/stm32f1xx_hal_tim_ex.c ****   {
 1323              		.loc 1 715 11 view .LVU388
 1324 0010 012C     		cmp	r4, #1
 1325 0012 28D0     		beq	.L100
 731:Drivers/STM32F1xx_HAL_Driver/Src/stm32f1xx_hal_tim_ex.c ****   {
 1326              		.loc 1 731 3 view .LVU389
 1327 0014 0429     		cmp	r1, #4
 1328 0016 1746     		mov	r7, r2
 1329 0018 0D46     		mov	r5, r1
 1330 001a 0646     		mov	r6, r0
 729:Drivers/STM32F1xx_HAL_Driver/Src/stm32f1xx_hal_tim_ex.c **** 
 1331              		.loc 1 729 3 is_stmt 1 view .LVU390
 731:Drivers/STM32F1xx_HAL_Driver/Src/stm32f1xx_hal_tim_ex.c ****   {
 1332              		.loc 1 731 3 view .LVU391
 1333 001c 0268     		ldr	r2, [r0]
 1334              	.LVL88:
 731:Drivers/STM32F1xx_HAL_Driver/Src/stm32f1xx_hal_tim_ex.c ****   {
 1335              		.loc 1 731 3 is_stmt 0 view .LVU392
 1336 001e 2CD0     		beq	.L88
 1337              	.L103:
 1338 0020 0829     		cmp	r1, #8
 1339 0022 55D0     		beq	.L89
 1340 0024 0029     		cmp	r1, #0
 1341 0026 3BD0     		beq	.L101
 1342              	.LVL89:
 1343              	.L90:
 795:Drivers/STM32F1xx_HAL_Driver/Src/stm32f1xx_hal_tim_ex.c **** 
 1344              		.loc 1 795 3 is_stmt 1 view .LVU393
 1345              	.LBB62:
 1346              	.LBI62:
1896:Drivers/STM32F1xx_HAL_Driver/Src/stm32f1xx_hal_tim_ex.c **** {
ARM GAS  /var/folders/20/cstyxln53wn53rr40gj353bh0000gn/T//ccV5XGPK.s 			page 62


 1347              		.loc 1 1896 13 view .LVU394
 1348              	.LBB63:
1898:Drivers/STM32F1xx_HAL_Driver/Src/stm32f1xx_hal_tim_ex.c **** 
 1349              		.loc 1 1898 3 view .LVU395
1900:Drivers/STM32F1xx_HAL_Driver/Src/stm32f1xx_hal_tim_ex.c **** 
 1350              		.loc 1 1900 3 view .LVU396
1900:Drivers/STM32F1xx_HAL_Driver/Src/stm32f1xx_hal_tim_ex.c **** 
 1351              		.loc 1 1900 7 is_stmt 0 view .LVU397
 1352 0028 0421     		movs	r1, #4
1903:Drivers/STM32F1xx_HAL_Driver/Src/stm32f1xx_hal_tim_ex.c **** 
 1353              		.loc 1 1903 14 view .LVU398
 1354 002a 136A     		ldr	r3, [r2, #32]
1900:Drivers/STM32F1xx_HAL_Driver/Src/stm32f1xx_hal_tim_ex.c **** 
 1355              		.loc 1 1900 36 view .LVU399
 1356 002c 05F01F05 		and	r5, r5, #31
 1357              	.LVL90:
1900:Drivers/STM32F1xx_HAL_Driver/Src/stm32f1xx_hal_tim_ex.c **** 
 1358              		.loc 1 1900 7 view .LVU400
 1359 0030 01FA05F5 		lsl	r5, r1, r5
 1360              	.LVL91:
1903:Drivers/STM32F1xx_HAL_Driver/Src/stm32f1xx_hal_tim_ex.c **** 
 1361              		.loc 1 1903 3 is_stmt 1 view .LVU401
1903:Drivers/STM32F1xx_HAL_Driver/Src/stm32f1xx_hal_tim_ex.c **** 
 1362              		.loc 1 1903 14 is_stmt 0 view .LVU402
 1363 0034 23EA0503 		bic	r3, r3, r5
 1364 0038 1362     		str	r3, [r2, #32]
 1365              		.loc 1 1906 3 is_stmt 1 view .LVU403
 1366              		.loc 1 1906 14 is_stmt 0 view .LVU404
 1367 003a 136A     		ldr	r3, [r2, #32]
 1368 003c 1D43     		orrs	r5, r5, r3
 1369              	.LVL92:
 1370              		.loc 1 1906 14 view .LVU405
 1371 003e 1562     		str	r5, [r2, #32]
 1372              	.LVL93:
 1373              		.loc 1 1906 14 view .LVU406
 1374              	.LBE63:
 1375              	.LBE62:
 798:Drivers/STM32F1xx_HAL_Driver/Src/stm32f1xx_hal_tim_ex.c **** 
 1376              		.loc 1 798 3 is_stmt 1 view .LVU407
 1377 0040 536C     		ldr	r3, [r2, #68]
 1378 0042 43F40043 		orr	r3, r3, #32768
 1379 0046 5364     		str	r3, [r2, #68]
 801:Drivers/STM32F1xx_HAL_Driver/Src/stm32f1xx_hal_tim_ex.c ****   if (!IS_TIM_SLAVEMODE_TRIGGER_ENABLED(tmpsmcr))
 1380              		.loc 1 801 3 view .LVU408
 801:Drivers/STM32F1xx_HAL_Driver/Src/stm32f1xx_hal_tim_ex.c ****   if (!IS_TIM_SLAVEMODE_TRIGGER_ENABLED(tmpsmcr))
 1381              		.loc 1 801 27 is_stmt 0 view .LVU409
 1382 0048 9368     		ldr	r3, [r2, #8]
 1383              	.LVL94:
 802:Drivers/STM32F1xx_HAL_Driver/Src/stm32f1xx_hal_tim_ex.c ****   {
 1384              		.loc 1 802 3 is_stmt 1 view .LVU410
 801:Drivers/STM32F1xx_HAL_Driver/Src/stm32f1xx_hal_tim_ex.c ****   if (!IS_TIM_SLAVEMODE_TRIGGER_ENABLED(tmpsmcr))
 1385              		.loc 1 801 11 is_stmt 0 view .LVU411
 1386 004a 03F00703 		and	r3, r3, #7
 1387              	.LVL95:
 802:Drivers/STM32F1xx_HAL_Driver/Src/stm32f1xx_hal_tim_ex.c ****   {
 1388              		.loc 1 802 6 view .LVU412
 1389 004e 062B     		cmp	r3, #6
ARM GAS  /var/folders/20/cstyxln53wn53rr40gj353bh0000gn/T//ccV5XGPK.s 			page 63


 1390 0050 06D0     		beq	.L92
 804:Drivers/STM32F1xx_HAL_Driver/Src/stm32f1xx_hal_tim_ex.c ****   }
 1391              		.loc 1 804 5 is_stmt 1 view .LVU413
 808:Drivers/STM32F1xx_HAL_Driver/Src/stm32f1xx_hal_tim_ex.c **** }
 1392              		.loc 1 808 10 is_stmt 0 view .LVU414
 1393 0052 0026     		movs	r6, #0
 1394              	.LVL96:
 804:Drivers/STM32F1xx_HAL_Driver/Src/stm32f1xx_hal_tim_ex.c ****   }
 1395              		.loc 1 804 5 view .LVU415
 1396 0054 1368     		ldr	r3, [r2]
 1397              	.LVL97:
 804:Drivers/STM32F1xx_HAL_Driver/Src/stm32f1xx_hal_tim_ex.c ****   }
 1398              		.loc 1 804 5 view .LVU416
 1399 0056 43F00103 		orr	r3, r3, #1
 1400 005a 1360     		str	r3, [r2]
 1401              	.LVL98:
 1402              	.L85:
 809:Drivers/STM32F1xx_HAL_Driver/Src/stm32f1xx_hal_tim_ex.c **** 
 1403              		.loc 1 809 1 view .LVU417
 1404 005c 3046     		mov	r0, r6
 1405 005e F8BD     		pop	{r3, r4, r5, r6, r7, pc}
 1406              	.LVL99:
 1407              	.L92:
 808:Drivers/STM32F1xx_HAL_Driver/Src/stm32f1xx_hal_tim_ex.c **** }
 1408              		.loc 1 808 10 view .LVU418
 1409 0060 0026     		movs	r6, #0
 1410              	.LVL100:
 809:Drivers/STM32F1xx_HAL_Driver/Src/stm32f1xx_hal_tim_ex.c **** 
 1411              		.loc 1 809 1 view .LVU419
 1412 0062 3046     		mov	r0, r6
 1413 0064 F8BD     		pop	{r3, r4, r5, r6, r7, pc}
 1414              	.LVL101:
 1415              	.L100:
 717:Drivers/STM32F1xx_HAL_Driver/Src/stm32f1xx_hal_tim_ex.c ****     {
 1416              		.loc 1 717 5 is_stmt 1 view .LVU420
 717:Drivers/STM32F1xx_HAL_Driver/Src/stm32f1xx_hal_tim_ex.c ****     {
 1417              		.loc 1 717 8 is_stmt 0 view .LVU421
 1418 0066 72B3     		cbz	r2, .L102
 1419              	.L87:
 723:Drivers/STM32F1xx_HAL_Driver/Src/stm32f1xx_hal_tim_ex.c ****     }
 1420              		.loc 1 723 7 is_stmt 1 view .LVU422
 723:Drivers/STM32F1xx_HAL_Driver/Src/stm32f1xx_hal_tim_ex.c ****     }
 1421              		.loc 1 723 19 is_stmt 0 view .LVU423
 1422 0068 0224     		movs	r4, #2
 731:Drivers/STM32F1xx_HAL_Driver/Src/stm32f1xx_hal_tim_ex.c ****   {
 1423              		.loc 1 731 3 view .LVU424
 1424 006a 0429     		cmp	r1, #4
 1425 006c 1746     		mov	r7, r2
 723:Drivers/STM32F1xx_HAL_Driver/Src/stm32f1xx_hal_tim_ex.c ****     }
 1426              		.loc 1 723 19 view .LVU425
 1427 006e 80F83D40 		strb	r4, [r0, #61]
 1428 0072 0D46     		mov	r5, r1
 1429 0074 0646     		mov	r6, r0
 729:Drivers/STM32F1xx_HAL_Driver/Src/stm32f1xx_hal_tim_ex.c **** 
 1430              		.loc 1 729 3 is_stmt 1 view .LVU426
 731:Drivers/STM32F1xx_HAL_Driver/Src/stm32f1xx_hal_tim_ex.c ****   {
 1431              		.loc 1 731 3 view .LVU427
ARM GAS  /var/folders/20/cstyxln53wn53rr40gj353bh0000gn/T//ccV5XGPK.s 			page 64


 1432 0076 0268     		ldr	r2, [r0]
 1433              	.LVL102:
 731:Drivers/STM32F1xx_HAL_Driver/Src/stm32f1xx_hal_tim_ex.c ****   {
 1434              		.loc 1 731 3 is_stmt 0 view .LVU428
 1435 0078 D2D1     		bne	.L103
 1436              	.L88:
 755:Drivers/STM32F1xx_HAL_Driver/Src/stm32f1xx_hal_tim_ex.c ****       htim->hdma[TIM_DMA_ID_CC2]->XferHalfCpltCallback = TIM_DMADelayPulseHalfCplt;
 1437              		.loc 1 755 7 is_stmt 1 view .LVU429
 755:Drivers/STM32F1xx_HAL_Driver/Src/stm32f1xx_hal_tim_ex.c ****       htim->hdma[TIM_DMA_ID_CC2]->XferHalfCpltCallback = TIM_DMADelayPulseHalfCplt;
 1438              		.loc 1 755 17 is_stmt 0 view .LVU430
 1439 007a 806A     		ldr	r0, [r0, #40]
 1440              	.LVL103:
 755:Drivers/STM32F1xx_HAL_Driver/Src/stm32f1xx_hal_tim_ex.c ****       htim->hdma[TIM_DMA_ID_CC2]->XferHalfCpltCallback = TIM_DMADelayPulseHalfCplt;
 1441              		.loc 1 755 52 view .LVU431
 1442 007c 1E4C     		ldr	r4, .L104
 756:Drivers/STM32F1xx_HAL_Driver/Src/stm32f1xx_hal_tim_ex.c **** 
 1443              		.loc 1 756 56 view .LVU432
 1444 007e DFF880C0 		ldr	ip, .L104+8
 755:Drivers/STM32F1xx_HAL_Driver/Src/stm32f1xx_hal_tim_ex.c ****       htim->hdma[TIM_DMA_ID_CC2]->XferHalfCpltCallback = TIM_DMADelayPulseHalfCplt;
 1445              		.loc 1 755 52 view .LVU433
 1446 0082 8462     		str	r4, [r0, #40]
 756:Drivers/STM32F1xx_HAL_Driver/Src/stm32f1xx_hal_tim_ex.c **** 
 1447              		.loc 1 756 7 is_stmt 1 view .LVU434
 759:Drivers/STM32F1xx_HAL_Driver/Src/stm32f1xx_hal_tim_ex.c **** 
 1448              		.loc 1 759 53 is_stmt 0 view .LVU435
 1449 0084 1D4C     		ldr	r4, .L104+4
 762:Drivers/STM32F1xx_HAL_Driver/Src/stm32f1xx_hal_tim_ex.c ****       {
 1450              		.loc 1 762 11 view .LVU436
 1451 0086 3832     		adds	r2, r2, #56
 1452 0088 3946     		mov	r1, r7
 1453              	.LVL104:
 759:Drivers/STM32F1xx_HAL_Driver/Src/stm32f1xx_hal_tim_ex.c **** 
 1454              		.loc 1 759 53 view .LVU437
 1455 008a C0E90BC4 		strd	ip, r4, [r0, #44]
 762:Drivers/STM32F1xx_HAL_Driver/Src/stm32f1xx_hal_tim_ex.c ****       {
 1456              		.loc 1 762 7 is_stmt 1 view .LVU438
 762:Drivers/STM32F1xx_HAL_Driver/Src/stm32f1xx_hal_tim_ex.c ****       {
 1457              		.loc 1 762 11 is_stmt 0 view .LVU439
 1458 008e FFF7FEFF 		bl	HAL_DMA_Start_IT
 1459              	.LVL105:
 762:Drivers/STM32F1xx_HAL_Driver/Src/stm32f1xx_hal_tim_ex.c ****       {
 1460              		.loc 1 762 10 view .LVU440
 1461 0092 D0B9     		cbnz	r0, .L91
 767:Drivers/STM32F1xx_HAL_Driver/Src/stm32f1xx_hal_tim_ex.c ****       break;
 1462              		.loc 1 767 7 is_stmt 1 view .LVU441
 1463 0094 3268     		ldr	r2, [r6]
 1464 0096 D368     		ldr	r3, [r2, #12]
 1465 0098 43F48063 		orr	r3, r3, #1024
 1466 009c D360     		str	r3, [r2, #12]
 768:Drivers/STM32F1xx_HAL_Driver/Src/stm32f1xx_hal_tim_ex.c ****     }
 1467              		.loc 1 768 7 view .LVU442
 1468 009e C3E7     		b	.L90
 1469              	.LVL106:
 1470              	.L101:
 736:Drivers/STM32F1xx_HAL_Driver/Src/stm32f1xx_hal_tim_ex.c ****       htim->hdma[TIM_DMA_ID_CC1]->XferHalfCpltCallback = TIM_DMADelayPulseHalfCplt;
 1471              		.loc 1 736 7 view .LVU443
 736:Drivers/STM32F1xx_HAL_Driver/Src/stm32f1xx_hal_tim_ex.c ****       htim->hdma[TIM_DMA_ID_CC1]->XferHalfCpltCallback = TIM_DMADelayPulseHalfCplt;
ARM GAS  /var/folders/20/cstyxln53wn53rr40gj353bh0000gn/T//ccV5XGPK.s 			page 65


 1472              		.loc 1 736 17 is_stmt 0 view .LVU444
 1473 00a0 406A     		ldr	r0, [r0, #36]
 1474              	.LVL107:
 736:Drivers/STM32F1xx_HAL_Driver/Src/stm32f1xx_hal_tim_ex.c ****       htim->hdma[TIM_DMA_ID_CC1]->XferHalfCpltCallback = TIM_DMADelayPulseHalfCplt;
 1475              		.loc 1 736 52 view .LVU445
 1476 00a2 154C     		ldr	r4, .L104
 737:Drivers/STM32F1xx_HAL_Driver/Src/stm32f1xx_hal_tim_ex.c **** 
 1477              		.loc 1 737 56 view .LVU446
 1478 00a4 DFF858C0 		ldr	ip, .L104+8
 736:Drivers/STM32F1xx_HAL_Driver/Src/stm32f1xx_hal_tim_ex.c ****       htim->hdma[TIM_DMA_ID_CC1]->XferHalfCpltCallback = TIM_DMADelayPulseHalfCplt;
 1479              		.loc 1 736 52 view .LVU447
 1480 00a8 8462     		str	r4, [r0, #40]
 737:Drivers/STM32F1xx_HAL_Driver/Src/stm32f1xx_hal_tim_ex.c **** 
 1481              		.loc 1 737 7 is_stmt 1 view .LVU448
 740:Drivers/STM32F1xx_HAL_Driver/Src/stm32f1xx_hal_tim_ex.c **** 
 1482              		.loc 1 740 53 is_stmt 0 view .LVU449
 1483 00aa 144C     		ldr	r4, .L104+4
 743:Drivers/STM32F1xx_HAL_Driver/Src/stm32f1xx_hal_tim_ex.c ****       {
 1484              		.loc 1 743 11 view .LVU450
 1485 00ac 3432     		adds	r2, r2, #52
 1486 00ae 3946     		mov	r1, r7
 1487              	.LVL108:
 740:Drivers/STM32F1xx_HAL_Driver/Src/stm32f1xx_hal_tim_ex.c **** 
 1488              		.loc 1 740 53 view .LVU451
 1489 00b0 C0E90BC4 		strd	ip, r4, [r0, #44]
 743:Drivers/STM32F1xx_HAL_Driver/Src/stm32f1xx_hal_tim_ex.c ****       {
 1490              		.loc 1 743 7 is_stmt 1 view .LVU452
 743:Drivers/STM32F1xx_HAL_Driver/Src/stm32f1xx_hal_tim_ex.c ****       {
 1491              		.loc 1 743 11 is_stmt 0 view .LVU453
 1492 00b4 FFF7FEFF 		bl	HAL_DMA_Start_IT
 1493              	.LVL109:
 743:Drivers/STM32F1xx_HAL_Driver/Src/stm32f1xx_hal_tim_ex.c ****       {
 1494              		.loc 1 743 10 view .LVU454
 1495 00b8 38B9     		cbnz	r0, .L91
 748:Drivers/STM32F1xx_HAL_Driver/Src/stm32f1xx_hal_tim_ex.c ****       break;
 1496              		.loc 1 748 7 is_stmt 1 view .LVU455
 1497 00ba 3268     		ldr	r2, [r6]
 1498 00bc D368     		ldr	r3, [r2, #12]
 1499 00be 43F40073 		orr	r3, r3, #512
 1500 00c2 D360     		str	r3, [r2, #12]
 749:Drivers/STM32F1xx_HAL_Driver/Src/stm32f1xx_hal_tim_ex.c ****     }
 1501              		.loc 1 749 7 view .LVU456
 1502 00c4 B0E7     		b	.L90
 1503              	.LVL110:
 1504              	.L102:
 717:Drivers/STM32F1xx_HAL_Driver/Src/stm32f1xx_hal_tim_ex.c ****     {
 1505              		.loc 1 717 33 is_stmt 0 discriminator 1 view .LVU457
 1506 00c6 002B     		cmp	r3, #0
 1507 00c8 CED0     		beq	.L87
 1508              	.LVL111:
 1509              	.L91:
 719:Drivers/STM32F1xx_HAL_Driver/Src/stm32f1xx_hal_tim_ex.c ****     }
 1510              		.loc 1 719 14 view .LVU458
 1511 00ca 0126     		movs	r6, #1
 809:Drivers/STM32F1xx_HAL_Driver/Src/stm32f1xx_hal_tim_ex.c **** 
 1512              		.loc 1 809 1 view .LVU459
 1513 00cc 3046     		mov	r0, r6
ARM GAS  /var/folders/20/cstyxln53wn53rr40gj353bh0000gn/T//ccV5XGPK.s 			page 66


 1514 00ce F8BD     		pop	{r3, r4, r5, r6, r7, pc}
 1515              	.LVL112:
 1516              	.L89:
 774:Drivers/STM32F1xx_HAL_Driver/Src/stm32f1xx_hal_tim_ex.c ****       htim->hdma[TIM_DMA_ID_CC3]->XferHalfCpltCallback = TIM_DMADelayPulseHalfCplt;
 1517              		.loc 1 774 7 is_stmt 1 view .LVU460
 774:Drivers/STM32F1xx_HAL_Driver/Src/stm32f1xx_hal_tim_ex.c ****       htim->hdma[TIM_DMA_ID_CC3]->XferHalfCpltCallback = TIM_DMADelayPulseHalfCplt;
 1518              		.loc 1 774 17 is_stmt 0 view .LVU461
 1519 00d0 C06A     		ldr	r0, [r0, #44]
 1520              	.LVL113:
 774:Drivers/STM32F1xx_HAL_Driver/Src/stm32f1xx_hal_tim_ex.c ****       htim->hdma[TIM_DMA_ID_CC3]->XferHalfCpltCallback = TIM_DMADelayPulseHalfCplt;
 1521              		.loc 1 774 52 view .LVU462
 1522 00d2 094C     		ldr	r4, .L104
 775:Drivers/STM32F1xx_HAL_Driver/Src/stm32f1xx_hal_tim_ex.c **** 
 1523              		.loc 1 775 56 view .LVU463
 1524 00d4 DFF828C0 		ldr	ip, .L104+8
 774:Drivers/STM32F1xx_HAL_Driver/Src/stm32f1xx_hal_tim_ex.c ****       htim->hdma[TIM_DMA_ID_CC3]->XferHalfCpltCallback = TIM_DMADelayPulseHalfCplt;
 1525              		.loc 1 774 52 view .LVU464
 1526 00d8 8462     		str	r4, [r0, #40]
 775:Drivers/STM32F1xx_HAL_Driver/Src/stm32f1xx_hal_tim_ex.c **** 
 1527              		.loc 1 775 7 is_stmt 1 view .LVU465
 778:Drivers/STM32F1xx_HAL_Driver/Src/stm32f1xx_hal_tim_ex.c **** 
 1528              		.loc 1 778 53 is_stmt 0 view .LVU466
 1529 00da 084C     		ldr	r4, .L104+4
 781:Drivers/STM32F1xx_HAL_Driver/Src/stm32f1xx_hal_tim_ex.c ****       {
 1530              		.loc 1 781 11 view .LVU467
 1531 00dc 3C32     		adds	r2, r2, #60
 1532 00de 3946     		mov	r1, r7
 1533              	.LVL114:
 778:Drivers/STM32F1xx_HAL_Driver/Src/stm32f1xx_hal_tim_ex.c **** 
 1534              		.loc 1 778 53 view .LVU468
 1535 00e0 C0E90BC4 		strd	ip, r4, [r0, #44]
 781:Drivers/STM32F1xx_HAL_Driver/Src/stm32f1xx_hal_tim_ex.c ****       {
 1536              		.loc 1 781 7 is_stmt 1 view .LVU469
 781:Drivers/STM32F1xx_HAL_Driver/Src/stm32f1xx_hal_tim_ex.c ****       {
 1537              		.loc 1 781 11 is_stmt 0 view .LVU470
 1538 00e4 FFF7FEFF 		bl	HAL_DMA_Start_IT
 1539              	.LVL115:
 781:Drivers/STM32F1xx_HAL_Driver/Src/stm32f1xx_hal_tim_ex.c ****       {
 1540              		.loc 1 781 10 view .LVU471
 1541 00e8 0028     		cmp	r0, #0
 1542 00ea EED1     		bne	.L91
 786:Drivers/STM32F1xx_HAL_Driver/Src/stm32f1xx_hal_tim_ex.c ****       break;
 1543              		.loc 1 786 7 is_stmt 1 view .LVU472
 1544 00ec 3268     		ldr	r2, [r6]
 1545 00ee D368     		ldr	r3, [r2, #12]
 1546 00f0 43F40063 		orr	r3, r3, #2048
 1547 00f4 D360     		str	r3, [r2, #12]
 787:Drivers/STM32F1xx_HAL_Driver/Src/stm32f1xx_hal_tim_ex.c ****     }
 1548              		.loc 1 787 7 view .LVU473
 1549 00f6 97E7     		b	.L90
 1550              	.L105:
 1551              		.align	2
 1552              	.L104:
 1553 00f8 00000000 		.word	TIM_DMADelayPulseCplt
 1554 00fc 00000000 		.word	TIM_DMAError
 1555 0100 00000000 		.word	TIM_DMADelayPulseHalfCplt
 1556              		.cfi_endproc
ARM GAS  /var/folders/20/cstyxln53wn53rr40gj353bh0000gn/T//ccV5XGPK.s 			page 67


 1557              	.LFE79:
 1559              		.section	.text.HAL_TIMEx_OCN_Stop_DMA,"ax",%progbits
 1560              		.align	1
 1561              		.p2align 2,,3
 1562              		.global	HAL_TIMEx_OCN_Stop_DMA
 1563              		.syntax unified
 1564              		.thumb
 1565              		.thumb_func
 1566              		.fpu softvfp
 1568              	HAL_TIMEx_OCN_Stop_DMA:
 1569              	.LVL116:
 1570              	.LFB80:
 823:Drivers/STM32F1xx_HAL_Driver/Src/stm32f1xx_hal_tim_ex.c ****   /* Check the parameters */
 1571              		.loc 1 823 1 view -0
 1572              		.cfi_startproc
 1573              		@ args = 0, pretend = 0, frame = 0
 1574              		@ frame_needed = 0, uses_anonymous_args = 0
 825:Drivers/STM32F1xx_HAL_Driver/Src/stm32f1xx_hal_tim_ex.c **** 
 1575              		.loc 1 825 3 view .LVU475
 827:Drivers/STM32F1xx_HAL_Driver/Src/stm32f1xx_hal_tim_ex.c ****   {
 1576              		.loc 1 827 3 view .LVU476
 1577 0000 0429     		cmp	r1, #4
 823:Drivers/STM32F1xx_HAL_Driver/Src/stm32f1xx_hal_tim_ex.c ****   /* Check the parameters */
 1578              		.loc 1 823 1 is_stmt 0 view .LVU477
 1579 0002 38B5     		push	{r3, r4, r5, lr}
 1580              	.LCFI19:
 1581              		.cfi_def_cfa_offset 16
 1582              		.cfi_offset 3, -16
 1583              		.cfi_offset 4, -12
 1584              		.cfi_offset 5, -8
 1585              		.cfi_offset 14, -4
 823:Drivers/STM32F1xx_HAL_Driver/Src/stm32f1xx_hal_tim_ex.c ****   /* Check the parameters */
 1586              		.loc 1 823 1 view .LVU478
 1587 0004 0546     		mov	r5, r0
 1588 0006 0C46     		mov	r4, r1
 1589 0008 0368     		ldr	r3, [r0]
 827:Drivers/STM32F1xx_HAL_Driver/Src/stm32f1xx_hal_tim_ex.c ****   {
 1590              		.loc 1 827 3 view .LVU479
 1591 000a 41D0     		beq	.L107
 1592 000c 0829     		cmp	r1, #8
 1593 000e 36D0     		beq	.L108
 1594 0010 61B3     		cbz	r1, .L113
 1595              	.LVL117:
 1596              	.L109:
 858:Drivers/STM32F1xx_HAL_Driver/Src/stm32f1xx_hal_tim_ex.c **** 
 1597              		.loc 1 858 3 is_stmt 1 view .LVU480
 1598              	.LBB66:
 1599              	.LBI66:
1896:Drivers/STM32F1xx_HAL_Driver/Src/stm32f1xx_hal_tim_ex.c **** {
 1600              		.loc 1 1896 13 view .LVU481
 1601              	.LBB67:
1898:Drivers/STM32F1xx_HAL_Driver/Src/stm32f1xx_hal_tim_ex.c **** 
 1602              		.loc 1 1898 3 view .LVU482
1900:Drivers/STM32F1xx_HAL_Driver/Src/stm32f1xx_hal_tim_ex.c **** 
 1603              		.loc 1 1900 3 view .LVU483
1903:Drivers/STM32F1xx_HAL_Driver/Src/stm32f1xx_hal_tim_ex.c **** 
 1604              		.loc 1 1903 3 view .LVU484
ARM GAS  /var/folders/20/cstyxln53wn53rr40gj353bh0000gn/T//ccV5XGPK.s 			page 68


1900:Drivers/STM32F1xx_HAL_Driver/Src/stm32f1xx_hal_tim_ex.c **** 
 1605              		.loc 1 1900 7 is_stmt 0 view .LVU485
 1606 0012 0421     		movs	r1, #4
 1607              	.LBE67:
 1608              	.LBE66:
 861:Drivers/STM32F1xx_HAL_Driver/Src/stm32f1xx_hal_tim_ex.c **** 
 1609              		.loc 1 861 3 view .LVU486
 1610 0014 41F21110 		movw	r0, #4369
 1611              	.LBB69:
 1612              	.LBB68:
1903:Drivers/STM32F1xx_HAL_Driver/Src/stm32f1xx_hal_tim_ex.c **** 
 1613              		.loc 1 1903 14 view .LVU487
 1614 0018 1A6A     		ldr	r2, [r3, #32]
1900:Drivers/STM32F1xx_HAL_Driver/Src/stm32f1xx_hal_tim_ex.c **** 
 1615              		.loc 1 1900 36 view .LVU488
 1616 001a 04F01F04 		and	r4, r4, #31
 1617              	.LVL118:
1900:Drivers/STM32F1xx_HAL_Driver/Src/stm32f1xx_hal_tim_ex.c **** 
 1618              		.loc 1 1900 7 view .LVU489
 1619 001e 01FA04F4 		lsl	r4, r1, r4
 1620              	.LVL119:
1903:Drivers/STM32F1xx_HAL_Driver/Src/stm32f1xx_hal_tim_ex.c **** 
 1621              		.loc 1 1903 14 view .LVU490
 1622 0022 22EA0404 		bic	r4, r2, r4
 1623              	.LVL120:
1903:Drivers/STM32F1xx_HAL_Driver/Src/stm32f1xx_hal_tim_ex.c **** 
 1624              		.loc 1 1903 14 view .LVU491
 1625 0026 1C62     		str	r4, [r3, #32]
 1626              		.loc 1 1906 3 is_stmt 1 view .LVU492
 1627              		.loc 1 1906 14 is_stmt 0 view .LVU493
 1628 0028 1A6A     		ldr	r2, [r3, #32]
 1629 002a 1A62     		str	r2, [r3, #32]
 1630              	.LVL121:
 1631              		.loc 1 1906 14 view .LVU494
 1632              	.LBE68:
 1633              	.LBE69:
 861:Drivers/STM32F1xx_HAL_Driver/Src/stm32f1xx_hal_tim_ex.c **** 
 1634              		.loc 1 861 3 is_stmt 1 view .LVU495
 861:Drivers/STM32F1xx_HAL_Driver/Src/stm32f1xx_hal_tim_ex.c **** 
 1635              		.loc 1 861 3 view .LVU496
 1636 002c 1A6A     		ldr	r2, [r3, #32]
 1637 002e 0242     		tst	r2, r0
 1638 0030 04D1     		bne	.L110
 861:Drivers/STM32F1xx_HAL_Driver/Src/stm32f1xx_hal_tim_ex.c **** 
 1639              		.loc 1 861 3 discriminator 1 view .LVU497
 1640 0032 40F24442 		movw	r2, #1092
 1641 0036 196A     		ldr	r1, [r3, #32]
 1642 0038 1142     		tst	r1, r2
 1643 003a 12D0     		beq	.L114
 1644              	.L110:
 864:Drivers/STM32F1xx_HAL_Driver/Src/stm32f1xx_hal_tim_ex.c **** 
 1645              		.loc 1 864 3 view .LVU498
 864:Drivers/STM32F1xx_HAL_Driver/Src/stm32f1xx_hal_tim_ex.c **** 
 1646              		.loc 1 864 3 view .LVU499
 1647 003c 41F21112 		movw	r2, #4369
 1648 0040 196A     		ldr	r1, [r3, #32]
 1649 0042 1142     		tst	r1, r2
ARM GAS  /var/folders/20/cstyxln53wn53rr40gj353bh0000gn/T//ccV5XGPK.s 			page 69


 1650 0044 08D1     		bne	.L111
 864:Drivers/STM32F1xx_HAL_Driver/Src/stm32f1xx_hal_tim_ex.c **** 
 1651              		.loc 1 864 3 discriminator 1 view .LVU500
 1652 0046 40F24442 		movw	r2, #1092
 1653 004a 196A     		ldr	r1, [r3, #32]
 1654 004c 1142     		tst	r1, r2
 1655 004e 03D1     		bne	.L111
 864:Drivers/STM32F1xx_HAL_Driver/Src/stm32f1xx_hal_tim_ex.c **** 
 1656              		.loc 1 864 3 discriminator 2 view .LVU501
 1657 0050 1A68     		ldr	r2, [r3]
 1658 0052 22F00102 		bic	r2, r2, #1
 1659 0056 1A60     		str	r2, [r3]
 1660              	.L111:
 867:Drivers/STM32F1xx_HAL_Driver/Src/stm32f1xx_hal_tim_ex.c **** 
 1661              		.loc 1 867 3 view .LVU502
 867:Drivers/STM32F1xx_HAL_Driver/Src/stm32f1xx_hal_tim_ex.c **** 
 1662              		.loc 1 867 15 is_stmt 0 view .LVU503
 1663 0058 0123     		movs	r3, #1
 871:Drivers/STM32F1xx_HAL_Driver/Src/stm32f1xx_hal_tim_ex.c **** 
 1664              		.loc 1 871 1 view .LVU504
 1665 005a 0020     		movs	r0, #0
 867:Drivers/STM32F1xx_HAL_Driver/Src/stm32f1xx_hal_tim_ex.c **** 
 1666              		.loc 1 867 15 view .LVU505
 1667 005c 85F83D30 		strb	r3, [r5, #61]
 870:Drivers/STM32F1xx_HAL_Driver/Src/stm32f1xx_hal_tim_ex.c **** }
 1668              		.loc 1 870 3 is_stmt 1 view .LVU506
 871:Drivers/STM32F1xx_HAL_Driver/Src/stm32f1xx_hal_tim_ex.c **** 
 1669              		.loc 1 871 1 is_stmt 0 view .LVU507
 1670 0060 38BD     		pop	{r3, r4, r5, pc}
 1671              	.LVL122:
 1672              	.L114:
 861:Drivers/STM32F1xx_HAL_Driver/Src/stm32f1xx_hal_tim_ex.c **** 
 1673              		.loc 1 861 3 is_stmt 1 discriminator 2 view .LVU508
 1674 0062 5A6C     		ldr	r2, [r3, #68]
 1675 0064 22F40042 		bic	r2, r2, #32768
 1676 0068 5A64     		str	r2, [r3, #68]
 1677 006a E7E7     		b	.L110
 1678              	.LVL123:
 1679              	.L113:
 832:Drivers/STM32F1xx_HAL_Driver/Src/stm32f1xx_hal_tim_ex.c ****       (void)HAL_DMA_Abort_IT(htim->hdma[TIM_DMA_ID_CC1]);
 1680              		.loc 1 832 7 view .LVU509
 1681 006c DA68     		ldr	r2, [r3, #12]
 833:Drivers/STM32F1xx_HAL_Driver/Src/stm32f1xx_hal_tim_ex.c ****       break;
 1682              		.loc 1 833 13 is_stmt 0 view .LVU510
 1683 006e 406A     		ldr	r0, [r0, #36]
 1684              	.LVL124:
 832:Drivers/STM32F1xx_HAL_Driver/Src/stm32f1xx_hal_tim_ex.c ****       (void)HAL_DMA_Abort_IT(htim->hdma[TIM_DMA_ID_CC1]);
 1685              		.loc 1 832 7 view .LVU511
 1686 0070 22F40072 		bic	r2, r2, #512
 1687 0074 DA60     		str	r2, [r3, #12]
 833:Drivers/STM32F1xx_HAL_Driver/Src/stm32f1xx_hal_tim_ex.c ****       break;
 1688              		.loc 1 833 7 is_stmt 1 view .LVU512
 833:Drivers/STM32F1xx_HAL_Driver/Src/stm32f1xx_hal_tim_ex.c ****       break;
 1689              		.loc 1 833 13 is_stmt 0 view .LVU513
 1690 0076 FFF7FEFF 		bl	HAL_DMA_Abort_IT
 1691              	.LVL125:
 834:Drivers/STM32F1xx_HAL_Driver/Src/stm32f1xx_hal_tim_ex.c ****     }
ARM GAS  /var/folders/20/cstyxln53wn53rr40gj353bh0000gn/T//ccV5XGPK.s 			page 70


 1692              		.loc 1 834 7 is_stmt 1 view .LVU514
 1693 007a 2B68     		ldr	r3, [r5]
 1694 007c C9E7     		b	.L109
 1695              	.LVL126:
 1696              	.L108:
 848:Drivers/STM32F1xx_HAL_Driver/Src/stm32f1xx_hal_tim_ex.c ****       (void)HAL_DMA_Abort_IT(htim->hdma[TIM_DMA_ID_CC3]);
 1697              		.loc 1 848 7 view .LVU515
 1698 007e DA68     		ldr	r2, [r3, #12]
 849:Drivers/STM32F1xx_HAL_Driver/Src/stm32f1xx_hal_tim_ex.c ****       break;
 1699              		.loc 1 849 13 is_stmt 0 view .LVU516
 1700 0080 C06A     		ldr	r0, [r0, #44]
 1701              	.LVL127:
 848:Drivers/STM32F1xx_HAL_Driver/Src/stm32f1xx_hal_tim_ex.c ****       (void)HAL_DMA_Abort_IT(htim->hdma[TIM_DMA_ID_CC3]);
 1702              		.loc 1 848 7 view .LVU517
 1703 0082 22F40062 		bic	r2, r2, #2048
 1704 0086 DA60     		str	r2, [r3, #12]
 849:Drivers/STM32F1xx_HAL_Driver/Src/stm32f1xx_hal_tim_ex.c ****       break;
 1705              		.loc 1 849 7 is_stmt 1 view .LVU518
 849:Drivers/STM32F1xx_HAL_Driver/Src/stm32f1xx_hal_tim_ex.c ****       break;
 1706              		.loc 1 849 13 is_stmt 0 view .LVU519
 1707 0088 FFF7FEFF 		bl	HAL_DMA_Abort_IT
 1708              	.LVL128:
 850:Drivers/STM32F1xx_HAL_Driver/Src/stm32f1xx_hal_tim_ex.c ****     }
 1709              		.loc 1 850 7 is_stmt 1 view .LVU520
 1710 008c 2B68     		ldr	r3, [r5]
 1711 008e C0E7     		b	.L109
 1712              	.LVL129:
 1713              	.L107:
 840:Drivers/STM32F1xx_HAL_Driver/Src/stm32f1xx_hal_tim_ex.c ****       (void)HAL_DMA_Abort_IT(htim->hdma[TIM_DMA_ID_CC2]);
 1714              		.loc 1 840 7 view .LVU521
 1715 0090 DA68     		ldr	r2, [r3, #12]
 841:Drivers/STM32F1xx_HAL_Driver/Src/stm32f1xx_hal_tim_ex.c ****       break;
 1716              		.loc 1 841 13 is_stmt 0 view .LVU522
 1717 0092 806A     		ldr	r0, [r0, #40]
 1718              	.LVL130:
 840:Drivers/STM32F1xx_HAL_Driver/Src/stm32f1xx_hal_tim_ex.c ****       (void)HAL_DMA_Abort_IT(htim->hdma[TIM_DMA_ID_CC2]);
 1719              		.loc 1 840 7 view .LVU523
 1720 0094 22F48062 		bic	r2, r2, #1024
 1721 0098 DA60     		str	r2, [r3, #12]
 841:Drivers/STM32F1xx_HAL_Driver/Src/stm32f1xx_hal_tim_ex.c ****       break;
 1722              		.loc 1 841 7 is_stmt 1 view .LVU524
 841:Drivers/STM32F1xx_HAL_Driver/Src/stm32f1xx_hal_tim_ex.c ****       break;
 1723              		.loc 1 841 13 is_stmt 0 view .LVU525
 1724 009a FFF7FEFF 		bl	HAL_DMA_Abort_IT
 1725              	.LVL131:
 842:Drivers/STM32F1xx_HAL_Driver/Src/stm32f1xx_hal_tim_ex.c ****     }
 1726              		.loc 1 842 7 is_stmt 1 view .LVU526
 1727 009e 2B68     		ldr	r3, [r5]
 1728 00a0 B7E7     		b	.L109
 1729              		.cfi_endproc
 1730              	.LFE80:
 1732 00a2 00BF     		.section	.text.HAL_TIMEx_PWMN_Start,"ax",%progbits
 1733              		.align	1
 1734              		.p2align 2,,3
 1735              		.global	HAL_TIMEx_PWMN_Start
 1736              		.syntax unified
 1737              		.thumb
ARM GAS  /var/folders/20/cstyxln53wn53rr40gj353bh0000gn/T//ccV5XGPK.s 			page 71


 1738              		.thumb_func
 1739              		.fpu softvfp
 1741              	HAL_TIMEx_PWMN_Start:
 1742              	.LFB113:
 1743              		.cfi_startproc
 1744              		@ args = 0, pretend = 0, frame = 0
 1745              		@ frame_needed = 0, uses_anonymous_args = 0
 1746              		@ link register save eliminated.
 1747 0000 0422     		movs	r2, #4
 1748 0002 0368     		ldr	r3, [r0]
 1749 0004 01F01F01 		and	r1, r1, #31
 1750 0008 186A     		ldr	r0, [r3, #32]
 1751 000a 02FA01F1 		lsl	r1, r2, r1
 1752 000e 20EA0100 		bic	r0, r0, r1
 1753 0012 1862     		str	r0, [r3, #32]
 1754 0014 1A6A     		ldr	r2, [r3, #32]
 1755 0016 1143     		orrs	r1, r1, r2
 1756 0018 1962     		str	r1, [r3, #32]
 1757 001a 5A6C     		ldr	r2, [r3, #68]
 1758 001c 42F40042 		orr	r2, r2, #32768
 1759 0020 5A64     		str	r2, [r3, #68]
 1760 0022 9A68     		ldr	r2, [r3, #8]
 1761 0024 02F00702 		and	r2, r2, #7
 1762 0028 062A     		cmp	r2, #6
 1763 002a 03D0     		beq	.L116
 1764 002c 1A68     		ldr	r2, [r3]
 1765 002e 42F00102 		orr	r2, r2, #1
 1766 0032 1A60     		str	r2, [r3]
 1767              	.L116:
 1768 0034 0020     		movs	r0, #0
 1769 0036 7047     		bx	lr
 1770              		.cfi_endproc
 1771              	.LFE113:
 1773              		.section	.text.HAL_TIMEx_PWMN_Stop,"ax",%progbits
 1774              		.align	1
 1775              		.p2align 2,,3
 1776              		.global	HAL_TIMEx_PWMN_Stop
 1777              		.syntax unified
 1778              		.thumb
 1779              		.thumb_func
 1780              		.fpu softvfp
 1782              	HAL_TIMEx_PWMN_Stop:
 1783              	.LFB115:
 1784              		.cfi_startproc
 1785              		@ args = 0, pretend = 0, frame = 0
 1786              		@ frame_needed = 0, uses_anonymous_args = 0
 1787              		@ link register save eliminated.
 1788 0000 30B4     		push	{r4, r5}
 1789              	.LCFI20:
 1790              		.cfi_def_cfa_offset 8
 1791              		.cfi_offset 4, -8
 1792              		.cfi_offset 5, -4
 1793 0002 0424     		movs	r4, #4
 1794 0004 41F21115 		movw	r5, #4369
 1795 0008 0368     		ldr	r3, [r0]
 1796 000a 01F01F01 		and	r1, r1, #31
 1797 000e 1A6A     		ldr	r2, [r3, #32]
ARM GAS  /var/folders/20/cstyxln53wn53rr40gj353bh0000gn/T//ccV5XGPK.s 			page 72


 1798 0010 8C40     		lsls	r4, r4, r1
 1799 0012 22EA0402 		bic	r2, r2, r4
 1800 0016 1A62     		str	r2, [r3, #32]
 1801 0018 1A6A     		ldr	r2, [r3, #32]
 1802 001a 1A62     		str	r2, [r3, #32]
 1803 001c 1A6A     		ldr	r2, [r3, #32]
 1804 001e 2A42     		tst	r2, r5
 1805 0020 04D1     		bne	.L121
 1806 0022 40F24442 		movw	r2, #1092
 1807 0026 196A     		ldr	r1, [r3, #32]
 1808 0028 1142     		tst	r1, r2
 1809 002a 10D0     		beq	.L124
 1810              	.L121:
 1811 002c 41F21112 		movw	r2, #4369
 1812 0030 196A     		ldr	r1, [r3, #32]
 1813 0032 1142     		tst	r1, r2
 1814 0034 08D1     		bne	.L122
 1815 0036 40F24442 		movw	r2, #1092
 1816 003a 196A     		ldr	r1, [r3, #32]
 1817 003c 1142     		tst	r1, r2
 1818 003e 03D1     		bne	.L122
 1819 0040 1A68     		ldr	r2, [r3]
 1820 0042 22F00102 		bic	r2, r2, #1
 1821 0046 1A60     		str	r2, [r3]
 1822              	.L122:
 1823 0048 0020     		movs	r0, #0
 1824 004a 30BC     		pop	{r4, r5}
 1825              	.LCFI21:
 1826              		.cfi_remember_state
 1827              		.cfi_restore 5
 1828              		.cfi_restore 4
 1829              		.cfi_def_cfa_offset 0
 1830 004c 7047     		bx	lr
 1831              	.L124:
 1832              	.LCFI22:
 1833              		.cfi_restore_state
 1834 004e 5A6C     		ldr	r2, [r3, #68]
 1835 0050 22F40042 		bic	r2, r2, #32768
 1836 0054 5A64     		str	r2, [r3, #68]
 1837 0056 E9E7     		b	.L121
 1838              		.cfi_endproc
 1839              	.LFE115:
 1841              		.section	.text.HAL_TIMEx_PWMN_Start_IT,"ax",%progbits
 1842              		.align	1
 1843              		.p2align 2,,3
 1844              		.global	HAL_TIMEx_PWMN_Start_IT
 1845              		.syntax unified
 1846              		.thumb
 1847              		.thumb_func
 1848              		.fpu softvfp
 1850              	HAL_TIMEx_PWMN_Start_IT:
 1851              	.LFB119:
 1852              		.cfi_startproc
 1853              		@ args = 0, pretend = 0, frame = 0
 1854              		@ frame_needed = 0, uses_anonymous_args = 0
 1855              		@ link register save eliminated.
 1856 0000 0429     		cmp	r1, #4
ARM GAS  /var/folders/20/cstyxln53wn53rr40gj353bh0000gn/T//ccV5XGPK.s 			page 73


 1857 0002 0368     		ldr	r3, [r0]
 1858 0004 21D0     		beq	.L126
 1859 0006 0829     		cmp	r1, #8
 1860 0008 29D0     		beq	.L127
 1861 000a 19B3     		cbz	r1, .L133
 1862              	.L128:
 1863 000c 0422     		movs	r2, #4
 1864 000e D868     		ldr	r0, [r3, #12]
 1865 0010 01F01F01 		and	r1, r1, #31
 1866 0014 40F08000 		orr	r0, r0, #128
 1867 0018 D860     		str	r0, [r3, #12]
 1868 001a 186A     		ldr	r0, [r3, #32]
 1869 001c 02FA01F1 		lsl	r1, r2, r1
 1870 0020 20EA0100 		bic	r0, r0, r1
 1871 0024 1862     		str	r0, [r3, #32]
 1872 0026 1A6A     		ldr	r2, [r3, #32]
 1873 0028 1143     		orrs	r1, r1, r2
 1874 002a 1962     		str	r1, [r3, #32]
 1875 002c 5A6C     		ldr	r2, [r3, #68]
 1876 002e 42F40042 		orr	r2, r2, #32768
 1877 0032 5A64     		str	r2, [r3, #68]
 1878 0034 9A68     		ldr	r2, [r3, #8]
 1879 0036 02F00702 		and	r2, r2, #7
 1880 003a 062A     		cmp	r2, #6
 1881 003c 03D0     		beq	.L129
 1882 003e 1A68     		ldr	r2, [r3]
 1883 0040 42F00102 		orr	r2, r2, #1
 1884 0044 1A60     		str	r2, [r3]
 1885              	.L129:
 1886 0046 0020     		movs	r0, #0
 1887 0048 7047     		bx	lr
 1888              	.L126:
 1889 004a DA68     		ldr	r2, [r3, #12]
 1890 004c 42F00402 		orr	r2, r2, #4
 1891 0050 DA60     		str	r2, [r3, #12]
 1892 0052 DBE7     		b	.L128
 1893              	.L133:
 1894 0054 DA68     		ldr	r2, [r3, #12]
 1895 0056 42F00202 		orr	r2, r2, #2
 1896 005a DA60     		str	r2, [r3, #12]
 1897 005c D6E7     		b	.L128
 1898              	.L127:
 1899 005e DA68     		ldr	r2, [r3, #12]
 1900 0060 42F00802 		orr	r2, r2, #8
 1901 0064 DA60     		str	r2, [r3, #12]
 1902 0066 D1E7     		b	.L128
 1903              		.cfi_endproc
 1904              	.LFE119:
 1906              		.section	.text.HAL_TIMEx_PWMN_Stop_IT,"ax",%progbits
 1907              		.align	1
 1908              		.p2align 2,,3
 1909              		.global	HAL_TIMEx_PWMN_Stop_IT
 1910              		.syntax unified
 1911              		.thumb
 1912              		.thumb_func
 1913              		.fpu softvfp
 1915              	HAL_TIMEx_PWMN_Stop_IT:
ARM GAS  /var/folders/20/cstyxln53wn53rr40gj353bh0000gn/T//ccV5XGPK.s 			page 74


 1916              	.LFB121:
 1917              		.cfi_startproc
 1918              		@ args = 0, pretend = 0, frame = 0
 1919              		@ frame_needed = 0, uses_anonymous_args = 0
 1920              		@ link register save eliminated.
 1921 0000 0429     		cmp	r1, #4
 1922 0002 10B4     		push	{r4}
 1923              	.LCFI23:
 1924              		.cfi_def_cfa_offset 4
 1925              		.cfi_offset 4, -4
 1926 0004 0368     		ldr	r3, [r0]
 1927 0006 41D0     		beq	.L135
 1928 0008 0829     		cmp	r1, #8
 1929 000a 3AD0     		beq	.L136
 1930 000c 0029     		cmp	r1, #0
 1931 000e 33D0     		beq	.L142
 1932              	.L137:
 1933 0010 0420     		movs	r0, #4
 1934 0012 40F24444 		movw	r4, #1092
 1935 0016 1A6A     		ldr	r2, [r3, #32]
 1936 0018 01F01F01 		and	r1, r1, #31
 1937 001c 00FA01F1 		lsl	r1, r0, r1
 1938 0020 22EA0101 		bic	r1, r2, r1
 1939 0024 1962     		str	r1, [r3, #32]
 1940 0026 1A6A     		ldr	r2, [r3, #32]
 1941 0028 1A62     		str	r2, [r3, #32]
 1942 002a 1A6A     		ldr	r2, [r3, #32]
 1943 002c 2242     		tst	r2, r4
 1944 002e 03D1     		bne	.L138
 1945 0030 DA68     		ldr	r2, [r3, #12]
 1946 0032 22F08002 		bic	r2, r2, #128
 1947 0036 DA60     		str	r2, [r3, #12]
 1948              	.L138:
 1949 0038 41F21112 		movw	r2, #4369
 1950 003c 196A     		ldr	r1, [r3, #32]
 1951 003e 1142     		tst	r1, r2
 1952 0040 04D1     		bne	.L139
 1953 0042 40F24442 		movw	r2, #1092
 1954 0046 196A     		ldr	r1, [r3, #32]
 1955 0048 1142     		tst	r1, r2
 1956 004a 10D0     		beq	.L143
 1957              	.L139:
 1958 004c 41F21112 		movw	r2, #4369
 1959 0050 196A     		ldr	r1, [r3, #32]
 1960 0052 1142     		tst	r1, r2
 1961 0054 08D1     		bne	.L140
 1962 0056 40F24442 		movw	r2, #1092
 1963 005a 196A     		ldr	r1, [r3, #32]
 1964 005c 1142     		tst	r1, r2
 1965 005e 03D1     		bne	.L140
 1966 0060 1A68     		ldr	r2, [r3]
 1967 0062 22F00102 		bic	r2, r2, #1
 1968 0066 1A60     		str	r2, [r3]
 1969              	.L140:
 1970 0068 0020     		movs	r0, #0
 1971 006a 10BC     		pop	{r4}
 1972              	.LCFI24:
ARM GAS  /var/folders/20/cstyxln53wn53rr40gj353bh0000gn/T//ccV5XGPK.s 			page 75


 1973              		.cfi_remember_state
 1974              		.cfi_restore 4
 1975              		.cfi_def_cfa_offset 0
 1976 006c 7047     		bx	lr
 1977              	.L143:
 1978              	.LCFI25:
 1979              		.cfi_restore_state
 1980 006e 5A6C     		ldr	r2, [r3, #68]
 1981 0070 22F40042 		bic	r2, r2, #32768
 1982 0074 5A64     		str	r2, [r3, #68]
 1983 0076 E9E7     		b	.L139
 1984              	.L142:
 1985 0078 DA68     		ldr	r2, [r3, #12]
 1986 007a 22F00202 		bic	r2, r2, #2
 1987 007e DA60     		str	r2, [r3, #12]
 1988 0080 C6E7     		b	.L137
 1989              	.L136:
 1990 0082 DA68     		ldr	r2, [r3, #12]
 1991 0084 22F00802 		bic	r2, r2, #8
 1992 0088 DA60     		str	r2, [r3, #12]
 1993 008a C1E7     		b	.L137
 1994              	.L135:
 1995 008c DA68     		ldr	r2, [r3, #12]
 1996 008e 22F00402 		bic	r2, r2, #4
 1997 0092 DA60     		str	r2, [r3, #12]
 1998 0094 BCE7     		b	.L137
 1999              		.cfi_endproc
 2000              	.LFE121:
 2002 0096 00BF     		.section	.text.HAL_TIMEx_PWMN_Start_DMA,"ax",%progbits
 2003              		.align	1
 2004              		.p2align 2,,3
 2005              		.global	HAL_TIMEx_PWMN_Start_DMA
 2006              		.syntax unified
 2007              		.thumb
 2008              		.thumb_func
 2009              		.fpu softvfp
 2011              	HAL_TIMEx_PWMN_Start_DMA:
 2012              	.LFB123:
 2013              		.cfi_startproc
 2014              		@ args = 0, pretend = 0, frame = 0
 2015              		@ frame_needed = 0, uses_anonymous_args = 0
 2016 0000 F8B5     		push	{r3, r4, r5, r6, r7, lr}
 2017              	.LCFI26:
 2018              		.cfi_def_cfa_offset 24
 2019              		.cfi_offset 3, -24
 2020              		.cfi_offset 4, -20
 2021              		.cfi_offset 5, -16
 2022              		.cfi_offset 6, -12
 2023              		.cfi_offset 7, -8
 2024              		.cfi_offset 14, -4
 2025 0002 90F83D60 		ldrb	r6, [r0, #61]	@ zero_extendqisi2
 2026 0006 F6B2     		uxtb	r6, r6
 2027 0008 022E     		cmp	r6, #2
 2028 000a 27D0     		beq	.L145
 2029 000c 90F83D40 		ldrb	r4, [r0, #61]	@ zero_extendqisi2
 2030 0010 012C     		cmp	r4, #1
 2031 0012 28D0     		beq	.L160
ARM GAS  /var/folders/20/cstyxln53wn53rr40gj353bh0000gn/T//ccV5XGPK.s 			page 76


 2032 0014 0429     		cmp	r1, #4
 2033 0016 1746     		mov	r7, r2
 2034 0018 0D46     		mov	r5, r1
 2035 001a 0646     		mov	r6, r0
 2036 001c 0268     		ldr	r2, [r0]
 2037 001e 2CD0     		beq	.L148
 2038              	.L163:
 2039 0020 0829     		cmp	r1, #8
 2040 0022 55D0     		beq	.L149
 2041 0024 0029     		cmp	r1, #0
 2042 0026 3BD0     		beq	.L161
 2043              	.L150:
 2044 0028 0421     		movs	r1, #4
 2045 002a 136A     		ldr	r3, [r2, #32]
 2046 002c 05F01F05 		and	r5, r5, #31
 2047 0030 01FA05F5 		lsl	r5, r1, r5
 2048 0034 23EA0503 		bic	r3, r3, r5
 2049 0038 1362     		str	r3, [r2, #32]
 2050 003a 136A     		ldr	r3, [r2, #32]
 2051 003c 1D43     		orrs	r5, r5, r3
 2052 003e 1562     		str	r5, [r2, #32]
 2053 0040 536C     		ldr	r3, [r2, #68]
 2054 0042 43F40043 		orr	r3, r3, #32768
 2055 0046 5364     		str	r3, [r2, #68]
 2056 0048 9368     		ldr	r3, [r2, #8]
 2057 004a 03F00703 		and	r3, r3, #7
 2058 004e 062B     		cmp	r3, #6
 2059 0050 06D0     		beq	.L152
 2060 0052 0026     		movs	r6, #0
 2061 0054 1368     		ldr	r3, [r2]
 2062 0056 43F00103 		orr	r3, r3, #1
 2063 005a 1360     		str	r3, [r2]
 2064              	.L145:
 2065 005c 3046     		mov	r0, r6
 2066 005e F8BD     		pop	{r3, r4, r5, r6, r7, pc}
 2067              	.L152:
 2068 0060 0026     		movs	r6, #0
 2069 0062 3046     		mov	r0, r6
 2070 0064 F8BD     		pop	{r3, r4, r5, r6, r7, pc}
 2071              	.L160:
 2072 0066 72B3     		cbz	r2, .L162
 2073              	.L147:
 2074 0068 0224     		movs	r4, #2
 2075 006a 0429     		cmp	r1, #4
 2076 006c 1746     		mov	r7, r2
 2077 006e 80F83D40 		strb	r4, [r0, #61]
 2078 0072 0D46     		mov	r5, r1
 2079 0074 0646     		mov	r6, r0
 2080 0076 0268     		ldr	r2, [r0]
 2081 0078 D2D1     		bne	.L163
 2082              	.L148:
 2083 007a 806A     		ldr	r0, [r0, #40]
 2084 007c 1E4C     		ldr	r4, .L164
 2085 007e DFF880C0 		ldr	ip, .L164+8
 2086 0082 8462     		str	r4, [r0, #40]
 2087 0084 1D4C     		ldr	r4, .L164+4
 2088 0086 3832     		adds	r2, r2, #56
ARM GAS  /var/folders/20/cstyxln53wn53rr40gj353bh0000gn/T//ccV5XGPK.s 			page 77


 2089 0088 3946     		mov	r1, r7
 2090 008a C0E90BC4 		strd	ip, r4, [r0, #44]
 2091 008e FFF7FEFF 		bl	HAL_DMA_Start_IT
 2092 0092 D0B9     		cbnz	r0, .L151
 2093 0094 3268     		ldr	r2, [r6]
 2094 0096 D368     		ldr	r3, [r2, #12]
 2095 0098 43F48063 		orr	r3, r3, #1024
 2096 009c D360     		str	r3, [r2, #12]
 2097 009e C3E7     		b	.L150
 2098              	.L161:
 2099 00a0 406A     		ldr	r0, [r0, #36]
 2100 00a2 154C     		ldr	r4, .L164
 2101 00a4 DFF858C0 		ldr	ip, .L164+8
 2102 00a8 8462     		str	r4, [r0, #40]
 2103 00aa 144C     		ldr	r4, .L164+4
 2104 00ac 3432     		adds	r2, r2, #52
 2105 00ae 3946     		mov	r1, r7
 2106 00b0 C0E90BC4 		strd	ip, r4, [r0, #44]
 2107 00b4 FFF7FEFF 		bl	HAL_DMA_Start_IT
 2108 00b8 38B9     		cbnz	r0, .L151
 2109 00ba 3268     		ldr	r2, [r6]
 2110 00bc D368     		ldr	r3, [r2, #12]
 2111 00be 43F40073 		orr	r3, r3, #512
 2112 00c2 D360     		str	r3, [r2, #12]
 2113 00c4 B0E7     		b	.L150
 2114              	.L162:
 2115 00c6 002B     		cmp	r3, #0
 2116 00c8 CED0     		beq	.L147
 2117              	.L151:
 2118 00ca 0126     		movs	r6, #1
 2119 00cc 3046     		mov	r0, r6
 2120 00ce F8BD     		pop	{r3, r4, r5, r6, r7, pc}
 2121              	.L149:
 2122 00d0 C06A     		ldr	r0, [r0, #44]
 2123 00d2 094C     		ldr	r4, .L164
 2124 00d4 DFF828C0 		ldr	ip, .L164+8
 2125 00d8 8462     		str	r4, [r0, #40]
 2126 00da 084C     		ldr	r4, .L164+4
 2127 00dc 3C32     		adds	r2, r2, #60
 2128 00de 3946     		mov	r1, r7
 2129 00e0 C0E90BC4 		strd	ip, r4, [r0, #44]
 2130 00e4 FFF7FEFF 		bl	HAL_DMA_Start_IT
 2131 00e8 0028     		cmp	r0, #0
 2132 00ea EED1     		bne	.L151
 2133 00ec 3268     		ldr	r2, [r6]
 2134 00ee D368     		ldr	r3, [r2, #12]
 2135 00f0 43F40063 		orr	r3, r3, #2048
 2136 00f4 D360     		str	r3, [r2, #12]
 2137 00f6 97E7     		b	.L150
 2138              	.L165:
 2139              		.align	2
 2140              	.L164:
 2141 00f8 00000000 		.word	TIM_DMADelayPulseCplt
 2142 00fc 00000000 		.word	TIM_DMAError
 2143 0100 00000000 		.word	TIM_DMADelayPulseHalfCplt
 2144              		.cfi_endproc
 2145              	.LFE123:
ARM GAS  /var/folders/20/cstyxln53wn53rr40gj353bh0000gn/T//ccV5XGPK.s 			page 78


 2147              		.section	.text.HAL_TIMEx_PWMN_Stop_DMA,"ax",%progbits
 2148              		.align	1
 2149              		.p2align 2,,3
 2150              		.global	HAL_TIMEx_PWMN_Stop_DMA
 2151              		.syntax unified
 2152              		.thumb
 2153              		.thumb_func
 2154              		.fpu softvfp
 2156              	HAL_TIMEx_PWMN_Stop_DMA:
 2157              	.LFB125:
 2158              		.cfi_startproc
 2159              		@ args = 0, pretend = 0, frame = 0
 2160              		@ frame_needed = 0, uses_anonymous_args = 0
 2161 0000 0429     		cmp	r1, #4
 2162 0002 38B5     		push	{r3, r4, r5, lr}
 2163              	.LCFI27:
 2164              		.cfi_def_cfa_offset 16
 2165              		.cfi_offset 3, -16
 2166              		.cfi_offset 4, -12
 2167              		.cfi_offset 5, -8
 2168              		.cfi_offset 14, -4
 2169 0004 0546     		mov	r5, r0
 2170 0006 0C46     		mov	r4, r1
 2171 0008 0368     		ldr	r3, [r0]
 2172 000a 41D0     		beq	.L167
 2173 000c 0829     		cmp	r1, #8
 2174 000e 36D0     		beq	.L168
 2175 0010 61B3     		cbz	r1, .L173
 2176              	.L169:
 2177 0012 0421     		movs	r1, #4
 2178 0014 41F21110 		movw	r0, #4369
 2179 0018 1A6A     		ldr	r2, [r3, #32]
 2180 001a 04F01F04 		and	r4, r4, #31
 2181 001e 01FA04F4 		lsl	r4, r1, r4
 2182 0022 22EA0404 		bic	r4, r2, r4
 2183 0026 1C62     		str	r4, [r3, #32]
 2184 0028 1A6A     		ldr	r2, [r3, #32]
 2185 002a 1A62     		str	r2, [r3, #32]
 2186 002c 1A6A     		ldr	r2, [r3, #32]
 2187 002e 0242     		tst	r2, r0
 2188 0030 04D1     		bne	.L170
 2189 0032 40F24442 		movw	r2, #1092
 2190 0036 196A     		ldr	r1, [r3, #32]
 2191 0038 1142     		tst	r1, r2
 2192 003a 12D0     		beq	.L174
 2193              	.L170:
 2194 003c 41F21112 		movw	r2, #4369
 2195 0040 196A     		ldr	r1, [r3, #32]
 2196 0042 1142     		tst	r1, r2
 2197 0044 08D1     		bne	.L171
 2198 0046 40F24442 		movw	r2, #1092
 2199 004a 196A     		ldr	r1, [r3, #32]
 2200 004c 1142     		tst	r1, r2
 2201 004e 03D1     		bne	.L171
 2202 0050 1A68     		ldr	r2, [r3]
 2203 0052 22F00102 		bic	r2, r2, #1
 2204 0056 1A60     		str	r2, [r3]
ARM GAS  /var/folders/20/cstyxln53wn53rr40gj353bh0000gn/T//ccV5XGPK.s 			page 79


 2205              	.L171:
 2206 0058 0123     		movs	r3, #1
 2207 005a 0020     		movs	r0, #0
 2208 005c 85F83D30 		strb	r3, [r5, #61]
 2209 0060 38BD     		pop	{r3, r4, r5, pc}
 2210              	.L174:
 2211 0062 5A6C     		ldr	r2, [r3, #68]
 2212 0064 22F40042 		bic	r2, r2, #32768
 2213 0068 5A64     		str	r2, [r3, #68]
 2214 006a E7E7     		b	.L170
 2215              	.L173:
 2216 006c DA68     		ldr	r2, [r3, #12]
 2217 006e 406A     		ldr	r0, [r0, #36]
 2218 0070 22F40072 		bic	r2, r2, #512
 2219 0074 DA60     		str	r2, [r3, #12]
 2220 0076 FFF7FEFF 		bl	HAL_DMA_Abort_IT
 2221 007a 2B68     		ldr	r3, [r5]
 2222 007c C9E7     		b	.L169
 2223              	.L168:
 2224 007e DA68     		ldr	r2, [r3, #12]
 2225 0080 C06A     		ldr	r0, [r0, #44]
 2226 0082 22F40062 		bic	r2, r2, #2048
 2227 0086 DA60     		str	r2, [r3, #12]
 2228 0088 FFF7FEFF 		bl	HAL_DMA_Abort_IT
 2229 008c 2B68     		ldr	r3, [r5]
 2230 008e C0E7     		b	.L169
 2231              	.L167:
 2232 0090 DA68     		ldr	r2, [r3, #12]
 2233 0092 806A     		ldr	r0, [r0, #40]
 2234 0094 22F48062 		bic	r2, r2, #1024
 2235 0098 DA60     		str	r2, [r3, #12]
 2236 009a FFF7FEFF 		bl	HAL_DMA_Abort_IT
 2237 009e 2B68     		ldr	r3, [r5]
 2238 00a0 B7E7     		b	.L169
 2239              		.cfi_endproc
 2240              	.LFE125:
 2242 00a2 00BF     		.section	.text.HAL_TIMEx_OnePulseN_Start,"ax",%progbits
 2243              		.align	1
 2244              		.p2align 2,,3
 2245              		.global	HAL_TIMEx_OnePulseN_Start
 2246              		.syntax unified
 2247              		.thumb
 2248              		.thumb_func
 2249              		.fpu softvfp
 2251              	HAL_TIMEx_OnePulseN_Start:
 2252              	.LVL132:
 2253              	.LFB87:
1313:Drivers/STM32F1xx_HAL_Driver/Src/stm32f1xx_hal_tim_ex.c ****   /* Check the parameters */
 2254              		.loc 1 1313 1 view -0
 2255              		.cfi_startproc
 2256              		@ args = 0, pretend = 0, frame = 0
 2257              		@ frame_needed = 0, uses_anonymous_args = 0
 2258              		@ link register save eliminated.
1315:Drivers/STM32F1xx_HAL_Driver/Src/stm32f1xx_hal_tim_ex.c **** 
 2259              		.loc 1 1315 3 view .LVU528
1318:Drivers/STM32F1xx_HAL_Driver/Src/stm32f1xx_hal_tim_ex.c **** 
 2260              		.loc 1 1318 3 view .LVU529
ARM GAS  /var/folders/20/cstyxln53wn53rr40gj353bh0000gn/T//ccV5XGPK.s 			page 80


 2261              	.LBB70:
 2262              	.LBB71:
1900:Drivers/STM32F1xx_HAL_Driver/Src/stm32f1xx_hal_tim_ex.c **** 
 2263              		.loc 1 1900 7 is_stmt 0 view .LVU530
 2264 0000 0422     		movs	r2, #4
 2265              	.LBE71:
 2266              	.LBE70:
1318:Drivers/STM32F1xx_HAL_Driver/Src/stm32f1xx_hal_tim_ex.c **** 
 2267              		.loc 1 1318 3 view .LVU531
 2268 0002 0368     		ldr	r3, [r0]
 2269              	.LVL133:
 2270              	.LBB74:
 2271              	.LBI70:
1896:Drivers/STM32F1xx_HAL_Driver/Src/stm32f1xx_hal_tim_ex.c **** {
 2272              		.loc 1 1896 13 is_stmt 1 view .LVU532
 2273              	.LBB72:
1898:Drivers/STM32F1xx_HAL_Driver/Src/stm32f1xx_hal_tim_ex.c **** 
 2274              		.loc 1 1898 3 view .LVU533
1900:Drivers/STM32F1xx_HAL_Driver/Src/stm32f1xx_hal_tim_ex.c **** 
 2275              		.loc 1 1900 3 view .LVU534
1900:Drivers/STM32F1xx_HAL_Driver/Src/stm32f1xx_hal_tim_ex.c **** 
 2276              		.loc 1 1900 36 is_stmt 0 view .LVU535
 2277 0004 01F01F01 		and	r1, r1, #31
 2278              	.LVL134:
1903:Drivers/STM32F1xx_HAL_Driver/Src/stm32f1xx_hal_tim_ex.c **** 
 2279              		.loc 1 1903 14 view .LVU536
 2280 0008 186A     		ldr	r0, [r3, #32]
 2281              	.LVL135:
1900:Drivers/STM32F1xx_HAL_Driver/Src/stm32f1xx_hal_tim_ex.c **** 
 2282              		.loc 1 1900 7 view .LVU537
 2283 000a 02FA01F1 		lsl	r1, r2, r1
 2284              	.LVL136:
1903:Drivers/STM32F1xx_HAL_Driver/Src/stm32f1xx_hal_tim_ex.c **** 
 2285              		.loc 1 1903 3 is_stmt 1 view .LVU538
1903:Drivers/STM32F1xx_HAL_Driver/Src/stm32f1xx_hal_tim_ex.c **** 
 2286              		.loc 1 1903 14 is_stmt 0 view .LVU539
 2287 000e 20EA0100 		bic	r0, r0, r1
 2288 0012 1862     		str	r0, [r3, #32]
 2289              		.loc 1 1906 3 is_stmt 1 view .LVU540
 2290              		.loc 1 1906 14 is_stmt 0 view .LVU541
 2291 0014 1A6A     		ldr	r2, [r3, #32]
 2292              	.LBE72:
 2293              	.LBE74:
1325:Drivers/STM32F1xx_HAL_Driver/Src/stm32f1xx_hal_tim_ex.c **** 
 2294              		.loc 1 1325 1 view .LVU542
 2295 0016 0020     		movs	r0, #0
 2296              	.LBB75:
 2297              	.LBB73:
 2298              		.loc 1 1906 14 view .LVU543
 2299 0018 1143     		orrs	r1, r1, r2
 2300              	.LVL137:
 2301              		.loc 1 1906 14 view .LVU544
 2302 001a 1962     		str	r1, [r3, #32]
 2303              	.LVL138:
 2304              		.loc 1 1906 14 view .LVU545
 2305              	.LBE73:
 2306              	.LBE75:
ARM GAS  /var/folders/20/cstyxln53wn53rr40gj353bh0000gn/T//ccV5XGPK.s 			page 81


1321:Drivers/STM32F1xx_HAL_Driver/Src/stm32f1xx_hal_tim_ex.c **** 
 2307              		.loc 1 1321 3 is_stmt 1 view .LVU546
 2308 001c 5A6C     		ldr	r2, [r3, #68]
 2309 001e 42F40042 		orr	r2, r2, #32768
 2310 0022 5A64     		str	r2, [r3, #68]
1324:Drivers/STM32F1xx_HAL_Driver/Src/stm32f1xx_hal_tim_ex.c **** }
 2311              		.loc 1 1324 3 view .LVU547
1325:Drivers/STM32F1xx_HAL_Driver/Src/stm32f1xx_hal_tim_ex.c **** 
 2312              		.loc 1 1325 1 is_stmt 0 view .LVU548
 2313 0024 7047     		bx	lr
 2314              		.cfi_endproc
 2315              	.LFE87:
 2317 0026 00BF     		.section	.text.HAL_TIMEx_OnePulseN_Stop,"ax",%progbits
 2318              		.align	1
 2319              		.p2align 2,,3
 2320              		.global	HAL_TIMEx_OnePulseN_Stop
 2321              		.syntax unified
 2322              		.thumb
 2323              		.thumb_func
 2324              		.fpu softvfp
 2326              	HAL_TIMEx_OnePulseN_Stop:
 2327              	.LFB117:
 2328              		.cfi_startproc
 2329              		@ args = 0, pretend = 0, frame = 0
 2330              		@ frame_needed = 0, uses_anonymous_args = 0
 2331              		@ link register save eliminated.
 2332 0000 30B4     		push	{r4, r5}
 2333              	.LCFI28:
 2334              		.cfi_def_cfa_offset 8
 2335              		.cfi_offset 4, -8
 2336              		.cfi_offset 5, -4
 2337 0002 0424     		movs	r4, #4
 2338 0004 41F21115 		movw	r5, #4369
 2339 0008 0368     		ldr	r3, [r0]
 2340 000a 01F01F01 		and	r1, r1, #31
 2341 000e 1A6A     		ldr	r2, [r3, #32]
 2342 0010 8C40     		lsls	r4, r4, r1
 2343 0012 22EA0402 		bic	r2, r2, r4
 2344 0016 1A62     		str	r2, [r3, #32]
 2345 0018 1A6A     		ldr	r2, [r3, #32]
 2346 001a 1A62     		str	r2, [r3, #32]
 2347 001c 1A6A     		ldr	r2, [r3, #32]
 2348 001e 2A42     		tst	r2, r5
 2349 0020 04D1     		bne	.L177
 2350 0022 40F24442 		movw	r2, #1092
 2351 0026 196A     		ldr	r1, [r3, #32]
 2352 0028 1142     		tst	r1, r2
 2353 002a 10D0     		beq	.L180
 2354              	.L177:
 2355 002c 41F21112 		movw	r2, #4369
 2356 0030 196A     		ldr	r1, [r3, #32]
 2357 0032 1142     		tst	r1, r2
 2358 0034 08D1     		bne	.L178
 2359 0036 40F24442 		movw	r2, #1092
 2360 003a 196A     		ldr	r1, [r3, #32]
 2361 003c 1142     		tst	r1, r2
 2362 003e 03D1     		bne	.L178
ARM GAS  /var/folders/20/cstyxln53wn53rr40gj353bh0000gn/T//ccV5XGPK.s 			page 82


 2363 0040 1A68     		ldr	r2, [r3]
 2364 0042 22F00102 		bic	r2, r2, #1
 2365 0046 1A60     		str	r2, [r3]
 2366              	.L178:
 2367 0048 0020     		movs	r0, #0
 2368 004a 30BC     		pop	{r4, r5}
 2369              	.LCFI29:
 2370              		.cfi_remember_state
 2371              		.cfi_restore 5
 2372              		.cfi_restore 4
 2373              		.cfi_def_cfa_offset 0
 2374 004c 7047     		bx	lr
 2375              	.L180:
 2376              	.LCFI30:
 2377              		.cfi_restore_state
 2378 004e 5A6C     		ldr	r2, [r3, #68]
 2379 0050 22F40042 		bic	r2, r2, #32768
 2380 0054 5A64     		str	r2, [r3, #68]
 2381 0056 E9E7     		b	.L177
 2382              		.cfi_endproc
 2383              	.LFE117:
 2385              		.section	.text.HAL_TIMEx_OnePulseN_Start_IT,"ax",%progbits
 2386              		.align	1
 2387              		.p2align 2,,3
 2388              		.global	HAL_TIMEx_OnePulseN_Start_IT
 2389              		.syntax unified
 2390              		.thumb
 2391              		.thumb_func
 2392              		.fpu softvfp
 2394              	HAL_TIMEx_OnePulseN_Start_IT:
 2395              	.LVL139:
 2396              	.LFB89:
1367:Drivers/STM32F1xx_HAL_Driver/Src/stm32f1xx_hal_tim_ex.c ****   /* Check the parameters */
 2397              		.loc 1 1367 1 is_stmt 1 view -0
 2398              		.cfi_startproc
 2399              		@ args = 0, pretend = 0, frame = 0
 2400              		@ frame_needed = 0, uses_anonymous_args = 0
 2401              		@ link register save eliminated.
1369:Drivers/STM32F1xx_HAL_Driver/Src/stm32f1xx_hal_tim_ex.c **** 
 2402              		.loc 1 1369 3 view .LVU550
1372:Drivers/STM32F1xx_HAL_Driver/Src/stm32f1xx_hal_tim_ex.c **** 
 2403              		.loc 1 1372 3 view .LVU551
 2404              	.LBB76:
 2405              	.LBB77:
1900:Drivers/STM32F1xx_HAL_Driver/Src/stm32f1xx_hal_tim_ex.c **** 
 2406              		.loc 1 1900 7 is_stmt 0 view .LVU552
 2407 0000 0422     		movs	r2, #4
 2408              	.LBE77:
 2409              	.LBE76:
1372:Drivers/STM32F1xx_HAL_Driver/Src/stm32f1xx_hal_tim_ex.c **** 
 2410              		.loc 1 1372 3 view .LVU553
 2411 0002 0368     		ldr	r3, [r0]
 2412              	.LBB81:
 2413              	.LBB78:
1900:Drivers/STM32F1xx_HAL_Driver/Src/stm32f1xx_hal_tim_ex.c **** 
 2414              		.loc 1 1900 36 view .LVU554
 2415 0004 01F01F01 		and	r1, r1, #31
ARM GAS  /var/folders/20/cstyxln53wn53rr40gj353bh0000gn/T//ccV5XGPK.s 			page 83


 2416              	.LVL140:
1900:Drivers/STM32F1xx_HAL_Driver/Src/stm32f1xx_hal_tim_ex.c **** 
 2417              		.loc 1 1900 36 view .LVU555
 2418              	.LBE78:
 2419              	.LBE81:
1372:Drivers/STM32F1xx_HAL_Driver/Src/stm32f1xx_hal_tim_ex.c **** 
 2420              		.loc 1 1372 3 view .LVU556
 2421 0008 D868     		ldr	r0, [r3, #12]
 2422              	.LVL141:
 2423              	.LBB82:
 2424              	.LBB79:
1900:Drivers/STM32F1xx_HAL_Driver/Src/stm32f1xx_hal_tim_ex.c **** 
 2425              		.loc 1 1900 7 view .LVU557
 2426 000a 02FA01F1 		lsl	r1, r2, r1
 2427              	.LBE79:
 2428              	.LBE82:
1372:Drivers/STM32F1xx_HAL_Driver/Src/stm32f1xx_hal_tim_ex.c **** 
 2429              		.loc 1 1372 3 view .LVU558
 2430 000e 40F00200 		orr	r0, r0, #2
 2431 0012 D860     		str	r0, [r3, #12]
1375:Drivers/STM32F1xx_HAL_Driver/Src/stm32f1xx_hal_tim_ex.c **** 
 2432              		.loc 1 1375 3 is_stmt 1 view .LVU559
 2433 0014 DA68     		ldr	r2, [r3, #12]
1385:Drivers/STM32F1xx_HAL_Driver/Src/stm32f1xx_hal_tim_ex.c **** 
 2434              		.loc 1 1385 1 is_stmt 0 view .LVU560
 2435 0016 0020     		movs	r0, #0
1375:Drivers/STM32F1xx_HAL_Driver/Src/stm32f1xx_hal_tim_ex.c **** 
 2436              		.loc 1 1375 3 view .LVU561
 2437 0018 42F00402 		orr	r2, r2, #4
 2438 001c DA60     		str	r2, [r3, #12]
1378:Drivers/STM32F1xx_HAL_Driver/Src/stm32f1xx_hal_tim_ex.c **** 
 2439              		.loc 1 1378 3 is_stmt 1 view .LVU562
 2440              	.LVL142:
 2441              	.LBB83:
 2442              	.LBI76:
1896:Drivers/STM32F1xx_HAL_Driver/Src/stm32f1xx_hal_tim_ex.c **** {
 2443              		.loc 1 1896 13 view .LVU563
 2444              	.LBB80:
1898:Drivers/STM32F1xx_HAL_Driver/Src/stm32f1xx_hal_tim_ex.c **** 
 2445              		.loc 1 1898 3 view .LVU564
1900:Drivers/STM32F1xx_HAL_Driver/Src/stm32f1xx_hal_tim_ex.c **** 
 2446              		.loc 1 1900 3 view .LVU565
1903:Drivers/STM32F1xx_HAL_Driver/Src/stm32f1xx_hal_tim_ex.c **** 
 2447              		.loc 1 1903 3 view .LVU566
1903:Drivers/STM32F1xx_HAL_Driver/Src/stm32f1xx_hal_tim_ex.c **** 
 2448              		.loc 1 1903 14 is_stmt 0 view .LVU567
 2449 001e 1A6A     		ldr	r2, [r3, #32]
 2450 0020 22EA0102 		bic	r2, r2, r1
 2451 0024 1A62     		str	r2, [r3, #32]
 2452              		.loc 1 1906 3 is_stmt 1 view .LVU568
 2453              		.loc 1 1906 14 is_stmt 0 view .LVU569
 2454 0026 1A6A     		ldr	r2, [r3, #32]
 2455 0028 1143     		orrs	r1, r1, r2
 2456              	.LVL143:
 2457              		.loc 1 1906 14 view .LVU570
 2458 002a 1962     		str	r1, [r3, #32]
 2459              	.LVL144:
ARM GAS  /var/folders/20/cstyxln53wn53rr40gj353bh0000gn/T//ccV5XGPK.s 			page 84


 2460              		.loc 1 1906 14 view .LVU571
 2461              	.LBE80:
 2462              	.LBE83:
1381:Drivers/STM32F1xx_HAL_Driver/Src/stm32f1xx_hal_tim_ex.c **** 
 2463              		.loc 1 1381 3 is_stmt 1 view .LVU572
 2464 002c 5A6C     		ldr	r2, [r3, #68]
 2465 002e 42F40042 		orr	r2, r2, #32768
 2466 0032 5A64     		str	r2, [r3, #68]
1384:Drivers/STM32F1xx_HAL_Driver/Src/stm32f1xx_hal_tim_ex.c **** }
 2467              		.loc 1 1384 3 view .LVU573
1385:Drivers/STM32F1xx_HAL_Driver/Src/stm32f1xx_hal_tim_ex.c **** 
 2468              		.loc 1 1385 1 is_stmt 0 view .LVU574
 2469 0034 7047     		bx	lr
 2470              		.cfi_endproc
 2471              	.LFE89:
 2473 0036 00BF     		.section	.text.HAL_TIMEx_OnePulseN_Stop_IT,"ax",%progbits
 2474              		.align	1
 2475              		.p2align 2,,3
 2476              		.global	HAL_TIMEx_OnePulseN_Stop_IT
 2477              		.syntax unified
 2478              		.thumb
 2479              		.thumb_func
 2480              		.fpu softvfp
 2482              	HAL_TIMEx_OnePulseN_Stop_IT:
 2483              	.LVL145:
 2484              	.LFB90:
1398:Drivers/STM32F1xx_HAL_Driver/Src/stm32f1xx_hal_tim_ex.c ****   /* Check the parameters */
 2485              		.loc 1 1398 1 is_stmt 1 view -0
 2486              		.cfi_startproc
 2487              		@ args = 0, pretend = 0, frame = 0
 2488              		@ frame_needed = 0, uses_anonymous_args = 0
 2489              		@ link register save eliminated.
1400:Drivers/STM32F1xx_HAL_Driver/Src/stm32f1xx_hal_tim_ex.c **** 
 2490              		.loc 1 1400 3 view .LVU576
1403:Drivers/STM32F1xx_HAL_Driver/Src/stm32f1xx_hal_tim_ex.c **** 
 2491              		.loc 1 1403 3 view .LVU577
 2492              	.LBB84:
 2493              	.LBB85:
1900:Drivers/STM32F1xx_HAL_Driver/Src/stm32f1xx_hal_tim_ex.c **** 
 2494              		.loc 1 1900 7 is_stmt 0 view .LVU578
 2495 0000 0422     		movs	r2, #4
 2496              	.LBE85:
 2497              	.LBE84:
1398:Drivers/STM32F1xx_HAL_Driver/Src/stm32f1xx_hal_tim_ex.c ****   /* Check the parameters */
 2498              		.loc 1 1398 1 view .LVU579
 2499 0002 10B4     		push	{r4}
 2500              	.LCFI31:
 2501              		.cfi_def_cfa_offset 4
 2502              		.cfi_offset 4, -4
1412:Drivers/STM32F1xx_HAL_Driver/Src/stm32f1xx_hal_tim_ex.c **** 
 2503              		.loc 1 1412 3 view .LVU580
 2504 0004 41F21114 		movw	r4, #4369
1403:Drivers/STM32F1xx_HAL_Driver/Src/stm32f1xx_hal_tim_ex.c **** 
 2505              		.loc 1 1403 3 view .LVU581
 2506 0008 0368     		ldr	r3, [r0]
 2507              	.LBB89:
 2508              	.LBB86:
ARM GAS  /var/folders/20/cstyxln53wn53rr40gj353bh0000gn/T//ccV5XGPK.s 			page 85


1900:Drivers/STM32F1xx_HAL_Driver/Src/stm32f1xx_hal_tim_ex.c **** 
 2509              		.loc 1 1900 36 view .LVU582
 2510 000a 01F01F01 		and	r1, r1, #31
 2511              	.LVL146:
1900:Drivers/STM32F1xx_HAL_Driver/Src/stm32f1xx_hal_tim_ex.c **** 
 2512              		.loc 1 1900 36 view .LVU583
 2513              	.LBE86:
 2514              	.LBE89:
1403:Drivers/STM32F1xx_HAL_Driver/Src/stm32f1xx_hal_tim_ex.c **** 
 2515              		.loc 1 1403 3 view .LVU584
 2516 000e D868     		ldr	r0, [r3, #12]
 2517              	.LVL147:
 2518              	.LBB90:
 2519              	.LBB87:
1900:Drivers/STM32F1xx_HAL_Driver/Src/stm32f1xx_hal_tim_ex.c **** 
 2520              		.loc 1 1900 7 view .LVU585
 2521 0010 8A40     		lsls	r2, r2, r1
 2522              	.LBE87:
 2523              	.LBE90:
1403:Drivers/STM32F1xx_HAL_Driver/Src/stm32f1xx_hal_tim_ex.c **** 
 2524              		.loc 1 1403 3 view .LVU586
 2525 0012 20F00200 		bic	r0, r0, #2
 2526 0016 D860     		str	r0, [r3, #12]
1406:Drivers/STM32F1xx_HAL_Driver/Src/stm32f1xx_hal_tim_ex.c **** 
 2527              		.loc 1 1406 3 is_stmt 1 view .LVU587
 2528 0018 D968     		ldr	r1, [r3, #12]
 2529 001a 21F00401 		bic	r1, r1, #4
 2530 001e D960     		str	r1, [r3, #12]
1409:Drivers/STM32F1xx_HAL_Driver/Src/stm32f1xx_hal_tim_ex.c **** 
 2531              		.loc 1 1409 3 view .LVU588
 2532              	.LVL148:
 2533              	.LBB91:
 2534              	.LBI84:
1896:Drivers/STM32F1xx_HAL_Driver/Src/stm32f1xx_hal_tim_ex.c **** {
 2535              		.loc 1 1896 13 view .LVU589
 2536              	.LBB88:
1898:Drivers/STM32F1xx_HAL_Driver/Src/stm32f1xx_hal_tim_ex.c **** 
 2537              		.loc 1 1898 3 view .LVU590
1900:Drivers/STM32F1xx_HAL_Driver/Src/stm32f1xx_hal_tim_ex.c **** 
 2538              		.loc 1 1900 3 view .LVU591
1903:Drivers/STM32F1xx_HAL_Driver/Src/stm32f1xx_hal_tim_ex.c **** 
 2539              		.loc 1 1903 3 view .LVU592
1903:Drivers/STM32F1xx_HAL_Driver/Src/stm32f1xx_hal_tim_ex.c **** 
 2540              		.loc 1 1903 14 is_stmt 0 view .LVU593
 2541 0020 196A     		ldr	r1, [r3, #32]
 2542 0022 21EA0201 		bic	r1, r1, r2
 2543 0026 1962     		str	r1, [r3, #32]
 2544              		.loc 1 1906 3 is_stmt 1 view .LVU594
 2545              		.loc 1 1906 14 is_stmt 0 view .LVU595
 2546 0028 1A6A     		ldr	r2, [r3, #32]
 2547 002a 1A62     		str	r2, [r3, #32]
 2548              	.LVL149:
 2549              		.loc 1 1906 14 view .LVU596
 2550              	.LBE88:
 2551              	.LBE91:
1412:Drivers/STM32F1xx_HAL_Driver/Src/stm32f1xx_hal_tim_ex.c **** 
 2552              		.loc 1 1412 3 is_stmt 1 view .LVU597
ARM GAS  /var/folders/20/cstyxln53wn53rr40gj353bh0000gn/T//ccV5XGPK.s 			page 86


1412:Drivers/STM32F1xx_HAL_Driver/Src/stm32f1xx_hal_tim_ex.c **** 
 2553              		.loc 1 1412 3 view .LVU598
 2554 002c 1A6A     		ldr	r2, [r3, #32]
 2555 002e 2242     		tst	r2, r4
 2556 0030 04D1     		bne	.L183
1412:Drivers/STM32F1xx_HAL_Driver/Src/stm32f1xx_hal_tim_ex.c **** 
 2557              		.loc 1 1412 3 discriminator 1 view .LVU599
 2558 0032 40F24442 		movw	r2, #1092
 2559 0036 196A     		ldr	r1, [r3, #32]
 2560 0038 1142     		tst	r1, r2
 2561 003a 10D0     		beq	.L186
 2562              	.L183:
1415:Drivers/STM32F1xx_HAL_Driver/Src/stm32f1xx_hal_tim_ex.c **** 
 2563              		.loc 1 1415 3 view .LVU600
1415:Drivers/STM32F1xx_HAL_Driver/Src/stm32f1xx_hal_tim_ex.c **** 
 2564              		.loc 1 1415 3 view .LVU601
 2565 003c 41F21112 		movw	r2, #4369
 2566 0040 196A     		ldr	r1, [r3, #32]
 2567 0042 1142     		tst	r1, r2
 2568 0044 08D1     		bne	.L184
1415:Drivers/STM32F1xx_HAL_Driver/Src/stm32f1xx_hal_tim_ex.c **** 
 2569              		.loc 1 1415 3 discriminator 1 view .LVU602
 2570 0046 40F24442 		movw	r2, #1092
 2571 004a 196A     		ldr	r1, [r3, #32]
 2572 004c 1142     		tst	r1, r2
 2573 004e 03D1     		bne	.L184
1415:Drivers/STM32F1xx_HAL_Driver/Src/stm32f1xx_hal_tim_ex.c **** 
 2574              		.loc 1 1415 3 discriminator 2 view .LVU603
 2575 0050 1A68     		ldr	r2, [r3]
 2576 0052 22F00102 		bic	r2, r2, #1
 2577 0056 1A60     		str	r2, [r3]
 2578              	.L184:
1418:Drivers/STM32F1xx_HAL_Driver/Src/stm32f1xx_hal_tim_ex.c **** }
 2579              		.loc 1 1418 3 view .LVU604
1419:Drivers/STM32F1xx_HAL_Driver/Src/stm32f1xx_hal_tim_ex.c **** 
 2580              		.loc 1 1419 1 is_stmt 0 view .LVU605
 2581 0058 0020     		movs	r0, #0
 2582 005a 10BC     		pop	{r4}
 2583              	.LCFI32:
 2584              		.cfi_remember_state
 2585              		.cfi_restore 4
 2586              		.cfi_def_cfa_offset 0
 2587 005c 7047     		bx	lr
 2588              	.L186:
 2589              	.LCFI33:
 2590              		.cfi_restore_state
1412:Drivers/STM32F1xx_HAL_Driver/Src/stm32f1xx_hal_tim_ex.c **** 
 2591              		.loc 1 1412 3 is_stmt 1 discriminator 2 view .LVU606
 2592 005e 5A6C     		ldr	r2, [r3, #68]
 2593 0060 22F40042 		bic	r2, r2, #32768
 2594 0064 5A64     		str	r2, [r3, #68]
 2595 0066 E9E7     		b	.L183
 2596              		.cfi_endproc
 2597              	.LFE90:
 2599              		.section	.text.HAL_TIMEx_ConfigCommutEvent,"ax",%progbits
 2600              		.align	1
 2601              		.p2align 2,,3
ARM GAS  /var/folders/20/cstyxln53wn53rr40gj353bh0000gn/T//ccV5XGPK.s 			page 87


 2602              		.global	HAL_TIMEx_ConfigCommutEvent
 2603              		.syntax unified
 2604              		.thumb
 2605              		.thumb_func
 2606              		.fpu softvfp
 2608              	HAL_TIMEx_ConfigCommutEvent:
 2609              	.LVL150:
 2610              	.LFB91:
1469:Drivers/STM32F1xx_HAL_Driver/Src/stm32f1xx_hal_tim_ex.c ****   /* Check the parameters */
 2611              		.loc 1 1469 1 view -0
 2612              		.cfi_startproc
 2613              		@ args = 0, pretend = 0, frame = 0
 2614              		@ frame_needed = 0, uses_anonymous_args = 0
 2615              		@ link register save eliminated.
1471:Drivers/STM32F1xx_HAL_Driver/Src/stm32f1xx_hal_tim_ex.c ****   assert_param(IS_TIM_INTERNAL_TRIGGEREVENT_SELECTION(InputTrigger));
 2616              		.loc 1 1471 3 view .LVU608
1472:Drivers/STM32F1xx_HAL_Driver/Src/stm32f1xx_hal_tim_ex.c **** 
 2617              		.loc 1 1472 3 view .LVU609
1474:Drivers/STM32F1xx_HAL_Driver/Src/stm32f1xx_hal_tim_ex.c **** 
 2618              		.loc 1 1474 3 view .LVU610
1474:Drivers/STM32F1xx_HAL_Driver/Src/stm32f1xx_hal_tim_ex.c **** 
 2619              		.loc 1 1474 3 view .LVU611
 2620 0000 90F83C30 		ldrb	r3, [r0, #60]	@ zero_extendqisi2
1469:Drivers/STM32F1xx_HAL_Driver/Src/stm32f1xx_hal_tim_ex.c ****   /* Check the parameters */
 2621              		.loc 1 1469 1 is_stmt 0 view .LVU612
 2622 0004 70B4     		push	{r4, r5, r6}
 2623              	.LCFI34:
 2624              		.cfi_def_cfa_offset 12
 2625              		.cfi_offset 4, -12
 2626              		.cfi_offset 5, -8
 2627              		.cfi_offset 6, -4
1474:Drivers/STM32F1xx_HAL_Driver/Src/stm32f1xx_hal_tim_ex.c **** 
 2628              		.loc 1 1474 3 view .LVU613
 2629 0006 012B     		cmp	r3, #1
 2630 0008 28D0     		beq	.L190
1474:Drivers/STM32F1xx_HAL_Driver/Src/stm32f1xx_hal_tim_ex.c **** 
 2631              		.loc 1 1474 3 is_stmt 1 discriminator 2 view .LVU614
 2632 000a 0124     		movs	r4, #1
 2633 000c 80F83C40 		strb	r4, [r0, #60]
1476:Drivers/STM32F1xx_HAL_Driver/Src/stm32f1xx_hal_tim_ex.c ****       (InputTrigger == TIM_TS_ITR2) || (InputTrigger == TIM_TS_ITR3))
 2634              		.loc 1 1476 3 discriminator 2 view .LVU615
1476:Drivers/STM32F1xx_HAL_Driver/Src/stm32f1xx_hal_tim_ex.c ****       (InputTrigger == TIM_TS_ITR2) || (InputTrigger == TIM_TS_ITR3))
 2635              		.loc 1 1476 6 is_stmt 0 discriminator 2 view .LVU616
 2636 0010 31F03004 		bics	r4, r1, #48
 2637 0014 0368     		ldr	r3, [r0]
 2638 0016 19D0     		beq	.L192
 2639              	.L189:
1485:Drivers/STM32F1xx_HAL_Driver/Src/stm32f1xx_hal_tim_ex.c ****   /* Select the Commutation event source */
 2640              		.loc 1 1485 3 is_stmt 1 view .LVU617
1496:Drivers/STM32F1xx_HAL_Driver/Src/stm32f1xx_hal_tim_ex.c **** 
 2641              		.loc 1 1496 3 is_stmt 0 view .LVU618
 2642 0018 0025     		movs	r5, #0
1498:Drivers/STM32F1xx_HAL_Driver/Src/stm32f1xx_hal_tim_ex.c **** }
 2643              		.loc 1 1498 10 view .LVU619
 2644 001a 2E46     		mov	r6, r5
1485:Drivers/STM32F1xx_HAL_Driver/Src/stm32f1xx_hal_tim_ex.c ****   /* Select the Commutation event source */
 2645              		.loc 1 1485 23 view .LVU620
ARM GAS  /var/folders/20/cstyxln53wn53rr40gj353bh0000gn/T//ccV5XGPK.s 			page 88


 2646 001c 5C68     		ldr	r4, [r3, #4]
 2647 001e 44F00104 		orr	r4, r4, #1
 2648 0022 5C60     		str	r4, [r3, #4]
1487:Drivers/STM32F1xx_HAL_Driver/Src/stm32f1xx_hal_tim_ex.c ****   htim->Instance->CR2 |= CommutationSource;
 2649              		.loc 1 1487 3 is_stmt 1 view .LVU621
1487:Drivers/STM32F1xx_HAL_Driver/Src/stm32f1xx_hal_tim_ex.c ****   htim->Instance->CR2 |= CommutationSource;
 2650              		.loc 1 1487 23 is_stmt 0 view .LVU622
 2651 0024 5C68     		ldr	r4, [r3, #4]
 2652 0026 24F00404 		bic	r4, r4, #4
 2653 002a 5C60     		str	r4, [r3, #4]
1488:Drivers/STM32F1xx_HAL_Driver/Src/stm32f1xx_hal_tim_ex.c **** 
 2654              		.loc 1 1488 3 is_stmt 1 view .LVU623
1488:Drivers/STM32F1xx_HAL_Driver/Src/stm32f1xx_hal_tim_ex.c **** 
 2655              		.loc 1 1488 23 is_stmt 0 view .LVU624
 2656 002c 5968     		ldr	r1, [r3, #4]
 2657              	.LVL151:
1488:Drivers/STM32F1xx_HAL_Driver/Src/stm32f1xx_hal_tim_ex.c **** 
 2658              		.loc 1 1488 23 view .LVU625
 2659 002e 1143     		orrs	r1, r1, r2
 2660 0030 5960     		str	r1, [r3, #4]
1491:Drivers/STM32F1xx_HAL_Driver/Src/stm32f1xx_hal_tim_ex.c **** 
 2661              		.loc 1 1491 3 is_stmt 1 view .LVU626
 2662 0032 DA68     		ldr	r2, [r3, #12]
 2663              	.LVL152:
1491:Drivers/STM32F1xx_HAL_Driver/Src/stm32f1xx_hal_tim_ex.c **** 
 2664              		.loc 1 1491 3 is_stmt 0 view .LVU627
 2665 0034 22F02002 		bic	r2, r2, #32
 2666 0038 DA60     		str	r2, [r3, #12]
1494:Drivers/STM32F1xx_HAL_Driver/Src/stm32f1xx_hal_tim_ex.c **** 
 2667              		.loc 1 1494 3 is_stmt 1 view .LVU628
 2668 003a DA68     		ldr	r2, [r3, #12]
 2669 003c 22F40052 		bic	r2, r2, #8192
 2670 0040 DA60     		str	r2, [r3, #12]
1496:Drivers/STM32F1xx_HAL_Driver/Src/stm32f1xx_hal_tim_ex.c **** 
 2671              		.loc 1 1496 3 view .LVU629
1496:Drivers/STM32F1xx_HAL_Driver/Src/stm32f1xx_hal_tim_ex.c **** 
 2672              		.loc 1 1496 3 view .LVU630
 2673 0042 80F83C50 		strb	r5, [r0, #60]
1498:Drivers/STM32F1xx_HAL_Driver/Src/stm32f1xx_hal_tim_ex.c **** }
 2674              		.loc 1 1498 3 view .LVU631
1499:Drivers/STM32F1xx_HAL_Driver/Src/stm32f1xx_hal_tim_ex.c **** 
 2675              		.loc 1 1499 1 is_stmt 0 view .LVU632
 2676 0046 3046     		mov	r0, r6
 2677              	.LVL153:
1499:Drivers/STM32F1xx_HAL_Driver/Src/stm32f1xx_hal_tim_ex.c **** 
 2678              		.loc 1 1499 1 view .LVU633
 2679 0048 70BC     		pop	{r4, r5, r6}
 2680              	.LCFI35:
 2681              		.cfi_remember_state
 2682              		.cfi_restore 6
 2683              		.cfi_restore 5
 2684              		.cfi_restore 4
 2685              		.cfi_def_cfa_offset 0
 2686 004a 7047     		bx	lr
 2687              	.LVL154:
 2688              	.L192:
 2689              	.LCFI36:
ARM GAS  /var/folders/20/cstyxln53wn53rr40gj353bh0000gn/T//ccV5XGPK.s 			page 89


 2690              		.cfi_restore_state
1480:Drivers/STM32F1xx_HAL_Driver/Src/stm32f1xx_hal_tim_ex.c ****     htim->Instance->SMCR |= InputTrigger;
 2691              		.loc 1 1480 5 is_stmt 1 view .LVU634
1480:Drivers/STM32F1xx_HAL_Driver/Src/stm32f1xx_hal_tim_ex.c ****     htim->Instance->SMCR |= InputTrigger;
 2692              		.loc 1 1480 26 is_stmt 0 view .LVU635
 2693 004c 9D68     		ldr	r5, [r3, #8]
 2694 004e 25F07005 		bic	r5, r5, #112
 2695 0052 9D60     		str	r5, [r3, #8]
1481:Drivers/STM32F1xx_HAL_Driver/Src/stm32f1xx_hal_tim_ex.c ****   }
 2696              		.loc 1 1481 5 is_stmt 1 view .LVU636
1481:Drivers/STM32F1xx_HAL_Driver/Src/stm32f1xx_hal_tim_ex.c ****   }
 2697              		.loc 1 1481 26 is_stmt 0 view .LVU637
 2698 0054 9C68     		ldr	r4, [r3, #8]
 2699 0056 0C43     		orrs	r4, r4, r1
 2700 0058 9C60     		str	r4, [r3, #8]
 2701 005a DDE7     		b	.L189
 2702              	.L190:
1474:Drivers/STM32F1xx_HAL_Driver/Src/stm32f1xx_hal_tim_ex.c **** 
 2703              		.loc 1 1474 3 view .LVU638
 2704 005c 0226     		movs	r6, #2
1499:Drivers/STM32F1xx_HAL_Driver/Src/stm32f1xx_hal_tim_ex.c **** 
 2705              		.loc 1 1499 1 view .LVU639
 2706 005e 3046     		mov	r0, r6
 2707              	.LVL155:
1499:Drivers/STM32F1xx_HAL_Driver/Src/stm32f1xx_hal_tim_ex.c **** 
 2708              		.loc 1 1499 1 view .LVU640
 2709 0060 70BC     		pop	{r4, r5, r6}
 2710              	.LCFI37:
 2711              		.cfi_restore 6
 2712              		.cfi_restore 5
 2713              		.cfi_restore 4
 2714              		.cfi_def_cfa_offset 0
 2715 0062 7047     		bx	lr
 2716              		.cfi_endproc
 2717              	.LFE91:
 2719              		.section	.text.HAL_TIMEx_ConfigCommutEvent_IT,"ax",%progbits
 2720              		.align	1
 2721              		.p2align 2,,3
 2722              		.global	HAL_TIMEx_ConfigCommutEvent_IT
 2723              		.syntax unified
 2724              		.thumb
 2725              		.thumb_func
 2726              		.fpu softvfp
 2728              	HAL_TIMEx_ConfigCommutEvent_IT:
 2729              	.LVL156:
 2730              	.LFB92:
1525:Drivers/STM32F1xx_HAL_Driver/Src/stm32f1xx_hal_tim_ex.c ****   /* Check the parameters */
 2731              		.loc 1 1525 1 is_stmt 1 view -0
 2732              		.cfi_startproc
 2733              		@ args = 0, pretend = 0, frame = 0
 2734              		@ frame_needed = 0, uses_anonymous_args = 0
 2735              		@ link register save eliminated.
1527:Drivers/STM32F1xx_HAL_Driver/Src/stm32f1xx_hal_tim_ex.c ****   assert_param(IS_TIM_INTERNAL_TRIGGEREVENT_SELECTION(InputTrigger));
 2736              		.loc 1 1527 3 view .LVU642
1528:Drivers/STM32F1xx_HAL_Driver/Src/stm32f1xx_hal_tim_ex.c **** 
 2737              		.loc 1 1528 3 view .LVU643
1530:Drivers/STM32F1xx_HAL_Driver/Src/stm32f1xx_hal_tim_ex.c **** 
ARM GAS  /var/folders/20/cstyxln53wn53rr40gj353bh0000gn/T//ccV5XGPK.s 			page 90


 2738              		.loc 1 1530 3 view .LVU644
1530:Drivers/STM32F1xx_HAL_Driver/Src/stm32f1xx_hal_tim_ex.c **** 
 2739              		.loc 1 1530 3 view .LVU645
 2740 0000 90F83C30 		ldrb	r3, [r0, #60]	@ zero_extendqisi2
1525:Drivers/STM32F1xx_HAL_Driver/Src/stm32f1xx_hal_tim_ex.c ****   /* Check the parameters */
 2741              		.loc 1 1525 1 is_stmt 0 view .LVU646
 2742 0004 70B4     		push	{r4, r5, r6}
 2743              	.LCFI38:
 2744              		.cfi_def_cfa_offset 12
 2745              		.cfi_offset 4, -12
 2746              		.cfi_offset 5, -8
 2747              		.cfi_offset 6, -4
1530:Drivers/STM32F1xx_HAL_Driver/Src/stm32f1xx_hal_tim_ex.c **** 
 2748              		.loc 1 1530 3 view .LVU647
 2749 0006 012B     		cmp	r3, #1
 2750 0008 28D0     		beq	.L196
1530:Drivers/STM32F1xx_HAL_Driver/Src/stm32f1xx_hal_tim_ex.c **** 
 2751              		.loc 1 1530 3 is_stmt 1 discriminator 2 view .LVU648
 2752 000a 0124     		movs	r4, #1
 2753 000c 80F83C40 		strb	r4, [r0, #60]
1532:Drivers/STM32F1xx_HAL_Driver/Src/stm32f1xx_hal_tim_ex.c ****       (InputTrigger == TIM_TS_ITR2) || (InputTrigger == TIM_TS_ITR3))
 2754              		.loc 1 1532 3 discriminator 2 view .LVU649
1532:Drivers/STM32F1xx_HAL_Driver/Src/stm32f1xx_hal_tim_ex.c ****       (InputTrigger == TIM_TS_ITR2) || (InputTrigger == TIM_TS_ITR3))
 2755              		.loc 1 1532 6 is_stmt 0 discriminator 2 view .LVU650
 2756 0010 31F03004 		bics	r4, r1, #48
 2757 0014 0368     		ldr	r3, [r0]
 2758 0016 19D0     		beq	.L198
 2759              	.L195:
1541:Drivers/STM32F1xx_HAL_Driver/Src/stm32f1xx_hal_tim_ex.c ****   /* Select the Commutation event source */
 2760              		.loc 1 1541 3 is_stmt 1 view .LVU651
1552:Drivers/STM32F1xx_HAL_Driver/Src/stm32f1xx_hal_tim_ex.c **** 
 2761              		.loc 1 1552 3 is_stmt 0 view .LVU652
 2762 0018 0025     		movs	r5, #0
1554:Drivers/STM32F1xx_HAL_Driver/Src/stm32f1xx_hal_tim_ex.c **** }
 2763              		.loc 1 1554 10 view .LVU653
 2764 001a 2E46     		mov	r6, r5
1541:Drivers/STM32F1xx_HAL_Driver/Src/stm32f1xx_hal_tim_ex.c ****   /* Select the Commutation event source */
 2765              		.loc 1 1541 23 view .LVU654
 2766 001c 5C68     		ldr	r4, [r3, #4]
 2767 001e 44F00104 		orr	r4, r4, #1
 2768 0022 5C60     		str	r4, [r3, #4]
1543:Drivers/STM32F1xx_HAL_Driver/Src/stm32f1xx_hal_tim_ex.c ****   htim->Instance->CR2 |= CommutationSource;
 2769              		.loc 1 1543 3 is_stmt 1 view .LVU655
1543:Drivers/STM32F1xx_HAL_Driver/Src/stm32f1xx_hal_tim_ex.c ****   htim->Instance->CR2 |= CommutationSource;
 2770              		.loc 1 1543 23 is_stmt 0 view .LVU656
 2771 0024 5C68     		ldr	r4, [r3, #4]
 2772 0026 24F00404 		bic	r4, r4, #4
 2773 002a 5C60     		str	r4, [r3, #4]
1544:Drivers/STM32F1xx_HAL_Driver/Src/stm32f1xx_hal_tim_ex.c **** 
 2774              		.loc 1 1544 3 is_stmt 1 view .LVU657
1544:Drivers/STM32F1xx_HAL_Driver/Src/stm32f1xx_hal_tim_ex.c **** 
 2775              		.loc 1 1544 23 is_stmt 0 view .LVU658
 2776 002c 5968     		ldr	r1, [r3, #4]
 2777              	.LVL157:
1544:Drivers/STM32F1xx_HAL_Driver/Src/stm32f1xx_hal_tim_ex.c **** 
 2778              		.loc 1 1544 23 view .LVU659
 2779 002e 1143     		orrs	r1, r1, r2
ARM GAS  /var/folders/20/cstyxln53wn53rr40gj353bh0000gn/T//ccV5XGPK.s 			page 91


 2780 0030 5960     		str	r1, [r3, #4]
1547:Drivers/STM32F1xx_HAL_Driver/Src/stm32f1xx_hal_tim_ex.c **** 
 2781              		.loc 1 1547 3 is_stmt 1 view .LVU660
 2782 0032 DA68     		ldr	r2, [r3, #12]
 2783              	.LVL158:
1547:Drivers/STM32F1xx_HAL_Driver/Src/stm32f1xx_hal_tim_ex.c **** 
 2784              		.loc 1 1547 3 is_stmt 0 view .LVU661
 2785 0034 22F40052 		bic	r2, r2, #8192
 2786 0038 DA60     		str	r2, [r3, #12]
1550:Drivers/STM32F1xx_HAL_Driver/Src/stm32f1xx_hal_tim_ex.c **** 
 2787              		.loc 1 1550 3 is_stmt 1 view .LVU662
 2788 003a DA68     		ldr	r2, [r3, #12]
 2789 003c 42F02002 		orr	r2, r2, #32
 2790 0040 DA60     		str	r2, [r3, #12]
1552:Drivers/STM32F1xx_HAL_Driver/Src/stm32f1xx_hal_tim_ex.c **** 
 2791              		.loc 1 1552 3 view .LVU663
1552:Drivers/STM32F1xx_HAL_Driver/Src/stm32f1xx_hal_tim_ex.c **** 
 2792              		.loc 1 1552 3 view .LVU664
 2793 0042 80F83C50 		strb	r5, [r0, #60]
1554:Drivers/STM32F1xx_HAL_Driver/Src/stm32f1xx_hal_tim_ex.c **** }
 2794              		.loc 1 1554 3 view .LVU665
1555:Drivers/STM32F1xx_HAL_Driver/Src/stm32f1xx_hal_tim_ex.c **** 
 2795              		.loc 1 1555 1 is_stmt 0 view .LVU666
 2796 0046 3046     		mov	r0, r6
 2797              	.LVL159:
1555:Drivers/STM32F1xx_HAL_Driver/Src/stm32f1xx_hal_tim_ex.c **** 
 2798              		.loc 1 1555 1 view .LVU667
 2799 0048 70BC     		pop	{r4, r5, r6}
 2800              	.LCFI39:
 2801              		.cfi_remember_state
 2802              		.cfi_restore 6
 2803              		.cfi_restore 5
 2804              		.cfi_restore 4
 2805              		.cfi_def_cfa_offset 0
 2806 004a 7047     		bx	lr
 2807              	.LVL160:
 2808              	.L198:
 2809              	.LCFI40:
 2810              		.cfi_restore_state
1536:Drivers/STM32F1xx_HAL_Driver/Src/stm32f1xx_hal_tim_ex.c ****     htim->Instance->SMCR |= InputTrigger;
 2811              		.loc 1 1536 5 is_stmt 1 view .LVU668
1536:Drivers/STM32F1xx_HAL_Driver/Src/stm32f1xx_hal_tim_ex.c ****     htim->Instance->SMCR |= InputTrigger;
 2812              		.loc 1 1536 26 is_stmt 0 view .LVU669
 2813 004c 9D68     		ldr	r5, [r3, #8]
 2814 004e 25F07005 		bic	r5, r5, #112
 2815 0052 9D60     		str	r5, [r3, #8]
1537:Drivers/STM32F1xx_HAL_Driver/Src/stm32f1xx_hal_tim_ex.c ****   }
 2816              		.loc 1 1537 5 is_stmt 1 view .LVU670
1537:Drivers/STM32F1xx_HAL_Driver/Src/stm32f1xx_hal_tim_ex.c ****   }
 2817              		.loc 1 1537 26 is_stmt 0 view .LVU671
 2818 0054 9C68     		ldr	r4, [r3, #8]
 2819 0056 0C43     		orrs	r4, r4, r1
 2820 0058 9C60     		str	r4, [r3, #8]
 2821 005a DDE7     		b	.L195
 2822              	.L196:
1530:Drivers/STM32F1xx_HAL_Driver/Src/stm32f1xx_hal_tim_ex.c **** 
 2823              		.loc 1 1530 3 view .LVU672
ARM GAS  /var/folders/20/cstyxln53wn53rr40gj353bh0000gn/T//ccV5XGPK.s 			page 92


 2824 005c 0226     		movs	r6, #2
1555:Drivers/STM32F1xx_HAL_Driver/Src/stm32f1xx_hal_tim_ex.c **** 
 2825              		.loc 1 1555 1 view .LVU673
 2826 005e 3046     		mov	r0, r6
 2827              	.LVL161:
1555:Drivers/STM32F1xx_HAL_Driver/Src/stm32f1xx_hal_tim_ex.c **** 
 2828              		.loc 1 1555 1 view .LVU674
 2829 0060 70BC     		pop	{r4, r5, r6}
 2830              	.LCFI41:
 2831              		.cfi_restore 6
 2832              		.cfi_restore 5
 2833              		.cfi_restore 4
 2834              		.cfi_def_cfa_offset 0
 2835 0062 7047     		bx	lr
 2836              		.cfi_endproc
 2837              	.LFE92:
 2839              		.section	.text.HAL_TIMEx_ConfigCommutEvent_DMA,"ax",%progbits
 2840              		.align	1
 2841              		.p2align 2,,3
 2842              		.global	HAL_TIMEx_ConfigCommutEvent_DMA
 2843              		.syntax unified
 2844              		.thumb
 2845              		.thumb_func
 2846              		.fpu softvfp
 2848              	HAL_TIMEx_ConfigCommutEvent_DMA:
 2849              	.LVL162:
 2850              	.LFB93:
1582:Drivers/STM32F1xx_HAL_Driver/Src/stm32f1xx_hal_tim_ex.c ****   /* Check the parameters */
 2851              		.loc 1 1582 1 is_stmt 1 view -0
 2852              		.cfi_startproc
 2853              		@ args = 0, pretend = 0, frame = 0
 2854              		@ frame_needed = 0, uses_anonymous_args = 0
 2855              		@ link register save eliminated.
1584:Drivers/STM32F1xx_HAL_Driver/Src/stm32f1xx_hal_tim_ex.c ****   assert_param(IS_TIM_INTERNAL_TRIGGEREVENT_SELECTION(InputTrigger));
 2856              		.loc 1 1584 3 view .LVU676
1585:Drivers/STM32F1xx_HAL_Driver/Src/stm32f1xx_hal_tim_ex.c **** 
 2857              		.loc 1 1585 3 view .LVU677
1587:Drivers/STM32F1xx_HAL_Driver/Src/stm32f1xx_hal_tim_ex.c **** 
 2858              		.loc 1 1587 3 view .LVU678
1587:Drivers/STM32F1xx_HAL_Driver/Src/stm32f1xx_hal_tim_ex.c **** 
 2859              		.loc 1 1587 3 view .LVU679
 2860 0000 90F83C30 		ldrb	r3, [r0, #60]	@ zero_extendqisi2
 2861 0004 012B     		cmp	r3, #1
 2862 0006 2ED0     		beq	.L202
1587:Drivers/STM32F1xx_HAL_Driver/Src/stm32f1xx_hal_tim_ex.c **** 
 2863              		.loc 1 1587 3 discriminator 2 view .LVU680
1582:Drivers/STM32F1xx_HAL_Driver/Src/stm32f1xx_hal_tim_ex.c ****   /* Check the parameters */
 2864              		.loc 1 1582 1 is_stmt 0 discriminator 2 view .LVU681
 2865 0008 70B4     		push	{r4, r5, r6}
 2866              	.LCFI42:
 2867              		.cfi_def_cfa_offset 12
 2868              		.cfi_offset 4, -12
 2869              		.cfi_offset 5, -8
 2870              		.cfi_offset 6, -4
1587:Drivers/STM32F1xx_HAL_Driver/Src/stm32f1xx_hal_tim_ex.c **** 
 2871              		.loc 1 1587 3 discriminator 2 view .LVU682
 2872 000a 0124     		movs	r4, #1
ARM GAS  /var/folders/20/cstyxln53wn53rr40gj353bh0000gn/T//ccV5XGPK.s 			page 93


 2873 000c 80F83C40 		strb	r4, [r0, #60]
1589:Drivers/STM32F1xx_HAL_Driver/Src/stm32f1xx_hal_tim_ex.c ****       (InputTrigger == TIM_TS_ITR2) || (InputTrigger == TIM_TS_ITR3))
 2874              		.loc 1 1589 3 is_stmt 1 discriminator 2 view .LVU683
1589:Drivers/STM32F1xx_HAL_Driver/Src/stm32f1xx_hal_tim_ex.c ****       (InputTrigger == TIM_TS_ITR2) || (InputTrigger == TIM_TS_ITR3))
 2875              		.loc 1 1589 6 is_stmt 0 discriminator 2 view .LVU684
 2876 0010 31F03004 		bics	r4, r1, #48
 2877 0014 0368     		ldr	r3, [r0]
 2878 0016 06D1     		bne	.L201
1593:Drivers/STM32F1xx_HAL_Driver/Src/stm32f1xx_hal_tim_ex.c ****     htim->Instance->SMCR |= InputTrigger;
 2879              		.loc 1 1593 5 is_stmt 1 view .LVU685
1593:Drivers/STM32F1xx_HAL_Driver/Src/stm32f1xx_hal_tim_ex.c ****     htim->Instance->SMCR |= InputTrigger;
 2880              		.loc 1 1593 26 is_stmt 0 view .LVU686
 2881 0018 9E68     		ldr	r6, [r3, #8]
 2882 001a 26F07006 		bic	r6, r6, #112
 2883 001e 9E60     		str	r6, [r3, #8]
1594:Drivers/STM32F1xx_HAL_Driver/Src/stm32f1xx_hal_tim_ex.c ****   }
 2884              		.loc 1 1594 5 is_stmt 1 view .LVU687
1594:Drivers/STM32F1xx_HAL_Driver/Src/stm32f1xx_hal_tim_ex.c ****   }
 2885              		.loc 1 1594 26 is_stmt 0 view .LVU688
 2886 0020 9D68     		ldr	r5, [r3, #8]
 2887 0022 0D43     		orrs	r5, r5, r1
 2888 0024 9D60     		str	r5, [r3, #8]
 2889              	.L201:
1598:Drivers/STM32F1xx_HAL_Driver/Src/stm32f1xx_hal_tim_ex.c ****   /* Select the Commutation event source */
 2890              		.loc 1 1598 3 is_stmt 1 view .LVU689
1616:Drivers/STM32F1xx_HAL_Driver/Src/stm32f1xx_hal_tim_ex.c **** 
 2891              		.loc 1 1616 3 is_stmt 0 view .LVU690
 2892 0026 0026     		movs	r6, #0
1598:Drivers/STM32F1xx_HAL_Driver/Src/stm32f1xx_hal_tim_ex.c ****   /* Select the Commutation event source */
 2893              		.loc 1 1598 23 view .LVU691
 2894 0028 5D68     		ldr	r5, [r3, #4]
1605:Drivers/STM32F1xx_HAL_Driver/Src/stm32f1xx_hal_tim_ex.c ****   htim->hdma[TIM_DMA_ID_COMMUTATION]->XferHalfCpltCallback = TIMEx_DMACommutationHalfCplt;
 2895              		.loc 1 1605 13 view .LVU692
 2896 002a 416B     		ldr	r1, [r0, #52]
 2897              	.LVL163:
1598:Drivers/STM32F1xx_HAL_Driver/Src/stm32f1xx_hal_tim_ex.c ****   /* Select the Commutation event source */
 2898              		.loc 1 1598 23 view .LVU693
 2899 002c 45F00105 		orr	r5, r5, #1
 2900 0030 5D60     		str	r5, [r3, #4]
1600:Drivers/STM32F1xx_HAL_Driver/Src/stm32f1xx_hal_tim_ex.c ****   htim->Instance->CR2 |= CommutationSource;
 2901              		.loc 1 1600 3 is_stmt 1 view .LVU694
1600:Drivers/STM32F1xx_HAL_Driver/Src/stm32f1xx_hal_tim_ex.c ****   htim->Instance->CR2 |= CommutationSource;
 2902              		.loc 1 1600 23 is_stmt 0 view .LVU695
 2903 0032 5D68     		ldr	r5, [r3, #4]
 2904 0034 25F00405 		bic	r5, r5, #4
 2905 0038 5D60     		str	r5, [r3, #4]
1601:Drivers/STM32F1xx_HAL_Driver/Src/stm32f1xx_hal_tim_ex.c **** 
 2906              		.loc 1 1601 3 is_stmt 1 view .LVU696
1601:Drivers/STM32F1xx_HAL_Driver/Src/stm32f1xx_hal_tim_ex.c **** 
 2907              		.loc 1 1601 23 is_stmt 0 view .LVU697
 2908 003a 5C68     		ldr	r4, [r3, #4]
1606:Drivers/STM32F1xx_HAL_Driver/Src/stm32f1xx_hal_tim_ex.c ****   /* Set the DMA error callback */
 2909              		.loc 1 1606 60 view .LVU698
 2910 003c 0B4D     		ldr	r5, .L207
1601:Drivers/STM32F1xx_HAL_Driver/Src/stm32f1xx_hal_tim_ex.c **** 
 2911              		.loc 1 1601 23 view .LVU699
 2912 003e 1443     		orrs	r4, r4, r2
ARM GAS  /var/folders/20/cstyxln53wn53rr40gj353bh0000gn/T//ccV5XGPK.s 			page 94


 2913 0040 5C60     		str	r4, [r3, #4]
1605:Drivers/STM32F1xx_HAL_Driver/Src/stm32f1xx_hal_tim_ex.c ****   htim->hdma[TIM_DMA_ID_COMMUTATION]->XferHalfCpltCallback = TIMEx_DMACommutationHalfCplt;
 2914              		.loc 1 1605 3 is_stmt 1 view .LVU700
1605:Drivers/STM32F1xx_HAL_Driver/Src/stm32f1xx_hal_tim_ex.c ****   htim->hdma[TIM_DMA_ID_COMMUTATION]->XferHalfCpltCallback = TIMEx_DMACommutationHalfCplt;
 2915              		.loc 1 1605 56 is_stmt 0 view .LVU701
 2916 0042 0B4C     		ldr	r4, .L207+4
1611:Drivers/STM32F1xx_HAL_Driver/Src/stm32f1xx_hal_tim_ex.c **** 
 2917              		.loc 1 1611 3 view .LVU702
 2918 0044 DA68     		ldr	r2, [r3, #12]
 2919              	.LVL164:
1605:Drivers/STM32F1xx_HAL_Driver/Src/stm32f1xx_hal_tim_ex.c ****   htim->hdma[TIM_DMA_ID_COMMUTATION]->XferHalfCpltCallback = TIMEx_DMACommutationHalfCplt;
 2920              		.loc 1 1605 56 view .LVU703
 2921 0046 8C62     		str	r4, [r1, #40]
1606:Drivers/STM32F1xx_HAL_Driver/Src/stm32f1xx_hal_tim_ex.c ****   /* Set the DMA error callback */
 2922              		.loc 1 1606 3 is_stmt 1 view .LVU704
1608:Drivers/STM32F1xx_HAL_Driver/Src/stm32f1xx_hal_tim_ex.c **** 
 2923              		.loc 1 1608 57 is_stmt 0 view .LVU705
 2924 0048 0A4C     		ldr	r4, .L207+8
1611:Drivers/STM32F1xx_HAL_Driver/Src/stm32f1xx_hal_tim_ex.c **** 
 2925              		.loc 1 1611 3 view .LVU706
 2926 004a 22F02002 		bic	r2, r2, #32
1608:Drivers/STM32F1xx_HAL_Driver/Src/stm32f1xx_hal_tim_ex.c **** 
 2927              		.loc 1 1608 57 view .LVU707
 2928 004e C1E90B54 		strd	r5, r4, [r1, #44]
1611:Drivers/STM32F1xx_HAL_Driver/Src/stm32f1xx_hal_tim_ex.c **** 
 2929              		.loc 1 1611 3 is_stmt 1 view .LVU708
 2930 0052 DA60     		str	r2, [r3, #12]
1614:Drivers/STM32F1xx_HAL_Driver/Src/stm32f1xx_hal_tim_ex.c **** 
 2931              		.loc 1 1614 3 view .LVU709
 2932 0054 DA68     		ldr	r2, [r3, #12]
 2933 0056 42F40052 		orr	r2, r2, #8192
 2934 005a DA60     		str	r2, [r3, #12]
1616:Drivers/STM32F1xx_HAL_Driver/Src/stm32f1xx_hal_tim_ex.c **** 
 2935              		.loc 1 1616 3 view .LVU710
1616:Drivers/STM32F1xx_HAL_Driver/Src/stm32f1xx_hal_tim_ex.c **** 
 2936              		.loc 1 1616 3 view .LVU711
 2937 005c 80F83C60 		strb	r6, [r0, #60]
1618:Drivers/STM32F1xx_HAL_Driver/Src/stm32f1xx_hal_tim_ex.c **** }
 2938              		.loc 1 1618 3 view .LVU712
1619:Drivers/STM32F1xx_HAL_Driver/Src/stm32f1xx_hal_tim_ex.c **** 
 2939              		.loc 1 1619 1 is_stmt 0 view .LVU713
 2940 0060 3046     		mov	r0, r6
 2941              	.LVL165:
1619:Drivers/STM32F1xx_HAL_Driver/Src/stm32f1xx_hal_tim_ex.c **** 
 2942              		.loc 1 1619 1 view .LVU714
 2943 0062 70BC     		pop	{r4, r5, r6}
 2944              	.LCFI43:
 2945              		.cfi_restore 6
 2946              		.cfi_restore 5
 2947              		.cfi_restore 4
 2948              		.cfi_def_cfa_offset 0
 2949 0064 7047     		bx	lr
 2950              	.LVL166:
 2951              	.L202:
1587:Drivers/STM32F1xx_HAL_Driver/Src/stm32f1xx_hal_tim_ex.c **** 
 2952              		.loc 1 1587 3 view .LVU715
 2953 0066 0221     		movs	r1, #2
ARM GAS  /var/folders/20/cstyxln53wn53rr40gj353bh0000gn/T//ccV5XGPK.s 			page 95


 2954              	.LVL167:
1619:Drivers/STM32F1xx_HAL_Driver/Src/stm32f1xx_hal_tim_ex.c **** 
 2955              		.loc 1 1619 1 view .LVU716
 2956 0068 0846     		mov	r0, r1
 2957              	.LVL168:
1619:Drivers/STM32F1xx_HAL_Driver/Src/stm32f1xx_hal_tim_ex.c **** 
 2958              		.loc 1 1619 1 view .LVU717
 2959 006a 7047     		bx	lr
 2960              	.L208:
 2961              		.align	2
 2962              	.L207:
 2963 006c 00000000 		.word	TIMEx_DMACommutationHalfCplt
 2964 0070 00000000 		.word	TIMEx_DMACommutationCplt
 2965 0074 00000000 		.word	TIM_DMAError
 2966              		.cfi_endproc
 2967              	.LFE93:
 2969              		.section	.text.HAL_TIMEx_MasterConfigSynchronization,"ax",%progbits
 2970              		.align	1
 2971              		.p2align 2,,3
 2972              		.global	HAL_TIMEx_MasterConfigSynchronization
 2973              		.syntax unified
 2974              		.thumb
 2975              		.thumb_func
 2976              		.fpu softvfp
 2978              	HAL_TIMEx_MasterConfigSynchronization:
 2979              	.LVL169:
 2980              	.LFB94:
1631:Drivers/STM32F1xx_HAL_Driver/Src/stm32f1xx_hal_tim_ex.c ****   uint32_t tmpcr2;
 2981              		.loc 1 1631 1 is_stmt 1 view -0
 2982              		.cfi_startproc
 2983              		@ args = 0, pretend = 0, frame = 0
 2984              		@ frame_needed = 0, uses_anonymous_args = 0
 2985              		@ link register save eliminated.
1632:Drivers/STM32F1xx_HAL_Driver/Src/stm32f1xx_hal_tim_ex.c ****   uint32_t tmpsmcr;
 2986              		.loc 1 1632 3 view .LVU719
1633:Drivers/STM32F1xx_HAL_Driver/Src/stm32f1xx_hal_tim_ex.c **** 
 2987              		.loc 1 1633 3 view .LVU720
1636:Drivers/STM32F1xx_HAL_Driver/Src/stm32f1xx_hal_tim_ex.c ****   assert_param(IS_TIM_TRGO_SOURCE(sMasterConfig->MasterOutputTrigger));
 2988              		.loc 1 1636 3 view .LVU721
1637:Drivers/STM32F1xx_HAL_Driver/Src/stm32f1xx_hal_tim_ex.c ****   assert_param(IS_TIM_MSM_STATE(sMasterConfig->MasterSlaveMode));
 2989              		.loc 1 1637 3 view .LVU722
1638:Drivers/STM32F1xx_HAL_Driver/Src/stm32f1xx_hal_tim_ex.c **** 
 2990              		.loc 1 1638 3 view .LVU723
1641:Drivers/STM32F1xx_HAL_Driver/Src/stm32f1xx_hal_tim_ex.c **** 
 2991              		.loc 1 1641 3 view .LVU724
1641:Drivers/STM32F1xx_HAL_Driver/Src/stm32f1xx_hal_tim_ex.c **** 
 2992              		.loc 1 1641 3 view .LVU725
 2993 0000 90F83C20 		ldrb	r2, [r0, #60]	@ zero_extendqisi2
 2994 0004 012A     		cmp	r2, #1
 2995 0006 1AD0     		beq	.L211
1644:Drivers/STM32F1xx_HAL_Driver/Src/stm32f1xx_hal_tim_ex.c **** 
 2996              		.loc 1 1644 15 is_stmt 0 discriminator 2 view .LVU726
 2997 0008 0222     		movs	r2, #2
1631:Drivers/STM32F1xx_HAL_Driver/Src/stm32f1xx_hal_tim_ex.c ****   uint32_t tmpcr2;
 2998              		.loc 1 1631 1 discriminator 2 view .LVU727
 2999 000a 70B4     		push	{r4, r5, r6}
 3000              	.LCFI44:
ARM GAS  /var/folders/20/cstyxln53wn53rr40gj353bh0000gn/T//ccV5XGPK.s 			page 96


 3001              		.cfi_def_cfa_offset 12
 3002              		.cfi_offset 4, -12
 3003              		.cfi_offset 5, -8
 3004              		.cfi_offset 6, -4
 3005 000c 0346     		mov	r3, r0
1641:Drivers/STM32F1xx_HAL_Driver/Src/stm32f1xx_hal_tim_ex.c **** 
 3006              		.loc 1 1641 3 is_stmt 1 discriminator 2 view .LVU728
1644:Drivers/STM32F1xx_HAL_Driver/Src/stm32f1xx_hal_tim_ex.c **** 
 3007              		.loc 1 1644 3 discriminator 2 view .LVU729
1671:Drivers/STM32F1xx_HAL_Driver/Src/stm32f1xx_hal_tim_ex.c **** 
 3008              		.loc 1 1671 3 is_stmt 0 discriminator 2 view .LVU730
 3009 000e 0025     		movs	r5, #0
1669:Drivers/STM32F1xx_HAL_Driver/Src/stm32f1xx_hal_tim_ex.c **** 
 3010              		.loc 1 1669 15 discriminator 2 view .LVU731
 3011 0010 0126     		movs	r6, #1
1647:Drivers/STM32F1xx_HAL_Driver/Src/stm32f1xx_hal_tim_ex.c **** 
 3012              		.loc 1 1647 16 discriminator 2 view .LVU732
 3013 0012 0468     		ldr	r4, [r0]
1644:Drivers/STM32F1xx_HAL_Driver/Src/stm32f1xx_hal_tim_ex.c **** 
 3014              		.loc 1 1644 15 discriminator 2 view .LVU733
 3015 0014 80F83D20 		strb	r2, [r0, #61]
1647:Drivers/STM32F1xx_HAL_Driver/Src/stm32f1xx_hal_tim_ex.c **** 
 3016              		.loc 1 1647 3 is_stmt 1 discriminator 2 view .LVU734
1647:Drivers/STM32F1xx_HAL_Driver/Src/stm32f1xx_hal_tim_ex.c **** 
 3017              		.loc 1 1647 10 is_stmt 0 discriminator 2 view .LVU735
 3018 0018 6068     		ldr	r0, [r4, #4]
 3019              	.LVL170:
1650:Drivers/STM32F1xx_HAL_Driver/Src/stm32f1xx_hal_tim_ex.c **** 
 3020              		.loc 1 1650 3 is_stmt 1 discriminator 2 view .LVU736
1660:Drivers/STM32F1xx_HAL_Driver/Src/stm32f1xx_hal_tim_ex.c **** 
 3021              		.loc 1 1660 11 is_stmt 0 discriminator 2 view .LVU737
 3022 001a D1E90021 		ldrd	r2, r1, [r1]
 3023              	.LVL171:
1653:Drivers/STM32F1xx_HAL_Driver/Src/stm32f1xx_hal_tim_ex.c ****   /* Select the TRGO source */
 3024              		.loc 1 1653 10 discriminator 2 view .LVU738
 3025 001e 20F07000 		bic	r0, r0, #112
 3026              	.LVL172:
1655:Drivers/STM32F1xx_HAL_Driver/Src/stm32f1xx_hal_tim_ex.c **** 
 3027              		.loc 1 1655 10 discriminator 2 view .LVU739
 3028 0022 1043     		orrs	r0, r0, r2
1650:Drivers/STM32F1xx_HAL_Driver/Src/stm32f1xx_hal_tim_ex.c **** 
 3029              		.loc 1 1650 11 discriminator 2 view .LVU740
 3030 0024 A268     		ldr	r2, [r4, #8]
 3031              	.LVL173:
1653:Drivers/STM32F1xx_HAL_Driver/Src/stm32f1xx_hal_tim_ex.c ****   /* Select the TRGO source */
 3032              		.loc 1 1653 3 is_stmt 1 discriminator 2 view .LVU741
1655:Drivers/STM32F1xx_HAL_Driver/Src/stm32f1xx_hal_tim_ex.c **** 
 3033              		.loc 1 1655 3 discriminator 2 view .LVU742
1658:Drivers/STM32F1xx_HAL_Driver/Src/stm32f1xx_hal_tim_ex.c ****   /* Set master mode */
 3034              		.loc 1 1658 3 discriminator 2 view .LVU743
1663:Drivers/STM32F1xx_HAL_Driver/Src/stm32f1xx_hal_tim_ex.c **** 
 3035              		.loc 1 1663 23 is_stmt 0 discriminator 2 view .LVU744
 3036 0026 6060     		str	r0, [r4, #4]
1658:Drivers/STM32F1xx_HAL_Driver/Src/stm32f1xx_hal_tim_ex.c ****   /* Set master mode */
 3037              		.loc 1 1658 11 discriminator 2 view .LVU745
 3038 0028 22F08002 		bic	r2, r2, #128
 3039              	.LVL174:
ARM GAS  /var/folders/20/cstyxln53wn53rr40gj353bh0000gn/T//ccV5XGPK.s 			page 97


1660:Drivers/STM32F1xx_HAL_Driver/Src/stm32f1xx_hal_tim_ex.c **** 
 3040              		.loc 1 1660 3 is_stmt 1 discriminator 2 view .LVU746
1660:Drivers/STM32F1xx_HAL_Driver/Src/stm32f1xx_hal_tim_ex.c **** 
 3041              		.loc 1 1660 11 is_stmt 0 discriminator 2 view .LVU747
 3042 002c 0A43     		orrs	r2, r2, r1
 3043              	.LVL175:
1663:Drivers/STM32F1xx_HAL_Driver/Src/stm32f1xx_hal_tim_ex.c **** 
 3044              		.loc 1 1663 3 is_stmt 1 discriminator 2 view .LVU748
1666:Drivers/STM32F1xx_HAL_Driver/Src/stm32f1xx_hal_tim_ex.c **** 
 3045              		.loc 1 1666 3 discriminator 2 view .LVU749
1666:Drivers/STM32F1xx_HAL_Driver/Src/stm32f1xx_hal_tim_ex.c **** 
 3046              		.loc 1 1666 24 is_stmt 0 discriminator 2 view .LVU750
 3047 002e A260     		str	r2, [r4, #8]
1669:Drivers/STM32F1xx_HAL_Driver/Src/stm32f1xx_hal_tim_ex.c **** 
 3048              		.loc 1 1669 3 is_stmt 1 discriminator 2 view .LVU751
1673:Drivers/STM32F1xx_HAL_Driver/Src/stm32f1xx_hal_tim_ex.c **** }
 3049              		.loc 1 1673 10 is_stmt 0 discriminator 2 view .LVU752
 3050 0030 2846     		mov	r0, r5
 3051              	.LVL176:
1669:Drivers/STM32F1xx_HAL_Driver/Src/stm32f1xx_hal_tim_ex.c **** 
 3052              		.loc 1 1669 15 discriminator 2 view .LVU753
 3053 0032 83F83D60 		strb	r6, [r3, #61]
1671:Drivers/STM32F1xx_HAL_Driver/Src/stm32f1xx_hal_tim_ex.c **** 
 3054              		.loc 1 1671 3 is_stmt 1 discriminator 2 view .LVU754
1671:Drivers/STM32F1xx_HAL_Driver/Src/stm32f1xx_hal_tim_ex.c **** 
 3055              		.loc 1 1671 3 discriminator 2 view .LVU755
 3056 0036 83F83C50 		strb	r5, [r3, #60]
1673:Drivers/STM32F1xx_HAL_Driver/Src/stm32f1xx_hal_tim_ex.c **** }
 3057              		.loc 1 1673 3 discriminator 2 view .LVU756
1674:Drivers/STM32F1xx_HAL_Driver/Src/stm32f1xx_hal_tim_ex.c **** 
 3058              		.loc 1 1674 1 is_stmt 0 discriminator 2 view .LVU757
 3059 003a 70BC     		pop	{r4, r5, r6}
 3060              	.LCFI45:
 3061              		.cfi_restore 6
 3062              		.cfi_restore 5
 3063              		.cfi_restore 4
 3064              		.cfi_def_cfa_offset 0
 3065 003c 7047     		bx	lr
 3066              	.LVL177:
 3067              	.L211:
1641:Drivers/STM32F1xx_HAL_Driver/Src/stm32f1xx_hal_tim_ex.c **** 
 3068              		.loc 1 1641 3 view .LVU758
 3069 003e 0220     		movs	r0, #2
 3070              	.LVL178:
1674:Drivers/STM32F1xx_HAL_Driver/Src/stm32f1xx_hal_tim_ex.c **** 
 3071              		.loc 1 1674 1 view .LVU759
 3072 0040 7047     		bx	lr
 3073              		.cfi_endproc
 3074              	.LFE94:
 3076 0042 00BF     		.section	.text.HAL_TIMEx_ConfigBreakDeadTime,"ax",%progbits
 3077              		.align	1
 3078              		.p2align 2,,3
 3079              		.global	HAL_TIMEx_ConfigBreakDeadTime
 3080              		.syntax unified
 3081              		.thumb
 3082              		.thumb_func
 3083              		.fpu softvfp
ARM GAS  /var/folders/20/cstyxln53wn53rr40gj353bh0000gn/T//ccV5XGPK.s 			page 98


 3085              	HAL_TIMEx_ConfigBreakDeadTime:
 3086              	.LVL179:
 3087              	.LFB95:
1689:Drivers/STM32F1xx_HAL_Driver/Src/stm32f1xx_hal_tim_ex.c ****   /* Keep this variable initialized to 0 as it is used to configure BDTR register */
 3088              		.loc 1 1689 1 is_stmt 1 view -0
 3089              		.cfi_startproc
 3090              		@ args = 0, pretend = 0, frame = 0
 3091              		@ frame_needed = 0, uses_anonymous_args = 0
 3092              		@ link register save eliminated.
1691:Drivers/STM32F1xx_HAL_Driver/Src/stm32f1xx_hal_tim_ex.c **** 
 3093              		.loc 1 1691 3 view .LVU761
1694:Drivers/STM32F1xx_HAL_Driver/Src/stm32f1xx_hal_tim_ex.c ****   assert_param(IS_TIM_OSSR_STATE(sBreakDeadTimeConfig->OffStateRunMode));
 3094              		.loc 1 1694 3 view .LVU762
1695:Drivers/STM32F1xx_HAL_Driver/Src/stm32f1xx_hal_tim_ex.c ****   assert_param(IS_TIM_OSSI_STATE(sBreakDeadTimeConfig->OffStateIDLEMode));
 3095              		.loc 1 1695 3 view .LVU763
1696:Drivers/STM32F1xx_HAL_Driver/Src/stm32f1xx_hal_tim_ex.c ****   assert_param(IS_TIM_LOCK_LEVEL(sBreakDeadTimeConfig->LockLevel));
 3096              		.loc 1 1696 3 view .LVU764
1697:Drivers/STM32F1xx_HAL_Driver/Src/stm32f1xx_hal_tim_ex.c ****   assert_param(IS_TIM_DEADTIME(sBreakDeadTimeConfig->DeadTime));
 3097              		.loc 1 1697 3 view .LVU765
1698:Drivers/STM32F1xx_HAL_Driver/Src/stm32f1xx_hal_tim_ex.c ****   assert_param(IS_TIM_BREAK_STATE(sBreakDeadTimeConfig->BreakState));
 3098              		.loc 1 1698 3 view .LVU766
1699:Drivers/STM32F1xx_HAL_Driver/Src/stm32f1xx_hal_tim_ex.c ****   assert_param(IS_TIM_BREAK_POLARITY(sBreakDeadTimeConfig->BreakPolarity));
 3099              		.loc 1 1699 3 view .LVU767
1700:Drivers/STM32F1xx_HAL_Driver/Src/stm32f1xx_hal_tim_ex.c ****   assert_param(IS_TIM_AUTOMATIC_OUTPUT_STATE(sBreakDeadTimeConfig->AutomaticOutput));
 3100              		.loc 1 1700 3 view .LVU768
1701:Drivers/STM32F1xx_HAL_Driver/Src/stm32f1xx_hal_tim_ex.c **** 
 3101              		.loc 1 1701 3 view .LVU769
1704:Drivers/STM32F1xx_HAL_Driver/Src/stm32f1xx_hal_tim_ex.c **** 
 3102              		.loc 1 1704 3 view .LVU770
1704:Drivers/STM32F1xx_HAL_Driver/Src/stm32f1xx_hal_tim_ex.c **** 
 3103              		.loc 1 1704 3 view .LVU771
 3104 0000 90F83C30 		ldrb	r3, [r0, #60]	@ zero_extendqisi2
 3105 0004 012B     		cmp	r3, #1
 3106 0006 22D0     		beq	.L218
 3107 0008 0246     		mov	r2, r0
1704:Drivers/STM32F1xx_HAL_Driver/Src/stm32f1xx_hal_tim_ex.c **** 
 3108              		.loc 1 1704 3 discriminator 2 view .LVU772
1710:Drivers/STM32F1xx_HAL_Driver/Src/stm32f1xx_hal_tim_ex.c ****   MODIFY_REG(tmpbdtr, TIM_BDTR_LOCK, sBreakDeadTimeConfig->LockLevel);
 3109              		.loc 1 1710 3 discriminator 2 view .LVU773
 3110              	.LVL180:
1711:Drivers/STM32F1xx_HAL_Driver/Src/stm32f1xx_hal_tim_ex.c ****   MODIFY_REG(tmpbdtr, TIM_BDTR_OSSI, sBreakDeadTimeConfig->OffStateIDLEMode);
 3111              		.loc 1 1711 3 discriminator 2 view .LVU774
1712:Drivers/STM32F1xx_HAL_Driver/Src/stm32f1xx_hal_tim_ex.c ****   MODIFY_REG(tmpbdtr, TIM_BDTR_OSSR, sBreakDeadTimeConfig->OffStateRunMode);
 3112              		.loc 1 1712 3 discriminator 2 view .LVU775
1711:Drivers/STM32F1xx_HAL_Driver/Src/stm32f1xx_hal_tim_ex.c ****   MODIFY_REG(tmpbdtr, TIM_BDTR_OSSI, sBreakDeadTimeConfig->OffStateIDLEMode);
 3113              		.loc 1 1711 3 is_stmt 0 discriminator 2 view .LVU776
 3114 000a D1E90203 		ldrd	r0, r3, [r1, #8]
 3115              	.LVL181:
1689:Drivers/STM32F1xx_HAL_Driver/Src/stm32f1xx_hal_tim_ex.c ****   /* Keep this variable initialized to 0 as it is used to configure BDTR register */
 3116              		.loc 1 1689 1 discriminator 2 view .LVU777
 3117 000e 10B4     		push	{r4}
 3118              	.LCFI46:
 3119              		.cfi_def_cfa_offset 4
 3120              		.cfi_offset 4, -4
1722:Drivers/STM32F1xx_HAL_Driver/Src/stm32f1xx_hal_tim_ex.c **** 
 3121              		.loc 1 1722 3 discriminator 2 view .LVU778
 3122 0010 0024     		movs	r4, #0
ARM GAS  /var/folders/20/cstyxln53wn53rr40gj353bh0000gn/T//ccV5XGPK.s 			page 99


1711:Drivers/STM32F1xx_HAL_Driver/Src/stm32f1xx_hal_tim_ex.c ****   MODIFY_REG(tmpbdtr, TIM_BDTR_OSSI, sBreakDeadTimeConfig->OffStateIDLEMode);
 3123              		.loc 1 1711 3 discriminator 2 view .LVU779
 3124 0012 23F44073 		bic	r3, r3, #768
 3125 0016 0343     		orrs	r3, r3, r0
 3126              	.LVL182:
1712:Drivers/STM32F1xx_HAL_Driver/Src/stm32f1xx_hal_tim_ex.c ****   MODIFY_REG(tmpbdtr, TIM_BDTR_OSSR, sBreakDeadTimeConfig->OffStateRunMode);
 3127              		.loc 1 1712 3 discriminator 2 view .LVU780
 3128 0018 4868     		ldr	r0, [r1, #4]
 3129 001a 23F48063 		bic	r3, r3, #1024
 3130              	.LVL183:
1713:Drivers/STM32F1xx_HAL_Driver/Src/stm32f1xx_hal_tim_ex.c ****   MODIFY_REG(tmpbdtr, TIM_BDTR_BKE, sBreakDeadTimeConfig->BreakState);
 3131              		.loc 1 1713 3 is_stmt 1 discriminator 2 view .LVU781
1712:Drivers/STM32F1xx_HAL_Driver/Src/stm32f1xx_hal_tim_ex.c ****   MODIFY_REG(tmpbdtr, TIM_BDTR_OSSR, sBreakDeadTimeConfig->OffStateRunMode);
 3132              		.loc 1 1712 3 is_stmt 0 discriminator 2 view .LVU782
 3133 001e 0343     		orrs	r3, r3, r0
 3134              	.LVL184:
1713:Drivers/STM32F1xx_HAL_Driver/Src/stm32f1xx_hal_tim_ex.c ****   MODIFY_REG(tmpbdtr, TIM_BDTR_BKE, sBreakDeadTimeConfig->BreakState);
 3135              		.loc 1 1713 3 discriminator 2 view .LVU783
 3136 0020 0868     		ldr	r0, [r1]
 3137 0022 23F40063 		bic	r3, r3, #2048
 3138              	.LVL185:
1714:Drivers/STM32F1xx_HAL_Driver/Src/stm32f1xx_hal_tim_ex.c ****   MODIFY_REG(tmpbdtr, TIM_BDTR_BKP, sBreakDeadTimeConfig->BreakPolarity);
 3139              		.loc 1 1714 3 is_stmt 1 discriminator 2 view .LVU784
1713:Drivers/STM32F1xx_HAL_Driver/Src/stm32f1xx_hal_tim_ex.c ****   MODIFY_REG(tmpbdtr, TIM_BDTR_BKE, sBreakDeadTimeConfig->BreakState);
 3140              		.loc 1 1713 3 is_stmt 0 discriminator 2 view .LVU785
 3141 0026 0343     		orrs	r3, r3, r0
 3142              	.LVL186:
1714:Drivers/STM32F1xx_HAL_Driver/Src/stm32f1xx_hal_tim_ex.c ****   MODIFY_REG(tmpbdtr, TIM_BDTR_BKP, sBreakDeadTimeConfig->BreakPolarity);
 3143              		.loc 1 1714 3 discriminator 2 view .LVU786
 3144 0028 0869     		ldr	r0, [r1, #16]
 3145 002a 23F48053 		bic	r3, r3, #4096
 3146              	.LVL187:
1715:Drivers/STM32F1xx_HAL_Driver/Src/stm32f1xx_hal_tim_ex.c ****   MODIFY_REG(tmpbdtr, TIM_BDTR_AOE, sBreakDeadTimeConfig->AutomaticOutput);
 3147              		.loc 1 1715 3 is_stmt 1 discriminator 2 view .LVU787
1714:Drivers/STM32F1xx_HAL_Driver/Src/stm32f1xx_hal_tim_ex.c ****   MODIFY_REG(tmpbdtr, TIM_BDTR_BKP, sBreakDeadTimeConfig->BreakPolarity);
 3148              		.loc 1 1714 3 is_stmt 0 discriminator 2 view .LVU788
 3149 002e 0343     		orrs	r3, r3, r0
 3150              	.LVL188:
1715:Drivers/STM32F1xx_HAL_Driver/Src/stm32f1xx_hal_tim_ex.c ****   MODIFY_REG(tmpbdtr, TIM_BDTR_AOE, sBreakDeadTimeConfig->AutomaticOutput);
 3151              		.loc 1 1715 3 discriminator 2 view .LVU789
 3152 0030 4869     		ldr	r0, [r1, #20]
 3153 0032 23F40053 		bic	r3, r3, #8192
 3154              	.LVL189:
1716:Drivers/STM32F1xx_HAL_Driver/Src/stm32f1xx_hal_tim_ex.c **** 
 3155              		.loc 1 1716 3 is_stmt 1 discriminator 2 view .LVU790
1715:Drivers/STM32F1xx_HAL_Driver/Src/stm32f1xx_hal_tim_ex.c ****   MODIFY_REG(tmpbdtr, TIM_BDTR_AOE, sBreakDeadTimeConfig->AutomaticOutput);
 3156              		.loc 1 1715 3 is_stmt 0 discriminator 2 view .LVU791
 3157 0036 0343     		orrs	r3, r3, r0
 3158              	.LVL190:
1716:Drivers/STM32F1xx_HAL_Driver/Src/stm32f1xx_hal_tim_ex.c **** 
 3159              		.loc 1 1716 3 discriminator 2 view .LVU792
 3160 0038 C869     		ldr	r0, [r1, #28]
 3161 003a 23F48043 		bic	r3, r3, #16384
 3162              	.LVL191:
1720:Drivers/STM32F1xx_HAL_Driver/Src/stm32f1xx_hal_tim_ex.c **** 
 3163              		.loc 1 1720 7 discriminator 2 view .LVU793
 3164 003e 1168     		ldr	r1, [r2]
ARM GAS  /var/folders/20/cstyxln53wn53rr40gj353bh0000gn/T//ccV5XGPK.s 			page 100


 3165              	.LVL192:
1716:Drivers/STM32F1xx_HAL_Driver/Src/stm32f1xx_hal_tim_ex.c **** 
 3166              		.loc 1 1716 3 discriminator 2 view .LVU794
 3167 0040 0343     		orrs	r3, r3, r0
 3168              	.LVL193:
1720:Drivers/STM32F1xx_HAL_Driver/Src/stm32f1xx_hal_tim_ex.c **** 
 3169              		.loc 1 1720 3 is_stmt 1 discriminator 2 view .LVU795
1720:Drivers/STM32F1xx_HAL_Driver/Src/stm32f1xx_hal_tim_ex.c **** 
 3170              		.loc 1 1720 24 is_stmt 0 discriminator 2 view .LVU796
 3171 0042 4B64     		str	r3, [r1, #68]
1722:Drivers/STM32F1xx_HAL_Driver/Src/stm32f1xx_hal_tim_ex.c **** 
 3172              		.loc 1 1722 3 is_stmt 1 discriminator 2 view .LVU797
1722:Drivers/STM32F1xx_HAL_Driver/Src/stm32f1xx_hal_tim_ex.c **** 
 3173              		.loc 1 1722 3 discriminator 2 view .LVU798
1724:Drivers/STM32F1xx_HAL_Driver/Src/stm32f1xx_hal_tim_ex.c **** }
 3174              		.loc 1 1724 10 is_stmt 0 discriminator 2 view .LVU799
 3175 0044 2046     		mov	r0, r4
1722:Drivers/STM32F1xx_HAL_Driver/Src/stm32f1xx_hal_tim_ex.c **** 
 3176              		.loc 1 1722 3 discriminator 2 view .LVU800
 3177 0046 82F83C40 		strb	r4, [r2, #60]
1724:Drivers/STM32F1xx_HAL_Driver/Src/stm32f1xx_hal_tim_ex.c **** }
 3178              		.loc 1 1724 3 is_stmt 1 discriminator 2 view .LVU801
1725:Drivers/STM32F1xx_HAL_Driver/Src/stm32f1xx_hal_tim_ex.c **** 
 3179              		.loc 1 1725 1 is_stmt 0 discriminator 2 view .LVU802
 3180 004a 10BC     		pop	{r4}
 3181              	.LCFI47:
 3182              		.cfi_restore 4
 3183              		.cfi_def_cfa_offset 0
 3184 004c 7047     		bx	lr
 3185              	.LVL194:
 3186              	.L218:
1704:Drivers/STM32F1xx_HAL_Driver/Src/stm32f1xx_hal_tim_ex.c **** 
 3187              		.loc 1 1704 3 view .LVU803
 3188 004e 0220     		movs	r0, #2
 3189              	.LVL195:
1725:Drivers/STM32F1xx_HAL_Driver/Src/stm32f1xx_hal_tim_ex.c **** 
 3190              		.loc 1 1725 1 view .LVU804
 3191 0050 7047     		bx	lr
 3192              		.cfi_endproc
 3193              	.LFE95:
 3195 0052 00BF     		.section	.text.HAL_TIMEx_RemapConfig,"ax",%progbits
 3196              		.align	1
 3197              		.p2align 2,,3
 3198              		.global	HAL_TIMEx_RemapConfig
 3199              		.syntax unified
 3200              		.thumb
 3201              		.thumb_func
 3202              		.fpu softvfp
 3204              	HAL_TIMEx_RemapConfig:
 3205              	.LVL196:
 3206              	.LFB96:
1735:Drivers/STM32F1xx_HAL_Driver/Src/stm32f1xx_hal_tim_ex.c **** 
 3207              		.loc 1 1735 1 is_stmt 1 view -0
 3208              		.cfi_startproc
 3209              		@ args = 0, pretend = 0, frame = 0
 3210              		@ frame_needed = 0, uses_anonymous_args = 0
 3211              		@ link register save eliminated.
ARM GAS  /var/folders/20/cstyxln53wn53rr40gj353bh0000gn/T//ccV5XGPK.s 			page 101


1737:Drivers/STM32F1xx_HAL_Driver/Src/stm32f1xx_hal_tim_ex.c **** }
 3212              		.loc 1 1737 3 view .LVU806
1738:Drivers/STM32F1xx_HAL_Driver/Src/stm32f1xx_hal_tim_ex.c **** 
 3213              		.loc 1 1738 1 is_stmt 0 view .LVU807
 3214 0000 0020     		movs	r0, #0
 3215              	.LVL197:
1738:Drivers/STM32F1xx_HAL_Driver/Src/stm32f1xx_hal_tim_ex.c **** 
 3216              		.loc 1 1738 1 view .LVU808
 3217 0002 7047     		bx	lr
 3218              		.cfi_endproc
 3219              	.LFE96:
 3221              		.section	.text.HAL_TIMEx_CommutCallback,"ax",%progbits
 3222              		.align	1
 3223              		.p2align 2,,3
 3224              		.weak	HAL_TIMEx_CommutCallback
 3225              		.syntax unified
 3226              		.thumb
 3227              		.thumb_func
 3228              		.fpu softvfp
 3230              	HAL_TIMEx_CommutCallback:
 3231              	.LFB107:
 3232              		.cfi_startproc
 3233              		@ args = 0, pretend = 0, frame = 0
 3234              		@ frame_needed = 0, uses_anonymous_args = 0
 3235              		@ link register save eliminated.
 3236 0000 7047     		bx	lr
 3237              		.cfi_endproc
 3238              	.LFE107:
 3240 0002 00BF     		.section	.text.TIMEx_DMACommutationCplt,"ax",%progbits
 3241              		.align	1
 3242              		.p2align 2,,3
 3243              		.global	TIMEx_DMACommutationCplt
 3244              		.syntax unified
 3245              		.thumb
 3246              		.thumb_func
 3247              		.fpu softvfp
 3249              	TIMEx_DMACommutationCplt:
 3250              	.LVL198:
 3251              	.LFB101:
1851:Drivers/STM32F1xx_HAL_Driver/Src/stm32f1xx_hal_tim_ex.c ****   TIM_HandleTypeDef *htim = (TIM_HandleTypeDef *)((DMA_HandleTypeDef *)hdma)->Parent;
 3252              		.loc 1 1851 1 is_stmt 1 view -0
 3253              		.cfi_startproc
 3254              		@ args = 0, pretend = 0, frame = 0
 3255              		@ frame_needed = 0, uses_anonymous_args = 0
1852:Drivers/STM32F1xx_HAL_Driver/Src/stm32f1xx_hal_tim_ex.c **** 
 3256              		.loc 1 1852 3 view .LVU810
1851:Drivers/STM32F1xx_HAL_Driver/Src/stm32f1xx_hal_tim_ex.c ****   TIM_HandleTypeDef *htim = (TIM_HandleTypeDef *)((DMA_HandleTypeDef *)hdma)->Parent;
 3257              		.loc 1 1851 1 is_stmt 0 view .LVU811
 3258 0000 08B5     		push	{r3, lr}
 3259              	.LCFI48:
 3260              		.cfi_def_cfa_offset 8
 3261              		.cfi_offset 3, -8
 3262              		.cfi_offset 14, -4
1855:Drivers/STM32F1xx_HAL_Driver/Src/stm32f1xx_hal_tim_ex.c **** 
 3263              		.loc 1 1855 15 view .LVU812
 3264 0002 0123     		movs	r3, #1
1852:Drivers/STM32F1xx_HAL_Driver/Src/stm32f1xx_hal_tim_ex.c **** 
ARM GAS  /var/folders/20/cstyxln53wn53rr40gj353bh0000gn/T//ccV5XGPK.s 			page 102


 3265              		.loc 1 1852 22 view .LVU813
 3266 0004 406A     		ldr	r0, [r0, #36]
 3267              	.LVL199:
1855:Drivers/STM32F1xx_HAL_Driver/Src/stm32f1xx_hal_tim_ex.c **** 
 3268              		.loc 1 1855 3 is_stmt 1 view .LVU814
1855:Drivers/STM32F1xx_HAL_Driver/Src/stm32f1xx_hal_tim_ex.c **** 
 3269              		.loc 1 1855 15 is_stmt 0 view .LVU815
 3270 0006 80F83D30 		strb	r3, [r0, #61]
1860:Drivers/STM32F1xx_HAL_Driver/Src/stm32f1xx_hal_tim_ex.c **** #endif /* USE_HAL_TIM_REGISTER_CALLBACKS */
 3271              		.loc 1 1860 3 is_stmt 1 view .LVU816
 3272 000a FFF7FEFF 		bl	HAL_TIMEx_CommutCallback
 3273              	.LVL200:
1862:Drivers/STM32F1xx_HAL_Driver/Src/stm32f1xx_hal_tim_ex.c **** 
 3274              		.loc 1 1862 1 is_stmt 0 view .LVU817
 3275 000e 08BD     		pop	{r3, pc}
 3276              		.cfi_endproc
 3277              	.LFE101:
 3279              		.section	.text.HAL_TIMEx_CommutHalfCpltCallback,"ax",%progbits
 3280              		.align	1
 3281              		.p2align 2,,3
 3282              		.weak	HAL_TIMEx_CommutHalfCpltCallback
 3283              		.syntax unified
 3284              		.thumb
 3285              		.thumb_func
 3286              		.fpu softvfp
 3288              	HAL_TIMEx_CommutHalfCpltCallback:
 3289              	.LFB109:
 3290              		.cfi_startproc
 3291              		@ args = 0, pretend = 0, frame = 0
 3292              		@ frame_needed = 0, uses_anonymous_args = 0
 3293              		@ link register save eliminated.
 3294 0000 7047     		bx	lr
 3295              		.cfi_endproc
 3296              	.LFE109:
 3298 0002 00BF     		.section	.text.TIMEx_DMACommutationHalfCplt,"ax",%progbits
 3299              		.align	1
 3300              		.p2align 2,,3
 3301              		.global	TIMEx_DMACommutationHalfCplt
 3302              		.syntax unified
 3303              		.thumb
 3304              		.thumb_func
 3305              		.fpu softvfp
 3307              	TIMEx_DMACommutationHalfCplt:
 3308              	.LVL201:
 3309              	.LFB102:
1870:Drivers/STM32F1xx_HAL_Driver/Src/stm32f1xx_hal_tim_ex.c ****   TIM_HandleTypeDef *htim = (TIM_HandleTypeDef *)((DMA_HandleTypeDef *)hdma)->Parent;
 3310              		.loc 1 1870 1 is_stmt 1 view -0
 3311              		.cfi_startproc
 3312              		@ args = 0, pretend = 0, frame = 0
 3313              		@ frame_needed = 0, uses_anonymous_args = 0
1871:Drivers/STM32F1xx_HAL_Driver/Src/stm32f1xx_hal_tim_ex.c **** 
 3314              		.loc 1 1871 3 view .LVU819
1870:Drivers/STM32F1xx_HAL_Driver/Src/stm32f1xx_hal_tim_ex.c ****   TIM_HandleTypeDef *htim = (TIM_HandleTypeDef *)((DMA_HandleTypeDef *)hdma)->Parent;
 3315              		.loc 1 1870 1 is_stmt 0 view .LVU820
 3316 0000 08B5     		push	{r3, lr}
 3317              	.LCFI49:
 3318              		.cfi_def_cfa_offset 8
ARM GAS  /var/folders/20/cstyxln53wn53rr40gj353bh0000gn/T//ccV5XGPK.s 			page 103


 3319              		.cfi_offset 3, -8
 3320              		.cfi_offset 14, -4
1874:Drivers/STM32F1xx_HAL_Driver/Src/stm32f1xx_hal_tim_ex.c **** 
 3321              		.loc 1 1874 15 view .LVU821
 3322 0002 0123     		movs	r3, #1
1871:Drivers/STM32F1xx_HAL_Driver/Src/stm32f1xx_hal_tim_ex.c **** 
 3323              		.loc 1 1871 22 view .LVU822
 3324 0004 406A     		ldr	r0, [r0, #36]
 3325              	.LVL202:
1874:Drivers/STM32F1xx_HAL_Driver/Src/stm32f1xx_hal_tim_ex.c **** 
 3326              		.loc 1 1874 3 is_stmt 1 view .LVU823
1874:Drivers/STM32F1xx_HAL_Driver/Src/stm32f1xx_hal_tim_ex.c **** 
 3327              		.loc 1 1874 15 is_stmt 0 view .LVU824
 3328 0006 80F83D30 		strb	r3, [r0, #61]
1879:Drivers/STM32F1xx_HAL_Driver/Src/stm32f1xx_hal_tim_ex.c **** #endif /* USE_HAL_TIM_REGISTER_CALLBACKS */
 3329              		.loc 1 1879 3 is_stmt 1 view .LVU825
 3330 000a FFF7FEFF 		bl	HAL_TIMEx_CommutHalfCpltCallback
 3331              	.LVL203:
1881:Drivers/STM32F1xx_HAL_Driver/Src/stm32f1xx_hal_tim_ex.c **** 
 3332              		.loc 1 1881 1 is_stmt 0 view .LVU826
 3333 000e 08BD     		pop	{r3, pc}
 3334              		.cfi_endproc
 3335              	.LFE102:
 3337              		.section	.text.HAL_TIMEx_BreakCallback,"ax",%progbits
 3338              		.align	1
 3339              		.p2align 2,,3
 3340              		.weak	HAL_TIMEx_BreakCallback
 3341              		.syntax unified
 3342              		.thumb
 3343              		.thumb_func
 3344              		.fpu softvfp
 3346              	HAL_TIMEx_BreakCallback:
 3347              	.LFB111:
 3348              		.cfi_startproc
 3349              		@ args = 0, pretend = 0, frame = 0
 3350              		@ frame_needed = 0, uses_anonymous_args = 0
 3351              		@ link register save eliminated.
 3352 0000 7047     		bx	lr
 3353              		.cfi_endproc
 3354              	.LFE111:
 3356 0002 00BF     		.section	.text.HAL_TIMEx_HallSensor_GetState,"ax",%progbits
 3357              		.align	1
 3358              		.p2align 2,,3
 3359              		.global	HAL_TIMEx_HallSensor_GetState
 3360              		.syntax unified
 3361              		.thumb
 3362              		.thumb_func
 3363              		.fpu softvfp
 3365              	HAL_TIMEx_HallSensor_GetState:
 3366              	.LVL204:
 3367              	.LFB100:
1828:Drivers/STM32F1xx_HAL_Driver/Src/stm32f1xx_hal_tim_ex.c ****   return htim->State;
 3368              		.loc 1 1828 1 is_stmt 1 view -0
 3369              		.cfi_startproc
 3370              		@ args = 0, pretend = 0, frame = 0
 3371              		@ frame_needed = 0, uses_anonymous_args = 0
 3372              		@ link register save eliminated.
ARM GAS  /var/folders/20/cstyxln53wn53rr40gj353bh0000gn/T//ccV5XGPK.s 			page 104


1829:Drivers/STM32F1xx_HAL_Driver/Src/stm32f1xx_hal_tim_ex.c **** }
 3373              		.loc 1 1829 3 view .LVU828
1829:Drivers/STM32F1xx_HAL_Driver/Src/stm32f1xx_hal_tim_ex.c **** }
 3374              		.loc 1 1829 14 is_stmt 0 view .LVU829
 3375 0000 90F83D00 		ldrb	r0, [r0, #61]	@ zero_extendqisi2
 3376              	.LVL205:
1830:Drivers/STM32F1xx_HAL_Driver/Src/stm32f1xx_hal_tim_ex.c **** 
 3377              		.loc 1 1830 1 view .LVU830
 3378 0004 7047     		bx	lr
 3379              		.cfi_endproc
 3380              	.LFE100:
 3382 0006 00BF     		.text
 3383              	.Letext0:
 3384              		.file 2 "/usr/local/gcc-arm-none-eabi-8-2019-q3-update/arm-none-eabi/include/machine/_default_type
 3385              		.file 3 "/usr/local/gcc-arm-none-eabi-8-2019-q3-update/arm-none-eabi/include/sys/_stdint.h"
 3386              		.file 4 "Drivers/CMSIS/Include/core_cm3.h"
 3387              		.file 5 "Drivers/CMSIS/Device/ST/STM32F1xx/Include/system_stm32f1xx.h"
 3388              		.file 6 "Drivers/CMSIS/Device/ST/STM32F1xx/Include/stm32f103xb.h"
 3389              		.file 7 "Drivers/CMSIS/Device/ST/STM32F1xx/Include/stm32f1xx.h"
 3390              		.file 8 "Drivers/STM32F1xx_HAL_Driver/Inc/stm32f1xx_hal_def.h"
 3391              		.file 9 "Drivers/STM32F1xx_HAL_Driver/Inc/stm32f1xx_hal_dma.h"
 3392              		.file 10 "Drivers/STM32F1xx_HAL_Driver/Inc/stm32f1xx_hal_tim.h"
 3393              		.file 11 "Drivers/STM32F1xx_HAL_Driver/Inc/stm32f1xx_hal_tim_ex.h"
 3394              		.file 12 "Drivers/STM32F1xx_HAL_Driver/Inc/stm32f1xx_hal.h"
ARM GAS  /var/folders/20/cstyxln53wn53rr40gj353bh0000gn/T//ccV5XGPK.s 			page 105


DEFINED SYMBOLS
                            *ABS*:0000000000000000 stm32f1xx_hal_tim_ex.c
/var/folders/20/cstyxln53wn53rr40gj353bh0000gn/T//ccV5XGPK.s:16     .text.HAL_TIMEx_HallSensor_MspInit:0000000000000000 $t
/var/folders/20/cstyxln53wn53rr40gj353bh0000gn/T//ccV5XGPK.s:25     .text.HAL_TIMEx_HallSensor_MspInit:0000000000000000 HAL_TIMEx_HallSensor_MspInit
/var/folders/20/cstyxln53wn53rr40gj353bh0000gn/T//ccV5XGPK.s:41     .text.HAL_TIMEx_HallSensor_Init:0000000000000000 $t
/var/folders/20/cstyxln53wn53rr40gj353bh0000gn/T//ccV5XGPK.s:49     .text.HAL_TIMEx_HallSensor_Init:0000000000000000 HAL_TIMEx_HallSensor_Init
/var/folders/20/cstyxln53wn53rr40gj353bh0000gn/T//ccV5XGPK.s:241    .text.HAL_TIMEx_HallSensor_MspDeInit:0000000000000000 $t
/var/folders/20/cstyxln53wn53rr40gj353bh0000gn/T//ccV5XGPK.s:249    .text.HAL_TIMEx_HallSensor_MspDeInit:0000000000000000 HAL_TIMEx_HallSensor_MspDeInit
/var/folders/20/cstyxln53wn53rr40gj353bh0000gn/T//ccV5XGPK.s:260    .text.HAL_TIMEx_HallSensor_DeInit:0000000000000000 $t
/var/folders/20/cstyxln53wn53rr40gj353bh0000gn/T//ccV5XGPK.s:268    .text.HAL_TIMEx_HallSensor_DeInit:0000000000000000 HAL_TIMEx_HallSensor_DeInit
/var/folders/20/cstyxln53wn53rr40gj353bh0000gn/T//ccV5XGPK.s:329    .text.HAL_TIMEx_HallSensor_Start:0000000000000000 $t
/var/folders/20/cstyxln53wn53rr40gj353bh0000gn/T//ccV5XGPK.s:337    .text.HAL_TIMEx_HallSensor_Start:0000000000000000 HAL_TIMEx_HallSensor_Start
/var/folders/20/cstyxln53wn53rr40gj353bh0000gn/T//ccV5XGPK.s:392    .text.HAL_TIMEx_HallSensor_Stop:0000000000000000 $t
/var/folders/20/cstyxln53wn53rr40gj353bh0000gn/T//ccV5XGPK.s:400    .text.HAL_TIMEx_HallSensor_Stop:0000000000000000 HAL_TIMEx_HallSensor_Stop
/var/folders/20/cstyxln53wn53rr40gj353bh0000gn/T//ccV5XGPK.s:451    .text.HAL_TIMEx_HallSensor_Start_IT:0000000000000000 $t
/var/folders/20/cstyxln53wn53rr40gj353bh0000gn/T//ccV5XGPK.s:459    .text.HAL_TIMEx_HallSensor_Start_IT:0000000000000000 HAL_TIMEx_HallSensor_Start_IT
/var/folders/20/cstyxln53wn53rr40gj353bh0000gn/T//ccV5XGPK.s:522    .text.HAL_TIMEx_HallSensor_Stop_IT:0000000000000000 $t
/var/folders/20/cstyxln53wn53rr40gj353bh0000gn/T//ccV5XGPK.s:530    .text.HAL_TIMEx_HallSensor_Stop_IT:0000000000000000 HAL_TIMEx_HallSensor_Stop_IT
/var/folders/20/cstyxln53wn53rr40gj353bh0000gn/T//ccV5XGPK.s:587    .text.HAL_TIMEx_HallSensor_Start_DMA:0000000000000000 $t
/var/folders/20/cstyxln53wn53rr40gj353bh0000gn/T//ccV5XGPK.s:595    .text.HAL_TIMEx_HallSensor_Start_DMA:0000000000000000 HAL_TIMEx_HallSensor_Start_DMA
/var/folders/20/cstyxln53wn53rr40gj353bh0000gn/T//ccV5XGPK.s:721    .text.HAL_TIMEx_HallSensor_Start_DMA:0000000000000070 $d
/var/folders/20/cstyxln53wn53rr40gj353bh0000gn/T//ccV5XGPK.s:728    .text.HAL_TIMEx_HallSensor_Stop_DMA:0000000000000000 $t
/var/folders/20/cstyxln53wn53rr40gj353bh0000gn/T//ccV5XGPK.s:736    .text.HAL_TIMEx_HallSensor_Stop_DMA:0000000000000000 HAL_TIMEx_HallSensor_Stop_DMA
/var/folders/20/cstyxln53wn53rr40gj353bh0000gn/T//ccV5XGPK.s:799    .text.HAL_TIMEx_OCN_Start:0000000000000000 $t
/var/folders/20/cstyxln53wn53rr40gj353bh0000gn/T//ccV5XGPK.s:807    .text.HAL_TIMEx_OCN_Start:0000000000000000 HAL_TIMEx_OCN_Start
/var/folders/20/cstyxln53wn53rr40gj353bh0000gn/T//ccV5XGPK.s:887    .text.HAL_TIMEx_OCN_Stop:0000000000000000 $t
/var/folders/20/cstyxln53wn53rr40gj353bh0000gn/T//ccV5XGPK.s:895    .text.HAL_TIMEx_OCN_Stop:0000000000000000 HAL_TIMEx_OCN_Stop
/var/folders/20/cstyxln53wn53rr40gj353bh0000gn/T//ccV5XGPK.s:1000   .text.HAL_TIMEx_OCN_Start_IT:0000000000000000 $t
/var/folders/20/cstyxln53wn53rr40gj353bh0000gn/T//ccV5XGPK.s:1008   .text.HAL_TIMEx_OCN_Start_IT:0000000000000000 HAL_TIMEx_OCN_Start_IT
/var/folders/20/cstyxln53wn53rr40gj353bh0000gn/T//ccV5XGPK.s:1127   .text.HAL_TIMEx_OCN_Stop_IT:0000000000000000 $t
/var/folders/20/cstyxln53wn53rr40gj353bh0000gn/T//ccV5XGPK.s:1135   .text.HAL_TIMEx_OCN_Stop_IT:0000000000000000 HAL_TIMEx_OCN_Stop_IT
/var/folders/20/cstyxln53wn53rr40gj353bh0000gn/T//ccV5XGPK.s:1286   .text.HAL_TIMEx_OCN_Start_DMA:0000000000000000 $t
/var/folders/20/cstyxln53wn53rr40gj353bh0000gn/T//ccV5XGPK.s:1294   .text.HAL_TIMEx_OCN_Start_DMA:0000000000000000 HAL_TIMEx_OCN_Start_DMA
/var/folders/20/cstyxln53wn53rr40gj353bh0000gn/T//ccV5XGPK.s:1553   .text.HAL_TIMEx_OCN_Start_DMA:00000000000000f8 $d
/var/folders/20/cstyxln53wn53rr40gj353bh0000gn/T//ccV5XGPK.s:1560   .text.HAL_TIMEx_OCN_Stop_DMA:0000000000000000 $t
/var/folders/20/cstyxln53wn53rr40gj353bh0000gn/T//ccV5XGPK.s:1568   .text.HAL_TIMEx_OCN_Stop_DMA:0000000000000000 HAL_TIMEx_OCN_Stop_DMA
/var/folders/20/cstyxln53wn53rr40gj353bh0000gn/T//ccV5XGPK.s:1733   .text.HAL_TIMEx_PWMN_Start:0000000000000000 $t
/var/folders/20/cstyxln53wn53rr40gj353bh0000gn/T//ccV5XGPK.s:1741   .text.HAL_TIMEx_PWMN_Start:0000000000000000 HAL_TIMEx_PWMN_Start
/var/folders/20/cstyxln53wn53rr40gj353bh0000gn/T//ccV5XGPK.s:1774   .text.HAL_TIMEx_PWMN_Stop:0000000000000000 $t
/var/folders/20/cstyxln53wn53rr40gj353bh0000gn/T//ccV5XGPK.s:1782   .text.HAL_TIMEx_PWMN_Stop:0000000000000000 HAL_TIMEx_PWMN_Stop
/var/folders/20/cstyxln53wn53rr40gj353bh0000gn/T//ccV5XGPK.s:1842   .text.HAL_TIMEx_PWMN_Start_IT:0000000000000000 $t
/var/folders/20/cstyxln53wn53rr40gj353bh0000gn/T//ccV5XGPK.s:1850   .text.HAL_TIMEx_PWMN_Start_IT:0000000000000000 HAL_TIMEx_PWMN_Start_IT
/var/folders/20/cstyxln53wn53rr40gj353bh0000gn/T//ccV5XGPK.s:1907   .text.HAL_TIMEx_PWMN_Stop_IT:0000000000000000 $t
/var/folders/20/cstyxln53wn53rr40gj353bh0000gn/T//ccV5XGPK.s:1915   .text.HAL_TIMEx_PWMN_Stop_IT:0000000000000000 HAL_TIMEx_PWMN_Stop_IT
/var/folders/20/cstyxln53wn53rr40gj353bh0000gn/T//ccV5XGPK.s:2003   .text.HAL_TIMEx_PWMN_Start_DMA:0000000000000000 $t
/var/folders/20/cstyxln53wn53rr40gj353bh0000gn/T//ccV5XGPK.s:2011   .text.HAL_TIMEx_PWMN_Start_DMA:0000000000000000 HAL_TIMEx_PWMN_Start_DMA
/var/folders/20/cstyxln53wn53rr40gj353bh0000gn/T//ccV5XGPK.s:2141   .text.HAL_TIMEx_PWMN_Start_DMA:00000000000000f8 $d
/var/folders/20/cstyxln53wn53rr40gj353bh0000gn/T//ccV5XGPK.s:2148   .text.HAL_TIMEx_PWMN_Stop_DMA:0000000000000000 $t
/var/folders/20/cstyxln53wn53rr40gj353bh0000gn/T//ccV5XGPK.s:2156   .text.HAL_TIMEx_PWMN_Stop_DMA:0000000000000000 HAL_TIMEx_PWMN_Stop_DMA
/var/folders/20/cstyxln53wn53rr40gj353bh0000gn/T//ccV5XGPK.s:2243   .text.HAL_TIMEx_OnePulseN_Start:0000000000000000 $t
/var/folders/20/cstyxln53wn53rr40gj353bh0000gn/T//ccV5XGPK.s:2251   .text.HAL_TIMEx_OnePulseN_Start:0000000000000000 HAL_TIMEx_OnePulseN_Start
/var/folders/20/cstyxln53wn53rr40gj353bh0000gn/T//ccV5XGPK.s:2318   .text.HAL_TIMEx_OnePulseN_Stop:0000000000000000 $t
/var/folders/20/cstyxln53wn53rr40gj353bh0000gn/T//ccV5XGPK.s:2326   .text.HAL_TIMEx_OnePulseN_Stop:0000000000000000 HAL_TIMEx_OnePulseN_Stop
/var/folders/20/cstyxln53wn53rr40gj353bh0000gn/T//ccV5XGPK.s:2386   .text.HAL_TIMEx_OnePulseN_Start_IT:0000000000000000 $t
/var/folders/20/cstyxln53wn53rr40gj353bh0000gn/T//ccV5XGPK.s:2394   .text.HAL_TIMEx_OnePulseN_Start_IT:0000000000000000 HAL_TIMEx_OnePulseN_Start_IT
/var/folders/20/cstyxln53wn53rr40gj353bh0000gn/T//ccV5XGPK.s:2474   .text.HAL_TIMEx_OnePulseN_Stop_IT:0000000000000000 $t
/var/folders/20/cstyxln53wn53rr40gj353bh0000gn/T//ccV5XGPK.s:2482   .text.HAL_TIMEx_OnePulseN_Stop_IT:0000000000000000 HAL_TIMEx_OnePulseN_Stop_IT
ARM GAS  /var/folders/20/cstyxln53wn53rr40gj353bh0000gn/T//ccV5XGPK.s 			page 106


/var/folders/20/cstyxln53wn53rr40gj353bh0000gn/T//ccV5XGPK.s:2600   .text.HAL_TIMEx_ConfigCommutEvent:0000000000000000 $t
/var/folders/20/cstyxln53wn53rr40gj353bh0000gn/T//ccV5XGPK.s:2608   .text.HAL_TIMEx_ConfigCommutEvent:0000000000000000 HAL_TIMEx_ConfigCommutEvent
/var/folders/20/cstyxln53wn53rr40gj353bh0000gn/T//ccV5XGPK.s:2720   .text.HAL_TIMEx_ConfigCommutEvent_IT:0000000000000000 $t
/var/folders/20/cstyxln53wn53rr40gj353bh0000gn/T//ccV5XGPK.s:2728   .text.HAL_TIMEx_ConfigCommutEvent_IT:0000000000000000 HAL_TIMEx_ConfigCommutEvent_IT
/var/folders/20/cstyxln53wn53rr40gj353bh0000gn/T//ccV5XGPK.s:2840   .text.HAL_TIMEx_ConfigCommutEvent_DMA:0000000000000000 $t
/var/folders/20/cstyxln53wn53rr40gj353bh0000gn/T//ccV5XGPK.s:2848   .text.HAL_TIMEx_ConfigCommutEvent_DMA:0000000000000000 HAL_TIMEx_ConfigCommutEvent_DMA
/var/folders/20/cstyxln53wn53rr40gj353bh0000gn/T//ccV5XGPK.s:2963   .text.HAL_TIMEx_ConfigCommutEvent_DMA:000000000000006c $d
/var/folders/20/cstyxln53wn53rr40gj353bh0000gn/T//ccV5XGPK.s:3307   .text.TIMEx_DMACommutationHalfCplt:0000000000000000 TIMEx_DMACommutationHalfCplt
/var/folders/20/cstyxln53wn53rr40gj353bh0000gn/T//ccV5XGPK.s:3249   .text.TIMEx_DMACommutationCplt:0000000000000000 TIMEx_DMACommutationCplt
/var/folders/20/cstyxln53wn53rr40gj353bh0000gn/T//ccV5XGPK.s:2970   .text.HAL_TIMEx_MasterConfigSynchronization:0000000000000000 $t
/var/folders/20/cstyxln53wn53rr40gj353bh0000gn/T//ccV5XGPK.s:2978   .text.HAL_TIMEx_MasterConfigSynchronization:0000000000000000 HAL_TIMEx_MasterConfigSynchronization
/var/folders/20/cstyxln53wn53rr40gj353bh0000gn/T//ccV5XGPK.s:3077   .text.HAL_TIMEx_ConfigBreakDeadTime:0000000000000000 $t
/var/folders/20/cstyxln53wn53rr40gj353bh0000gn/T//ccV5XGPK.s:3085   .text.HAL_TIMEx_ConfigBreakDeadTime:0000000000000000 HAL_TIMEx_ConfigBreakDeadTime
/var/folders/20/cstyxln53wn53rr40gj353bh0000gn/T//ccV5XGPK.s:3196   .text.HAL_TIMEx_RemapConfig:0000000000000000 $t
/var/folders/20/cstyxln53wn53rr40gj353bh0000gn/T//ccV5XGPK.s:3204   .text.HAL_TIMEx_RemapConfig:0000000000000000 HAL_TIMEx_RemapConfig
/var/folders/20/cstyxln53wn53rr40gj353bh0000gn/T//ccV5XGPK.s:3222   .text.HAL_TIMEx_CommutCallback:0000000000000000 $t
/var/folders/20/cstyxln53wn53rr40gj353bh0000gn/T//ccV5XGPK.s:3230   .text.HAL_TIMEx_CommutCallback:0000000000000000 HAL_TIMEx_CommutCallback
/var/folders/20/cstyxln53wn53rr40gj353bh0000gn/T//ccV5XGPK.s:3241   .text.TIMEx_DMACommutationCplt:0000000000000000 $t
/var/folders/20/cstyxln53wn53rr40gj353bh0000gn/T//ccV5XGPK.s:3280   .text.HAL_TIMEx_CommutHalfCpltCallback:0000000000000000 $t
/var/folders/20/cstyxln53wn53rr40gj353bh0000gn/T//ccV5XGPK.s:3288   .text.HAL_TIMEx_CommutHalfCpltCallback:0000000000000000 HAL_TIMEx_CommutHalfCpltCallback
/var/folders/20/cstyxln53wn53rr40gj353bh0000gn/T//ccV5XGPK.s:3299   .text.TIMEx_DMACommutationHalfCplt:0000000000000000 $t
/var/folders/20/cstyxln53wn53rr40gj353bh0000gn/T//ccV5XGPK.s:3338   .text.HAL_TIMEx_BreakCallback:0000000000000000 $t
/var/folders/20/cstyxln53wn53rr40gj353bh0000gn/T//ccV5XGPK.s:3346   .text.HAL_TIMEx_BreakCallback:0000000000000000 HAL_TIMEx_BreakCallback
/var/folders/20/cstyxln53wn53rr40gj353bh0000gn/T//ccV5XGPK.s:3357   .text.HAL_TIMEx_HallSensor_GetState:0000000000000000 $t
/var/folders/20/cstyxln53wn53rr40gj353bh0000gn/T//ccV5XGPK.s:3365   .text.HAL_TIMEx_HallSensor_GetState:0000000000000000 HAL_TIMEx_HallSensor_GetState

UNDEFINED SYMBOLS
TIM_Base_SetConfig
TIM_TI1_SetConfig
TIM_OC2_SetConfig
TIM_CCxChannelCmd
HAL_DMA_Start_IT
TIM_DMACaptureCplt
TIM_DMAError
TIM_DMACaptureHalfCplt
HAL_DMA_Abort_IT
TIM_DMADelayPulseCplt
TIM_DMADelayPulseHalfCplt
