ARM GAS  /var/folders/20/cstyxln53wn53rr40gj353bh0000gn/T//ccP3ZOe1.s 			page 1


   1              		.cpu cortex-m3
   2              		.eabi_attribute 20, 1
   3              		.eabi_attribute 21, 1
   4              		.eabi_attribute 23, 3
   5              		.eabi_attribute 24, 1
   6              		.eabi_attribute 25, 1
   7              		.eabi_attribute 26, 1
   8              		.eabi_attribute 30, 2
   9              		.eabi_attribute 34, 1
  10              		.eabi_attribute 18, 4
  11              		.file	"stm32f1xx_hal_dma.c"
  12              		.text
  13              	.Ltext0:
  14              		.cfi_sections	.debug_frame
  15              		.section	.text.HAL_DMA_Init,"ax",%progbits
  16              		.align	1
  17              		.p2align 2,,3
  18              		.global	HAL_DMA_Init
  19              		.arch armv7-m
  20              		.syntax unified
  21              		.thumb
  22              		.thumb_func
  23              		.fpu softvfp
  25              	HAL_DMA_Init:
  26              	.LVL0:
  27              	.LFB65:
  28              		.file 1 "Drivers/STM32F1xx_HAL_Driver/Src/stm32f1xx_hal_dma.c"
   1:Drivers/STM32F1xx_HAL_Driver/Src/stm32f1xx_hal_dma.c **** /**
   2:Drivers/STM32F1xx_HAL_Driver/Src/stm32f1xx_hal_dma.c ****   ******************************************************************************
   3:Drivers/STM32F1xx_HAL_Driver/Src/stm32f1xx_hal_dma.c ****   * @file    stm32f1xx_hal_dma.c
   4:Drivers/STM32F1xx_HAL_Driver/Src/stm32f1xx_hal_dma.c ****   * @author  MCD Application Team
   5:Drivers/STM32F1xx_HAL_Driver/Src/stm32f1xx_hal_dma.c ****   * @brief   DMA HAL module driver.
   6:Drivers/STM32F1xx_HAL_Driver/Src/stm32f1xx_hal_dma.c ****   *         This file provides firmware functions to manage the following
   7:Drivers/STM32F1xx_HAL_Driver/Src/stm32f1xx_hal_dma.c ****   *         functionalities of the Direct Memory Access (DMA) peripheral:
   8:Drivers/STM32F1xx_HAL_Driver/Src/stm32f1xx_hal_dma.c ****   *           + Initialization and de-initialization functions
   9:Drivers/STM32F1xx_HAL_Driver/Src/stm32f1xx_hal_dma.c ****   *           + IO operation functions
  10:Drivers/STM32F1xx_HAL_Driver/Src/stm32f1xx_hal_dma.c ****   *           + Peripheral State and errors functions
  11:Drivers/STM32F1xx_HAL_Driver/Src/stm32f1xx_hal_dma.c ****   @verbatim
  12:Drivers/STM32F1xx_HAL_Driver/Src/stm32f1xx_hal_dma.c ****   ==============================================================================
  13:Drivers/STM32F1xx_HAL_Driver/Src/stm32f1xx_hal_dma.c ****                         ##### How to use this driver #####
  14:Drivers/STM32F1xx_HAL_Driver/Src/stm32f1xx_hal_dma.c ****   ==============================================================================
  15:Drivers/STM32F1xx_HAL_Driver/Src/stm32f1xx_hal_dma.c ****   [..]
  16:Drivers/STM32F1xx_HAL_Driver/Src/stm32f1xx_hal_dma.c ****    (#) Enable and configure the peripheral to be connected to the DMA Channel
  17:Drivers/STM32F1xx_HAL_Driver/Src/stm32f1xx_hal_dma.c ****        (except for internal SRAM / FLASH memories: no initialization is 
  18:Drivers/STM32F1xx_HAL_Driver/Src/stm32f1xx_hal_dma.c ****        necessary). Please refer to the Reference manual for connection between peripherals
  19:Drivers/STM32F1xx_HAL_Driver/Src/stm32f1xx_hal_dma.c ****        and DMA requests.
  20:Drivers/STM32F1xx_HAL_Driver/Src/stm32f1xx_hal_dma.c **** 
  21:Drivers/STM32F1xx_HAL_Driver/Src/stm32f1xx_hal_dma.c ****    (#) For a given Channel, program the required configuration through the following parameters:
  22:Drivers/STM32F1xx_HAL_Driver/Src/stm32f1xx_hal_dma.c ****        Channel request, Transfer Direction, Source and Destination data formats,
  23:Drivers/STM32F1xx_HAL_Driver/Src/stm32f1xx_hal_dma.c ****        Circular or Normal mode, Channel Priority level, Source and Destination Increment mode
  24:Drivers/STM32F1xx_HAL_Driver/Src/stm32f1xx_hal_dma.c ****        using HAL_DMA_Init() function.
  25:Drivers/STM32F1xx_HAL_Driver/Src/stm32f1xx_hal_dma.c **** 
  26:Drivers/STM32F1xx_HAL_Driver/Src/stm32f1xx_hal_dma.c ****    (#) Use HAL_DMA_GetState() function to return the DMA state and HAL_DMA_GetError() in case of er
  27:Drivers/STM32F1xx_HAL_Driver/Src/stm32f1xx_hal_dma.c ****        detection.
  28:Drivers/STM32F1xx_HAL_Driver/Src/stm32f1xx_hal_dma.c ****                     
  29:Drivers/STM32F1xx_HAL_Driver/Src/stm32f1xx_hal_dma.c ****    (#) Use HAL_DMA_Abort() function to abort the current transfer
  30:Drivers/STM32F1xx_HAL_Driver/Src/stm32f1xx_hal_dma.c ****                    
ARM GAS  /var/folders/20/cstyxln53wn53rr40gj353bh0000gn/T//ccP3ZOe1.s 			page 2


  31:Drivers/STM32F1xx_HAL_Driver/Src/stm32f1xx_hal_dma.c ****      -@-   In Memory-to-Memory transfer mode, Circular mode is not allowed.
  32:Drivers/STM32F1xx_HAL_Driver/Src/stm32f1xx_hal_dma.c ****      *** Polling mode IO operation ***
  33:Drivers/STM32F1xx_HAL_Driver/Src/stm32f1xx_hal_dma.c ****      =================================
  34:Drivers/STM32F1xx_HAL_Driver/Src/stm32f1xx_hal_dma.c ****     [..]
  35:Drivers/STM32F1xx_HAL_Driver/Src/stm32f1xx_hal_dma.c ****           (+) Use HAL_DMA_Start() to start DMA transfer after the configuration of Source
  36:Drivers/STM32F1xx_HAL_Driver/Src/stm32f1xx_hal_dma.c ****               address and destination address and the Length of data to be transferred
  37:Drivers/STM32F1xx_HAL_Driver/Src/stm32f1xx_hal_dma.c ****           (+) Use HAL_DMA_PollForTransfer() to poll for the end of current transfer, in this
  38:Drivers/STM32F1xx_HAL_Driver/Src/stm32f1xx_hal_dma.c ****               case a fixed Timeout can be configured by User depending from his application.
  39:Drivers/STM32F1xx_HAL_Driver/Src/stm32f1xx_hal_dma.c **** 
  40:Drivers/STM32F1xx_HAL_Driver/Src/stm32f1xx_hal_dma.c ****      *** Interrupt mode IO operation ***
  41:Drivers/STM32F1xx_HAL_Driver/Src/stm32f1xx_hal_dma.c ****      ===================================
  42:Drivers/STM32F1xx_HAL_Driver/Src/stm32f1xx_hal_dma.c ****     [..]
  43:Drivers/STM32F1xx_HAL_Driver/Src/stm32f1xx_hal_dma.c ****           (+) Configure the DMA interrupt priority using HAL_NVIC_SetPriority()
  44:Drivers/STM32F1xx_HAL_Driver/Src/stm32f1xx_hal_dma.c ****           (+) Enable the DMA IRQ handler using HAL_NVIC_EnableIRQ()
  45:Drivers/STM32F1xx_HAL_Driver/Src/stm32f1xx_hal_dma.c ****           (+) Use HAL_DMA_Start_IT() to start DMA transfer after the configuration of
  46:Drivers/STM32F1xx_HAL_Driver/Src/stm32f1xx_hal_dma.c ****               Source address and destination address and the Length of data to be transferred.
  47:Drivers/STM32F1xx_HAL_Driver/Src/stm32f1xx_hal_dma.c ****               In this case the DMA interrupt is configured
  48:Drivers/STM32F1xx_HAL_Driver/Src/stm32f1xx_hal_dma.c ****           (+) Use HAL_DMA_IRQHandler() called under DMA_IRQHandler() Interrupt subroutine
  49:Drivers/STM32F1xx_HAL_Driver/Src/stm32f1xx_hal_dma.c ****           (+) At the end of data transfer HAL_DMA_IRQHandler() function is executed and user can
  50:Drivers/STM32F1xx_HAL_Driver/Src/stm32f1xx_hal_dma.c ****               add his own function by customization of function pointer XferCpltCallback and
  51:Drivers/STM32F1xx_HAL_Driver/Src/stm32f1xx_hal_dma.c ****               XferErrorCallback (i.e. a member of DMA handle structure).
  52:Drivers/STM32F1xx_HAL_Driver/Src/stm32f1xx_hal_dma.c **** 
  53:Drivers/STM32F1xx_HAL_Driver/Src/stm32f1xx_hal_dma.c ****      *** DMA HAL driver macros list ***
  54:Drivers/STM32F1xx_HAL_Driver/Src/stm32f1xx_hal_dma.c ****      ============================================= 
  55:Drivers/STM32F1xx_HAL_Driver/Src/stm32f1xx_hal_dma.c ****       [..]
  56:Drivers/STM32F1xx_HAL_Driver/Src/stm32f1xx_hal_dma.c ****        Below the list of most used macros in DMA HAL driver.
  57:Drivers/STM32F1xx_HAL_Driver/Src/stm32f1xx_hal_dma.c **** 
  58:Drivers/STM32F1xx_HAL_Driver/Src/stm32f1xx_hal_dma.c ****        (+) __HAL_DMA_ENABLE: Enable the specified DMA Channel.
  59:Drivers/STM32F1xx_HAL_Driver/Src/stm32f1xx_hal_dma.c ****        (+) __HAL_DMA_DISABLE: Disable the specified DMA Channel.
  60:Drivers/STM32F1xx_HAL_Driver/Src/stm32f1xx_hal_dma.c ****        (+) __HAL_DMA_GET_FLAG: Get the DMA Channel pending flags.
  61:Drivers/STM32F1xx_HAL_Driver/Src/stm32f1xx_hal_dma.c ****        (+) __HAL_DMA_CLEAR_FLAG: Clear the DMA Channel pending flags.
  62:Drivers/STM32F1xx_HAL_Driver/Src/stm32f1xx_hal_dma.c ****        (+) __HAL_DMA_ENABLE_IT: Enable the specified DMA Channel interrupts.
  63:Drivers/STM32F1xx_HAL_Driver/Src/stm32f1xx_hal_dma.c ****        (+) __HAL_DMA_DISABLE_IT: Disable the specified DMA Channel interrupts.
  64:Drivers/STM32F1xx_HAL_Driver/Src/stm32f1xx_hal_dma.c ****        (+) __HAL_DMA_GET_IT_SOURCE: Check whether the specified DMA Channel interrupt has occurred 
  65:Drivers/STM32F1xx_HAL_Driver/Src/stm32f1xx_hal_dma.c **** 
  66:Drivers/STM32F1xx_HAL_Driver/Src/stm32f1xx_hal_dma.c ****      [..] 
  67:Drivers/STM32F1xx_HAL_Driver/Src/stm32f1xx_hal_dma.c ****       (@) You can refer to the DMA HAL driver header file for more useful macros  
  68:Drivers/STM32F1xx_HAL_Driver/Src/stm32f1xx_hal_dma.c **** 
  69:Drivers/STM32F1xx_HAL_Driver/Src/stm32f1xx_hal_dma.c ****   @endverbatim
  70:Drivers/STM32F1xx_HAL_Driver/Src/stm32f1xx_hal_dma.c ****   ******************************************************************************
  71:Drivers/STM32F1xx_HAL_Driver/Src/stm32f1xx_hal_dma.c ****   * @attention
  72:Drivers/STM32F1xx_HAL_Driver/Src/stm32f1xx_hal_dma.c ****   *
  73:Drivers/STM32F1xx_HAL_Driver/Src/stm32f1xx_hal_dma.c ****   * <h2><center>&copy; Copyright (c) 2016 STMicroelectronics.
  74:Drivers/STM32F1xx_HAL_Driver/Src/stm32f1xx_hal_dma.c ****   * All rights reserved.</center></h2>
  75:Drivers/STM32F1xx_HAL_Driver/Src/stm32f1xx_hal_dma.c ****   *
  76:Drivers/STM32F1xx_HAL_Driver/Src/stm32f1xx_hal_dma.c ****   * This software component is licensed by ST under BSD 3-Clause license,
  77:Drivers/STM32F1xx_HAL_Driver/Src/stm32f1xx_hal_dma.c ****   * the "License"; You may not use this file except in compliance with the
  78:Drivers/STM32F1xx_HAL_Driver/Src/stm32f1xx_hal_dma.c ****   * License. You may obtain a copy of the License at:
  79:Drivers/STM32F1xx_HAL_Driver/Src/stm32f1xx_hal_dma.c ****   *                        opensource.org/licenses/BSD-3-Clause
  80:Drivers/STM32F1xx_HAL_Driver/Src/stm32f1xx_hal_dma.c ****   *
  81:Drivers/STM32F1xx_HAL_Driver/Src/stm32f1xx_hal_dma.c ****   ******************************************************************************
  82:Drivers/STM32F1xx_HAL_Driver/Src/stm32f1xx_hal_dma.c ****   */
  83:Drivers/STM32F1xx_HAL_Driver/Src/stm32f1xx_hal_dma.c **** 
  84:Drivers/STM32F1xx_HAL_Driver/Src/stm32f1xx_hal_dma.c **** /* Includes ------------------------------------------------------------------*/
  85:Drivers/STM32F1xx_HAL_Driver/Src/stm32f1xx_hal_dma.c **** #include "stm32f1xx_hal.h"
  86:Drivers/STM32F1xx_HAL_Driver/Src/stm32f1xx_hal_dma.c **** 
  87:Drivers/STM32F1xx_HAL_Driver/Src/stm32f1xx_hal_dma.c **** /** @addtogroup STM32F1xx_HAL_Driver
ARM GAS  /var/folders/20/cstyxln53wn53rr40gj353bh0000gn/T//ccP3ZOe1.s 			page 3


  88:Drivers/STM32F1xx_HAL_Driver/Src/stm32f1xx_hal_dma.c ****   * @{
  89:Drivers/STM32F1xx_HAL_Driver/Src/stm32f1xx_hal_dma.c ****   */
  90:Drivers/STM32F1xx_HAL_Driver/Src/stm32f1xx_hal_dma.c **** 
  91:Drivers/STM32F1xx_HAL_Driver/Src/stm32f1xx_hal_dma.c **** /** @defgroup DMA DMA
  92:Drivers/STM32F1xx_HAL_Driver/Src/stm32f1xx_hal_dma.c ****   * @brief DMA HAL module driver
  93:Drivers/STM32F1xx_HAL_Driver/Src/stm32f1xx_hal_dma.c ****   * @{
  94:Drivers/STM32F1xx_HAL_Driver/Src/stm32f1xx_hal_dma.c ****   */
  95:Drivers/STM32F1xx_HAL_Driver/Src/stm32f1xx_hal_dma.c **** 
  96:Drivers/STM32F1xx_HAL_Driver/Src/stm32f1xx_hal_dma.c **** #ifdef HAL_DMA_MODULE_ENABLED
  97:Drivers/STM32F1xx_HAL_Driver/Src/stm32f1xx_hal_dma.c **** 
  98:Drivers/STM32F1xx_HAL_Driver/Src/stm32f1xx_hal_dma.c **** /* Private typedef -----------------------------------------------------------*/
  99:Drivers/STM32F1xx_HAL_Driver/Src/stm32f1xx_hal_dma.c **** /* Private define ------------------------------------------------------------*/
 100:Drivers/STM32F1xx_HAL_Driver/Src/stm32f1xx_hal_dma.c **** /* Private macro -------------------------------------------------------------*/
 101:Drivers/STM32F1xx_HAL_Driver/Src/stm32f1xx_hal_dma.c **** /* Private variables ---------------------------------------------------------*/
 102:Drivers/STM32F1xx_HAL_Driver/Src/stm32f1xx_hal_dma.c **** /* Private function prototypes -----------------------------------------------*/
 103:Drivers/STM32F1xx_HAL_Driver/Src/stm32f1xx_hal_dma.c **** /** @defgroup DMA_Private_Functions DMA Private Functions
 104:Drivers/STM32F1xx_HAL_Driver/Src/stm32f1xx_hal_dma.c ****   * @{
 105:Drivers/STM32F1xx_HAL_Driver/Src/stm32f1xx_hal_dma.c ****   */
 106:Drivers/STM32F1xx_HAL_Driver/Src/stm32f1xx_hal_dma.c **** static void DMA_SetConfig(DMA_HandleTypeDef *hdma, uint32_t SrcAddress, uint32_t DstAddress, uint32
 107:Drivers/STM32F1xx_HAL_Driver/Src/stm32f1xx_hal_dma.c **** /**
 108:Drivers/STM32F1xx_HAL_Driver/Src/stm32f1xx_hal_dma.c ****   * @}
 109:Drivers/STM32F1xx_HAL_Driver/Src/stm32f1xx_hal_dma.c ****   */
 110:Drivers/STM32F1xx_HAL_Driver/Src/stm32f1xx_hal_dma.c **** 
 111:Drivers/STM32F1xx_HAL_Driver/Src/stm32f1xx_hal_dma.c **** /* Exported functions ---------------------------------------------------------*/
 112:Drivers/STM32F1xx_HAL_Driver/Src/stm32f1xx_hal_dma.c **** 
 113:Drivers/STM32F1xx_HAL_Driver/Src/stm32f1xx_hal_dma.c **** /** @defgroup DMA_Exported_Functions DMA Exported Functions
 114:Drivers/STM32F1xx_HAL_Driver/Src/stm32f1xx_hal_dma.c ****   * @{
 115:Drivers/STM32F1xx_HAL_Driver/Src/stm32f1xx_hal_dma.c ****   */
 116:Drivers/STM32F1xx_HAL_Driver/Src/stm32f1xx_hal_dma.c **** 
 117:Drivers/STM32F1xx_HAL_Driver/Src/stm32f1xx_hal_dma.c **** /** @defgroup DMA_Exported_Functions_Group1 Initialization and de-initialization functions
 118:Drivers/STM32F1xx_HAL_Driver/Src/stm32f1xx_hal_dma.c ****   *  @brief   Initialization and de-initialization functions 
 119:Drivers/STM32F1xx_HAL_Driver/Src/stm32f1xx_hal_dma.c ****   *
 120:Drivers/STM32F1xx_HAL_Driver/Src/stm32f1xx_hal_dma.c **** @verbatim
 121:Drivers/STM32F1xx_HAL_Driver/Src/stm32f1xx_hal_dma.c ****  ===============================================================================
 122:Drivers/STM32F1xx_HAL_Driver/Src/stm32f1xx_hal_dma.c ****              ##### Initialization and de-initialization functions  #####
 123:Drivers/STM32F1xx_HAL_Driver/Src/stm32f1xx_hal_dma.c ****  ===============================================================================
 124:Drivers/STM32F1xx_HAL_Driver/Src/stm32f1xx_hal_dma.c ****     [..]
 125:Drivers/STM32F1xx_HAL_Driver/Src/stm32f1xx_hal_dma.c ****     This section provides functions allowing to initialize the DMA Channel source
 126:Drivers/STM32F1xx_HAL_Driver/Src/stm32f1xx_hal_dma.c ****     and destination addresses, incrementation and data sizes, transfer direction, 
 127:Drivers/STM32F1xx_HAL_Driver/Src/stm32f1xx_hal_dma.c ****     circular/normal mode selection, memory-to-memory mode selection and Channel priority value.
 128:Drivers/STM32F1xx_HAL_Driver/Src/stm32f1xx_hal_dma.c ****     [..]
 129:Drivers/STM32F1xx_HAL_Driver/Src/stm32f1xx_hal_dma.c ****     The HAL_DMA_Init() function follows the DMA configuration procedures as described in
 130:Drivers/STM32F1xx_HAL_Driver/Src/stm32f1xx_hal_dma.c ****     reference manual.  
 131:Drivers/STM32F1xx_HAL_Driver/Src/stm32f1xx_hal_dma.c **** 
 132:Drivers/STM32F1xx_HAL_Driver/Src/stm32f1xx_hal_dma.c **** @endverbatim
 133:Drivers/STM32F1xx_HAL_Driver/Src/stm32f1xx_hal_dma.c ****   * @{
 134:Drivers/STM32F1xx_HAL_Driver/Src/stm32f1xx_hal_dma.c ****   */
 135:Drivers/STM32F1xx_HAL_Driver/Src/stm32f1xx_hal_dma.c **** 
 136:Drivers/STM32F1xx_HAL_Driver/Src/stm32f1xx_hal_dma.c **** /**
 137:Drivers/STM32F1xx_HAL_Driver/Src/stm32f1xx_hal_dma.c ****   * @brief  Initialize the DMA according to the specified
 138:Drivers/STM32F1xx_HAL_Driver/Src/stm32f1xx_hal_dma.c ****   *         parameters in the DMA_InitTypeDef and initialize the associated handle.
 139:Drivers/STM32F1xx_HAL_Driver/Src/stm32f1xx_hal_dma.c ****   * @param  hdma: Pointer to a DMA_HandleTypeDef structure that contains
 140:Drivers/STM32F1xx_HAL_Driver/Src/stm32f1xx_hal_dma.c ****   *               the configuration information for the specified DMA Channel.
 141:Drivers/STM32F1xx_HAL_Driver/Src/stm32f1xx_hal_dma.c ****   * @retval HAL status
 142:Drivers/STM32F1xx_HAL_Driver/Src/stm32f1xx_hal_dma.c ****   */
 143:Drivers/STM32F1xx_HAL_Driver/Src/stm32f1xx_hal_dma.c **** HAL_StatusTypeDef HAL_DMA_Init(DMA_HandleTypeDef *hdma)
 144:Drivers/STM32F1xx_HAL_Driver/Src/stm32f1xx_hal_dma.c **** {
ARM GAS  /var/folders/20/cstyxln53wn53rr40gj353bh0000gn/T//ccP3ZOe1.s 			page 4


  29              		.loc 1 144 1 view -0
  30              		.cfi_startproc
  31              		@ args = 0, pretend = 0, frame = 0
  32              		@ frame_needed = 0, uses_anonymous_args = 0
  33              		@ link register save eliminated.
 145:Drivers/STM32F1xx_HAL_Driver/Src/stm32f1xx_hal_dma.c ****   uint32_t tmp = 0U;
  34              		.loc 1 145 3 view .LVU1
 146:Drivers/STM32F1xx_HAL_Driver/Src/stm32f1xx_hal_dma.c **** 
 147:Drivers/STM32F1xx_HAL_Driver/Src/stm32f1xx_hal_dma.c ****   /* Check the DMA handle allocation */
 148:Drivers/STM32F1xx_HAL_Driver/Src/stm32f1xx_hal_dma.c ****   if(hdma == NULL)
  35              		.loc 1 148 3 view .LVU2
  36              		.loc 1 148 5 is_stmt 0 view .LVU3
  37 0000 40B3     		cbz	r0, .L3
 149:Drivers/STM32F1xx_HAL_Driver/Src/stm32f1xx_hal_dma.c ****   {
 150:Drivers/STM32F1xx_HAL_Driver/Src/stm32f1xx_hal_dma.c ****     return HAL_ERROR;
 151:Drivers/STM32F1xx_HAL_Driver/Src/stm32f1xx_hal_dma.c ****   }
 152:Drivers/STM32F1xx_HAL_Driver/Src/stm32f1xx_hal_dma.c **** 
 153:Drivers/STM32F1xx_HAL_Driver/Src/stm32f1xx_hal_dma.c ****   /* Check the parameters */
 154:Drivers/STM32F1xx_HAL_Driver/Src/stm32f1xx_hal_dma.c ****   assert_param(IS_DMA_ALL_INSTANCE(hdma->Instance));
  38              		.loc 1 154 3 is_stmt 1 view .LVU4
 155:Drivers/STM32F1xx_HAL_Driver/Src/stm32f1xx_hal_dma.c ****   assert_param(IS_DMA_DIRECTION(hdma->Init.Direction));
  39              		.loc 1 155 3 view .LVU5
 156:Drivers/STM32F1xx_HAL_Driver/Src/stm32f1xx_hal_dma.c ****   assert_param(IS_DMA_PERIPHERAL_INC_STATE(hdma->Init.PeriphInc));
  40              		.loc 1 156 3 view .LVU6
 157:Drivers/STM32F1xx_HAL_Driver/Src/stm32f1xx_hal_dma.c ****   assert_param(IS_DMA_MEMORY_INC_STATE(hdma->Init.MemInc));
  41              		.loc 1 157 3 view .LVU7
 158:Drivers/STM32F1xx_HAL_Driver/Src/stm32f1xx_hal_dma.c ****   assert_param(IS_DMA_PERIPHERAL_DATA_SIZE(hdma->Init.PeriphDataAlignment));
  42              		.loc 1 158 3 view .LVU8
 159:Drivers/STM32F1xx_HAL_Driver/Src/stm32f1xx_hal_dma.c ****   assert_param(IS_DMA_MEMORY_DATA_SIZE(hdma->Init.MemDataAlignment));
  43              		.loc 1 159 3 view .LVU9
 160:Drivers/STM32F1xx_HAL_Driver/Src/stm32f1xx_hal_dma.c ****   assert_param(IS_DMA_MODE(hdma->Init.Mode));
  44              		.loc 1 160 3 view .LVU10
 161:Drivers/STM32F1xx_HAL_Driver/Src/stm32f1xx_hal_dma.c ****   assert_param(IS_DMA_PRIORITY(hdma->Init.Priority));
  45              		.loc 1 161 3 view .LVU11
 162:Drivers/STM32F1xx_HAL_Driver/Src/stm32f1xx_hal_dma.c **** 
 163:Drivers/STM32F1xx_HAL_Driver/Src/stm32f1xx_hal_dma.c **** #if defined (DMA2)
 164:Drivers/STM32F1xx_HAL_Driver/Src/stm32f1xx_hal_dma.c ****   /* calculation of the channel index */
 165:Drivers/STM32F1xx_HAL_Driver/Src/stm32f1xx_hal_dma.c ****   if ((uint32_t)(hdma->Instance) < (uint32_t)(DMA2_Channel1))
 166:Drivers/STM32F1xx_HAL_Driver/Src/stm32f1xx_hal_dma.c ****   {
 167:Drivers/STM32F1xx_HAL_Driver/Src/stm32f1xx_hal_dma.c ****     /* DMA1 */
 168:Drivers/STM32F1xx_HAL_Driver/Src/stm32f1xx_hal_dma.c ****     hdma->ChannelIndex = (((uint32_t)hdma->Instance - (uint32_t)DMA1_Channel1) / ((uint32_t)DMA1_Ch
 169:Drivers/STM32F1xx_HAL_Driver/Src/stm32f1xx_hal_dma.c ****     hdma->DmaBaseAddress = DMA1;
 170:Drivers/STM32F1xx_HAL_Driver/Src/stm32f1xx_hal_dma.c ****   }
 171:Drivers/STM32F1xx_HAL_Driver/Src/stm32f1xx_hal_dma.c ****   else 
 172:Drivers/STM32F1xx_HAL_Driver/Src/stm32f1xx_hal_dma.c ****   {
 173:Drivers/STM32F1xx_HAL_Driver/Src/stm32f1xx_hal_dma.c ****     /* DMA2 */
 174:Drivers/STM32F1xx_HAL_Driver/Src/stm32f1xx_hal_dma.c ****     hdma->ChannelIndex = (((uint32_t)hdma->Instance - (uint32_t)DMA2_Channel1) / ((uint32_t)DMA2_Ch
 175:Drivers/STM32F1xx_HAL_Driver/Src/stm32f1xx_hal_dma.c ****     hdma->DmaBaseAddress = DMA2;
 176:Drivers/STM32F1xx_HAL_Driver/Src/stm32f1xx_hal_dma.c ****   }
 177:Drivers/STM32F1xx_HAL_Driver/Src/stm32f1xx_hal_dma.c **** #else
 178:Drivers/STM32F1xx_HAL_Driver/Src/stm32f1xx_hal_dma.c ****   /* DMA1 */
 179:Drivers/STM32F1xx_HAL_Driver/Src/stm32f1xx_hal_dma.c ****   hdma->ChannelIndex = (((uint32_t)hdma->Instance - (uint32_t)DMA1_Channel1) / ((uint32_t)DMA1_Chan
  46              		.loc 1 179 3 view .LVU12
  47 0002 0246     		mov	r2, r0
 144:Drivers/STM32F1xx_HAL_Driver/Src/stm32f1xx_hal_dma.c ****   uint32_t tmp = 0U;
  48              		.loc 1 144 1 is_stmt 0 view .LVU13
  49 0004 F0B4     		push	{r4, r5, r6, r7}
ARM GAS  /var/folders/20/cstyxln53wn53rr40gj353bh0000gn/T//ccP3ZOe1.s 			page 5


  50              	.LCFI0:
  51              		.cfi_def_cfa_offset 16
  52              		.cfi_offset 4, -16
  53              		.cfi_offset 5, -12
  54              		.cfi_offset 6, -8
  55              		.cfi_offset 7, -4
 180:Drivers/STM32F1xx_HAL_Driver/Src/stm32f1xx_hal_dma.c ****   hdma->DmaBaseAddress = DMA1;
 181:Drivers/STM32F1xx_HAL_Driver/Src/stm32f1xx_hal_dma.c **** #endif /* DMA2 */
 182:Drivers/STM32F1xx_HAL_Driver/Src/stm32f1xx_hal_dma.c **** 
 183:Drivers/STM32F1xx_HAL_Driver/Src/stm32f1xx_hal_dma.c ****   /* Change DMA peripheral state */
 184:Drivers/STM32F1xx_HAL_Driver/Src/stm32f1xx_hal_dma.c ****   hdma->State = HAL_DMA_STATE_BUSY;
 185:Drivers/STM32F1xx_HAL_Driver/Src/stm32f1xx_hal_dma.c **** 
 186:Drivers/STM32F1xx_HAL_Driver/Src/stm32f1xx_hal_dma.c ****   /* Get the CR register value */
 187:Drivers/STM32F1xx_HAL_Driver/Src/stm32f1xx_hal_dma.c ****   tmp = hdma->Instance->CCR;
 188:Drivers/STM32F1xx_HAL_Driver/Src/stm32f1xx_hal_dma.c **** 
 189:Drivers/STM32F1xx_HAL_Driver/Src/stm32f1xx_hal_dma.c ****   /* Clear PL, MSIZE, PSIZE, MINC, PINC, CIRC and DIR bits */
 190:Drivers/STM32F1xx_HAL_Driver/Src/stm32f1xx_hal_dma.c ****   tmp &= ((uint32_t)~(DMA_CCR_PL    | DMA_CCR_MSIZE  | DMA_CCR_PSIZE  | \
 191:Drivers/STM32F1xx_HAL_Driver/Src/stm32f1xx_hal_dma.c ****                       DMA_CCR_MINC  | DMA_CCR_PINC   | DMA_CCR_CIRC   | \
 192:Drivers/STM32F1xx_HAL_Driver/Src/stm32f1xx_hal_dma.c ****                       DMA_CCR_DIR));
 193:Drivers/STM32F1xx_HAL_Driver/Src/stm32f1xx_hal_dma.c **** 
 194:Drivers/STM32F1xx_HAL_Driver/Src/stm32f1xx_hal_dma.c ****   /* Prepare the DMA Channel configuration */
 195:Drivers/STM32F1xx_HAL_Driver/Src/stm32f1xx_hal_dma.c ****   tmp |=  hdma->Init.Direction        |
  56              		.loc 1 195 39 view .LVU14
  57 0006 D0E90136 		ldrd	r3, r6, [r0, #4]
 196:Drivers/STM32F1xx_HAL_Driver/Src/stm32f1xx_hal_dma.c ****           hdma->Init.PeriphInc           | hdma->Init.MemInc           |
 197:Drivers/STM32F1xx_HAL_Driver/Src/stm32f1xx_hal_dma.c ****           hdma->Init.PeriphDataAlignment | hdma->Init.MemDataAlignment |
 198:Drivers/STM32F1xx_HAL_Driver/Src/stm32f1xx_hal_dma.c ****           hdma->Init.Mode                | hdma->Init.Priority;
 199:Drivers/STM32F1xx_HAL_Driver/Src/stm32f1xx_hal_dma.c **** 
 200:Drivers/STM32F1xx_HAL_Driver/Src/stm32f1xx_hal_dma.c ****   /* Write to DMA Channel CR register */
 201:Drivers/STM32F1xx_HAL_Driver/Src/stm32f1xx_hal_dma.c ****   hdma->Instance->CCR = tmp;
 202:Drivers/STM32F1xx_HAL_Driver/Src/stm32f1xx_hal_dma.c **** 
 203:Drivers/STM32F1xx_HAL_Driver/Src/stm32f1xx_hal_dma.c ****   /* Initialise the error code */
 204:Drivers/STM32F1xx_HAL_Driver/Src/stm32f1xx_hal_dma.c ****   hdma->ErrorCode = HAL_DMA_ERROR_NONE;
 205:Drivers/STM32F1xx_HAL_Driver/Src/stm32f1xx_hal_dma.c **** 
 206:Drivers/STM32F1xx_HAL_Driver/Src/stm32f1xx_hal_dma.c ****   /* Initialize the DMA state*/
 207:Drivers/STM32F1xx_HAL_Driver/Src/stm32f1xx_hal_dma.c ****   hdma->State = HAL_DMA_STATE_READY;
 208:Drivers/STM32F1xx_HAL_Driver/Src/stm32f1xx_hal_dma.c ****   /* Allocate lock resource and initialize it */
 209:Drivers/STM32F1xx_HAL_Driver/Src/stm32f1xx_hal_dma.c ****   hdma->Lock = HAL_UNLOCKED;
  58              		.loc 1 209 14 view .LVU15
  59 000a 4FF48075 		mov	r5, #256
 204:Drivers/STM32F1xx_HAL_Driver/Src/stm32f1xx_hal_dma.c **** 
  60              		.loc 1 204 19 view .LVU16
  61 000e 0024     		movs	r4, #0
 195:Drivers/STM32F1xx_HAL_Driver/Src/stm32f1xx_hal_dma.c ****           hdma->Init.PeriphInc           | hdma->Init.MemInc           |
  62              		.loc 1 195 39 view .LVU17
  63 0010 3343     		orrs	r3, r3, r6
 196:Drivers/STM32F1xx_HAL_Driver/Src/stm32f1xx_hal_dma.c ****           hdma->Init.PeriphInc           | hdma->Init.MemInc           |
  64              		.loc 1 196 42 view .LVU18
  65 0012 D668     		ldr	r6, [r2, #12]
 179:Drivers/STM32F1xx_HAL_Driver/Src/stm32f1xx_hal_dma.c ****   hdma->DmaBaseAddress = DMA1;
  66              		.loc 1 179 40 view .LVU19
  67 0014 0068     		ldr	r0, [r0]
  68              	.LVL1:
 196:Drivers/STM32F1xx_HAL_Driver/Src/stm32f1xx_hal_dma.c ****           hdma->Init.PeriphDataAlignment | hdma->Init.MemDataAlignment |
  69              		.loc 1 196 42 view .LVU20
  70 0016 3343     		orrs	r3, r3, r6
 179:Drivers/STM32F1xx_HAL_Driver/Src/stm32f1xx_hal_dma.c ****   hdma->DmaBaseAddress = DMA1;
ARM GAS  /var/folders/20/cstyxln53wn53rr40gj353bh0000gn/T//ccP3ZOe1.s 			page 6


  71              		.loc 1 179 51 view .LVU21
  72 0018 0F49     		ldr	r1, .L9
 196:Drivers/STM32F1xx_HAL_Driver/Src/stm32f1xx_hal_dma.c ****           hdma->Init.PeriphDataAlignment | hdma->Init.MemDataAlignment |
  73              		.loc 1 196 72 view .LVU22
  74 001a 1669     		ldr	r6, [r2, #16]
 179:Drivers/STM32F1xx_HAL_Driver/Src/stm32f1xx_hal_dma.c ****   hdma->DmaBaseAddress = DMA1;
  75              		.loc 1 179 78 view .LVU23
  76 001c 0F4F     		ldr	r7, .L9+4
 179:Drivers/STM32F1xx_HAL_Driver/Src/stm32f1xx_hal_dma.c ****   hdma->DmaBaseAddress = DMA1;
  77              		.loc 1 179 51 view .LVU24
  78 001e 0144     		add	r1, r1, r0
 196:Drivers/STM32F1xx_HAL_Driver/Src/stm32f1xx_hal_dma.c ****           hdma->Init.PeriphDataAlignment | hdma->Init.MemDataAlignment |
  79              		.loc 1 196 72 view .LVU25
  80 0020 3343     		orrs	r3, r3, r6
 197:Drivers/STM32F1xx_HAL_Driver/Src/stm32f1xx_hal_dma.c ****           hdma->Init.Mode                | hdma->Init.Priority;
  81              		.loc 1 197 42 view .LVU26
  82 0022 5669     		ldr	r6, [r2, #20]
 179:Drivers/STM32F1xx_HAL_Driver/Src/stm32f1xx_hal_dma.c ****   hdma->DmaBaseAddress = DMA1;
  83              		.loc 1 179 78 view .LVU27
  84 0024 A7FB0171 		umull	r7, r1, r7, r1
 197:Drivers/STM32F1xx_HAL_Driver/Src/stm32f1xx_hal_dma.c ****           hdma->Init.Mode                | hdma->Init.Priority;
  85              		.loc 1 197 42 view .LVU28
  86 0028 3343     		orrs	r3, r3, r6
 197:Drivers/STM32F1xx_HAL_Driver/Src/stm32f1xx_hal_dma.c ****           hdma->Init.Mode                | hdma->Init.Priority;
  87              		.loc 1 197 72 view .LVU29
  88 002a 9669     		ldr	r6, [r2, #24]
 198:Drivers/STM32F1xx_HAL_Driver/Src/stm32f1xx_hal_dma.c **** 
  89              		.loc 1 198 42 view .LVU30
  90 002c D769     		ldr	r7, [r2, #28]
 197:Drivers/STM32F1xx_HAL_Driver/Src/stm32f1xx_hal_dma.c ****           hdma->Init.Mode                | hdma->Init.Priority;
  91              		.loc 1 197 72 view .LVU31
  92 002e 3343     		orrs	r3, r3, r6
 187:Drivers/STM32F1xx_HAL_Driver/Src/stm32f1xx_hal_dma.c **** 
  93              		.loc 1 187 7 view .LVU32
  94 0030 0668     		ldr	r6, [r0]
  95              	.LVL2:
 179:Drivers/STM32F1xx_HAL_Driver/Src/stm32f1xx_hal_dma.c ****   hdma->DmaBaseAddress = DMA1;
  96              		.loc 1 179 78 view .LVU33
  97 0032 0909     		lsrs	r1, r1, #4
 179:Drivers/STM32F1xx_HAL_Driver/Src/stm32f1xx_hal_dma.c ****   hdma->DmaBaseAddress = DMA1;
  98              		.loc 1 179 133 view .LVU34
  99 0034 8900     		lsls	r1, r1, #2
 190:Drivers/STM32F1xx_HAL_Driver/Src/stm32f1xx_hal_dma.c ****                       DMA_CCR_MINC  | DMA_CCR_PINC   | DMA_CCR_CIRC   | \
 100              		.loc 1 190 7 view .LVU35
 101 0036 26F47F56 		bic	r6, r6, #16320
 198:Drivers/STM32F1xx_HAL_Driver/Src/stm32f1xx_hal_dma.c **** 
 102              		.loc 1 198 42 view .LVU36
 103 003a 3B43     		orrs	r3, r3, r7
 190:Drivers/STM32F1xx_HAL_Driver/Src/stm32f1xx_hal_dma.c ****                       DMA_CCR_MINC  | DMA_CCR_PINC   | DMA_CCR_CIRC   | \
 104              		.loc 1 190 7 view .LVU37
 105 003c 26F03006 		bic	r6, r6, #48
 179:Drivers/STM32F1xx_HAL_Driver/Src/stm32f1xx_hal_dma.c ****   hdma->DmaBaseAddress = DMA1;
 106              		.loc 1 179 22 view .LVU38
 107 0040 1164     		str	r1, [r2, #64]
 180:Drivers/STM32F1xx_HAL_Driver/Src/stm32f1xx_hal_dma.c **** #endif /* DMA2 */
 108              		.loc 1 180 3 is_stmt 1 view .LVU39
 180:Drivers/STM32F1xx_HAL_Driver/Src/stm32f1xx_hal_dma.c **** #endif /* DMA2 */
ARM GAS  /var/folders/20/cstyxln53wn53rr40gj353bh0000gn/T//ccP3ZOe1.s 			page 7


 109              		.loc 1 180 24 is_stmt 0 view .LVU40
 110 0042 0749     		ldr	r1, .L9+8
 195:Drivers/STM32F1xx_HAL_Driver/Src/stm32f1xx_hal_dma.c ****           hdma->Init.PeriphInc           | hdma->Init.MemInc           |
 111              		.loc 1 195 7 view .LVU41
 112 0044 3343     		orrs	r3, r3, r6
 180:Drivers/STM32F1xx_HAL_Driver/Src/stm32f1xx_hal_dma.c **** #endif /* DMA2 */
 113              		.loc 1 180 24 view .LVU42
 114 0046 D163     		str	r1, [r2, #60]
 184:Drivers/STM32F1xx_HAL_Driver/Src/stm32f1xx_hal_dma.c **** 
 115              		.loc 1 184 3 is_stmt 1 view .LVU43
 187:Drivers/STM32F1xx_HAL_Driver/Src/stm32f1xx_hal_dma.c **** 
 116              		.loc 1 187 3 view .LVU44
 190:Drivers/STM32F1xx_HAL_Driver/Src/stm32f1xx_hal_dma.c ****                       DMA_CCR_MINC  | DMA_CCR_PINC   | DMA_CCR_CIRC   | \
 117              		.loc 1 190 3 view .LVU45
 118              	.LVL3:
 195:Drivers/STM32F1xx_HAL_Driver/Src/stm32f1xx_hal_dma.c ****           hdma->Init.PeriphInc           | hdma->Init.MemInc           |
 119              		.loc 1 195 3 view .LVU46
 201:Drivers/STM32F1xx_HAL_Driver/Src/stm32f1xx_hal_dma.c **** 
 120              		.loc 1 201 3 view .LVU47
 201:Drivers/STM32F1xx_HAL_Driver/Src/stm32f1xx_hal_dma.c **** 
 121              		.loc 1 201 23 is_stmt 0 view .LVU48
 122 0048 0360     		str	r3, [r0]
 204:Drivers/STM32F1xx_HAL_Driver/Src/stm32f1xx_hal_dma.c **** 
 123              		.loc 1 204 3 is_stmt 1 view .LVU49
 124              		.loc 1 209 14 is_stmt 0 view .LVU50
 125 004a 1584     		strh	r5, [r2, #32]	@ movhi
 210:Drivers/STM32F1xx_HAL_Driver/Src/stm32f1xx_hal_dma.c **** 
 211:Drivers/STM32F1xx_HAL_Driver/Src/stm32f1xx_hal_dma.c ****   return HAL_OK;
 126              		.loc 1 211 10 view .LVU51
 127 004c 2046     		mov	r0, r4
 204:Drivers/STM32F1xx_HAL_Driver/Src/stm32f1xx_hal_dma.c **** 
 128              		.loc 1 204 19 view .LVU52
 129 004e 9463     		str	r4, [r2, #56]
 207:Drivers/STM32F1xx_HAL_Driver/Src/stm32f1xx_hal_dma.c ****   /* Allocate lock resource and initialize it */
 130              		.loc 1 207 3 is_stmt 1 view .LVU53
 209:Drivers/STM32F1xx_HAL_Driver/Src/stm32f1xx_hal_dma.c **** 
 131              		.loc 1 209 3 view .LVU54
 132              		.loc 1 211 3 view .LVU55
 212:Drivers/STM32F1xx_HAL_Driver/Src/stm32f1xx_hal_dma.c **** }
 133              		.loc 1 212 1 is_stmt 0 view .LVU56
 134 0050 F0BC     		pop	{r4, r5, r6, r7}
 135              	.LCFI1:
 136              		.cfi_restore 7
 137              		.cfi_restore 6
 138              		.cfi_restore 5
 139              		.cfi_restore 4
 140              		.cfi_def_cfa_offset 0
 141 0052 7047     		bx	lr
 142              	.LVL4:
 143              	.L3:
 150:Drivers/STM32F1xx_HAL_Driver/Src/stm32f1xx_hal_dma.c ****   }
 144              		.loc 1 150 12 view .LVU57
 145 0054 0120     		movs	r0, #1
 146              	.LVL5:
 147              		.loc 1 212 1 view .LVU58
 148 0056 7047     		bx	lr
 149              	.L10:
ARM GAS  /var/folders/20/cstyxln53wn53rr40gj353bh0000gn/T//ccP3ZOe1.s 			page 8


 150              		.align	2
 151              	.L9:
 152 0058 F8FFFDBF 		.word	-1073872904
 153 005c CDCCCCCC 		.word	-858993459
 154 0060 00000240 		.word	1073872896
 155              		.cfi_endproc
 156              	.LFE65:
 158              		.section	.text.HAL_DMA_DeInit,"ax",%progbits
 159              		.align	1
 160              		.p2align 2,,3
 161              		.global	HAL_DMA_DeInit
 162              		.syntax unified
 163              		.thumb
 164              		.thumb_func
 165              		.fpu softvfp
 167              	HAL_DMA_DeInit:
 168              	.LVL6:
 169              	.LFB66:
 213:Drivers/STM32F1xx_HAL_Driver/Src/stm32f1xx_hal_dma.c **** 
 214:Drivers/STM32F1xx_HAL_Driver/Src/stm32f1xx_hal_dma.c **** /**
 215:Drivers/STM32F1xx_HAL_Driver/Src/stm32f1xx_hal_dma.c ****   * @brief  DeInitialize the DMA peripheral.
 216:Drivers/STM32F1xx_HAL_Driver/Src/stm32f1xx_hal_dma.c ****   * @param  hdma: pointer to a DMA_HandleTypeDef structure that contains
 217:Drivers/STM32F1xx_HAL_Driver/Src/stm32f1xx_hal_dma.c ****   *               the configuration information for the specified DMA Channel.
 218:Drivers/STM32F1xx_HAL_Driver/Src/stm32f1xx_hal_dma.c ****   * @retval HAL status
 219:Drivers/STM32F1xx_HAL_Driver/Src/stm32f1xx_hal_dma.c ****   */
 220:Drivers/STM32F1xx_HAL_Driver/Src/stm32f1xx_hal_dma.c **** HAL_StatusTypeDef HAL_DMA_DeInit(DMA_HandleTypeDef *hdma)
 221:Drivers/STM32F1xx_HAL_Driver/Src/stm32f1xx_hal_dma.c **** {
 170              		.loc 1 221 1 is_stmt 1 view -0
 171              		.cfi_startproc
 172              		@ args = 0, pretend = 0, frame = 0
 173              		@ frame_needed = 0, uses_anonymous_args = 0
 174              		@ link register save eliminated.
 222:Drivers/STM32F1xx_HAL_Driver/Src/stm32f1xx_hal_dma.c ****   /* Check the DMA handle allocation */
 223:Drivers/STM32F1xx_HAL_Driver/Src/stm32f1xx_hal_dma.c ****   if(hdma == NULL)
 175              		.loc 1 223 3 view .LVU60
 176              		.loc 1 223 5 is_stmt 0 view .LVU61
 177 0000 08B3     		cbz	r0, .L13
 224:Drivers/STM32F1xx_HAL_Driver/Src/stm32f1xx_hal_dma.c ****   {
 225:Drivers/STM32F1xx_HAL_Driver/Src/stm32f1xx_hal_dma.c ****     return HAL_ERROR;
 226:Drivers/STM32F1xx_HAL_Driver/Src/stm32f1xx_hal_dma.c ****   }
 227:Drivers/STM32F1xx_HAL_Driver/Src/stm32f1xx_hal_dma.c **** 
 228:Drivers/STM32F1xx_HAL_Driver/Src/stm32f1xx_hal_dma.c ****   /* Check the parameters */
 229:Drivers/STM32F1xx_HAL_Driver/Src/stm32f1xx_hal_dma.c ****   assert_param(IS_DMA_ALL_INSTANCE(hdma->Instance));
 178              		.loc 1 229 3 is_stmt 1 view .LVU62
 230:Drivers/STM32F1xx_HAL_Driver/Src/stm32f1xx_hal_dma.c **** 
 231:Drivers/STM32F1xx_HAL_Driver/Src/stm32f1xx_hal_dma.c ****   /* Disable the selected DMA Channelx */
 232:Drivers/STM32F1xx_HAL_Driver/Src/stm32f1xx_hal_dma.c ****   __HAL_DMA_DISABLE(hdma);
 179              		.loc 1 232 3 view .LVU63
 221:Drivers/STM32F1xx_HAL_Driver/Src/stm32f1xx_hal_dma.c ****   /* Check the DMA handle allocation */
 180              		.loc 1 221 1 is_stmt 0 view .LVU64
 181 0002 30B4     		push	{r4, r5}
 182              	.LCFI2:
 183              		.cfi_def_cfa_offset 8
 184              		.cfi_offset 4, -8
 185              		.cfi_offset 5, -4
 233:Drivers/STM32F1xx_HAL_Driver/Src/stm32f1xx_hal_dma.c **** 
 234:Drivers/STM32F1xx_HAL_Driver/Src/stm32f1xx_hal_dma.c ****   /* Reset DMA Channel control register */
ARM GAS  /var/folders/20/cstyxln53wn53rr40gj353bh0000gn/T//ccP3ZOe1.s 			page 9


 235:Drivers/STM32F1xx_HAL_Driver/Src/stm32f1xx_hal_dma.c ****   hdma->Instance->CCR  = 0U;
 236:Drivers/STM32F1xx_HAL_Driver/Src/stm32f1xx_hal_dma.c **** 
 237:Drivers/STM32F1xx_HAL_Driver/Src/stm32f1xx_hal_dma.c ****   /* Reset DMA Channel Number of Data to Transfer register */
 238:Drivers/STM32F1xx_HAL_Driver/Src/stm32f1xx_hal_dma.c ****   hdma->Instance->CNDTR = 0U;
 239:Drivers/STM32F1xx_HAL_Driver/Src/stm32f1xx_hal_dma.c **** 
 240:Drivers/STM32F1xx_HAL_Driver/Src/stm32f1xx_hal_dma.c ****   /* Reset DMA Channel peripheral address register */
 241:Drivers/STM32F1xx_HAL_Driver/Src/stm32f1xx_hal_dma.c ****   hdma->Instance->CPAR  = 0U;
 242:Drivers/STM32F1xx_HAL_Driver/Src/stm32f1xx_hal_dma.c **** 
 243:Drivers/STM32F1xx_HAL_Driver/Src/stm32f1xx_hal_dma.c ****   /* Reset DMA Channel memory address register */
 244:Drivers/STM32F1xx_HAL_Driver/Src/stm32f1xx_hal_dma.c ****   hdma->Instance->CMAR = 0U;
 245:Drivers/STM32F1xx_HAL_Driver/Src/stm32f1xx_hal_dma.c **** 
 246:Drivers/STM32F1xx_HAL_Driver/Src/stm32f1xx_hal_dma.c **** #if defined (DMA2)
 247:Drivers/STM32F1xx_HAL_Driver/Src/stm32f1xx_hal_dma.c ****   /* calculation of the channel index */
 248:Drivers/STM32F1xx_HAL_Driver/Src/stm32f1xx_hal_dma.c ****   if ((uint32_t)(hdma->Instance) < (uint32_t)(DMA2_Channel1))
 249:Drivers/STM32F1xx_HAL_Driver/Src/stm32f1xx_hal_dma.c ****   {
 250:Drivers/STM32F1xx_HAL_Driver/Src/stm32f1xx_hal_dma.c ****     /* DMA1 */
 251:Drivers/STM32F1xx_HAL_Driver/Src/stm32f1xx_hal_dma.c ****     hdma->ChannelIndex = (((uint32_t)hdma->Instance - (uint32_t)DMA1_Channel1) / ((uint32_t)DMA1_Ch
 252:Drivers/STM32F1xx_HAL_Driver/Src/stm32f1xx_hal_dma.c ****     hdma->DmaBaseAddress = DMA1;
 253:Drivers/STM32F1xx_HAL_Driver/Src/stm32f1xx_hal_dma.c ****   }
 254:Drivers/STM32F1xx_HAL_Driver/Src/stm32f1xx_hal_dma.c ****   else
 255:Drivers/STM32F1xx_HAL_Driver/Src/stm32f1xx_hal_dma.c ****   {
 256:Drivers/STM32F1xx_HAL_Driver/Src/stm32f1xx_hal_dma.c ****     /* DMA2 */
 257:Drivers/STM32F1xx_HAL_Driver/Src/stm32f1xx_hal_dma.c ****     hdma->ChannelIndex = (((uint32_t)hdma->Instance - (uint32_t)DMA2_Channel1) / ((uint32_t)DMA2_Ch
 258:Drivers/STM32F1xx_HAL_Driver/Src/stm32f1xx_hal_dma.c ****     hdma->DmaBaseAddress = DMA2;
 259:Drivers/STM32F1xx_HAL_Driver/Src/stm32f1xx_hal_dma.c ****   }
 260:Drivers/STM32F1xx_HAL_Driver/Src/stm32f1xx_hal_dma.c **** #else
 261:Drivers/STM32F1xx_HAL_Driver/Src/stm32f1xx_hal_dma.c ****   /* DMA1 */
 262:Drivers/STM32F1xx_HAL_Driver/Src/stm32f1xx_hal_dma.c ****   hdma->ChannelIndex = (((uint32_t)hdma->Instance - (uint32_t)DMA1_Channel1) / ((uint32_t)DMA1_Chan
 263:Drivers/STM32F1xx_HAL_Driver/Src/stm32f1xx_hal_dma.c ****   hdma->DmaBaseAddress = DMA1;
 264:Drivers/STM32F1xx_HAL_Driver/Src/stm32f1xx_hal_dma.c **** #endif /* DMA2 */
 265:Drivers/STM32F1xx_HAL_Driver/Src/stm32f1xx_hal_dma.c **** 
 266:Drivers/STM32F1xx_HAL_Driver/Src/stm32f1xx_hal_dma.c ****   /* Clear all flags */
 267:Drivers/STM32F1xx_HAL_Driver/Src/stm32f1xx_hal_dma.c ****   hdma->DmaBaseAddress->IFCR = (DMA_ISR_GIF1 << (hdma->ChannelIndex));
 186              		.loc 1 267 46 view .LVU65
 187 0004 0124     		movs	r4, #1
 235:Drivers/STM32F1xx_HAL_Driver/Src/stm32f1xx_hal_dma.c **** 
 188              		.loc 1 235 24 view .LVU66
 189 0006 0023     		movs	r3, #0
 190 0008 0246     		mov	r2, r0
 262:Drivers/STM32F1xx_HAL_Driver/Src/stm32f1xx_hal_dma.c ****   hdma->DmaBaseAddress = DMA1;
 191              		.loc 1 262 51 view .LVU67
 192 000a 1049     		ldr	r1, .L18
 232:Drivers/STM32F1xx_HAL_Driver/Src/stm32f1xx_hal_dma.c **** 
 193              		.loc 1 232 3 view .LVU68
 194 000c 0068     		ldr	r0, [r0]
 195              	.LVL7:
 262:Drivers/STM32F1xx_HAL_Driver/Src/stm32f1xx_hal_dma.c ****   hdma->DmaBaseAddress = DMA1;
 196              		.loc 1 262 78 view .LVU69
 197 000e 104D     		ldr	r5, .L18+4
 262:Drivers/STM32F1xx_HAL_Driver/Src/stm32f1xx_hal_dma.c ****   hdma->DmaBaseAddress = DMA1;
 198              		.loc 1 262 51 view .LVU70
 199 0010 0144     		add	r1, r1, r0
 262:Drivers/STM32F1xx_HAL_Driver/Src/stm32f1xx_hal_dma.c ****   hdma->DmaBaseAddress = DMA1;
 200              		.loc 1 262 78 view .LVU71
 201 0012 A5FB0151 		umull	r5, r1, r5, r1
 232:Drivers/STM32F1xx_HAL_Driver/Src/stm32f1xx_hal_dma.c **** 
 202              		.loc 1 232 3 view .LVU72
ARM GAS  /var/folders/20/cstyxln53wn53rr40gj353bh0000gn/T//ccP3ZOe1.s 			page 10


 203 0016 0568     		ldr	r5, [r0]
 262:Drivers/STM32F1xx_HAL_Driver/Src/stm32f1xx_hal_dma.c ****   hdma->DmaBaseAddress = DMA1;
 204              		.loc 1 262 78 view .LVU73
 205 0018 0909     		lsrs	r1, r1, #4
 232:Drivers/STM32F1xx_HAL_Driver/Src/stm32f1xx_hal_dma.c **** 
 206              		.loc 1 232 3 view .LVU74
 207 001a 25F00105 		bic	r5, r5, #1
 208 001e 0560     		str	r5, [r0]
 235:Drivers/STM32F1xx_HAL_Driver/Src/stm32f1xx_hal_dma.c **** 
 209              		.loc 1 235 3 is_stmt 1 view .LVU75
 262:Drivers/STM32F1xx_HAL_Driver/Src/stm32f1xx_hal_dma.c ****   hdma->DmaBaseAddress = DMA1;
 210              		.loc 1 262 133 is_stmt 0 view .LVU76
 211 0020 8900     		lsls	r1, r1, #2
 263:Drivers/STM32F1xx_HAL_Driver/Src/stm32f1xx_hal_dma.c **** #endif /* DMA2 */
 212              		.loc 1 263 24 view .LVU77
 213 0022 0C4D     		ldr	r5, .L18+8
 214              		.loc 1 267 46 view .LVU78
 215 0024 8C40     		lsls	r4, r4, r1
 235:Drivers/STM32F1xx_HAL_Driver/Src/stm32f1xx_hal_dma.c **** 
 216              		.loc 1 235 24 view .LVU79
 217 0026 0360     		str	r3, [r0]
 238:Drivers/STM32F1xx_HAL_Driver/Src/stm32f1xx_hal_dma.c **** 
 218              		.loc 1 238 3 is_stmt 1 view .LVU80
 238:Drivers/STM32F1xx_HAL_Driver/Src/stm32f1xx_hal_dma.c **** 
 219              		.loc 1 238 25 is_stmt 0 view .LVU81
 220 0028 4360     		str	r3, [r0, #4]
 241:Drivers/STM32F1xx_HAL_Driver/Src/stm32f1xx_hal_dma.c **** 
 221              		.loc 1 241 3 is_stmt 1 view .LVU82
 241:Drivers/STM32F1xx_HAL_Driver/Src/stm32f1xx_hal_dma.c **** 
 222              		.loc 1 241 25 is_stmt 0 view .LVU83
 223 002a 8360     		str	r3, [r0, #8]
 244:Drivers/STM32F1xx_HAL_Driver/Src/stm32f1xx_hal_dma.c **** 
 224              		.loc 1 244 3 is_stmt 1 view .LVU84
 244:Drivers/STM32F1xx_HAL_Driver/Src/stm32f1xx_hal_dma.c **** 
 225              		.loc 1 244 24 is_stmt 0 view .LVU85
 226 002c C360     		str	r3, [r0, #12]
 262:Drivers/STM32F1xx_HAL_Driver/Src/stm32f1xx_hal_dma.c ****   hdma->DmaBaseAddress = DMA1;
 227              		.loc 1 262 3 is_stmt 1 view .LVU86
 263:Drivers/STM32F1xx_HAL_Driver/Src/stm32f1xx_hal_dma.c **** #endif /* DMA2 */
 228              		.loc 1 263 24 is_stmt 0 view .LVU87
 229 002e C2E90F51 		strd	r5, r1, [r2, #60]
 230              		.loc 1 267 3 is_stmt 1 view .LVU88
 231              		.loc 1 267 30 is_stmt 0 view .LVU89
 232 0032 6C60     		str	r4, [r5, #4]
 268:Drivers/STM32F1xx_HAL_Driver/Src/stm32f1xx_hal_dma.c **** 
 269:Drivers/STM32F1xx_HAL_Driver/Src/stm32f1xx_hal_dma.c ****   /* Clean all callbacks */
 270:Drivers/STM32F1xx_HAL_Driver/Src/stm32f1xx_hal_dma.c ****   hdma->XferCpltCallback = NULL;
 233              		.loc 1 270 3 is_stmt 1 view .LVU90
 271:Drivers/STM32F1xx_HAL_Driver/Src/stm32f1xx_hal_dma.c ****   hdma->XferHalfCpltCallback = NULL;
 272:Drivers/STM32F1xx_HAL_Driver/Src/stm32f1xx_hal_dma.c ****   hdma->XferErrorCallback = NULL;
 273:Drivers/STM32F1xx_HAL_Driver/Src/stm32f1xx_hal_dma.c ****   hdma->XferAbortCallback = NULL;
 274:Drivers/STM32F1xx_HAL_Driver/Src/stm32f1xx_hal_dma.c **** 
 275:Drivers/STM32F1xx_HAL_Driver/Src/stm32f1xx_hal_dma.c ****   /* Reset the error code */
 276:Drivers/STM32F1xx_HAL_Driver/Src/stm32f1xx_hal_dma.c ****   hdma->ErrorCode = HAL_DMA_ERROR_NONE;
 277:Drivers/STM32F1xx_HAL_Driver/Src/stm32f1xx_hal_dma.c **** 
 278:Drivers/STM32F1xx_HAL_Driver/Src/stm32f1xx_hal_dma.c ****   /* Reset the DMA state */
 279:Drivers/STM32F1xx_HAL_Driver/Src/stm32f1xx_hal_dma.c ****   hdma->State = HAL_DMA_STATE_RESET;
ARM GAS  /var/folders/20/cstyxln53wn53rr40gj353bh0000gn/T//ccP3ZOe1.s 			page 11


 280:Drivers/STM32F1xx_HAL_Driver/Src/stm32f1xx_hal_dma.c **** 
 281:Drivers/STM32F1xx_HAL_Driver/Src/stm32f1xx_hal_dma.c ****   /* Release Lock */
 282:Drivers/STM32F1xx_HAL_Driver/Src/stm32f1xx_hal_dma.c ****   __HAL_UNLOCK(hdma);
 234              		.loc 1 282 3 is_stmt 0 view .LVU91
 235 0034 1384     		strh	r3, [r2, #32]	@ movhi
 283:Drivers/STM32F1xx_HAL_Driver/Src/stm32f1xx_hal_dma.c **** 
 284:Drivers/STM32F1xx_HAL_Driver/Src/stm32f1xx_hal_dma.c ****   return HAL_OK;
 236              		.loc 1 284 10 view .LVU92
 237 0036 1846     		mov	r0, r3
 285:Drivers/STM32F1xx_HAL_Driver/Src/stm32f1xx_hal_dma.c **** }
 238              		.loc 1 285 1 view .LVU93
 239 0038 30BC     		pop	{r4, r5}
 240              	.LCFI3:
 241              		.cfi_restore 5
 242              		.cfi_restore 4
 243              		.cfi_def_cfa_offset 0
 271:Drivers/STM32F1xx_HAL_Driver/Src/stm32f1xx_hal_dma.c ****   hdma->XferHalfCpltCallback = NULL;
 244              		.loc 1 271 30 view .LVU94
 245 003a C2E90A33 		strd	r3, r3, [r2, #40]
 272:Drivers/STM32F1xx_HAL_Driver/Src/stm32f1xx_hal_dma.c ****   hdma->XferAbortCallback = NULL;
 246              		.loc 1 272 3 is_stmt 1 view .LVU95
 273:Drivers/STM32F1xx_HAL_Driver/Src/stm32f1xx_hal_dma.c **** 
 247              		.loc 1 273 27 is_stmt 0 view .LVU96
 248 003e C2E90C33 		strd	r3, r3, [r2, #48]
 276:Drivers/STM32F1xx_HAL_Driver/Src/stm32f1xx_hal_dma.c **** 
 249              		.loc 1 276 3 is_stmt 1 view .LVU97
 276:Drivers/STM32F1xx_HAL_Driver/Src/stm32f1xx_hal_dma.c **** 
 250              		.loc 1 276 19 is_stmt 0 view .LVU98
 251 0042 9363     		str	r3, [r2, #56]
 279:Drivers/STM32F1xx_HAL_Driver/Src/stm32f1xx_hal_dma.c **** 
 252              		.loc 1 279 3 is_stmt 1 view .LVU99
 282:Drivers/STM32F1xx_HAL_Driver/Src/stm32f1xx_hal_dma.c **** 
 253              		.loc 1 282 3 view .LVU100
 282:Drivers/STM32F1xx_HAL_Driver/Src/stm32f1xx_hal_dma.c **** 
 254              		.loc 1 282 3 view .LVU101
 284:Drivers/STM32F1xx_HAL_Driver/Src/stm32f1xx_hal_dma.c **** }
 255              		.loc 1 284 3 view .LVU102
 256              		.loc 1 285 1 is_stmt 0 view .LVU103
 257 0044 7047     		bx	lr
 258              	.LVL8:
 259              	.L13:
 225:Drivers/STM32F1xx_HAL_Driver/Src/stm32f1xx_hal_dma.c ****   }
 260              		.loc 1 225 12 view .LVU104
 261 0046 0120     		movs	r0, #1
 262              	.LVL9:
 263              		.loc 1 285 1 view .LVU105
 264 0048 7047     		bx	lr
 265              	.L19:
 266 004a 00BF     		.align	2
 267              	.L18:
 268 004c F8FFFDBF 		.word	-1073872904
 269 0050 CDCCCCCC 		.word	-858993459
 270 0054 00000240 		.word	1073872896
 271              		.cfi_endproc
 272              	.LFE66:
 274              		.section	.text.HAL_DMA_Start,"ax",%progbits
 275              		.align	1
ARM GAS  /var/folders/20/cstyxln53wn53rr40gj353bh0000gn/T//ccP3ZOe1.s 			page 12


 276              		.p2align 2,,3
 277              		.global	HAL_DMA_Start
 278              		.syntax unified
 279              		.thumb
 280              		.thumb_func
 281              		.fpu softvfp
 283              	HAL_DMA_Start:
 284              	.LVL10:
 285              	.LFB67:
 286:Drivers/STM32F1xx_HAL_Driver/Src/stm32f1xx_hal_dma.c **** 
 287:Drivers/STM32F1xx_HAL_Driver/Src/stm32f1xx_hal_dma.c **** /**
 288:Drivers/STM32F1xx_HAL_Driver/Src/stm32f1xx_hal_dma.c ****   * @}
 289:Drivers/STM32F1xx_HAL_Driver/Src/stm32f1xx_hal_dma.c ****   */
 290:Drivers/STM32F1xx_HAL_Driver/Src/stm32f1xx_hal_dma.c **** 
 291:Drivers/STM32F1xx_HAL_Driver/Src/stm32f1xx_hal_dma.c **** /** @defgroup DMA_Exported_Functions_Group2 Input and Output operation functions
 292:Drivers/STM32F1xx_HAL_Driver/Src/stm32f1xx_hal_dma.c ****   *  @brief   Input and Output operation functions
 293:Drivers/STM32F1xx_HAL_Driver/Src/stm32f1xx_hal_dma.c ****   *
 294:Drivers/STM32F1xx_HAL_Driver/Src/stm32f1xx_hal_dma.c **** @verbatim
 295:Drivers/STM32F1xx_HAL_Driver/Src/stm32f1xx_hal_dma.c ****  ===============================================================================
 296:Drivers/STM32F1xx_HAL_Driver/Src/stm32f1xx_hal_dma.c ****                       #####  IO operation functions  #####
 297:Drivers/STM32F1xx_HAL_Driver/Src/stm32f1xx_hal_dma.c ****  ===============================================================================
 298:Drivers/STM32F1xx_HAL_Driver/Src/stm32f1xx_hal_dma.c ****     [..]  This section provides functions allowing to:
 299:Drivers/STM32F1xx_HAL_Driver/Src/stm32f1xx_hal_dma.c ****       (+) Configure the source, destination address and data length and Start DMA transfer
 300:Drivers/STM32F1xx_HAL_Driver/Src/stm32f1xx_hal_dma.c ****       (+) Configure the source, destination address and data length and
 301:Drivers/STM32F1xx_HAL_Driver/Src/stm32f1xx_hal_dma.c ****           Start DMA transfer with interrupt
 302:Drivers/STM32F1xx_HAL_Driver/Src/stm32f1xx_hal_dma.c ****       (+) Abort DMA transfer
 303:Drivers/STM32F1xx_HAL_Driver/Src/stm32f1xx_hal_dma.c ****       (+) Poll for transfer complete
 304:Drivers/STM32F1xx_HAL_Driver/Src/stm32f1xx_hal_dma.c ****       (+) Handle DMA interrupt request
 305:Drivers/STM32F1xx_HAL_Driver/Src/stm32f1xx_hal_dma.c **** 
 306:Drivers/STM32F1xx_HAL_Driver/Src/stm32f1xx_hal_dma.c **** @endverbatim
 307:Drivers/STM32F1xx_HAL_Driver/Src/stm32f1xx_hal_dma.c ****   * @{
 308:Drivers/STM32F1xx_HAL_Driver/Src/stm32f1xx_hal_dma.c ****   */
 309:Drivers/STM32F1xx_HAL_Driver/Src/stm32f1xx_hal_dma.c **** 
 310:Drivers/STM32F1xx_HAL_Driver/Src/stm32f1xx_hal_dma.c **** /**
 311:Drivers/STM32F1xx_HAL_Driver/Src/stm32f1xx_hal_dma.c ****   * @brief  Start the DMA Transfer.
 312:Drivers/STM32F1xx_HAL_Driver/Src/stm32f1xx_hal_dma.c ****   * @param  hdma: pointer to a DMA_HandleTypeDef structure that contains
 313:Drivers/STM32F1xx_HAL_Driver/Src/stm32f1xx_hal_dma.c ****   *               the configuration information for the specified DMA Channel.
 314:Drivers/STM32F1xx_HAL_Driver/Src/stm32f1xx_hal_dma.c ****   * @param  SrcAddress: The source memory Buffer address
 315:Drivers/STM32F1xx_HAL_Driver/Src/stm32f1xx_hal_dma.c ****   * @param  DstAddress: The destination memory Buffer address
 316:Drivers/STM32F1xx_HAL_Driver/Src/stm32f1xx_hal_dma.c ****   * @param  DataLength: The length of data to be transferred from source to destination
 317:Drivers/STM32F1xx_HAL_Driver/Src/stm32f1xx_hal_dma.c ****   * @retval HAL status
 318:Drivers/STM32F1xx_HAL_Driver/Src/stm32f1xx_hal_dma.c ****   */
 319:Drivers/STM32F1xx_HAL_Driver/Src/stm32f1xx_hal_dma.c **** HAL_StatusTypeDef HAL_DMA_Start(DMA_HandleTypeDef *hdma, uint32_t SrcAddress, uint32_t DstAddress, 
 320:Drivers/STM32F1xx_HAL_Driver/Src/stm32f1xx_hal_dma.c **** {
 286              		.loc 1 320 1 is_stmt 1 view -0
 287              		.cfi_startproc
 288              		@ args = 0, pretend = 0, frame = 0
 289              		@ frame_needed = 0, uses_anonymous_args = 0
 290              		@ link register save eliminated.
 321:Drivers/STM32F1xx_HAL_Driver/Src/stm32f1xx_hal_dma.c ****   HAL_StatusTypeDef status = HAL_OK;
 291              		.loc 1 321 3 view .LVU107
 322:Drivers/STM32F1xx_HAL_Driver/Src/stm32f1xx_hal_dma.c **** 
 323:Drivers/STM32F1xx_HAL_Driver/Src/stm32f1xx_hal_dma.c ****   /* Check the parameters */
 324:Drivers/STM32F1xx_HAL_Driver/Src/stm32f1xx_hal_dma.c ****   assert_param(IS_DMA_BUFFER_SIZE(DataLength));
 292              		.loc 1 324 3 view .LVU108
 325:Drivers/STM32F1xx_HAL_Driver/Src/stm32f1xx_hal_dma.c **** 
 326:Drivers/STM32F1xx_HAL_Driver/Src/stm32f1xx_hal_dma.c ****   /* Process locked */
ARM GAS  /var/folders/20/cstyxln53wn53rr40gj353bh0000gn/T//ccP3ZOe1.s 			page 13


 327:Drivers/STM32F1xx_HAL_Driver/Src/stm32f1xx_hal_dma.c ****   __HAL_LOCK(hdma);
 293              		.loc 1 327 3 view .LVU109
 294              		.loc 1 327 3 view .LVU110
 320:Drivers/STM32F1xx_HAL_Driver/Src/stm32f1xx_hal_dma.c ****   HAL_StatusTypeDef status = HAL_OK;
 295              		.loc 1 320 1 is_stmt 0 view .LVU111
 296 0000 F0B4     		push	{r4, r5, r6, r7}
 297              	.LCFI4:
 298              		.cfi_def_cfa_offset 16
 299              		.cfi_offset 4, -16
 300              		.cfi_offset 5, -12
 301              		.cfi_offset 6, -8
 302              		.cfi_offset 7, -4
 303              		.loc 1 327 3 view .LVU112
 304 0002 90F82040 		ldrb	r4, [r0, #32]	@ zero_extendqisi2
 305 0006 012C     		cmp	r4, #1
 306 0008 2CD0     		beq	.L25
 307              		.loc 1 327 3 is_stmt 1 discriminator 2 view .LVU113
 308 000a 0124     		movs	r4, #1
 328:Drivers/STM32F1xx_HAL_Driver/Src/stm32f1xx_hal_dma.c **** 
 329:Drivers/STM32F1xx_HAL_Driver/Src/stm32f1xx_hal_dma.c ****   if(HAL_DMA_STATE_READY == hdma->State)
 309              		.loc 1 329 5 is_stmt 0 discriminator 2 view .LVU114
 310 000c 90F82150 		ldrb	r5, [r0, #33]	@ zero_extendqisi2
 327:Drivers/STM32F1xx_HAL_Driver/Src/stm32f1xx_hal_dma.c **** 
 311              		.loc 1 327 3 discriminator 2 view .LVU115
 312 0010 80F82040 		strb	r4, [r0, #32]
 313              		.loc 1 329 3 is_stmt 1 discriminator 2 view .LVU116
 314              		.loc 1 329 5 is_stmt 0 discriminator 2 view .LVU117
 315 0014 A542     		cmp	r5, r4
 316 0016 06D0     		beq	.L27
 330:Drivers/STM32F1xx_HAL_Driver/Src/stm32f1xx_hal_dma.c ****   {
 331:Drivers/STM32F1xx_HAL_Driver/Src/stm32f1xx_hal_dma.c ****     /* Change DMA peripheral state */
 332:Drivers/STM32F1xx_HAL_Driver/Src/stm32f1xx_hal_dma.c ****     hdma->State = HAL_DMA_STATE_BUSY;
 333:Drivers/STM32F1xx_HAL_Driver/Src/stm32f1xx_hal_dma.c ****     hdma->ErrorCode = HAL_DMA_ERROR_NONE;
 334:Drivers/STM32F1xx_HAL_Driver/Src/stm32f1xx_hal_dma.c ****             
 335:Drivers/STM32F1xx_HAL_Driver/Src/stm32f1xx_hal_dma.c ****     /* Disable the peripheral */
 336:Drivers/STM32F1xx_HAL_Driver/Src/stm32f1xx_hal_dma.c ****     __HAL_DMA_DISABLE(hdma);
 337:Drivers/STM32F1xx_HAL_Driver/Src/stm32f1xx_hal_dma.c ****     
 338:Drivers/STM32F1xx_HAL_Driver/Src/stm32f1xx_hal_dma.c ****     /* Configure the source, destination address and the data length & clear flags*/
 339:Drivers/STM32F1xx_HAL_Driver/Src/stm32f1xx_hal_dma.c ****     DMA_SetConfig(hdma, SrcAddress, DstAddress, DataLength);
 340:Drivers/STM32F1xx_HAL_Driver/Src/stm32f1xx_hal_dma.c ****     
 341:Drivers/STM32F1xx_HAL_Driver/Src/stm32f1xx_hal_dma.c ****     /* Enable the Peripheral */
 342:Drivers/STM32F1xx_HAL_Driver/Src/stm32f1xx_hal_dma.c ****     __HAL_DMA_ENABLE(hdma);
 343:Drivers/STM32F1xx_HAL_Driver/Src/stm32f1xx_hal_dma.c ****   }
 344:Drivers/STM32F1xx_HAL_Driver/Src/stm32f1xx_hal_dma.c ****   else
 345:Drivers/STM32F1xx_HAL_Driver/Src/stm32f1xx_hal_dma.c ****   {
 346:Drivers/STM32F1xx_HAL_Driver/Src/stm32f1xx_hal_dma.c ****    /* Process Unlocked */
 347:Drivers/STM32F1xx_HAL_Driver/Src/stm32f1xx_hal_dma.c ****    __HAL_UNLOCK(hdma);  
 317              		.loc 1 347 4 is_stmt 1 view .LVU118
 318              		.loc 1 347 4 view .LVU119
 348:Drivers/STM32F1xx_HAL_Driver/Src/stm32f1xx_hal_dma.c ****    status = HAL_BUSY;
 349:Drivers/STM32F1xx_HAL_Driver/Src/stm32f1xx_hal_dma.c ****   }  
 350:Drivers/STM32F1xx_HAL_Driver/Src/stm32f1xx_hal_dma.c ****   return status;
 351:Drivers/STM32F1xx_HAL_Driver/Src/stm32f1xx_hal_dma.c **** }
 319              		.loc 1 351 1 is_stmt 0 view .LVU120
 320 0018 F0BC     		pop	{r4, r5, r6, r7}
 321              	.LCFI5:
 322              		.cfi_remember_state
ARM GAS  /var/folders/20/cstyxln53wn53rr40gj353bh0000gn/T//ccP3ZOe1.s 			page 14


 323              		.cfi_restore 7
 324              		.cfi_restore 6
 325              		.cfi_restore 5
 326              		.cfi_restore 4
 327              		.cfi_def_cfa_offset 0
 347:Drivers/STM32F1xx_HAL_Driver/Src/stm32f1xx_hal_dma.c ****    status = HAL_BUSY;
 328              		.loc 1 347 4 view .LVU121
 329 001a 0022     		movs	r2, #0
 330              	.LVL11:
 348:Drivers/STM32F1xx_HAL_Driver/Src/stm32f1xx_hal_dma.c ****    status = HAL_BUSY;
 331              		.loc 1 348 11 view .LVU122
 332 001c 0223     		movs	r3, #2
 333              	.LVL12:
 347:Drivers/STM32F1xx_HAL_Driver/Src/stm32f1xx_hal_dma.c ****    status = HAL_BUSY;
 334              		.loc 1 347 4 view .LVU123
 335 001e 80F82020 		strb	r2, [r0, #32]
 348:Drivers/STM32F1xx_HAL_Driver/Src/stm32f1xx_hal_dma.c ****    status = HAL_BUSY;
 336              		.loc 1 348 4 is_stmt 1 view .LVU124
 337              	.LVL13:
 338              		.loc 1 351 1 is_stmt 0 view .LVU125
 339 0022 1846     		mov	r0, r3
 340              	.LVL14:
 341              		.loc 1 351 1 view .LVU126
 342 0024 7047     		bx	lr
 343              	.LVL15:
 344              	.L27:
 345              	.LCFI6:
 346              		.cfi_restore_state
 332:Drivers/STM32F1xx_HAL_Driver/Src/stm32f1xx_hal_dma.c ****     hdma->ErrorCode = HAL_DMA_ERROR_NONE;
 347              		.loc 1 332 5 is_stmt 1 view .LVU127
 333:Drivers/STM32F1xx_HAL_Driver/Src/stm32f1xx_hal_dma.c ****             
 348              		.loc 1 333 21 is_stmt 0 view .LVU128
 349 0026 0026     		movs	r6, #0
 332:Drivers/STM32F1xx_HAL_Driver/Src/stm32f1xx_hal_dma.c ****     hdma->ErrorCode = HAL_DMA_ERROR_NONE;
 350              		.loc 1 332 17 view .LVU129
 351 0028 4FF0020C 		mov	ip, #2
 336:Drivers/STM32F1xx_HAL_Driver/Src/stm32f1xx_hal_dma.c ****     
 352              		.loc 1 336 5 view .LVU130
 353 002c 0468     		ldr	r4, [r0]
 333:Drivers/STM32F1xx_HAL_Driver/Src/stm32f1xx_hal_dma.c ****             
 354              		.loc 1 333 21 view .LVU131
 355 002e 8663     		str	r6, [r0, #56]
 356              	.LBB6:
 357              	.LBB7:
 352:Drivers/STM32F1xx_HAL_Driver/Src/stm32f1xx_hal_dma.c **** 
 353:Drivers/STM32F1xx_HAL_Driver/Src/stm32f1xx_hal_dma.c **** /**
 354:Drivers/STM32F1xx_HAL_Driver/Src/stm32f1xx_hal_dma.c ****   * @brief  Start the DMA Transfer with interrupt enabled.
 355:Drivers/STM32F1xx_HAL_Driver/Src/stm32f1xx_hal_dma.c ****   * @param  hdma: pointer to a DMA_HandleTypeDef structure that contains
 356:Drivers/STM32F1xx_HAL_Driver/Src/stm32f1xx_hal_dma.c ****   *               the configuration information for the specified DMA Channel.
 357:Drivers/STM32F1xx_HAL_Driver/Src/stm32f1xx_hal_dma.c ****   * @param  SrcAddress: The source memory Buffer address
 358:Drivers/STM32F1xx_HAL_Driver/Src/stm32f1xx_hal_dma.c ****   * @param  DstAddress: The destination memory Buffer address
 359:Drivers/STM32F1xx_HAL_Driver/Src/stm32f1xx_hal_dma.c ****   * @param  DataLength: The length of data to be transferred from source to destination
 360:Drivers/STM32F1xx_HAL_Driver/Src/stm32f1xx_hal_dma.c ****   * @retval HAL status
 361:Drivers/STM32F1xx_HAL_Driver/Src/stm32f1xx_hal_dma.c ****   */
 362:Drivers/STM32F1xx_HAL_Driver/Src/stm32f1xx_hal_dma.c **** HAL_StatusTypeDef HAL_DMA_Start_IT(DMA_HandleTypeDef *hdma, uint32_t SrcAddress, uint32_t DstAddres
 363:Drivers/STM32F1xx_HAL_Driver/Src/stm32f1xx_hal_dma.c **** {
 364:Drivers/STM32F1xx_HAL_Driver/Src/stm32f1xx_hal_dma.c ****   HAL_StatusTypeDef status = HAL_OK;
ARM GAS  /var/folders/20/cstyxln53wn53rr40gj353bh0000gn/T//ccP3ZOe1.s 			page 15


 365:Drivers/STM32F1xx_HAL_Driver/Src/stm32f1xx_hal_dma.c **** 
 366:Drivers/STM32F1xx_HAL_Driver/Src/stm32f1xx_hal_dma.c ****   /* Check the parameters */
 367:Drivers/STM32F1xx_HAL_Driver/Src/stm32f1xx_hal_dma.c ****   assert_param(IS_DMA_BUFFER_SIZE(DataLength));
 368:Drivers/STM32F1xx_HAL_Driver/Src/stm32f1xx_hal_dma.c **** 
 369:Drivers/STM32F1xx_HAL_Driver/Src/stm32f1xx_hal_dma.c ****   /* Process locked */
 370:Drivers/STM32F1xx_HAL_Driver/Src/stm32f1xx_hal_dma.c ****   __HAL_LOCK(hdma);
 371:Drivers/STM32F1xx_HAL_Driver/Src/stm32f1xx_hal_dma.c ****   
 372:Drivers/STM32F1xx_HAL_Driver/Src/stm32f1xx_hal_dma.c ****   if(HAL_DMA_STATE_READY == hdma->State)
 373:Drivers/STM32F1xx_HAL_Driver/Src/stm32f1xx_hal_dma.c ****   {
 374:Drivers/STM32F1xx_HAL_Driver/Src/stm32f1xx_hal_dma.c ****     /* Change DMA peripheral state */
 375:Drivers/STM32F1xx_HAL_Driver/Src/stm32f1xx_hal_dma.c ****     hdma->State = HAL_DMA_STATE_BUSY;
 376:Drivers/STM32F1xx_HAL_Driver/Src/stm32f1xx_hal_dma.c ****     hdma->ErrorCode = HAL_DMA_ERROR_NONE;
 377:Drivers/STM32F1xx_HAL_Driver/Src/stm32f1xx_hal_dma.c ****     
 378:Drivers/STM32F1xx_HAL_Driver/Src/stm32f1xx_hal_dma.c ****     /* Disable the peripheral */
 379:Drivers/STM32F1xx_HAL_Driver/Src/stm32f1xx_hal_dma.c ****     __HAL_DMA_DISABLE(hdma);
 380:Drivers/STM32F1xx_HAL_Driver/Src/stm32f1xx_hal_dma.c ****     
 381:Drivers/STM32F1xx_HAL_Driver/Src/stm32f1xx_hal_dma.c ****     /* Configure the source, destination address and the data length & clear flags*/
 382:Drivers/STM32F1xx_HAL_Driver/Src/stm32f1xx_hal_dma.c ****     DMA_SetConfig(hdma, SrcAddress, DstAddress, DataLength);
 383:Drivers/STM32F1xx_HAL_Driver/Src/stm32f1xx_hal_dma.c ****     
 384:Drivers/STM32F1xx_HAL_Driver/Src/stm32f1xx_hal_dma.c ****     /* Enable the transfer complete interrupt */
 385:Drivers/STM32F1xx_HAL_Driver/Src/stm32f1xx_hal_dma.c ****     /* Enable the transfer Error interrupt */
 386:Drivers/STM32F1xx_HAL_Driver/Src/stm32f1xx_hal_dma.c ****     if(NULL != hdma->XferHalfCpltCallback)
 387:Drivers/STM32F1xx_HAL_Driver/Src/stm32f1xx_hal_dma.c ****     {
 388:Drivers/STM32F1xx_HAL_Driver/Src/stm32f1xx_hal_dma.c ****       /* Enable the Half transfer complete interrupt as well */
 389:Drivers/STM32F1xx_HAL_Driver/Src/stm32f1xx_hal_dma.c ****       __HAL_DMA_ENABLE_IT(hdma, (DMA_IT_TC | DMA_IT_HT | DMA_IT_TE));
 390:Drivers/STM32F1xx_HAL_Driver/Src/stm32f1xx_hal_dma.c ****     }
 391:Drivers/STM32F1xx_HAL_Driver/Src/stm32f1xx_hal_dma.c ****     else
 392:Drivers/STM32F1xx_HAL_Driver/Src/stm32f1xx_hal_dma.c ****     {
 393:Drivers/STM32F1xx_HAL_Driver/Src/stm32f1xx_hal_dma.c ****       __HAL_DMA_DISABLE_IT(hdma, DMA_IT_HT);
 394:Drivers/STM32F1xx_HAL_Driver/Src/stm32f1xx_hal_dma.c ****       __HAL_DMA_ENABLE_IT(hdma, (DMA_IT_TC | DMA_IT_TE));
 395:Drivers/STM32F1xx_HAL_Driver/Src/stm32f1xx_hal_dma.c ****     }
 396:Drivers/STM32F1xx_HAL_Driver/Src/stm32f1xx_hal_dma.c ****     /* Enable the Peripheral */
 397:Drivers/STM32F1xx_HAL_Driver/Src/stm32f1xx_hal_dma.c ****     __HAL_DMA_ENABLE(hdma);
 398:Drivers/STM32F1xx_HAL_Driver/Src/stm32f1xx_hal_dma.c ****   }
 399:Drivers/STM32F1xx_HAL_Driver/Src/stm32f1xx_hal_dma.c ****   else
 400:Drivers/STM32F1xx_HAL_Driver/Src/stm32f1xx_hal_dma.c ****   {      
 401:Drivers/STM32F1xx_HAL_Driver/Src/stm32f1xx_hal_dma.c ****     /* Process Unlocked */
 402:Drivers/STM32F1xx_HAL_Driver/Src/stm32f1xx_hal_dma.c ****     __HAL_UNLOCK(hdma); 
 403:Drivers/STM32F1xx_HAL_Driver/Src/stm32f1xx_hal_dma.c **** 
 404:Drivers/STM32F1xx_HAL_Driver/Src/stm32f1xx_hal_dma.c ****     /* Remain BUSY */
 405:Drivers/STM32F1xx_HAL_Driver/Src/stm32f1xx_hal_dma.c ****     status = HAL_BUSY;
 406:Drivers/STM32F1xx_HAL_Driver/Src/stm32f1xx_hal_dma.c ****   }    
 407:Drivers/STM32F1xx_HAL_Driver/Src/stm32f1xx_hal_dma.c ****   return status;
 408:Drivers/STM32F1xx_HAL_Driver/Src/stm32f1xx_hal_dma.c **** }
 409:Drivers/STM32F1xx_HAL_Driver/Src/stm32f1xx_hal_dma.c **** 
 410:Drivers/STM32F1xx_HAL_Driver/Src/stm32f1xx_hal_dma.c **** /**
 411:Drivers/STM32F1xx_HAL_Driver/Src/stm32f1xx_hal_dma.c ****   * @brief  Abort the DMA Transfer.
 412:Drivers/STM32F1xx_HAL_Driver/Src/stm32f1xx_hal_dma.c ****   * @param  hdma: pointer to a DMA_HandleTypeDef structure that contains
 413:Drivers/STM32F1xx_HAL_Driver/Src/stm32f1xx_hal_dma.c ****   *               the configuration information for the specified DMA Channel.
 414:Drivers/STM32F1xx_HAL_Driver/Src/stm32f1xx_hal_dma.c ****   * @retval HAL status
 415:Drivers/STM32F1xx_HAL_Driver/Src/stm32f1xx_hal_dma.c ****   */
 416:Drivers/STM32F1xx_HAL_Driver/Src/stm32f1xx_hal_dma.c **** HAL_StatusTypeDef HAL_DMA_Abort(DMA_HandleTypeDef *hdma)
 417:Drivers/STM32F1xx_HAL_Driver/Src/stm32f1xx_hal_dma.c **** {
 418:Drivers/STM32F1xx_HAL_Driver/Src/stm32f1xx_hal_dma.c ****   HAL_StatusTypeDef status = HAL_OK;
 419:Drivers/STM32F1xx_HAL_Driver/Src/stm32f1xx_hal_dma.c ****   
 420:Drivers/STM32F1xx_HAL_Driver/Src/stm32f1xx_hal_dma.c ****   if(hdma->State != HAL_DMA_STATE_BUSY)
 421:Drivers/STM32F1xx_HAL_Driver/Src/stm32f1xx_hal_dma.c ****   {
ARM GAS  /var/folders/20/cstyxln53wn53rr40gj353bh0000gn/T//ccP3ZOe1.s 			page 16


 422:Drivers/STM32F1xx_HAL_Driver/Src/stm32f1xx_hal_dma.c ****     /* no transfer ongoing */
 423:Drivers/STM32F1xx_HAL_Driver/Src/stm32f1xx_hal_dma.c ****     hdma->ErrorCode = HAL_DMA_ERROR_NO_XFER;
 424:Drivers/STM32F1xx_HAL_Driver/Src/stm32f1xx_hal_dma.c ****     
 425:Drivers/STM32F1xx_HAL_Driver/Src/stm32f1xx_hal_dma.c ****     /* Process Unlocked */
 426:Drivers/STM32F1xx_HAL_Driver/Src/stm32f1xx_hal_dma.c ****     __HAL_UNLOCK(hdma);
 427:Drivers/STM32F1xx_HAL_Driver/Src/stm32f1xx_hal_dma.c ****     
 428:Drivers/STM32F1xx_HAL_Driver/Src/stm32f1xx_hal_dma.c ****     return HAL_ERROR;
 429:Drivers/STM32F1xx_HAL_Driver/Src/stm32f1xx_hal_dma.c ****   }
 430:Drivers/STM32F1xx_HAL_Driver/Src/stm32f1xx_hal_dma.c ****   else
 431:Drivers/STM32F1xx_HAL_Driver/Src/stm32f1xx_hal_dma.c **** 
 432:Drivers/STM32F1xx_HAL_Driver/Src/stm32f1xx_hal_dma.c ****   {
 433:Drivers/STM32F1xx_HAL_Driver/Src/stm32f1xx_hal_dma.c ****     /* Disable DMA IT */
 434:Drivers/STM32F1xx_HAL_Driver/Src/stm32f1xx_hal_dma.c ****     __HAL_DMA_DISABLE_IT(hdma, (DMA_IT_TC | DMA_IT_HT | DMA_IT_TE));
 435:Drivers/STM32F1xx_HAL_Driver/Src/stm32f1xx_hal_dma.c ****       
 436:Drivers/STM32F1xx_HAL_Driver/Src/stm32f1xx_hal_dma.c ****     /* Disable the channel */
 437:Drivers/STM32F1xx_HAL_Driver/Src/stm32f1xx_hal_dma.c ****     __HAL_DMA_DISABLE(hdma);
 438:Drivers/STM32F1xx_HAL_Driver/Src/stm32f1xx_hal_dma.c ****       
 439:Drivers/STM32F1xx_HAL_Driver/Src/stm32f1xx_hal_dma.c ****     /* Clear all flags */
 440:Drivers/STM32F1xx_HAL_Driver/Src/stm32f1xx_hal_dma.c ****     hdma->DmaBaseAddress->IFCR = (DMA_ISR_GIF1 << hdma->ChannelIndex);
 441:Drivers/STM32F1xx_HAL_Driver/Src/stm32f1xx_hal_dma.c ****   }
 442:Drivers/STM32F1xx_HAL_Driver/Src/stm32f1xx_hal_dma.c ****   /* Change the DMA state */
 443:Drivers/STM32F1xx_HAL_Driver/Src/stm32f1xx_hal_dma.c ****   hdma->State = HAL_DMA_STATE_READY;
 444:Drivers/STM32F1xx_HAL_Driver/Src/stm32f1xx_hal_dma.c **** 
 445:Drivers/STM32F1xx_HAL_Driver/Src/stm32f1xx_hal_dma.c ****   /* Process Unlocked */
 446:Drivers/STM32F1xx_HAL_Driver/Src/stm32f1xx_hal_dma.c ****   __HAL_UNLOCK(hdma);      
 447:Drivers/STM32F1xx_HAL_Driver/Src/stm32f1xx_hal_dma.c ****   
 448:Drivers/STM32F1xx_HAL_Driver/Src/stm32f1xx_hal_dma.c ****   return status; 
 449:Drivers/STM32F1xx_HAL_Driver/Src/stm32f1xx_hal_dma.c **** }
 450:Drivers/STM32F1xx_HAL_Driver/Src/stm32f1xx_hal_dma.c **** 
 451:Drivers/STM32F1xx_HAL_Driver/Src/stm32f1xx_hal_dma.c **** /**
 452:Drivers/STM32F1xx_HAL_Driver/Src/stm32f1xx_hal_dma.c ****   * @brief  Aborts the DMA Transfer in Interrupt mode.
 453:Drivers/STM32F1xx_HAL_Driver/Src/stm32f1xx_hal_dma.c ****   * @param  hdma  : pointer to a DMA_HandleTypeDef structure that contains
 454:Drivers/STM32F1xx_HAL_Driver/Src/stm32f1xx_hal_dma.c ****   *                 the configuration information for the specified DMA Channel.
 455:Drivers/STM32F1xx_HAL_Driver/Src/stm32f1xx_hal_dma.c ****   * @retval HAL status
 456:Drivers/STM32F1xx_HAL_Driver/Src/stm32f1xx_hal_dma.c ****   */
 457:Drivers/STM32F1xx_HAL_Driver/Src/stm32f1xx_hal_dma.c **** HAL_StatusTypeDef HAL_DMA_Abort_IT(DMA_HandleTypeDef *hdma)
 458:Drivers/STM32F1xx_HAL_Driver/Src/stm32f1xx_hal_dma.c **** {  
 459:Drivers/STM32F1xx_HAL_Driver/Src/stm32f1xx_hal_dma.c ****   HAL_StatusTypeDef status = HAL_OK;
 460:Drivers/STM32F1xx_HAL_Driver/Src/stm32f1xx_hal_dma.c ****   
 461:Drivers/STM32F1xx_HAL_Driver/Src/stm32f1xx_hal_dma.c ****   if(HAL_DMA_STATE_BUSY != hdma->State)
 462:Drivers/STM32F1xx_HAL_Driver/Src/stm32f1xx_hal_dma.c ****   {
 463:Drivers/STM32F1xx_HAL_Driver/Src/stm32f1xx_hal_dma.c ****     /* no transfer ongoing */
 464:Drivers/STM32F1xx_HAL_Driver/Src/stm32f1xx_hal_dma.c ****     hdma->ErrorCode = HAL_DMA_ERROR_NO_XFER;
 465:Drivers/STM32F1xx_HAL_Driver/Src/stm32f1xx_hal_dma.c ****         
 466:Drivers/STM32F1xx_HAL_Driver/Src/stm32f1xx_hal_dma.c ****     status = HAL_ERROR;
 467:Drivers/STM32F1xx_HAL_Driver/Src/stm32f1xx_hal_dma.c ****   }
 468:Drivers/STM32F1xx_HAL_Driver/Src/stm32f1xx_hal_dma.c ****   else
 469:Drivers/STM32F1xx_HAL_Driver/Src/stm32f1xx_hal_dma.c ****   { 
 470:Drivers/STM32F1xx_HAL_Driver/Src/stm32f1xx_hal_dma.c ****     /* Disable DMA IT */
 471:Drivers/STM32F1xx_HAL_Driver/Src/stm32f1xx_hal_dma.c ****     __HAL_DMA_DISABLE_IT(hdma, (DMA_IT_TC | DMA_IT_HT | DMA_IT_TE));
 472:Drivers/STM32F1xx_HAL_Driver/Src/stm32f1xx_hal_dma.c **** 
 473:Drivers/STM32F1xx_HAL_Driver/Src/stm32f1xx_hal_dma.c ****     /* Disable the channel */
 474:Drivers/STM32F1xx_HAL_Driver/Src/stm32f1xx_hal_dma.c ****     __HAL_DMA_DISABLE(hdma);
 475:Drivers/STM32F1xx_HAL_Driver/Src/stm32f1xx_hal_dma.c **** 
 476:Drivers/STM32F1xx_HAL_Driver/Src/stm32f1xx_hal_dma.c ****     /* Clear all flags */
 477:Drivers/STM32F1xx_HAL_Driver/Src/stm32f1xx_hal_dma.c ****     __HAL_DMA_CLEAR_FLAG(hdma, __HAL_DMA_GET_GI_FLAG_INDEX(hdma));
 478:Drivers/STM32F1xx_HAL_Driver/Src/stm32f1xx_hal_dma.c **** 
ARM GAS  /var/folders/20/cstyxln53wn53rr40gj353bh0000gn/T//ccP3ZOe1.s 			page 17


 479:Drivers/STM32F1xx_HAL_Driver/Src/stm32f1xx_hal_dma.c ****     /* Change the DMA state */
 480:Drivers/STM32F1xx_HAL_Driver/Src/stm32f1xx_hal_dma.c ****     hdma->State = HAL_DMA_STATE_READY;
 481:Drivers/STM32F1xx_HAL_Driver/Src/stm32f1xx_hal_dma.c **** 
 482:Drivers/STM32F1xx_HAL_Driver/Src/stm32f1xx_hal_dma.c ****     /* Process Unlocked */
 483:Drivers/STM32F1xx_HAL_Driver/Src/stm32f1xx_hal_dma.c ****     __HAL_UNLOCK(hdma);
 484:Drivers/STM32F1xx_HAL_Driver/Src/stm32f1xx_hal_dma.c **** 
 485:Drivers/STM32F1xx_HAL_Driver/Src/stm32f1xx_hal_dma.c ****     /* Call User Abort callback */
 486:Drivers/STM32F1xx_HAL_Driver/Src/stm32f1xx_hal_dma.c ****     if(hdma->XferAbortCallback != NULL)
 487:Drivers/STM32F1xx_HAL_Driver/Src/stm32f1xx_hal_dma.c ****     {
 488:Drivers/STM32F1xx_HAL_Driver/Src/stm32f1xx_hal_dma.c ****       hdma->XferAbortCallback(hdma);
 489:Drivers/STM32F1xx_HAL_Driver/Src/stm32f1xx_hal_dma.c ****     } 
 490:Drivers/STM32F1xx_HAL_Driver/Src/stm32f1xx_hal_dma.c ****   }
 491:Drivers/STM32F1xx_HAL_Driver/Src/stm32f1xx_hal_dma.c ****   return status;
 492:Drivers/STM32F1xx_HAL_Driver/Src/stm32f1xx_hal_dma.c **** }
 493:Drivers/STM32F1xx_HAL_Driver/Src/stm32f1xx_hal_dma.c **** 
 494:Drivers/STM32F1xx_HAL_Driver/Src/stm32f1xx_hal_dma.c **** /**
 495:Drivers/STM32F1xx_HAL_Driver/Src/stm32f1xx_hal_dma.c ****   * @brief  Polling for transfer complete.
 496:Drivers/STM32F1xx_HAL_Driver/Src/stm32f1xx_hal_dma.c ****   * @param  hdma:    pointer to a DMA_HandleTypeDef structure that contains
 497:Drivers/STM32F1xx_HAL_Driver/Src/stm32f1xx_hal_dma.c ****   *                  the configuration information for the specified DMA Channel.
 498:Drivers/STM32F1xx_HAL_Driver/Src/stm32f1xx_hal_dma.c ****   * @param  CompleteLevel: Specifies the DMA level complete.
 499:Drivers/STM32F1xx_HAL_Driver/Src/stm32f1xx_hal_dma.c ****   * @param  Timeout:       Timeout duration.
 500:Drivers/STM32F1xx_HAL_Driver/Src/stm32f1xx_hal_dma.c ****   * @retval HAL status
 501:Drivers/STM32F1xx_HAL_Driver/Src/stm32f1xx_hal_dma.c ****   */
 502:Drivers/STM32F1xx_HAL_Driver/Src/stm32f1xx_hal_dma.c **** HAL_StatusTypeDef HAL_DMA_PollForTransfer(DMA_HandleTypeDef *hdma, uint32_t CompleteLevel, uint32_t
 503:Drivers/STM32F1xx_HAL_Driver/Src/stm32f1xx_hal_dma.c **** {
 504:Drivers/STM32F1xx_HAL_Driver/Src/stm32f1xx_hal_dma.c ****   uint32_t temp;
 505:Drivers/STM32F1xx_HAL_Driver/Src/stm32f1xx_hal_dma.c ****   uint32_t tickstart = 0U;
 506:Drivers/STM32F1xx_HAL_Driver/Src/stm32f1xx_hal_dma.c **** 
 507:Drivers/STM32F1xx_HAL_Driver/Src/stm32f1xx_hal_dma.c ****   if(HAL_DMA_STATE_BUSY != hdma->State)
 508:Drivers/STM32F1xx_HAL_Driver/Src/stm32f1xx_hal_dma.c ****   {
 509:Drivers/STM32F1xx_HAL_Driver/Src/stm32f1xx_hal_dma.c ****     /* no transfer ongoing */
 510:Drivers/STM32F1xx_HAL_Driver/Src/stm32f1xx_hal_dma.c ****     hdma->ErrorCode = HAL_DMA_ERROR_NO_XFER;
 511:Drivers/STM32F1xx_HAL_Driver/Src/stm32f1xx_hal_dma.c ****     __HAL_UNLOCK(hdma);
 512:Drivers/STM32F1xx_HAL_Driver/Src/stm32f1xx_hal_dma.c ****     return HAL_ERROR;
 513:Drivers/STM32F1xx_HAL_Driver/Src/stm32f1xx_hal_dma.c ****   }
 514:Drivers/STM32F1xx_HAL_Driver/Src/stm32f1xx_hal_dma.c **** 
 515:Drivers/STM32F1xx_HAL_Driver/Src/stm32f1xx_hal_dma.c ****   /* Polling mode not supported in circular mode */
 516:Drivers/STM32F1xx_HAL_Driver/Src/stm32f1xx_hal_dma.c ****   if (RESET != (hdma->Instance->CCR & DMA_CCR_CIRC))
 517:Drivers/STM32F1xx_HAL_Driver/Src/stm32f1xx_hal_dma.c ****   {
 518:Drivers/STM32F1xx_HAL_Driver/Src/stm32f1xx_hal_dma.c ****     hdma->ErrorCode = HAL_DMA_ERROR_NOT_SUPPORTED;
 519:Drivers/STM32F1xx_HAL_Driver/Src/stm32f1xx_hal_dma.c ****     return HAL_ERROR;
 520:Drivers/STM32F1xx_HAL_Driver/Src/stm32f1xx_hal_dma.c ****   }
 521:Drivers/STM32F1xx_HAL_Driver/Src/stm32f1xx_hal_dma.c ****   
 522:Drivers/STM32F1xx_HAL_Driver/Src/stm32f1xx_hal_dma.c ****   /* Get the level transfer complete flag */
 523:Drivers/STM32F1xx_HAL_Driver/Src/stm32f1xx_hal_dma.c ****   if(CompleteLevel == HAL_DMA_FULL_TRANSFER)
 524:Drivers/STM32F1xx_HAL_Driver/Src/stm32f1xx_hal_dma.c ****   {
 525:Drivers/STM32F1xx_HAL_Driver/Src/stm32f1xx_hal_dma.c ****     /* Transfer Complete flag */
 526:Drivers/STM32F1xx_HAL_Driver/Src/stm32f1xx_hal_dma.c ****     temp = __HAL_DMA_GET_TC_FLAG_INDEX(hdma);
 527:Drivers/STM32F1xx_HAL_Driver/Src/stm32f1xx_hal_dma.c ****   }
 528:Drivers/STM32F1xx_HAL_Driver/Src/stm32f1xx_hal_dma.c ****   else
 529:Drivers/STM32F1xx_HAL_Driver/Src/stm32f1xx_hal_dma.c ****   {
 530:Drivers/STM32F1xx_HAL_Driver/Src/stm32f1xx_hal_dma.c ****     /* Half Transfer Complete flag */
 531:Drivers/STM32F1xx_HAL_Driver/Src/stm32f1xx_hal_dma.c ****     temp = __HAL_DMA_GET_HT_FLAG_INDEX(hdma);
 532:Drivers/STM32F1xx_HAL_Driver/Src/stm32f1xx_hal_dma.c ****   }
 533:Drivers/STM32F1xx_HAL_Driver/Src/stm32f1xx_hal_dma.c **** 
 534:Drivers/STM32F1xx_HAL_Driver/Src/stm32f1xx_hal_dma.c ****   /* Get tick */
 535:Drivers/STM32F1xx_HAL_Driver/Src/stm32f1xx_hal_dma.c ****   tickstart = HAL_GetTick();
ARM GAS  /var/folders/20/cstyxln53wn53rr40gj353bh0000gn/T//ccP3ZOe1.s 			page 18


 536:Drivers/STM32F1xx_HAL_Driver/Src/stm32f1xx_hal_dma.c **** 
 537:Drivers/STM32F1xx_HAL_Driver/Src/stm32f1xx_hal_dma.c ****   while(__HAL_DMA_GET_FLAG(hdma, temp) == RESET)
 538:Drivers/STM32F1xx_HAL_Driver/Src/stm32f1xx_hal_dma.c ****   {
 539:Drivers/STM32F1xx_HAL_Driver/Src/stm32f1xx_hal_dma.c ****     if((__HAL_DMA_GET_FLAG(hdma, __HAL_DMA_GET_TE_FLAG_INDEX(hdma)) != RESET))
 540:Drivers/STM32F1xx_HAL_Driver/Src/stm32f1xx_hal_dma.c ****     {
 541:Drivers/STM32F1xx_HAL_Driver/Src/stm32f1xx_hal_dma.c ****       /* When a DMA transfer error occurs */
 542:Drivers/STM32F1xx_HAL_Driver/Src/stm32f1xx_hal_dma.c ****       /* A hardware clear of its EN bits is performed */
 543:Drivers/STM32F1xx_HAL_Driver/Src/stm32f1xx_hal_dma.c ****       /* Clear all flags */
 544:Drivers/STM32F1xx_HAL_Driver/Src/stm32f1xx_hal_dma.c ****       hdma->DmaBaseAddress->IFCR = (DMA_ISR_GIF1 << hdma->ChannelIndex);
 545:Drivers/STM32F1xx_HAL_Driver/Src/stm32f1xx_hal_dma.c **** 
 546:Drivers/STM32F1xx_HAL_Driver/Src/stm32f1xx_hal_dma.c ****       /* Update error code */
 547:Drivers/STM32F1xx_HAL_Driver/Src/stm32f1xx_hal_dma.c ****       SET_BIT(hdma->ErrorCode, HAL_DMA_ERROR_TE);
 548:Drivers/STM32F1xx_HAL_Driver/Src/stm32f1xx_hal_dma.c **** 
 549:Drivers/STM32F1xx_HAL_Driver/Src/stm32f1xx_hal_dma.c ****       /* Change the DMA state */
 550:Drivers/STM32F1xx_HAL_Driver/Src/stm32f1xx_hal_dma.c ****       hdma->State= HAL_DMA_STATE_READY;
 551:Drivers/STM32F1xx_HAL_Driver/Src/stm32f1xx_hal_dma.c **** 
 552:Drivers/STM32F1xx_HAL_Driver/Src/stm32f1xx_hal_dma.c ****       /* Process Unlocked */
 553:Drivers/STM32F1xx_HAL_Driver/Src/stm32f1xx_hal_dma.c ****       __HAL_UNLOCK(hdma);
 554:Drivers/STM32F1xx_HAL_Driver/Src/stm32f1xx_hal_dma.c **** 
 555:Drivers/STM32F1xx_HAL_Driver/Src/stm32f1xx_hal_dma.c ****       return HAL_ERROR;
 556:Drivers/STM32F1xx_HAL_Driver/Src/stm32f1xx_hal_dma.c ****     }
 557:Drivers/STM32F1xx_HAL_Driver/Src/stm32f1xx_hal_dma.c ****     /* Check for the Timeout */
 558:Drivers/STM32F1xx_HAL_Driver/Src/stm32f1xx_hal_dma.c ****     if(Timeout != HAL_MAX_DELAY)
 559:Drivers/STM32F1xx_HAL_Driver/Src/stm32f1xx_hal_dma.c ****     {
 560:Drivers/STM32F1xx_HAL_Driver/Src/stm32f1xx_hal_dma.c ****       if((Timeout == 0U) || ((HAL_GetTick() - tickstart) > Timeout))
 561:Drivers/STM32F1xx_HAL_Driver/Src/stm32f1xx_hal_dma.c ****       {
 562:Drivers/STM32F1xx_HAL_Driver/Src/stm32f1xx_hal_dma.c ****         /* Update error code */
 563:Drivers/STM32F1xx_HAL_Driver/Src/stm32f1xx_hal_dma.c ****         SET_BIT(hdma->ErrorCode, HAL_DMA_ERROR_TIMEOUT);
 564:Drivers/STM32F1xx_HAL_Driver/Src/stm32f1xx_hal_dma.c **** 
 565:Drivers/STM32F1xx_HAL_Driver/Src/stm32f1xx_hal_dma.c ****         /* Change the DMA state */
 566:Drivers/STM32F1xx_HAL_Driver/Src/stm32f1xx_hal_dma.c ****         hdma->State = HAL_DMA_STATE_READY;
 567:Drivers/STM32F1xx_HAL_Driver/Src/stm32f1xx_hal_dma.c **** 
 568:Drivers/STM32F1xx_HAL_Driver/Src/stm32f1xx_hal_dma.c ****         /* Process Unlocked */
 569:Drivers/STM32F1xx_HAL_Driver/Src/stm32f1xx_hal_dma.c ****         __HAL_UNLOCK(hdma);
 570:Drivers/STM32F1xx_HAL_Driver/Src/stm32f1xx_hal_dma.c **** 
 571:Drivers/STM32F1xx_HAL_Driver/Src/stm32f1xx_hal_dma.c ****         return HAL_ERROR;
 572:Drivers/STM32F1xx_HAL_Driver/Src/stm32f1xx_hal_dma.c ****       }
 573:Drivers/STM32F1xx_HAL_Driver/Src/stm32f1xx_hal_dma.c ****     }
 574:Drivers/STM32F1xx_HAL_Driver/Src/stm32f1xx_hal_dma.c ****   }
 575:Drivers/STM32F1xx_HAL_Driver/Src/stm32f1xx_hal_dma.c **** 
 576:Drivers/STM32F1xx_HAL_Driver/Src/stm32f1xx_hal_dma.c ****   if(CompleteLevel == HAL_DMA_FULL_TRANSFER)
 577:Drivers/STM32F1xx_HAL_Driver/Src/stm32f1xx_hal_dma.c ****   {
 578:Drivers/STM32F1xx_HAL_Driver/Src/stm32f1xx_hal_dma.c ****     /* Clear the transfer complete flag */
 579:Drivers/STM32F1xx_HAL_Driver/Src/stm32f1xx_hal_dma.c ****     __HAL_DMA_CLEAR_FLAG(hdma, __HAL_DMA_GET_TC_FLAG_INDEX(hdma));
 580:Drivers/STM32F1xx_HAL_Driver/Src/stm32f1xx_hal_dma.c **** 
 581:Drivers/STM32F1xx_HAL_Driver/Src/stm32f1xx_hal_dma.c ****     /* The selected Channelx EN bit is cleared (DMA is disabled and
 582:Drivers/STM32F1xx_HAL_Driver/Src/stm32f1xx_hal_dma.c ****     all transfers are complete) */
 583:Drivers/STM32F1xx_HAL_Driver/Src/stm32f1xx_hal_dma.c ****     hdma->State = HAL_DMA_STATE_READY;
 584:Drivers/STM32F1xx_HAL_Driver/Src/stm32f1xx_hal_dma.c ****   }
 585:Drivers/STM32F1xx_HAL_Driver/Src/stm32f1xx_hal_dma.c ****   else
 586:Drivers/STM32F1xx_HAL_Driver/Src/stm32f1xx_hal_dma.c ****   {
 587:Drivers/STM32F1xx_HAL_Driver/Src/stm32f1xx_hal_dma.c ****     /* Clear the half transfer complete flag */
 588:Drivers/STM32F1xx_HAL_Driver/Src/stm32f1xx_hal_dma.c ****     __HAL_DMA_CLEAR_FLAG(hdma, __HAL_DMA_GET_HT_FLAG_INDEX(hdma));
 589:Drivers/STM32F1xx_HAL_Driver/Src/stm32f1xx_hal_dma.c ****   }
 590:Drivers/STM32F1xx_HAL_Driver/Src/stm32f1xx_hal_dma.c ****   
 591:Drivers/STM32F1xx_HAL_Driver/Src/stm32f1xx_hal_dma.c ****   /* Process unlocked */
 592:Drivers/STM32F1xx_HAL_Driver/Src/stm32f1xx_hal_dma.c ****   __HAL_UNLOCK(hdma);
ARM GAS  /var/folders/20/cstyxln53wn53rr40gj353bh0000gn/T//ccP3ZOe1.s 			page 19


 593:Drivers/STM32F1xx_HAL_Driver/Src/stm32f1xx_hal_dma.c **** 
 594:Drivers/STM32F1xx_HAL_Driver/Src/stm32f1xx_hal_dma.c ****   return HAL_OK;
 595:Drivers/STM32F1xx_HAL_Driver/Src/stm32f1xx_hal_dma.c **** }
 596:Drivers/STM32F1xx_HAL_Driver/Src/stm32f1xx_hal_dma.c **** 
 597:Drivers/STM32F1xx_HAL_Driver/Src/stm32f1xx_hal_dma.c **** /**
 598:Drivers/STM32F1xx_HAL_Driver/Src/stm32f1xx_hal_dma.c ****   * @brief  Handles DMA interrupt request.
 599:Drivers/STM32F1xx_HAL_Driver/Src/stm32f1xx_hal_dma.c ****   * @param  hdma: pointer to a DMA_HandleTypeDef structure that contains
 600:Drivers/STM32F1xx_HAL_Driver/Src/stm32f1xx_hal_dma.c ****   *               the configuration information for the specified DMA Channel.  
 601:Drivers/STM32F1xx_HAL_Driver/Src/stm32f1xx_hal_dma.c ****   * @retval None
 602:Drivers/STM32F1xx_HAL_Driver/Src/stm32f1xx_hal_dma.c ****   */
 603:Drivers/STM32F1xx_HAL_Driver/Src/stm32f1xx_hal_dma.c **** void HAL_DMA_IRQHandler(DMA_HandleTypeDef *hdma)
 604:Drivers/STM32F1xx_HAL_Driver/Src/stm32f1xx_hal_dma.c **** {
 605:Drivers/STM32F1xx_HAL_Driver/Src/stm32f1xx_hal_dma.c ****   uint32_t flag_it = hdma->DmaBaseAddress->ISR;
 606:Drivers/STM32F1xx_HAL_Driver/Src/stm32f1xx_hal_dma.c ****   uint32_t source_it = hdma->Instance->CCR;
 607:Drivers/STM32F1xx_HAL_Driver/Src/stm32f1xx_hal_dma.c ****   
 608:Drivers/STM32F1xx_HAL_Driver/Src/stm32f1xx_hal_dma.c ****   /* Half Transfer Complete Interrupt management ******************************/
 609:Drivers/STM32F1xx_HAL_Driver/Src/stm32f1xx_hal_dma.c ****   if (((flag_it & (DMA_FLAG_HT1 << hdma->ChannelIndex)) != RESET) && ((source_it & DMA_IT_HT) != RE
 610:Drivers/STM32F1xx_HAL_Driver/Src/stm32f1xx_hal_dma.c ****   {
 611:Drivers/STM32F1xx_HAL_Driver/Src/stm32f1xx_hal_dma.c ****     /* Disable the half transfer interrupt if the DMA mode is not CIRCULAR */
 612:Drivers/STM32F1xx_HAL_Driver/Src/stm32f1xx_hal_dma.c ****     if((hdma->Instance->CCR & DMA_CCR_CIRC) == 0U)
 613:Drivers/STM32F1xx_HAL_Driver/Src/stm32f1xx_hal_dma.c ****     {
 614:Drivers/STM32F1xx_HAL_Driver/Src/stm32f1xx_hal_dma.c ****       /* Disable the half transfer interrupt */
 615:Drivers/STM32F1xx_HAL_Driver/Src/stm32f1xx_hal_dma.c ****       __HAL_DMA_DISABLE_IT(hdma, DMA_IT_HT);
 616:Drivers/STM32F1xx_HAL_Driver/Src/stm32f1xx_hal_dma.c ****     }
 617:Drivers/STM32F1xx_HAL_Driver/Src/stm32f1xx_hal_dma.c ****     /* Clear the half transfer complete flag */
 618:Drivers/STM32F1xx_HAL_Driver/Src/stm32f1xx_hal_dma.c ****     __HAL_DMA_CLEAR_FLAG(hdma, __HAL_DMA_GET_HT_FLAG_INDEX(hdma));
 619:Drivers/STM32F1xx_HAL_Driver/Src/stm32f1xx_hal_dma.c **** 
 620:Drivers/STM32F1xx_HAL_Driver/Src/stm32f1xx_hal_dma.c ****     /* DMA peripheral state is not updated in Half Transfer */
 621:Drivers/STM32F1xx_HAL_Driver/Src/stm32f1xx_hal_dma.c ****     /* but in Transfer Complete case */
 622:Drivers/STM32F1xx_HAL_Driver/Src/stm32f1xx_hal_dma.c **** 
 623:Drivers/STM32F1xx_HAL_Driver/Src/stm32f1xx_hal_dma.c ****     if(hdma->XferHalfCpltCallback != NULL)
 624:Drivers/STM32F1xx_HAL_Driver/Src/stm32f1xx_hal_dma.c ****     {
 625:Drivers/STM32F1xx_HAL_Driver/Src/stm32f1xx_hal_dma.c ****       /* Half transfer callback */
 626:Drivers/STM32F1xx_HAL_Driver/Src/stm32f1xx_hal_dma.c ****       hdma->XferHalfCpltCallback(hdma);
 627:Drivers/STM32F1xx_HAL_Driver/Src/stm32f1xx_hal_dma.c ****     }
 628:Drivers/STM32F1xx_HAL_Driver/Src/stm32f1xx_hal_dma.c ****   }
 629:Drivers/STM32F1xx_HAL_Driver/Src/stm32f1xx_hal_dma.c **** 
 630:Drivers/STM32F1xx_HAL_Driver/Src/stm32f1xx_hal_dma.c ****   /* Transfer Complete Interrupt management ***********************************/
 631:Drivers/STM32F1xx_HAL_Driver/Src/stm32f1xx_hal_dma.c ****   else if (((flag_it & (DMA_FLAG_TC1 << hdma->ChannelIndex)) != RESET) && ((source_it & DMA_IT_TC) 
 632:Drivers/STM32F1xx_HAL_Driver/Src/stm32f1xx_hal_dma.c ****   {
 633:Drivers/STM32F1xx_HAL_Driver/Src/stm32f1xx_hal_dma.c ****     if((hdma->Instance->CCR & DMA_CCR_CIRC) == 0U)
 634:Drivers/STM32F1xx_HAL_Driver/Src/stm32f1xx_hal_dma.c ****     {
 635:Drivers/STM32F1xx_HAL_Driver/Src/stm32f1xx_hal_dma.c ****       /* Disable the transfer complete and error interrupt */
 636:Drivers/STM32F1xx_HAL_Driver/Src/stm32f1xx_hal_dma.c ****       __HAL_DMA_DISABLE_IT(hdma, DMA_IT_TE | DMA_IT_TC);  
 637:Drivers/STM32F1xx_HAL_Driver/Src/stm32f1xx_hal_dma.c **** 
 638:Drivers/STM32F1xx_HAL_Driver/Src/stm32f1xx_hal_dma.c ****       /* Change the DMA state */
 639:Drivers/STM32F1xx_HAL_Driver/Src/stm32f1xx_hal_dma.c ****       hdma->State = HAL_DMA_STATE_READY;
 640:Drivers/STM32F1xx_HAL_Driver/Src/stm32f1xx_hal_dma.c ****     }
 641:Drivers/STM32F1xx_HAL_Driver/Src/stm32f1xx_hal_dma.c ****     /* Clear the transfer complete flag */
 642:Drivers/STM32F1xx_HAL_Driver/Src/stm32f1xx_hal_dma.c ****       __HAL_DMA_CLEAR_FLAG(hdma, __HAL_DMA_GET_TC_FLAG_INDEX(hdma));
 643:Drivers/STM32F1xx_HAL_Driver/Src/stm32f1xx_hal_dma.c **** 
 644:Drivers/STM32F1xx_HAL_Driver/Src/stm32f1xx_hal_dma.c ****     /* Process Unlocked */
 645:Drivers/STM32F1xx_HAL_Driver/Src/stm32f1xx_hal_dma.c ****     __HAL_UNLOCK(hdma);
 646:Drivers/STM32F1xx_HAL_Driver/Src/stm32f1xx_hal_dma.c **** 
 647:Drivers/STM32F1xx_HAL_Driver/Src/stm32f1xx_hal_dma.c ****     if(hdma->XferCpltCallback != NULL)
 648:Drivers/STM32F1xx_HAL_Driver/Src/stm32f1xx_hal_dma.c ****     {
 649:Drivers/STM32F1xx_HAL_Driver/Src/stm32f1xx_hal_dma.c ****       /* Transfer complete callback */
ARM GAS  /var/folders/20/cstyxln53wn53rr40gj353bh0000gn/T//ccP3ZOe1.s 			page 20


 650:Drivers/STM32F1xx_HAL_Driver/Src/stm32f1xx_hal_dma.c ****       hdma->XferCpltCallback(hdma);
 651:Drivers/STM32F1xx_HAL_Driver/Src/stm32f1xx_hal_dma.c ****     }
 652:Drivers/STM32F1xx_HAL_Driver/Src/stm32f1xx_hal_dma.c ****   }
 653:Drivers/STM32F1xx_HAL_Driver/Src/stm32f1xx_hal_dma.c **** 
 654:Drivers/STM32F1xx_HAL_Driver/Src/stm32f1xx_hal_dma.c ****   /* Transfer Error Interrupt management **************************************/
 655:Drivers/STM32F1xx_HAL_Driver/Src/stm32f1xx_hal_dma.c ****   else if (( RESET != (flag_it & (DMA_FLAG_TE1 << hdma->ChannelIndex))) && (RESET != (source_it & D
 656:Drivers/STM32F1xx_HAL_Driver/Src/stm32f1xx_hal_dma.c ****   {
 657:Drivers/STM32F1xx_HAL_Driver/Src/stm32f1xx_hal_dma.c ****     /* When a DMA transfer error occurs */
 658:Drivers/STM32F1xx_HAL_Driver/Src/stm32f1xx_hal_dma.c ****     /* A hardware clear of its EN bits is performed */
 659:Drivers/STM32F1xx_HAL_Driver/Src/stm32f1xx_hal_dma.c ****     /* Disable ALL DMA IT */
 660:Drivers/STM32F1xx_HAL_Driver/Src/stm32f1xx_hal_dma.c ****     __HAL_DMA_DISABLE_IT(hdma, (DMA_IT_TC | DMA_IT_HT | DMA_IT_TE));
 661:Drivers/STM32F1xx_HAL_Driver/Src/stm32f1xx_hal_dma.c **** 
 662:Drivers/STM32F1xx_HAL_Driver/Src/stm32f1xx_hal_dma.c ****     /* Clear all flags */
 663:Drivers/STM32F1xx_HAL_Driver/Src/stm32f1xx_hal_dma.c ****     hdma->DmaBaseAddress->IFCR = (DMA_ISR_GIF1 << hdma->ChannelIndex);
 664:Drivers/STM32F1xx_HAL_Driver/Src/stm32f1xx_hal_dma.c **** 
 665:Drivers/STM32F1xx_HAL_Driver/Src/stm32f1xx_hal_dma.c ****     /* Update error code */
 666:Drivers/STM32F1xx_HAL_Driver/Src/stm32f1xx_hal_dma.c ****     hdma->ErrorCode = HAL_DMA_ERROR_TE;
 667:Drivers/STM32F1xx_HAL_Driver/Src/stm32f1xx_hal_dma.c **** 
 668:Drivers/STM32F1xx_HAL_Driver/Src/stm32f1xx_hal_dma.c ****     /* Change the DMA state */
 669:Drivers/STM32F1xx_HAL_Driver/Src/stm32f1xx_hal_dma.c ****     hdma->State = HAL_DMA_STATE_READY;
 670:Drivers/STM32F1xx_HAL_Driver/Src/stm32f1xx_hal_dma.c **** 
 671:Drivers/STM32F1xx_HAL_Driver/Src/stm32f1xx_hal_dma.c ****     /* Process Unlocked */
 672:Drivers/STM32F1xx_HAL_Driver/Src/stm32f1xx_hal_dma.c ****     __HAL_UNLOCK(hdma);
 673:Drivers/STM32F1xx_HAL_Driver/Src/stm32f1xx_hal_dma.c **** 
 674:Drivers/STM32F1xx_HAL_Driver/Src/stm32f1xx_hal_dma.c ****     if (hdma->XferErrorCallback != NULL)
 675:Drivers/STM32F1xx_HAL_Driver/Src/stm32f1xx_hal_dma.c ****     {
 676:Drivers/STM32F1xx_HAL_Driver/Src/stm32f1xx_hal_dma.c ****       /* Transfer error callback */
 677:Drivers/STM32F1xx_HAL_Driver/Src/stm32f1xx_hal_dma.c ****       hdma->XferErrorCallback(hdma);
 678:Drivers/STM32F1xx_HAL_Driver/Src/stm32f1xx_hal_dma.c ****     }
 679:Drivers/STM32F1xx_HAL_Driver/Src/stm32f1xx_hal_dma.c ****   }
 680:Drivers/STM32F1xx_HAL_Driver/Src/stm32f1xx_hal_dma.c ****   return;
 681:Drivers/STM32F1xx_HAL_Driver/Src/stm32f1xx_hal_dma.c **** }
 682:Drivers/STM32F1xx_HAL_Driver/Src/stm32f1xx_hal_dma.c **** 
 683:Drivers/STM32F1xx_HAL_Driver/Src/stm32f1xx_hal_dma.c **** /**
 684:Drivers/STM32F1xx_HAL_Driver/Src/stm32f1xx_hal_dma.c ****   * @brief Register callbacks
 685:Drivers/STM32F1xx_HAL_Driver/Src/stm32f1xx_hal_dma.c ****   * @param hdma: pointer to a DMA_HandleTypeDef structure that contains
 686:Drivers/STM32F1xx_HAL_Driver/Src/stm32f1xx_hal_dma.c ****   *              the configuration information for the specified DMA Channel.
 687:Drivers/STM32F1xx_HAL_Driver/Src/stm32f1xx_hal_dma.c ****   * @param CallbackID: User Callback identifer
 688:Drivers/STM32F1xx_HAL_Driver/Src/stm32f1xx_hal_dma.c ****   *                    a HAL_DMA_CallbackIDTypeDef ENUM as parameter.
 689:Drivers/STM32F1xx_HAL_Driver/Src/stm32f1xx_hal_dma.c ****   * @param pCallback: pointer to private callbacsk function which has pointer to 
 690:Drivers/STM32F1xx_HAL_Driver/Src/stm32f1xx_hal_dma.c ****   *                   a DMA_HandleTypeDef structure as parameter.
 691:Drivers/STM32F1xx_HAL_Driver/Src/stm32f1xx_hal_dma.c ****   * @retval HAL status
 692:Drivers/STM32F1xx_HAL_Driver/Src/stm32f1xx_hal_dma.c ****   */                          
 693:Drivers/STM32F1xx_HAL_Driver/Src/stm32f1xx_hal_dma.c **** HAL_StatusTypeDef HAL_DMA_RegisterCallback(DMA_HandleTypeDef *hdma, HAL_DMA_CallbackIDTypeDef Callb
 694:Drivers/STM32F1xx_HAL_Driver/Src/stm32f1xx_hal_dma.c **** {
 695:Drivers/STM32F1xx_HAL_Driver/Src/stm32f1xx_hal_dma.c ****   HAL_StatusTypeDef status = HAL_OK;
 696:Drivers/STM32F1xx_HAL_Driver/Src/stm32f1xx_hal_dma.c ****   
 697:Drivers/STM32F1xx_HAL_Driver/Src/stm32f1xx_hal_dma.c ****   /* Process locked */
 698:Drivers/STM32F1xx_HAL_Driver/Src/stm32f1xx_hal_dma.c ****   __HAL_LOCK(hdma);
 699:Drivers/STM32F1xx_HAL_Driver/Src/stm32f1xx_hal_dma.c ****   
 700:Drivers/STM32F1xx_HAL_Driver/Src/stm32f1xx_hal_dma.c ****   if(HAL_DMA_STATE_READY == hdma->State)
 701:Drivers/STM32F1xx_HAL_Driver/Src/stm32f1xx_hal_dma.c ****   {
 702:Drivers/STM32F1xx_HAL_Driver/Src/stm32f1xx_hal_dma.c ****     switch (CallbackID)
 703:Drivers/STM32F1xx_HAL_Driver/Src/stm32f1xx_hal_dma.c ****     {
 704:Drivers/STM32F1xx_HAL_Driver/Src/stm32f1xx_hal_dma.c ****     case  HAL_DMA_XFER_CPLT_CB_ID:
 705:Drivers/STM32F1xx_HAL_Driver/Src/stm32f1xx_hal_dma.c ****       hdma->XferCpltCallback = pCallback;
 706:Drivers/STM32F1xx_HAL_Driver/Src/stm32f1xx_hal_dma.c ****       break;
ARM GAS  /var/folders/20/cstyxln53wn53rr40gj353bh0000gn/T//ccP3ZOe1.s 			page 21


 707:Drivers/STM32F1xx_HAL_Driver/Src/stm32f1xx_hal_dma.c ****       
 708:Drivers/STM32F1xx_HAL_Driver/Src/stm32f1xx_hal_dma.c ****     case  HAL_DMA_XFER_HALFCPLT_CB_ID:
 709:Drivers/STM32F1xx_HAL_Driver/Src/stm32f1xx_hal_dma.c ****       hdma->XferHalfCpltCallback = pCallback;
 710:Drivers/STM32F1xx_HAL_Driver/Src/stm32f1xx_hal_dma.c ****       break;         
 711:Drivers/STM32F1xx_HAL_Driver/Src/stm32f1xx_hal_dma.c **** 
 712:Drivers/STM32F1xx_HAL_Driver/Src/stm32f1xx_hal_dma.c ****     case  HAL_DMA_XFER_ERROR_CB_ID:
 713:Drivers/STM32F1xx_HAL_Driver/Src/stm32f1xx_hal_dma.c ****       hdma->XferErrorCallback = pCallback;
 714:Drivers/STM32F1xx_HAL_Driver/Src/stm32f1xx_hal_dma.c ****       break;         
 715:Drivers/STM32F1xx_HAL_Driver/Src/stm32f1xx_hal_dma.c ****       
 716:Drivers/STM32F1xx_HAL_Driver/Src/stm32f1xx_hal_dma.c ****     case  HAL_DMA_XFER_ABORT_CB_ID:
 717:Drivers/STM32F1xx_HAL_Driver/Src/stm32f1xx_hal_dma.c ****       hdma->XferAbortCallback = pCallback;
 718:Drivers/STM32F1xx_HAL_Driver/Src/stm32f1xx_hal_dma.c ****       break; 
 719:Drivers/STM32F1xx_HAL_Driver/Src/stm32f1xx_hal_dma.c ****       
 720:Drivers/STM32F1xx_HAL_Driver/Src/stm32f1xx_hal_dma.c ****     default:
 721:Drivers/STM32F1xx_HAL_Driver/Src/stm32f1xx_hal_dma.c ****       status = HAL_ERROR;
 722:Drivers/STM32F1xx_HAL_Driver/Src/stm32f1xx_hal_dma.c ****       break;                                                            
 723:Drivers/STM32F1xx_HAL_Driver/Src/stm32f1xx_hal_dma.c ****     }
 724:Drivers/STM32F1xx_HAL_Driver/Src/stm32f1xx_hal_dma.c ****   }
 725:Drivers/STM32F1xx_HAL_Driver/Src/stm32f1xx_hal_dma.c ****   else
 726:Drivers/STM32F1xx_HAL_Driver/Src/stm32f1xx_hal_dma.c ****   {
 727:Drivers/STM32F1xx_HAL_Driver/Src/stm32f1xx_hal_dma.c ****     status = HAL_ERROR;
 728:Drivers/STM32F1xx_HAL_Driver/Src/stm32f1xx_hal_dma.c ****   } 
 729:Drivers/STM32F1xx_HAL_Driver/Src/stm32f1xx_hal_dma.c ****   
 730:Drivers/STM32F1xx_HAL_Driver/Src/stm32f1xx_hal_dma.c ****   /* Release Lock */
 731:Drivers/STM32F1xx_HAL_Driver/Src/stm32f1xx_hal_dma.c ****   __HAL_UNLOCK(hdma);
 732:Drivers/STM32F1xx_HAL_Driver/Src/stm32f1xx_hal_dma.c ****   
 733:Drivers/STM32F1xx_HAL_Driver/Src/stm32f1xx_hal_dma.c ****   return status;
 734:Drivers/STM32F1xx_HAL_Driver/Src/stm32f1xx_hal_dma.c **** }
 735:Drivers/STM32F1xx_HAL_Driver/Src/stm32f1xx_hal_dma.c **** 
 736:Drivers/STM32F1xx_HAL_Driver/Src/stm32f1xx_hal_dma.c **** /**
 737:Drivers/STM32F1xx_HAL_Driver/Src/stm32f1xx_hal_dma.c ****   * @brief UnRegister callbacks
 738:Drivers/STM32F1xx_HAL_Driver/Src/stm32f1xx_hal_dma.c ****   * @param hdma: pointer to a DMA_HandleTypeDef structure that contains
 739:Drivers/STM32F1xx_HAL_Driver/Src/stm32f1xx_hal_dma.c ****   *              the configuration information for the specified DMA Channel.
 740:Drivers/STM32F1xx_HAL_Driver/Src/stm32f1xx_hal_dma.c ****   * @param CallbackID: User Callback identifer
 741:Drivers/STM32F1xx_HAL_Driver/Src/stm32f1xx_hal_dma.c ****   *                    a HAL_DMA_CallbackIDTypeDef ENUM as parameter.
 742:Drivers/STM32F1xx_HAL_Driver/Src/stm32f1xx_hal_dma.c ****   * @retval HAL status
 743:Drivers/STM32F1xx_HAL_Driver/Src/stm32f1xx_hal_dma.c ****   */              
 744:Drivers/STM32F1xx_HAL_Driver/Src/stm32f1xx_hal_dma.c **** HAL_StatusTypeDef HAL_DMA_UnRegisterCallback(DMA_HandleTypeDef *hdma, HAL_DMA_CallbackIDTypeDef Cal
 745:Drivers/STM32F1xx_HAL_Driver/Src/stm32f1xx_hal_dma.c **** {
 746:Drivers/STM32F1xx_HAL_Driver/Src/stm32f1xx_hal_dma.c ****   HAL_StatusTypeDef status = HAL_OK;
 747:Drivers/STM32F1xx_HAL_Driver/Src/stm32f1xx_hal_dma.c **** 
 748:Drivers/STM32F1xx_HAL_Driver/Src/stm32f1xx_hal_dma.c ****   /* Process locked */
 749:Drivers/STM32F1xx_HAL_Driver/Src/stm32f1xx_hal_dma.c ****   __HAL_LOCK(hdma);
 750:Drivers/STM32F1xx_HAL_Driver/Src/stm32f1xx_hal_dma.c ****   
 751:Drivers/STM32F1xx_HAL_Driver/Src/stm32f1xx_hal_dma.c ****   if(HAL_DMA_STATE_READY == hdma->State)
 752:Drivers/STM32F1xx_HAL_Driver/Src/stm32f1xx_hal_dma.c ****   {
 753:Drivers/STM32F1xx_HAL_Driver/Src/stm32f1xx_hal_dma.c ****     switch (CallbackID)
 754:Drivers/STM32F1xx_HAL_Driver/Src/stm32f1xx_hal_dma.c ****     {
 755:Drivers/STM32F1xx_HAL_Driver/Src/stm32f1xx_hal_dma.c ****     case  HAL_DMA_XFER_CPLT_CB_ID:
 756:Drivers/STM32F1xx_HAL_Driver/Src/stm32f1xx_hal_dma.c ****       hdma->XferCpltCallback = NULL;
 757:Drivers/STM32F1xx_HAL_Driver/Src/stm32f1xx_hal_dma.c ****       break;
 758:Drivers/STM32F1xx_HAL_Driver/Src/stm32f1xx_hal_dma.c **** 
 759:Drivers/STM32F1xx_HAL_Driver/Src/stm32f1xx_hal_dma.c ****     case  HAL_DMA_XFER_HALFCPLT_CB_ID:
 760:Drivers/STM32F1xx_HAL_Driver/Src/stm32f1xx_hal_dma.c ****       hdma->XferHalfCpltCallback = NULL;
 761:Drivers/STM32F1xx_HAL_Driver/Src/stm32f1xx_hal_dma.c ****       break;         
 762:Drivers/STM32F1xx_HAL_Driver/Src/stm32f1xx_hal_dma.c **** 
 763:Drivers/STM32F1xx_HAL_Driver/Src/stm32f1xx_hal_dma.c ****     case  HAL_DMA_XFER_ERROR_CB_ID:
ARM GAS  /var/folders/20/cstyxln53wn53rr40gj353bh0000gn/T//ccP3ZOe1.s 			page 22


 764:Drivers/STM32F1xx_HAL_Driver/Src/stm32f1xx_hal_dma.c ****       hdma->XferErrorCallback = NULL;
 765:Drivers/STM32F1xx_HAL_Driver/Src/stm32f1xx_hal_dma.c ****       break;         
 766:Drivers/STM32F1xx_HAL_Driver/Src/stm32f1xx_hal_dma.c **** 
 767:Drivers/STM32F1xx_HAL_Driver/Src/stm32f1xx_hal_dma.c ****     case  HAL_DMA_XFER_ABORT_CB_ID:
 768:Drivers/STM32F1xx_HAL_Driver/Src/stm32f1xx_hal_dma.c ****       hdma->XferAbortCallback = NULL;
 769:Drivers/STM32F1xx_HAL_Driver/Src/stm32f1xx_hal_dma.c ****       break; 
 770:Drivers/STM32F1xx_HAL_Driver/Src/stm32f1xx_hal_dma.c **** 
 771:Drivers/STM32F1xx_HAL_Driver/Src/stm32f1xx_hal_dma.c ****     case   HAL_DMA_XFER_ALL_CB_ID:
 772:Drivers/STM32F1xx_HAL_Driver/Src/stm32f1xx_hal_dma.c ****       hdma->XferCpltCallback = NULL;
 773:Drivers/STM32F1xx_HAL_Driver/Src/stm32f1xx_hal_dma.c ****       hdma->XferHalfCpltCallback = NULL;
 774:Drivers/STM32F1xx_HAL_Driver/Src/stm32f1xx_hal_dma.c ****       hdma->XferErrorCallback = NULL;
 775:Drivers/STM32F1xx_HAL_Driver/Src/stm32f1xx_hal_dma.c ****       hdma->XferAbortCallback = NULL;
 776:Drivers/STM32F1xx_HAL_Driver/Src/stm32f1xx_hal_dma.c ****       break; 
 777:Drivers/STM32F1xx_HAL_Driver/Src/stm32f1xx_hal_dma.c **** 
 778:Drivers/STM32F1xx_HAL_Driver/Src/stm32f1xx_hal_dma.c ****     default:
 779:Drivers/STM32F1xx_HAL_Driver/Src/stm32f1xx_hal_dma.c ****       status = HAL_ERROR;
 780:Drivers/STM32F1xx_HAL_Driver/Src/stm32f1xx_hal_dma.c ****       break;
 781:Drivers/STM32F1xx_HAL_Driver/Src/stm32f1xx_hal_dma.c ****     }
 782:Drivers/STM32F1xx_HAL_Driver/Src/stm32f1xx_hal_dma.c ****   }
 783:Drivers/STM32F1xx_HAL_Driver/Src/stm32f1xx_hal_dma.c ****   else
 784:Drivers/STM32F1xx_HAL_Driver/Src/stm32f1xx_hal_dma.c ****   {
 785:Drivers/STM32F1xx_HAL_Driver/Src/stm32f1xx_hal_dma.c ****     status = HAL_ERROR;
 786:Drivers/STM32F1xx_HAL_Driver/Src/stm32f1xx_hal_dma.c ****   } 
 787:Drivers/STM32F1xx_HAL_Driver/Src/stm32f1xx_hal_dma.c ****   
 788:Drivers/STM32F1xx_HAL_Driver/Src/stm32f1xx_hal_dma.c ****   /* Release Lock */
 789:Drivers/STM32F1xx_HAL_Driver/Src/stm32f1xx_hal_dma.c ****   __HAL_UNLOCK(hdma);
 790:Drivers/STM32F1xx_HAL_Driver/Src/stm32f1xx_hal_dma.c ****   
 791:Drivers/STM32F1xx_HAL_Driver/Src/stm32f1xx_hal_dma.c ****   return status;
 792:Drivers/STM32F1xx_HAL_Driver/Src/stm32f1xx_hal_dma.c **** }
 793:Drivers/STM32F1xx_HAL_Driver/Src/stm32f1xx_hal_dma.c ****   
 794:Drivers/STM32F1xx_HAL_Driver/Src/stm32f1xx_hal_dma.c **** /**
 795:Drivers/STM32F1xx_HAL_Driver/Src/stm32f1xx_hal_dma.c ****   * @}
 796:Drivers/STM32F1xx_HAL_Driver/Src/stm32f1xx_hal_dma.c ****   */
 797:Drivers/STM32F1xx_HAL_Driver/Src/stm32f1xx_hal_dma.c **** 
 798:Drivers/STM32F1xx_HAL_Driver/Src/stm32f1xx_hal_dma.c **** /** @defgroup DMA_Exported_Functions_Group3 Peripheral State and Errors functions
 799:Drivers/STM32F1xx_HAL_Driver/Src/stm32f1xx_hal_dma.c ****   *  @brief    Peripheral State and Errors functions
 800:Drivers/STM32F1xx_HAL_Driver/Src/stm32f1xx_hal_dma.c ****   *
 801:Drivers/STM32F1xx_HAL_Driver/Src/stm32f1xx_hal_dma.c **** @verbatim
 802:Drivers/STM32F1xx_HAL_Driver/Src/stm32f1xx_hal_dma.c ****  ===============================================================================
 803:Drivers/STM32F1xx_HAL_Driver/Src/stm32f1xx_hal_dma.c ****             ##### Peripheral State and Errors functions #####
 804:Drivers/STM32F1xx_HAL_Driver/Src/stm32f1xx_hal_dma.c ****  ===============================================================================  
 805:Drivers/STM32F1xx_HAL_Driver/Src/stm32f1xx_hal_dma.c ****     [..]
 806:Drivers/STM32F1xx_HAL_Driver/Src/stm32f1xx_hal_dma.c ****     This subsection provides functions allowing to
 807:Drivers/STM32F1xx_HAL_Driver/Src/stm32f1xx_hal_dma.c ****       (+) Check the DMA state
 808:Drivers/STM32F1xx_HAL_Driver/Src/stm32f1xx_hal_dma.c ****       (+) Get error code
 809:Drivers/STM32F1xx_HAL_Driver/Src/stm32f1xx_hal_dma.c **** 
 810:Drivers/STM32F1xx_HAL_Driver/Src/stm32f1xx_hal_dma.c **** @endverbatim
 811:Drivers/STM32F1xx_HAL_Driver/Src/stm32f1xx_hal_dma.c ****   * @{
 812:Drivers/STM32F1xx_HAL_Driver/Src/stm32f1xx_hal_dma.c ****   */
 813:Drivers/STM32F1xx_HAL_Driver/Src/stm32f1xx_hal_dma.c **** 
 814:Drivers/STM32F1xx_HAL_Driver/Src/stm32f1xx_hal_dma.c **** /**
 815:Drivers/STM32F1xx_HAL_Driver/Src/stm32f1xx_hal_dma.c ****   * @brief  Return the DMA hande state.
 816:Drivers/STM32F1xx_HAL_Driver/Src/stm32f1xx_hal_dma.c ****   * @param  hdma: pointer to a DMA_HandleTypeDef structure that contains
 817:Drivers/STM32F1xx_HAL_Driver/Src/stm32f1xx_hal_dma.c ****   *               the configuration information for the specified DMA Channel.
 818:Drivers/STM32F1xx_HAL_Driver/Src/stm32f1xx_hal_dma.c ****   * @retval HAL state
 819:Drivers/STM32F1xx_HAL_Driver/Src/stm32f1xx_hal_dma.c ****   */
 820:Drivers/STM32F1xx_HAL_Driver/Src/stm32f1xx_hal_dma.c **** HAL_DMA_StateTypeDef HAL_DMA_GetState(DMA_HandleTypeDef *hdma)
ARM GAS  /var/folders/20/cstyxln53wn53rr40gj353bh0000gn/T//ccP3ZOe1.s 			page 23


 821:Drivers/STM32F1xx_HAL_Driver/Src/stm32f1xx_hal_dma.c **** {
 822:Drivers/STM32F1xx_HAL_Driver/Src/stm32f1xx_hal_dma.c ****   /* Return DMA handle state */
 823:Drivers/STM32F1xx_HAL_Driver/Src/stm32f1xx_hal_dma.c ****   return hdma->State;
 824:Drivers/STM32F1xx_HAL_Driver/Src/stm32f1xx_hal_dma.c **** }
 825:Drivers/STM32F1xx_HAL_Driver/Src/stm32f1xx_hal_dma.c **** 
 826:Drivers/STM32F1xx_HAL_Driver/Src/stm32f1xx_hal_dma.c **** /**
 827:Drivers/STM32F1xx_HAL_Driver/Src/stm32f1xx_hal_dma.c ****   * @brief  Return the DMA error code.
 828:Drivers/STM32F1xx_HAL_Driver/Src/stm32f1xx_hal_dma.c ****   * @param  hdma : pointer to a DMA_HandleTypeDef structure that contains
 829:Drivers/STM32F1xx_HAL_Driver/Src/stm32f1xx_hal_dma.c ****   *              the configuration information for the specified DMA Channel.
 830:Drivers/STM32F1xx_HAL_Driver/Src/stm32f1xx_hal_dma.c ****   * @retval DMA Error Code
 831:Drivers/STM32F1xx_HAL_Driver/Src/stm32f1xx_hal_dma.c ****   */
 832:Drivers/STM32F1xx_HAL_Driver/Src/stm32f1xx_hal_dma.c **** uint32_t HAL_DMA_GetError(DMA_HandleTypeDef *hdma)
 833:Drivers/STM32F1xx_HAL_Driver/Src/stm32f1xx_hal_dma.c **** {
 834:Drivers/STM32F1xx_HAL_Driver/Src/stm32f1xx_hal_dma.c ****   return hdma->ErrorCode;
 835:Drivers/STM32F1xx_HAL_Driver/Src/stm32f1xx_hal_dma.c **** }
 836:Drivers/STM32F1xx_HAL_Driver/Src/stm32f1xx_hal_dma.c **** 
 837:Drivers/STM32F1xx_HAL_Driver/Src/stm32f1xx_hal_dma.c **** /**
 838:Drivers/STM32F1xx_HAL_Driver/Src/stm32f1xx_hal_dma.c ****   * @}
 839:Drivers/STM32F1xx_HAL_Driver/Src/stm32f1xx_hal_dma.c ****   */
 840:Drivers/STM32F1xx_HAL_Driver/Src/stm32f1xx_hal_dma.c **** 
 841:Drivers/STM32F1xx_HAL_Driver/Src/stm32f1xx_hal_dma.c **** /**
 842:Drivers/STM32F1xx_HAL_Driver/Src/stm32f1xx_hal_dma.c ****   * @}
 843:Drivers/STM32F1xx_HAL_Driver/Src/stm32f1xx_hal_dma.c ****   */
 844:Drivers/STM32F1xx_HAL_Driver/Src/stm32f1xx_hal_dma.c **** 
 845:Drivers/STM32F1xx_HAL_Driver/Src/stm32f1xx_hal_dma.c **** /** @addtogroup DMA_Private_Functions
 846:Drivers/STM32F1xx_HAL_Driver/Src/stm32f1xx_hal_dma.c ****   * @{
 847:Drivers/STM32F1xx_HAL_Driver/Src/stm32f1xx_hal_dma.c ****   */
 848:Drivers/STM32F1xx_HAL_Driver/Src/stm32f1xx_hal_dma.c **** 
 849:Drivers/STM32F1xx_HAL_Driver/Src/stm32f1xx_hal_dma.c **** /**
 850:Drivers/STM32F1xx_HAL_Driver/Src/stm32f1xx_hal_dma.c ****   * @brief  Sets the DMA Transfer parameter.
 851:Drivers/STM32F1xx_HAL_Driver/Src/stm32f1xx_hal_dma.c ****   * @param  hdma:       pointer to a DMA_HandleTypeDef structure that contains
 852:Drivers/STM32F1xx_HAL_Driver/Src/stm32f1xx_hal_dma.c ****   *                     the configuration information for the specified DMA Channel.
 853:Drivers/STM32F1xx_HAL_Driver/Src/stm32f1xx_hal_dma.c ****   * @param  SrcAddress: The source memory Buffer address
 854:Drivers/STM32F1xx_HAL_Driver/Src/stm32f1xx_hal_dma.c ****   * @param  DstAddress: The destination memory Buffer address
 855:Drivers/STM32F1xx_HAL_Driver/Src/stm32f1xx_hal_dma.c ****   * @param  DataLength: The length of data to be transferred from source to destination
 856:Drivers/STM32F1xx_HAL_Driver/Src/stm32f1xx_hal_dma.c ****   * @retval HAL status
 857:Drivers/STM32F1xx_HAL_Driver/Src/stm32f1xx_hal_dma.c ****   */
 858:Drivers/STM32F1xx_HAL_Driver/Src/stm32f1xx_hal_dma.c **** static void DMA_SetConfig(DMA_HandleTypeDef *hdma, uint32_t SrcAddress, uint32_t DstAddress, uint32
 859:Drivers/STM32F1xx_HAL_Driver/Src/stm32f1xx_hal_dma.c **** {
 860:Drivers/STM32F1xx_HAL_Driver/Src/stm32f1xx_hal_dma.c ****   /* Clear all flags */
 861:Drivers/STM32F1xx_HAL_Driver/Src/stm32f1xx_hal_dma.c ****   hdma->DmaBaseAddress->IFCR = (DMA_ISR_GIF1 << hdma->ChannelIndex);
 358              		.loc 1 861 46 view .LVU132
 359 0030 076C     		ldr	r7, [r0, #64]
 360              	.LBE7:
 361              	.LBE6:
 336:Drivers/STM32F1xx_HAL_Driver/Src/stm32f1xx_hal_dma.c ****     
 362              		.loc 1 336 5 view .LVU133
 363 0032 2668     		ldr	r6, [r4]
 364              	.LBB12:
 365              	.LBB8:
 366              		.loc 1 861 46 view .LVU134
 367 0034 BD40     		lsls	r5, r5, r7
 368              		.loc 1 861 7 view .LVU135
 369 0036 C76B     		ldr	r7, [r0, #60]
 370              	.LBE8:
 371              	.LBE12:
 336:Drivers/STM32F1xx_HAL_Driver/Src/stm32f1xx_hal_dma.c ****     
ARM GAS  /var/folders/20/cstyxln53wn53rr40gj353bh0000gn/T//ccP3ZOe1.s 			page 24


 372              		.loc 1 336 5 view .LVU136
 373 0038 26F00106 		bic	r6, r6, #1
 332:Drivers/STM32F1xx_HAL_Driver/Src/stm32f1xx_hal_dma.c ****     hdma->ErrorCode = HAL_DMA_ERROR_NONE;
 374              		.loc 1 332 17 view .LVU137
 375 003c 80F821C0 		strb	ip, [r0, #33]
 333:Drivers/STM32F1xx_HAL_Driver/Src/stm32f1xx_hal_dma.c ****             
 376              		.loc 1 333 5 is_stmt 1 view .LVU138
 336:Drivers/STM32F1xx_HAL_Driver/Src/stm32f1xx_hal_dma.c ****     
 377              		.loc 1 336 5 view .LVU139
 378              	.LBB13:
 379              	.LBB9:
 862:Drivers/STM32F1xx_HAL_Driver/Src/stm32f1xx_hal_dma.c **** 
 863:Drivers/STM32F1xx_HAL_Driver/Src/stm32f1xx_hal_dma.c ****   /* Configure DMA Channel data length */
 864:Drivers/STM32F1xx_HAL_Driver/Src/stm32f1xx_hal_dma.c ****   hdma->Instance->CNDTR = DataLength;
 865:Drivers/STM32F1xx_HAL_Driver/Src/stm32f1xx_hal_dma.c **** 
 866:Drivers/STM32F1xx_HAL_Driver/Src/stm32f1xx_hal_dma.c ****   /* Memory to Peripheral */
 867:Drivers/STM32F1xx_HAL_Driver/Src/stm32f1xx_hal_dma.c ****   if((hdma->Init.Direction) == DMA_MEMORY_TO_PERIPH)
 380              		.loc 1 867 5 is_stmt 0 view .LVU140
 381 0040 4068     		ldr	r0, [r0, #4]
 382              	.LVL16:
 383              		.loc 1 867 5 view .LVU141
 384              	.LBE9:
 385              	.LBE13:
 336:Drivers/STM32F1xx_HAL_Driver/Src/stm32f1xx_hal_dma.c ****     
 386              		.loc 1 336 5 view .LVU142
 387 0042 2660     		str	r6, [r4]
 339:Drivers/STM32F1xx_HAL_Driver/Src/stm32f1xx_hal_dma.c ****     
 388              		.loc 1 339 5 is_stmt 1 view .LVU143
 389              	.LVL17:
 390              	.LBB14:
 391              	.LBI6:
 858:Drivers/STM32F1xx_HAL_Driver/Src/stm32f1xx_hal_dma.c **** {
 392              		.loc 1 858 13 view .LVU144
 393              	.LBB10:
 861:Drivers/STM32F1xx_HAL_Driver/Src/stm32f1xx_hal_dma.c **** 
 394              		.loc 1 861 3 view .LVU145
 861:Drivers/STM32F1xx_HAL_Driver/Src/stm32f1xx_hal_dma.c **** 
 395              		.loc 1 861 30 is_stmt 0 view .LVU146
 396 0044 7D60     		str	r5, [r7, #4]
 864:Drivers/STM32F1xx_HAL_Driver/Src/stm32f1xx_hal_dma.c **** 
 397              		.loc 1 864 3 is_stmt 1 view .LVU147
 864:Drivers/STM32F1xx_HAL_Driver/Src/stm32f1xx_hal_dma.c **** 
 398              		.loc 1 864 25 is_stmt 0 view .LVU148
 399 0046 6360     		str	r3, [r4, #4]
 400              		.loc 1 867 3 is_stmt 1 view .LVU149
 401              	.LBE10:
 402              	.LBE14:
 321:Drivers/STM32F1xx_HAL_Driver/Src/stm32f1xx_hal_dma.c **** 
 403              		.loc 1 321 21 is_stmt 0 view .LVU150
 404 0048 0023     		movs	r3, #0
 405              	.LVL18:
 406              	.LBB15:
 407              	.LBB11:
 408              		.loc 1 867 5 view .LVU151
 409 004a 1028     		cmp	r0, #16
 868:Drivers/STM32F1xx_HAL_Driver/Src/stm32f1xx_hal_dma.c ****   {
 869:Drivers/STM32F1xx_HAL_Driver/Src/stm32f1xx_hal_dma.c ****     /* Configure DMA Channel destination address */
ARM GAS  /var/folders/20/cstyxln53wn53rr40gj353bh0000gn/T//ccP3ZOe1.s 			page 25


 870:Drivers/STM32F1xx_HAL_Driver/Src/stm32f1xx_hal_dma.c ****     hdma->Instance->CPAR = DstAddress;
 410              		.loc 1 870 5 is_stmt 1 view .LVU152
 411              		.loc 1 870 26 is_stmt 0 view .LVU153
 412 004c 0BBF     		itete	eq
 413 004e A260     		streq	r2, [r4, #8]
 871:Drivers/STM32F1xx_HAL_Driver/Src/stm32f1xx_hal_dma.c **** 
 872:Drivers/STM32F1xx_HAL_Driver/Src/stm32f1xx_hal_dma.c ****     /* Configure DMA Channel source address */
 873:Drivers/STM32F1xx_HAL_Driver/Src/stm32f1xx_hal_dma.c ****     hdma->Instance->CMAR = SrcAddress;
 414              		.loc 1 873 5 is_stmt 1 view .LVU154
 874:Drivers/STM32F1xx_HAL_Driver/Src/stm32f1xx_hal_dma.c ****   }
 875:Drivers/STM32F1xx_HAL_Driver/Src/stm32f1xx_hal_dma.c ****   /* Peripheral to Memory */
 876:Drivers/STM32F1xx_HAL_Driver/Src/stm32f1xx_hal_dma.c ****   else
 877:Drivers/STM32F1xx_HAL_Driver/Src/stm32f1xx_hal_dma.c ****   {
 878:Drivers/STM32F1xx_HAL_Driver/Src/stm32f1xx_hal_dma.c ****     /* Configure DMA Channel source address */
 879:Drivers/STM32F1xx_HAL_Driver/Src/stm32f1xx_hal_dma.c ****     hdma->Instance->CPAR = SrcAddress;
 415              		.loc 1 879 26 is_stmt 0 view .LVU155
 416 0050 A160     		strne	r1, [r4, #8]
 873:Drivers/STM32F1xx_HAL_Driver/Src/stm32f1xx_hal_dma.c ****   }
 417              		.loc 1 873 26 view .LVU156
 418 0052 E160     		streq	r1, [r4, #12]
 419              		.loc 1 879 5 is_stmt 1 view .LVU157
 880:Drivers/STM32F1xx_HAL_Driver/Src/stm32f1xx_hal_dma.c **** 
 881:Drivers/STM32F1xx_HAL_Driver/Src/stm32f1xx_hal_dma.c ****     /* Configure DMA Channel destination address */
 882:Drivers/STM32F1xx_HAL_Driver/Src/stm32f1xx_hal_dma.c ****     hdma->Instance->CMAR = DstAddress;
 420              		.loc 1 882 5 view .LVU158
 421              		.loc 1 882 26 is_stmt 0 view .LVU159
 422 0054 E260     		strne	r2, [r4, #12]
 423              	.LVL19:
 424              		.loc 1 882 26 view .LVU160
 425              	.LBE11:
 426              	.LBE15:
 342:Drivers/STM32F1xx_HAL_Driver/Src/stm32f1xx_hal_dma.c ****   }
 427              		.loc 1 342 5 is_stmt 1 view .LVU161
 428 0056 2268     		ldr	r2, [r4]
 429              	.LVL20:
 351:Drivers/STM32F1xx_HAL_Driver/Src/stm32f1xx_hal_dma.c **** 
 430              		.loc 1 351 1 is_stmt 0 view .LVU162
 431 0058 1846     		mov	r0, r3
 342:Drivers/STM32F1xx_HAL_Driver/Src/stm32f1xx_hal_dma.c ****   }
 432              		.loc 1 342 5 view .LVU163
 433 005a 42F00102 		orr	r2, r2, #1
 434 005e 2260     		str	r2, [r4]
 435              	.LVL21:
 351:Drivers/STM32F1xx_HAL_Driver/Src/stm32f1xx_hal_dma.c **** 
 436              		.loc 1 351 1 view .LVU164
 437 0060 F0BC     		pop	{r4, r5, r6, r7}
 438              	.LCFI7:
 439              		.cfi_remember_state
 440              		.cfi_restore 7
 441              		.cfi_restore 6
 442              		.cfi_restore 5
 443              		.cfi_restore 4
 444              		.cfi_def_cfa_offset 0
 445 0062 7047     		bx	lr
 446              	.LVL22:
 447              	.L25:
 448              	.LCFI8:
ARM GAS  /var/folders/20/cstyxln53wn53rr40gj353bh0000gn/T//ccP3ZOe1.s 			page 26


 449              		.cfi_restore_state
 327:Drivers/STM32F1xx_HAL_Driver/Src/stm32f1xx_hal_dma.c **** 
 450              		.loc 1 327 3 view .LVU165
 451 0064 0223     		movs	r3, #2
 452              	.LVL23:
 351:Drivers/STM32F1xx_HAL_Driver/Src/stm32f1xx_hal_dma.c **** 
 453              		.loc 1 351 1 view .LVU166
 454 0066 F0BC     		pop	{r4, r5, r6, r7}
 455              	.LCFI9:
 456              		.cfi_restore 7
 457              		.cfi_restore 6
 458              		.cfi_restore 5
 459              		.cfi_restore 4
 460              		.cfi_def_cfa_offset 0
 461 0068 1846     		mov	r0, r3
 462              	.LVL24:
 351:Drivers/STM32F1xx_HAL_Driver/Src/stm32f1xx_hal_dma.c **** 
 463              		.loc 1 351 1 view .LVU167
 464 006a 7047     		bx	lr
 465              		.cfi_endproc
 466              	.LFE67:
 468              		.section	.text.HAL_DMA_Start_IT,"ax",%progbits
 469              		.align	1
 470              		.p2align 2,,3
 471              		.global	HAL_DMA_Start_IT
 472              		.syntax unified
 473              		.thumb
 474              		.thumb_func
 475              		.fpu softvfp
 477              	HAL_DMA_Start_IT:
 478              	.LVL25:
 479              	.LFB68:
 363:Drivers/STM32F1xx_HAL_Driver/Src/stm32f1xx_hal_dma.c ****   HAL_StatusTypeDef status = HAL_OK;
 480              		.loc 1 363 1 is_stmt 1 view -0
 481              		.cfi_startproc
 482              		@ args = 0, pretend = 0, frame = 0
 483              		@ frame_needed = 0, uses_anonymous_args = 0
 364:Drivers/STM32F1xx_HAL_Driver/Src/stm32f1xx_hal_dma.c **** 
 484              		.loc 1 364 3 view .LVU169
 367:Drivers/STM32F1xx_HAL_Driver/Src/stm32f1xx_hal_dma.c **** 
 485              		.loc 1 367 3 view .LVU170
 370:Drivers/STM32F1xx_HAL_Driver/Src/stm32f1xx_hal_dma.c ****   
 486              		.loc 1 370 3 view .LVU171
 370:Drivers/STM32F1xx_HAL_Driver/Src/stm32f1xx_hal_dma.c ****   
 487              		.loc 1 370 3 view .LVU172
 363:Drivers/STM32F1xx_HAL_Driver/Src/stm32f1xx_hal_dma.c ****   HAL_StatusTypeDef status = HAL_OK;
 488              		.loc 1 363 1 is_stmt 0 view .LVU173
 489 0000 F0B5     		push	{r4, r5, r6, r7, lr}
 490              	.LCFI10:
 491              		.cfi_def_cfa_offset 20
 492              		.cfi_offset 4, -20
 493              		.cfi_offset 5, -16
 494              		.cfi_offset 6, -12
 495              		.cfi_offset 7, -8
 496              		.cfi_offset 14, -4
 370:Drivers/STM32F1xx_HAL_Driver/Src/stm32f1xx_hal_dma.c ****   
 497              		.loc 1 370 3 view .LVU174
ARM GAS  /var/folders/20/cstyxln53wn53rr40gj353bh0000gn/T//ccP3ZOe1.s 			page 27


 498 0002 90F82040 		ldrb	r4, [r0, #32]	@ zero_extendqisi2
 499 0006 012C     		cmp	r4, #1
 500 0008 3BD0     		beq	.L35
 370:Drivers/STM32F1xx_HAL_Driver/Src/stm32f1xx_hal_dma.c ****   
 501              		.loc 1 370 3 is_stmt 1 discriminator 2 view .LVU175
 502 000a 0124     		movs	r4, #1
 372:Drivers/STM32F1xx_HAL_Driver/Src/stm32f1xx_hal_dma.c ****   {
 503              		.loc 1 372 5 is_stmt 0 discriminator 2 view .LVU176
 504 000c 90F82150 		ldrb	r5, [r0, #33]	@ zero_extendqisi2
 370:Drivers/STM32F1xx_HAL_Driver/Src/stm32f1xx_hal_dma.c ****   
 505              		.loc 1 370 3 discriminator 2 view .LVU177
 506 0010 80F82040 		strb	r4, [r0, #32]
 372:Drivers/STM32F1xx_HAL_Driver/Src/stm32f1xx_hal_dma.c ****   {
 507              		.loc 1 372 3 is_stmt 1 discriminator 2 view .LVU178
 372:Drivers/STM32F1xx_HAL_Driver/Src/stm32f1xx_hal_dma.c ****   {
 508              		.loc 1 372 5 is_stmt 0 discriminator 2 view .LVU179
 509 0014 A542     		cmp	r5, r4
 510 0016 05D0     		beq	.L37
 402:Drivers/STM32F1xx_HAL_Driver/Src/stm32f1xx_hal_dma.c **** 
 511              		.loc 1 402 5 is_stmt 1 view .LVU180
 402:Drivers/STM32F1xx_HAL_Driver/Src/stm32f1xx_hal_dma.c **** 
 512              		.loc 1 402 5 view .LVU181
 513 0018 0022     		movs	r2, #0
 514              	.LVL26:
 405:Drivers/STM32F1xx_HAL_Driver/Src/stm32f1xx_hal_dma.c ****   }    
 515              		.loc 1 405 12 is_stmt 0 view .LVU182
 516 001a 0223     		movs	r3, #2
 517              	.LVL27:
 402:Drivers/STM32F1xx_HAL_Driver/Src/stm32f1xx_hal_dma.c **** 
 518              		.loc 1 402 5 view .LVU183
 519 001c 80F82020 		strb	r2, [r0, #32]
 405:Drivers/STM32F1xx_HAL_Driver/Src/stm32f1xx_hal_dma.c ****   }    
 520              		.loc 1 405 5 is_stmt 1 view .LVU184
 521              	.LVL28:
 408:Drivers/STM32F1xx_HAL_Driver/Src/stm32f1xx_hal_dma.c **** 
 522              		.loc 1 408 1 is_stmt 0 view .LVU185
 523 0020 1846     		mov	r0, r3
 524              	.LVL29:
 408:Drivers/STM32F1xx_HAL_Driver/Src/stm32f1xx_hal_dma.c **** 
 525              		.loc 1 408 1 view .LVU186
 526 0022 F0BD     		pop	{r4, r5, r6, r7, pc}
 527              	.LVL30:
 528              	.L37:
 375:Drivers/STM32F1xx_HAL_Driver/Src/stm32f1xx_hal_dma.c ****     hdma->ErrorCode = HAL_DMA_ERROR_NONE;
 529              		.loc 1 375 5 is_stmt 1 view .LVU187
 376:Drivers/STM32F1xx_HAL_Driver/Src/stm32f1xx_hal_dma.c ****     
 530              		.loc 1 376 21 is_stmt 0 view .LVU188
 531 0024 0026     		movs	r6, #0
 375:Drivers/STM32F1xx_HAL_Driver/Src/stm32f1xx_hal_dma.c ****     hdma->ErrorCode = HAL_DMA_ERROR_NONE;
 532              		.loc 1 375 17 view .LVU189
 533 0026 4FF0020E 		mov	lr, #2
 379:Drivers/STM32F1xx_HAL_Driver/Src/stm32f1xx_hal_dma.c ****     
 534              		.loc 1 379 5 view .LVU190
 535 002a 0468     		ldr	r4, [r0]
 376:Drivers/STM32F1xx_HAL_Driver/Src/stm32f1xx_hal_dma.c ****     
 536              		.loc 1 376 21 view .LVU191
 537 002c 8663     		str	r6, [r0, #56]
ARM GAS  /var/folders/20/cstyxln53wn53rr40gj353bh0000gn/T//ccP3ZOe1.s 			page 28


 379:Drivers/STM32F1xx_HAL_Driver/Src/stm32f1xx_hal_dma.c ****     
 538              		.loc 1 379 5 view .LVU192
 539 002e 2668     		ldr	r6, [r4]
 540              	.LBB16:
 541              	.LBB17:
 861:Drivers/STM32F1xx_HAL_Driver/Src/stm32f1xx_hal_dma.c **** 
 542              		.loc 1 861 46 view .LVU193
 543 0030 076C     		ldr	r7, [r0, #64]
 861:Drivers/STM32F1xx_HAL_Driver/Src/stm32f1xx_hal_dma.c **** 
 544              		.loc 1 861 7 view .LVU194
 545 0032 D0F83CC0 		ldr	ip, [r0, #60]
 861:Drivers/STM32F1xx_HAL_Driver/Src/stm32f1xx_hal_dma.c **** 
 546              		.loc 1 861 46 view .LVU195
 547 0036 BD40     		lsls	r5, r5, r7
 548              	.LBE17:
 549              	.LBE16:
 379:Drivers/STM32F1xx_HAL_Driver/Src/stm32f1xx_hal_dma.c ****     
 550              		.loc 1 379 5 view .LVU196
 551 0038 26F00106 		bic	r6, r6, #1
 552              	.LBB22:
 553              	.LBB18:
 867:Drivers/STM32F1xx_HAL_Driver/Src/stm32f1xx_hal_dma.c ****   {
 554              		.loc 1 867 5 view .LVU197
 555 003c 4768     		ldr	r7, [r0, #4]
 556              	.LBE18:
 557              	.LBE22:
 375:Drivers/STM32F1xx_HAL_Driver/Src/stm32f1xx_hal_dma.c ****     hdma->ErrorCode = HAL_DMA_ERROR_NONE;
 558              		.loc 1 375 17 view .LVU198
 559 003e 80F821E0 		strb	lr, [r0, #33]
 376:Drivers/STM32F1xx_HAL_Driver/Src/stm32f1xx_hal_dma.c ****     
 560              		.loc 1 376 5 is_stmt 1 view .LVU199
 379:Drivers/STM32F1xx_HAL_Driver/Src/stm32f1xx_hal_dma.c ****     
 561              		.loc 1 379 5 view .LVU200
 562 0042 2660     		str	r6, [r4]
 382:Drivers/STM32F1xx_HAL_Driver/Src/stm32f1xx_hal_dma.c ****     
 563              		.loc 1 382 5 view .LVU201
 564              	.LVL31:
 565              	.LBB23:
 566              	.LBI16:
 858:Drivers/STM32F1xx_HAL_Driver/Src/stm32f1xx_hal_dma.c **** {
 567              		.loc 1 858 13 view .LVU202
 568              	.LBB19:
 861:Drivers/STM32F1xx_HAL_Driver/Src/stm32f1xx_hal_dma.c **** 
 569              		.loc 1 861 3 view .LVU203
 861:Drivers/STM32F1xx_HAL_Driver/Src/stm32f1xx_hal_dma.c **** 
 570              		.loc 1 861 30 is_stmt 0 view .LVU204
 571 0044 CCF80450 		str	r5, [ip, #4]
 864:Drivers/STM32F1xx_HAL_Driver/Src/stm32f1xx_hal_dma.c **** 
 572              		.loc 1 864 3 is_stmt 1 view .LVU205
 864:Drivers/STM32F1xx_HAL_Driver/Src/stm32f1xx_hal_dma.c **** 
 573              		.loc 1 864 25 is_stmt 0 view .LVU206
 574 0048 6360     		str	r3, [r4, #4]
 867:Drivers/STM32F1xx_HAL_Driver/Src/stm32f1xx_hal_dma.c ****   {
 575              		.loc 1 867 3 is_stmt 1 view .LVU207
 576              	.LBE19:
 577              	.LBE23:
 386:Drivers/STM32F1xx_HAL_Driver/Src/stm32f1xx_hal_dma.c ****     {
ARM GAS  /var/folders/20/cstyxln53wn53rr40gj353bh0000gn/T//ccP3ZOe1.s 			page 29


 578              		.loc 1 386 7 is_stmt 0 view .LVU208
 579 004a C36A     		ldr	r3, [r0, #44]
 580              	.LVL32:
 581              	.LBB24:
 582              	.LBB20:
 867:Drivers/STM32F1xx_HAL_Driver/Src/stm32f1xx_hal_dma.c ****   {
 583              		.loc 1 867 5 view .LVU209
 584 004c 102F     		cmp	r7, #16
 870:Drivers/STM32F1xx_HAL_Driver/Src/stm32f1xx_hal_dma.c **** 
 585              		.loc 1 870 5 is_stmt 1 view .LVU210
 870:Drivers/STM32F1xx_HAL_Driver/Src/stm32f1xx_hal_dma.c **** 
 586              		.loc 1 870 26 is_stmt 0 view .LVU211
 587 004e 0BBF     		itete	eq
 588 0050 A260     		streq	r2, [r4, #8]
 873:Drivers/STM32F1xx_HAL_Driver/Src/stm32f1xx_hal_dma.c ****   }
 589              		.loc 1 873 5 is_stmt 1 view .LVU212
 879:Drivers/STM32F1xx_HAL_Driver/Src/stm32f1xx_hal_dma.c **** 
 590              		.loc 1 879 26 is_stmt 0 view .LVU213
 591 0052 A160     		strne	r1, [r4, #8]
 873:Drivers/STM32F1xx_HAL_Driver/Src/stm32f1xx_hal_dma.c ****   }
 592              		.loc 1 873 26 view .LVU214
 593 0054 E160     		streq	r1, [r4, #12]
 879:Drivers/STM32F1xx_HAL_Driver/Src/stm32f1xx_hal_dma.c **** 
 594              		.loc 1 879 5 is_stmt 1 view .LVU215
 595              		.loc 1 882 5 view .LVU216
 596              	.LVL33:
 597              		.loc 1 882 5 is_stmt 0 view .LVU217
 598              	.LBE20:
 599              	.LBE24:
 386:Drivers/STM32F1xx_HAL_Driver/Src/stm32f1xx_hal_dma.c ****     {
 600              		.loc 1 386 5 is_stmt 1 view .LVU218
 601              	.LBB25:
 602              	.LBB21:
 603              		.loc 1 882 26 is_stmt 0 view .LVU219
 604 0056 E260     		strne	r2, [r4, #12]
 605              	.LBE21:
 606              	.LBE25:
 386:Drivers/STM32F1xx_HAL_Driver/Src/stm32f1xx_hal_dma.c ****     {
 607              		.loc 1 386 7 view .LVU220
 608 0058 53B1     		cbz	r3, .L33
 389:Drivers/STM32F1xx_HAL_Driver/Src/stm32f1xx_hal_dma.c ****     }
 609              		.loc 1 389 7 is_stmt 1 view .LVU221
 610 005a 2368     		ldr	r3, [r4]
 611 005c 43F00E03 		orr	r3, r3, #14
 612 0060 2360     		str	r3, [r4]
 613              	.LVL34:
 614              	.L34:
 397:Drivers/STM32F1xx_HAL_Driver/Src/stm32f1xx_hal_dma.c ****   }
 615              		.loc 1 397 5 view .LVU222
 364:Drivers/STM32F1xx_HAL_Driver/Src/stm32f1xx_hal_dma.c **** 
 616              		.loc 1 364 21 is_stmt 0 view .LVU223
 617 0062 0023     		movs	r3, #0
 397:Drivers/STM32F1xx_HAL_Driver/Src/stm32f1xx_hal_dma.c ****   }
 618              		.loc 1 397 5 view .LVU224
 619 0064 2268     		ldr	r2, [r4]
 620              	.LVL35:
 408:Drivers/STM32F1xx_HAL_Driver/Src/stm32f1xx_hal_dma.c **** 
ARM GAS  /var/folders/20/cstyxln53wn53rr40gj353bh0000gn/T//ccP3ZOe1.s 			page 30


 621              		.loc 1 408 1 view .LVU225
 622 0066 1846     		mov	r0, r3
 623              	.LVL36:
 397:Drivers/STM32F1xx_HAL_Driver/Src/stm32f1xx_hal_dma.c ****   }
 624              		.loc 1 397 5 view .LVU226
 625 0068 42F00102 		orr	r2, r2, #1
 626 006c 2260     		str	r2, [r4]
 408:Drivers/STM32F1xx_HAL_Driver/Src/stm32f1xx_hal_dma.c **** 
 627              		.loc 1 408 1 view .LVU227
 628 006e F0BD     		pop	{r4, r5, r6, r7, pc}
 629              	.LVL37:
 630              	.L33:
 393:Drivers/STM32F1xx_HAL_Driver/Src/stm32f1xx_hal_dma.c ****       __HAL_DMA_ENABLE_IT(hdma, (DMA_IT_TC | DMA_IT_TE));
 631              		.loc 1 393 7 is_stmt 1 view .LVU228
 632 0070 2368     		ldr	r3, [r4]
 633 0072 23F00403 		bic	r3, r3, #4
 634 0076 2360     		str	r3, [r4]
 635              	.LVL38:
 394:Drivers/STM32F1xx_HAL_Driver/Src/stm32f1xx_hal_dma.c ****     }
 636              		.loc 1 394 7 view .LVU229
 637 0078 2368     		ldr	r3, [r4]
 638 007a 43F00A03 		orr	r3, r3, #10
 639 007e 2360     		str	r3, [r4]
 640 0080 EFE7     		b	.L34
 641              	.LVL39:
 642              	.L35:
 370:Drivers/STM32F1xx_HAL_Driver/Src/stm32f1xx_hal_dma.c ****   
 643              		.loc 1 370 3 is_stmt 0 view .LVU230
 644 0082 0223     		movs	r3, #2
 645              	.LVL40:
 408:Drivers/STM32F1xx_HAL_Driver/Src/stm32f1xx_hal_dma.c **** 
 646              		.loc 1 408 1 view .LVU231
 647 0084 1846     		mov	r0, r3
 648              	.LVL41:
 408:Drivers/STM32F1xx_HAL_Driver/Src/stm32f1xx_hal_dma.c **** 
 649              		.loc 1 408 1 view .LVU232
 650 0086 F0BD     		pop	{r4, r5, r6, r7, pc}
 651              		.cfi_endproc
 652              	.LFE68:
 654              		.section	.text.HAL_DMA_Abort,"ax",%progbits
 655              		.align	1
 656              		.p2align 2,,3
 657              		.global	HAL_DMA_Abort
 658              		.syntax unified
 659              		.thumb
 660              		.thumb_func
 661              		.fpu softvfp
 663              	HAL_DMA_Abort:
 664              	.LVL42:
 665              	.LFB69:
 417:Drivers/STM32F1xx_HAL_Driver/Src/stm32f1xx_hal_dma.c ****   HAL_StatusTypeDef status = HAL_OK;
 666              		.loc 1 417 1 is_stmt 1 view -0
 667              		.cfi_startproc
 668              		@ args = 0, pretend = 0, frame = 0
 669              		@ frame_needed = 0, uses_anonymous_args = 0
 670              		@ link register save eliminated.
 418:Drivers/STM32F1xx_HAL_Driver/Src/stm32f1xx_hal_dma.c ****   
ARM GAS  /var/folders/20/cstyxln53wn53rr40gj353bh0000gn/T//ccP3ZOe1.s 			page 31


 671              		.loc 1 418 3 view .LVU234
 420:Drivers/STM32F1xx_HAL_Driver/Src/stm32f1xx_hal_dma.c ****   {
 672              		.loc 1 420 3 view .LVU235
 420:Drivers/STM32F1xx_HAL_Driver/Src/stm32f1xx_hal_dma.c ****   {
 673              		.loc 1 420 5 is_stmt 0 view .LVU236
 674 0000 90F82120 		ldrb	r2, [r0, #33]	@ zero_extendqisi2
 417:Drivers/STM32F1xx_HAL_Driver/Src/stm32f1xx_hal_dma.c ****   HAL_StatusTypeDef status = HAL_OK;
 675              		.loc 1 417 1 view .LVU237
 676 0004 0346     		mov	r3, r0
 420:Drivers/STM32F1xx_HAL_Driver/Src/stm32f1xx_hal_dma.c ****   {
 677              		.loc 1 420 5 view .LVU238
 678 0006 022A     		cmp	r2, #2
 679 0008 06D0     		beq	.L39
 423:Drivers/STM32F1xx_HAL_Driver/Src/stm32f1xx_hal_dma.c ****     
 680              		.loc 1 423 5 is_stmt 1 view .LVU239
 423:Drivers/STM32F1xx_HAL_Driver/Src/stm32f1xx_hal_dma.c ****     
 681              		.loc 1 423 21 is_stmt 0 view .LVU240
 682 000a 0421     		movs	r1, #4
 426:Drivers/STM32F1xx_HAL_Driver/Src/stm32f1xx_hal_dma.c ****     
 683              		.loc 1 426 5 view .LVU241
 684 000c 0022     		movs	r2, #0
 423:Drivers/STM32F1xx_HAL_Driver/Src/stm32f1xx_hal_dma.c ****     
 685              		.loc 1 423 21 view .LVU242
 686 000e 8163     		str	r1, [r0, #56]
 426:Drivers/STM32F1xx_HAL_Driver/Src/stm32f1xx_hal_dma.c ****     
 687              		.loc 1 426 5 is_stmt 1 view .LVU243
 426:Drivers/STM32F1xx_HAL_Driver/Src/stm32f1xx_hal_dma.c ****     
 688              		.loc 1 426 5 view .LVU244
 689 0010 80F82020 		strb	r2, [r0, #32]
 428:Drivers/STM32F1xx_HAL_Driver/Src/stm32f1xx_hal_dma.c ****   }
 690              		.loc 1 428 5 view .LVU245
 428:Drivers/STM32F1xx_HAL_Driver/Src/stm32f1xx_hal_dma.c ****   }
 691              		.loc 1 428 12 is_stmt 0 view .LVU246
 692 0014 0120     		movs	r0, #1
 693              	.LVL43:
 449:Drivers/STM32F1xx_HAL_Driver/Src/stm32f1xx_hal_dma.c **** 
 694              		.loc 1 449 1 view .LVU247
 695 0016 7047     		bx	lr
 696              	.LVL44:
 697              	.L39:
 434:Drivers/STM32F1xx_HAL_Driver/Src/stm32f1xx_hal_dma.c ****       
 698              		.loc 1 434 5 is_stmt 1 view .LVU248
 440:Drivers/STM32F1xx_HAL_Driver/Src/stm32f1xx_hal_dma.c ****   }
 699              		.loc 1 440 48 is_stmt 0 view .LVU249
 700 0018 0121     		movs	r1, #1
 417:Drivers/STM32F1xx_HAL_Driver/Src/stm32f1xx_hal_dma.c ****   HAL_StatusTypeDef status = HAL_OK;
 701              		.loc 1 417 1 view .LVU250
 702 001a 70B4     		push	{r4, r5, r6}
 703              	.LCFI11:
 704              		.cfi_def_cfa_offset 12
 705              		.cfi_offset 4, -12
 706              		.cfi_offset 5, -8
 707              		.cfi_offset 6, -4
 446:Drivers/STM32F1xx_HAL_Driver/Src/stm32f1xx_hal_dma.c ****   
 708              		.loc 1 446 3 view .LVU251
 709 001c 4FF48075 		mov	r5, #256
 434:Drivers/STM32F1xx_HAL_Driver/Src/stm32f1xx_hal_dma.c ****       
ARM GAS  /var/folders/20/cstyxln53wn53rr40gj353bh0000gn/T//ccP3ZOe1.s 			page 32


 710              		.loc 1 434 5 view .LVU252
 711 0020 1A68     		ldr	r2, [r3]
 440:Drivers/STM32F1xx_HAL_Driver/Src/stm32f1xx_hal_dma.c ****   }
 712              		.loc 1 440 48 view .LVU253
 713 0022 1E6C     		ldr	r6, [r3, #64]
 434:Drivers/STM32F1xx_HAL_Driver/Src/stm32f1xx_hal_dma.c ****       
 714              		.loc 1 434 5 view .LVU254
 715 0024 1468     		ldr	r4, [r2]
 440:Drivers/STM32F1xx_HAL_Driver/Src/stm32f1xx_hal_dma.c ****   }
 716              		.loc 1 440 48 view .LVU255
 717 0026 B140     		lsls	r1, r1, r6
 434:Drivers/STM32F1xx_HAL_Driver/Src/stm32f1xx_hal_dma.c ****       
 718              		.loc 1 434 5 view .LVU256
 719 0028 24F00E04 		bic	r4, r4, #14
 720 002c 1460     		str	r4, [r2]
 437:Drivers/STM32F1xx_HAL_Driver/Src/stm32f1xx_hal_dma.c ****       
 721              		.loc 1 437 5 is_stmt 1 view .LVU257
 722 002e 1468     		ldr	r4, [r2]
 448:Drivers/STM32F1xx_HAL_Driver/Src/stm32f1xx_hal_dma.c **** }
 723              		.loc 1 448 10 is_stmt 0 view .LVU258
 724 0030 0020     		movs	r0, #0
 725              	.LVL45:
 437:Drivers/STM32F1xx_HAL_Driver/Src/stm32f1xx_hal_dma.c ****       
 726              		.loc 1 437 5 view .LVU259
 727 0032 24F00104 		bic	r4, r4, #1
 728 0036 1460     		str	r4, [r2]
 440:Drivers/STM32F1xx_HAL_Driver/Src/stm32f1xx_hal_dma.c ****   }
 729              		.loc 1 440 5 is_stmt 1 view .LVU260
 440:Drivers/STM32F1xx_HAL_Driver/Src/stm32f1xx_hal_dma.c ****   }
 730              		.loc 1 440 9 is_stmt 0 view .LVU261
 731 0038 DA6B     		ldr	r2, [r3, #60]
 440:Drivers/STM32F1xx_HAL_Driver/Src/stm32f1xx_hal_dma.c ****   }
 732              		.loc 1 440 32 view .LVU262
 733 003a 5160     		str	r1, [r2, #4]
 443:Drivers/STM32F1xx_HAL_Driver/Src/stm32f1xx_hal_dma.c **** 
 734              		.loc 1 443 3 is_stmt 1 view .LVU263
 446:Drivers/STM32F1xx_HAL_Driver/Src/stm32f1xx_hal_dma.c ****   
 735              		.loc 1 446 3 view .LVU264
 446:Drivers/STM32F1xx_HAL_Driver/Src/stm32f1xx_hal_dma.c ****   
 736              		.loc 1 446 3 view .LVU265
 737 003c 1D84     		strh	r5, [r3, #32]	@ movhi
 448:Drivers/STM32F1xx_HAL_Driver/Src/stm32f1xx_hal_dma.c **** }
 738              		.loc 1 448 3 view .LVU266
 449:Drivers/STM32F1xx_HAL_Driver/Src/stm32f1xx_hal_dma.c **** 
 739              		.loc 1 449 1 is_stmt 0 view .LVU267
 740 003e 70BC     		pop	{r4, r5, r6}
 741              	.LCFI12:
 742              		.cfi_restore 6
 743              		.cfi_restore 5
 744              		.cfi_restore 4
 745              		.cfi_def_cfa_offset 0
 746 0040 7047     		bx	lr
 747              		.cfi_endproc
 748              	.LFE69:
 750 0042 00BF     		.section	.text.HAL_DMA_Abort_IT,"ax",%progbits
 751              		.align	1
 752              		.p2align 2,,3
ARM GAS  /var/folders/20/cstyxln53wn53rr40gj353bh0000gn/T//ccP3ZOe1.s 			page 33


 753              		.global	HAL_DMA_Abort_IT
 754              		.syntax unified
 755              		.thumb
 756              		.thumb_func
 757              		.fpu softvfp
 759              	HAL_DMA_Abort_IT:
 760              	.LVL46:
 761              	.LFB70:
 458:Drivers/STM32F1xx_HAL_Driver/Src/stm32f1xx_hal_dma.c ****   HAL_StatusTypeDef status = HAL_OK;
 762              		.loc 1 458 1 is_stmt 1 view -0
 763              		.cfi_startproc
 764              		@ args = 0, pretend = 0, frame = 0
 765              		@ frame_needed = 0, uses_anonymous_args = 0
 459:Drivers/STM32F1xx_HAL_Driver/Src/stm32f1xx_hal_dma.c ****   
 766              		.loc 1 459 3 view .LVU269
 461:Drivers/STM32F1xx_HAL_Driver/Src/stm32f1xx_hal_dma.c ****   {
 767              		.loc 1 461 3 view .LVU270
 461:Drivers/STM32F1xx_HAL_Driver/Src/stm32f1xx_hal_dma.c ****   {
 768              		.loc 1 461 5 is_stmt 0 view .LVU271
 769 0000 90F82130 		ldrb	r3, [r0, #33]	@ zero_extendqisi2
 770 0004 022B     		cmp	r3, #2
 771 0006 04D0     		beq	.L45
 464:Drivers/STM32F1xx_HAL_Driver/Src/stm32f1xx_hal_dma.c ****         
 772              		.loc 1 464 5 is_stmt 1 view .LVU272
 464:Drivers/STM32F1xx_HAL_Driver/Src/stm32f1xx_hal_dma.c ****         
 773              		.loc 1 464 21 is_stmt 0 view .LVU273
 774 0008 0422     		movs	r2, #4
 466:Drivers/STM32F1xx_HAL_Driver/Src/stm32f1xx_hal_dma.c ****   }
 775              		.loc 1 466 12 view .LVU274
 776 000a 0123     		movs	r3, #1
 464:Drivers/STM32F1xx_HAL_Driver/Src/stm32f1xx_hal_dma.c ****         
 777              		.loc 1 464 21 view .LVU275
 778 000c 8263     		str	r2, [r0, #56]
 466:Drivers/STM32F1xx_HAL_Driver/Src/stm32f1xx_hal_dma.c ****   }
 779              		.loc 1 466 5 is_stmt 1 view .LVU276
 780              	.LVL47:
 491:Drivers/STM32F1xx_HAL_Driver/Src/stm32f1xx_hal_dma.c **** }
 781              		.loc 1 491 3 view .LVU277
 492:Drivers/STM32F1xx_HAL_Driver/Src/stm32f1xx_hal_dma.c **** 
 782              		.loc 1 492 1 is_stmt 0 view .LVU278
 783 000e 1846     		mov	r0, r3
 784              	.LVL48:
 492:Drivers/STM32F1xx_HAL_Driver/Src/stm32f1xx_hal_dma.c **** 
 785              		.loc 1 492 1 view .LVU279
 786 0010 7047     		bx	lr
 787              	.LVL49:
 788              	.L45:
 471:Drivers/STM32F1xx_HAL_Driver/Src/stm32f1xx_hal_dma.c **** 
 789              		.loc 1 471 5 is_stmt 1 view .LVU280
 790 0012 0368     		ldr	r3, [r0]
 458:Drivers/STM32F1xx_HAL_Driver/Src/stm32f1xx_hal_dma.c ****   HAL_StatusTypeDef status = HAL_OK;
 791              		.loc 1 458 1 is_stmt 0 view .LVU281
 792 0014 10B5     		push	{r4, lr}
 793              	.LCFI13:
 794              		.cfi_def_cfa_offset 8
 795              		.cfi_offset 4, -8
 796              		.cfi_offset 14, -4
ARM GAS  /var/folders/20/cstyxln53wn53rr40gj353bh0000gn/T//ccP3ZOe1.s 			page 34


 471:Drivers/STM32F1xx_HAL_Driver/Src/stm32f1xx_hal_dma.c **** 
 797              		.loc 1 471 5 view .LVU282
 798 0016 1A68     		ldr	r2, [r3]
 477:Drivers/STM32F1xx_HAL_Driver/Src/stm32f1xx_hal_dma.c **** 
 799              		.loc 1 477 5 view .LVU283
 800 0018 1B49     		ldr	r1, .L58
 471:Drivers/STM32F1xx_HAL_Driver/Src/stm32f1xx_hal_dma.c **** 
 801              		.loc 1 471 5 view .LVU284
 802 001a 22F00E02 		bic	r2, r2, #14
 803 001e 1A60     		str	r2, [r3]
 474:Drivers/STM32F1xx_HAL_Driver/Src/stm32f1xx_hal_dma.c **** 
 804              		.loc 1 474 5 is_stmt 1 view .LVU285
 805 0020 1A68     		ldr	r2, [r3]
 477:Drivers/STM32F1xx_HAL_Driver/Src/stm32f1xx_hal_dma.c **** 
 806              		.loc 1 477 5 is_stmt 0 view .LVU286
 807 0022 8B42     		cmp	r3, r1
 474:Drivers/STM32F1xx_HAL_Driver/Src/stm32f1xx_hal_dma.c **** 
 808              		.loc 1 474 5 view .LVU287
 809 0024 22F00102 		bic	r2, r2, #1
 810 0028 1A60     		str	r2, [r3]
 477:Drivers/STM32F1xx_HAL_Driver/Src/stm32f1xx_hal_dma.c **** 
 811              		.loc 1 477 5 is_stmt 1 view .LVU288
 812 002a 1FD0     		beq	.L48
 477:Drivers/STM32F1xx_HAL_Driver/Src/stm32f1xx_hal_dma.c **** 
 813              		.loc 1 477 5 is_stmt 0 discriminator 1 view .LVU289
 814 002c 174A     		ldr	r2, .L58+4
 815 002e 9342     		cmp	r3, r2
 816 0030 1AD0     		beq	.L49
 477:Drivers/STM32F1xx_HAL_Driver/Src/stm32f1xx_hal_dma.c **** 
 817              		.loc 1 477 5 discriminator 3 view .LVU290
 818 0032 1432     		adds	r2, r2, #20
 819 0034 9342     		cmp	r3, r2
 820 0036 1ED0     		beq	.L50
 477:Drivers/STM32F1xx_HAL_Driver/Src/stm32f1xx_hal_dma.c **** 
 821              		.loc 1 477 5 discriminator 5 view .LVU291
 822 0038 1432     		adds	r2, r2, #20
 823 003a 9342     		cmp	r3, r2
 824 003c 1ED0     		beq	.L51
 477:Drivers/STM32F1xx_HAL_Driver/Src/stm32f1xx_hal_dma.c **** 
 825              		.loc 1 477 5 discriminator 7 view .LVU292
 826 003e 1432     		adds	r2, r2, #20
 827 0040 9342     		cmp	r3, r2
 828 0042 1ED0     		beq	.L52
 477:Drivers/STM32F1xx_HAL_Driver/Src/stm32f1xx_hal_dma.c **** 
 829              		.loc 1 477 5 discriminator 9 view .LVU293
 830 0044 1432     		adds	r2, r2, #20
 831 0046 9342     		cmp	r3, r2
 832 0048 0CBF     		ite	eq
 833 004a 4FF48013 		moveq	r3, #1048576
 834 004e 4FF08073 		movne	r3, #16777216
 835              	.L47:
 483:Drivers/STM32F1xx_HAL_Driver/Src/stm32f1xx_hal_dma.c **** 
 836              		.loc 1 483 5 discriminator 24 view .LVU294
 837 0052 4FF48071 		mov	r1, #256
 477:Drivers/STM32F1xx_HAL_Driver/Src/stm32f1xx_hal_dma.c **** 
 838              		.loc 1 477 5 discriminator 24 view .LVU295
 839 0056 0E4C     		ldr	r4, .L58+8
ARM GAS  /var/folders/20/cstyxln53wn53rr40gj353bh0000gn/T//ccP3ZOe1.s 			page 35


 486:Drivers/STM32F1xx_HAL_Driver/Src/stm32f1xx_hal_dma.c ****     {
 840              		.loc 1 486 12 discriminator 24 view .LVU296
 841 0058 426B     		ldr	r2, [r0, #52]
 477:Drivers/STM32F1xx_HAL_Driver/Src/stm32f1xx_hal_dma.c **** 
 842              		.loc 1 477 5 discriminator 24 view .LVU297
 843 005a 6360     		str	r3, [r4, #4]
 480:Drivers/STM32F1xx_HAL_Driver/Src/stm32f1xx_hal_dma.c **** 
 844              		.loc 1 480 5 is_stmt 1 discriminator 24 view .LVU298
 483:Drivers/STM32F1xx_HAL_Driver/Src/stm32f1xx_hal_dma.c **** 
 845              		.loc 1 483 5 discriminator 24 view .LVU299
 483:Drivers/STM32F1xx_HAL_Driver/Src/stm32f1xx_hal_dma.c **** 
 846              		.loc 1 483 5 discriminator 24 view .LVU300
 847 005c 0184     		strh	r1, [r0, #32]	@ movhi
 486:Drivers/STM32F1xx_HAL_Driver/Src/stm32f1xx_hal_dma.c ****     {
 848              		.loc 1 486 5 discriminator 24 view .LVU301
 486:Drivers/STM32F1xx_HAL_Driver/Src/stm32f1xx_hal_dma.c ****     {
 849              		.loc 1 486 7 is_stmt 0 discriminator 24 view .LVU302
 850 005e 3AB1     		cbz	r2, .L54
 488:Drivers/STM32F1xx_HAL_Driver/Src/stm32f1xx_hal_dma.c ****     } 
 851              		.loc 1 488 7 is_stmt 1 view .LVU303
 852 0060 9047     		blx	r2
 853              	.LVL50:
 459:Drivers/STM32F1xx_HAL_Driver/Src/stm32f1xx_hal_dma.c ****   
 854              		.loc 1 459 21 is_stmt 0 view .LVU304
 855 0062 0023     		movs	r3, #0
 856              	.LVL51:
 491:Drivers/STM32F1xx_HAL_Driver/Src/stm32f1xx_hal_dma.c **** }
 857              		.loc 1 491 3 is_stmt 1 view .LVU305
 492:Drivers/STM32F1xx_HAL_Driver/Src/stm32f1xx_hal_dma.c **** 
 858              		.loc 1 492 1 is_stmt 0 view .LVU306
 859 0064 1846     		mov	r0, r3
 860 0066 10BD     		pop	{r4, pc}
 861              	.LVL52:
 862              	.L49:
 477:Drivers/STM32F1xx_HAL_Driver/Src/stm32f1xx_hal_dma.c **** 
 863              		.loc 1 477 5 view .LVU307
 864 0068 1023     		movs	r3, #16
 865 006a F2E7     		b	.L47
 866              	.L48:
 867 006c 0123     		movs	r3, #1
 868 006e F0E7     		b	.L47
 869              	.L54:
 459:Drivers/STM32F1xx_HAL_Driver/Src/stm32f1xx_hal_dma.c ****   
 870              		.loc 1 459 21 view .LVU308
 871 0070 1346     		mov	r3, r2
 872              	.LVL53:
 491:Drivers/STM32F1xx_HAL_Driver/Src/stm32f1xx_hal_dma.c **** }
 873              		.loc 1 491 3 is_stmt 1 view .LVU309
 492:Drivers/STM32F1xx_HAL_Driver/Src/stm32f1xx_hal_dma.c **** 
 874              		.loc 1 492 1 is_stmt 0 view .LVU310
 875 0072 1846     		mov	r0, r3
 876              	.LVL54:
 492:Drivers/STM32F1xx_HAL_Driver/Src/stm32f1xx_hal_dma.c **** 
 877              		.loc 1 492 1 view .LVU311
 878 0074 10BD     		pop	{r4, pc}
 879              	.LVL55:
 880              	.L50:
ARM GAS  /var/folders/20/cstyxln53wn53rr40gj353bh0000gn/T//ccP3ZOe1.s 			page 36


 477:Drivers/STM32F1xx_HAL_Driver/Src/stm32f1xx_hal_dma.c **** 
 881              		.loc 1 477 5 view .LVU312
 882 0076 4FF48073 		mov	r3, #256
 883 007a EAE7     		b	.L47
 884              	.L51:
 885 007c 4FF48053 		mov	r3, #4096
 886 0080 E7E7     		b	.L47
 887              	.L52:
 888 0082 4FF48033 		mov	r3, #65536
 889 0086 E4E7     		b	.L47
 890              	.L59:
 891              		.align	2
 892              	.L58:
 893 0088 08000240 		.word	1073872904
 894 008c 1C000240 		.word	1073872924
 895 0090 00000240 		.word	1073872896
 896              		.cfi_endproc
 897              	.LFE70:
 899              		.section	.text.HAL_DMA_PollForTransfer,"ax",%progbits
 900              		.align	1
 901              		.p2align 2,,3
 902              		.global	HAL_DMA_PollForTransfer
 903              		.syntax unified
 904              		.thumb
 905              		.thumb_func
 906              		.fpu softvfp
 908              	HAL_DMA_PollForTransfer:
 909              	.LVL56:
 910              	.LFB71:
 503:Drivers/STM32F1xx_HAL_Driver/Src/stm32f1xx_hal_dma.c ****   uint32_t temp;
 911              		.loc 1 503 1 is_stmt 1 view -0
 912              		.cfi_startproc
 913              		@ args = 0, pretend = 0, frame = 0
 914              		@ frame_needed = 0, uses_anonymous_args = 0
 504:Drivers/STM32F1xx_HAL_Driver/Src/stm32f1xx_hal_dma.c ****   uint32_t tickstart = 0U;
 915              		.loc 1 504 3 view .LVU314
 505:Drivers/STM32F1xx_HAL_Driver/Src/stm32f1xx_hal_dma.c **** 
 916              		.loc 1 505 3 view .LVU315
 507:Drivers/STM32F1xx_HAL_Driver/Src/stm32f1xx_hal_dma.c ****   {
 917              		.loc 1 507 3 view .LVU316
 503:Drivers/STM32F1xx_HAL_Driver/Src/stm32f1xx_hal_dma.c ****   uint32_t temp;
 918              		.loc 1 503 1 is_stmt 0 view .LVU317
 919 0000 2DE9F84F 		push	{r3, r4, r5, r6, r7, r8, r9, r10, fp, lr}
 920              	.LCFI14:
 921              		.cfi_def_cfa_offset 40
 922              		.cfi_offset 3, -40
 923              		.cfi_offset 4, -36
 924              		.cfi_offset 5, -32
 925              		.cfi_offset 6, -28
 926              		.cfi_offset 7, -24
 927              		.cfi_offset 8, -20
 928              		.cfi_offset 9, -16
 929              		.cfi_offset 10, -12
 930              		.cfi_offset 11, -8
 931              		.cfi_offset 14, -4
 507:Drivers/STM32F1xx_HAL_Driver/Src/stm32f1xx_hal_dma.c ****   {
 932              		.loc 1 507 5 view .LVU318
ARM GAS  /var/folders/20/cstyxln53wn53rr40gj353bh0000gn/T//ccP3ZOe1.s 			page 37


 933 0004 90F82140 		ldrb	r4, [r0, #33]	@ zero_extendqisi2
 503:Drivers/STM32F1xx_HAL_Driver/Src/stm32f1xx_hal_dma.c ****   uint32_t temp;
 934              		.loc 1 503 1 view .LVU319
 935 0008 0546     		mov	r5, r0
 507:Drivers/STM32F1xx_HAL_Driver/Src/stm32f1xx_hal_dma.c ****   {
 936              		.loc 1 507 5 view .LVU320
 937 000a 022C     		cmp	r4, #2
 938 000c 07D0     		beq	.L61
 510:Drivers/STM32F1xx_HAL_Driver/Src/stm32f1xx_hal_dma.c ****     __HAL_UNLOCK(hdma);
 939              		.loc 1 510 5 is_stmt 1 view .LVU321
 510:Drivers/STM32F1xx_HAL_Driver/Src/stm32f1xx_hal_dma.c ****     __HAL_UNLOCK(hdma);
 940              		.loc 1 510 21 is_stmt 0 view .LVU322
 941 000e 0422     		movs	r2, #4
 942              	.LVL57:
 511:Drivers/STM32F1xx_HAL_Driver/Src/stm32f1xx_hal_dma.c ****     return HAL_ERROR;
 943              		.loc 1 511 5 view .LVU323
 944 0010 0023     		movs	r3, #0
 510:Drivers/STM32F1xx_HAL_Driver/Src/stm32f1xx_hal_dma.c ****     __HAL_UNLOCK(hdma);
 945              		.loc 1 510 21 view .LVU324
 946 0012 8263     		str	r2, [r0, #56]
 511:Drivers/STM32F1xx_HAL_Driver/Src/stm32f1xx_hal_dma.c ****     return HAL_ERROR;
 947              		.loc 1 511 5 is_stmt 1 view .LVU325
 511:Drivers/STM32F1xx_HAL_Driver/Src/stm32f1xx_hal_dma.c ****     return HAL_ERROR;
 948              		.loc 1 511 5 view .LVU326
 949 0014 80F82030 		strb	r3, [r0, #32]
 512:Drivers/STM32F1xx_HAL_Driver/Src/stm32f1xx_hal_dma.c ****   }
 950              		.loc 1 512 5 view .LVU327
 512:Drivers/STM32F1xx_HAL_Driver/Src/stm32f1xx_hal_dma.c ****   }
 951              		.loc 1 512 12 is_stmt 0 view .LVU328
 952 0018 0120     		movs	r0, #1
 953              	.LVL58:
 954              	.L144:
 595:Drivers/STM32F1xx_HAL_Driver/Src/stm32f1xx_hal_dma.c **** 
 955              		.loc 1 595 1 view .LVU329
 956 001a BDE8F88F 		pop	{r3, r4, r5, r6, r7, r8, r9, r10, fp, pc}
 957              	.LVL59:
 958              	.L61:
 516:Drivers/STM32F1xx_HAL_Driver/Src/stm32f1xx_hal_dma.c ****   {
 959              		.loc 1 516 3 is_stmt 1 view .LVU330
 516:Drivers/STM32F1xx_HAL_Driver/Src/stm32f1xx_hal_dma.c ****   {
 960              		.loc 1 516 21 is_stmt 0 view .LVU331
 961 001e 0368     		ldr	r3, [r0]
 516:Drivers/STM32F1xx_HAL_Driver/Src/stm32f1xx_hal_dma.c ****   {
 962              		.loc 1 516 31 view .LVU332
 963 0020 1868     		ldr	r0, [r3]
 964              	.LVL60:
 516:Drivers/STM32F1xx_HAL_Driver/Src/stm32f1xx_hal_dma.c ****   {
 965              		.loc 1 516 6 view .LVU333
 966 0022 8006     		lsls	r0, r0, #26
 967 0024 53D4     		bmi	.L150
 523:Drivers/STM32F1xx_HAL_Driver/Src/stm32f1xx_hal_dma.c ****   {
 968              		.loc 1 523 3 is_stmt 1 view .LVU334
 526:Drivers/STM32F1xx_HAL_Driver/Src/stm32f1xx_hal_dma.c ****   }
 969              		.loc 1 526 12 is_stmt 0 view .LVU335
 970 0026 BB48     		ldr	r0, .L159
 523:Drivers/STM32F1xx_HAL_Driver/Src/stm32f1xx_hal_dma.c ****   {
 971              		.loc 1 523 5 view .LVU336
ARM GAS  /var/folders/20/cstyxln53wn53rr40gj353bh0000gn/T//ccP3ZOe1.s 			page 38


 972 0028 0029     		cmp	r1, #0
 973 002a 56D1     		bne	.L64
 526:Drivers/STM32F1xx_HAL_Driver/Src/stm32f1xx_hal_dma.c ****   }
 974              		.loc 1 526 5 is_stmt 1 view .LVU337
 526:Drivers/STM32F1xx_HAL_Driver/Src/stm32f1xx_hal_dma.c ****   }
 975              		.loc 1 526 12 is_stmt 0 view .LVU338
 976 002c 8342     		cmp	r3, r0
 977 002e 16D0     		beq	.L65
 526:Drivers/STM32F1xx_HAL_Driver/Src/stm32f1xx_hal_dma.c ****   }
 978              		.loc 1 526 12 discriminator 1 view .LVU339
 979 0030 1430     		adds	r0, r0, #20
 980 0032 8342     		cmp	r3, r0
 981 0034 00F00781 		beq	.L100
 526:Drivers/STM32F1xx_HAL_Driver/Src/stm32f1xx_hal_dma.c ****   }
 982              		.loc 1 526 12 discriminator 3 view .LVU340
 983 0038 1430     		adds	r0, r0, #20
 984 003a 8342     		cmp	r3, r0
 985 003c 00F00F81 		beq	.L101
 526:Drivers/STM32F1xx_HAL_Driver/Src/stm32f1xx_hal_dma.c ****   }
 986              		.loc 1 526 12 discriminator 5 view .LVU341
 987 0040 1430     		adds	r0, r0, #20
 988 0042 8342     		cmp	r3, r0
 989 0044 00F0F880 		beq	.L102
 526:Drivers/STM32F1xx_HAL_Driver/Src/stm32f1xx_hal_dma.c ****   }
 990              		.loc 1 526 12 discriminator 7 view .LVU342
 991 0048 1430     		adds	r0, r0, #20
 992 004a 8342     		cmp	r3, r0
 993 004c 00F03B81 		beq	.L103
 526:Drivers/STM32F1xx_HAL_Driver/Src/stm32f1xx_hal_dma.c ****   }
 994              		.loc 1 526 12 discriminator 9 view .LVU343
 995 0050 B14C     		ldr	r4, .L159+4
 996 0052 A342     		cmp	r3, r4
 997 0054 0CBF     		ite	eq
 998 0056 4FF40014 		moveq	r4, #2097152
 999 005a 4FF00074 		movne	r4, #33554432
 1000              	.L65:
 1001 005e 1646     		mov	r6, r2
 1002 0060 0F46     		mov	r7, r1
 1003              	.LVL61:
 535:Drivers/STM32F1xx_HAL_Driver/Src/stm32f1xx_hal_dma.c **** 
 1004              		.loc 1 535 3 is_stmt 1 view .LVU344
 535:Drivers/STM32F1xx_HAL_Driver/Src/stm32f1xx_hal_dma.c **** 
 1005              		.loc 1 535 15 is_stmt 0 view .LVU345
 1006 0062 FFF7FEFF 		bl	HAL_GetTick
 1007              	.LVL62:
 535:Drivers/STM32F1xx_HAL_Driver/Src/stm32f1xx_hal_dma.c **** 
 1008              		.loc 1 535 15 view .LVU346
 1009 0066 8046     		mov	r8, r0
 1010              	.LVL63:
 537:Drivers/STM32F1xx_HAL_Driver/Src/stm32f1xx_hal_dma.c ****   {
 1011              		.loc 1 537 3 is_stmt 1 view .LVU347
 1012 0068 AB4B     		ldr	r3, .L159+4
 1013 006a AC4A     		ldr	r2, .L159+8
 1014 006c AC49     		ldr	r1, .L159+12
 539:Drivers/STM32F1xx_HAL_Driver/Src/stm32f1xx_hal_dma.c ****     {
 1015              		.loc 1 539 9 is_stmt 0 view .LVU348
 1016 006e DFF8A492 		ldr	r9, .L159
ARM GAS  /var/folders/20/cstyxln53wn53rr40gj353bh0000gn/T//ccP3ZOe1.s 			page 39


 1017 0072 DFF8B0A2 		ldr	r10, .L159+16
 1018 0076 DFF8B0B2 		ldr	fp, .L159+20
 1019              	.LVL64:
 1020              	.L66:
 539:Drivers/STM32F1xx_HAL_Driver/Src/stm32f1xx_hal_dma.c ****     {
 1021              		.loc 1 539 9 view .LVU349
 1022 007a B6F1FF3F 		cmp	r6, #-1
 1023 007e 2868     		ldr	r0, [r5]
 1024 0080 46D1     		bne	.L70
 1025 0082 A54B     		ldr	r3, .L159+4
 1026 0084 9842     		cmp	r0, r3
 1027 0086 77D0     		beq	.L151
 1028 0088 A24B     		ldr	r3, .L159
 1029 008a 9842     		cmp	r0, r3
 1030 008c 00F09780 		beq	.L152
 1031 0090 A44B     		ldr	r3, .L159+16
 1032 0092 9842     		cmp	r0, r3
 1033 0094 00F0A180 		beq	.L146
 537:Drivers/STM32F1xx_HAL_Driver/Src/stm32f1xx_hal_dma.c ****   {
 1034              		.loc 1 537 9 view .LVU350
 1035 0098 1C3B     		subs	r3, r3, #28
 539:Drivers/STM32F1xx_HAL_Driver/Src/stm32f1xx_hal_dma.c ****     {
 1036              		.loc 1 539 9 view .LVU351
 1037 009a A34E     		ldr	r6, .L159+20
 1038              	.LVL65:
 539:Drivers/STM32F1xx_HAL_Driver/Src/stm32f1xx_hal_dma.c ****     {
 1039              		.loc 1 539 9 view .LVU352
 1040 009c DFF880C2 		ldr	ip, .L159+12
 1041 00a0 DFF878E2 		ldr	lr, .L159+8
 1042 00a4 09E0     		b	.L76
 1043              	.L153:
 539:Drivers/STM32F1xx_HAL_Driver/Src/stm32f1xx_hal_dma.c ****     {
 1044              		.loc 1 539 9 view .LVU353
 1045 00a6 6045     		cmp	r0, ip
 1046 00a8 63D0     		beq	.L112
 1047 00aa 7045     		cmp	r0, lr
 1048 00ac 0CBF     		ite	eq
 1049 00ae 4FF40021 		moveq	r1, #524288
 1050 00b2 4FF00061 		movne	r1, #134217728
 1051              	.L80:
 539:Drivers/STM32F1xx_HAL_Driver/Src/stm32f1xx_hal_dma.c ****     {
 1052              		.loc 1 539 7 view .LVU354
 1053 00b6 1142     		tst	r1, r2
 1054 00b8 4DD1     		bne	.L74
 1055              	.L76:
 539:Drivers/STM32F1xx_HAL_Driver/Src/stm32f1xx_hal_dma.c ****     {
 1056              		.loc 1 539 5 is_stmt 1 view .LVU355
 537:Drivers/STM32F1xx_HAL_Driver/Src/stm32f1xx_hal_dma.c ****   {
 1057              		.loc 1 537 9 is_stmt 0 view .LVU356
 1058 00ba 1A68     		ldr	r2, [r3]
 537:Drivers/STM32F1xx_HAL_Driver/Src/stm32f1xx_hal_dma.c ****   {
 1059              		.loc 1 537 8 view .LVU357
 1060 00bc 1442     		tst	r4, r2
 1061 00be 40F09780 		bne	.L79
 539:Drivers/STM32F1xx_HAL_Driver/Src/stm32f1xx_hal_dma.c ****     {
 1062              		.loc 1 539 9 view .LVU358
 1063 00c2 B042     		cmp	r0, r6
ARM GAS  /var/folders/20/cstyxln53wn53rr40gj353bh0000gn/T//ccP3ZOe1.s 			page 40


 1064 00c4 1A68     		ldr	r2, [r3]
 1065 00c6 EED1     		bne	.L153
 1066 00c8 4FF40061 		mov	r1, #2048
 1067 00cc F3E7     		b	.L80
 1068              	.LVL66:
 1069              	.L150:
 518:Drivers/STM32F1xx_HAL_Driver/Src/stm32f1xx_hal_dma.c ****     return HAL_ERROR;
 1070              		.loc 1 518 5 is_stmt 1 view .LVU359
 518:Drivers/STM32F1xx_HAL_Driver/Src/stm32f1xx_hal_dma.c ****     return HAL_ERROR;
 1071              		.loc 1 518 21 is_stmt 0 view .LVU360
 1072 00ce 4FF48073 		mov	r3, #256
 519:Drivers/STM32F1xx_HAL_Driver/Src/stm32f1xx_hal_dma.c ****   }
 1073              		.loc 1 519 12 view .LVU361
 1074 00d2 0120     		movs	r0, #1
 518:Drivers/STM32F1xx_HAL_Driver/Src/stm32f1xx_hal_dma.c ****     return HAL_ERROR;
 1075              		.loc 1 518 21 view .LVU362
 1076 00d4 AB63     		str	r3, [r5, #56]
 519:Drivers/STM32F1xx_HAL_Driver/Src/stm32f1xx_hal_dma.c ****   }
 1077              		.loc 1 519 5 is_stmt 1 view .LVU363
 595:Drivers/STM32F1xx_HAL_Driver/Src/stm32f1xx_hal_dma.c **** 
 1078              		.loc 1 595 1 is_stmt 0 view .LVU364
 1079 00d6 BDE8F88F 		pop	{r3, r4, r5, r6, r7, r8, r9, r10, fp, pc}
 1080              	.LVL67:
 1081              	.L64:
 531:Drivers/STM32F1xx_HAL_Driver/Src/stm32f1xx_hal_dma.c ****   }
 1082              		.loc 1 531 5 is_stmt 1 view .LVU365
 531:Drivers/STM32F1xx_HAL_Driver/Src/stm32f1xx_hal_dma.c ****   }
 1083              		.loc 1 531 12 is_stmt 0 view .LVU366
 1084 00da 8342     		cmp	r3, r0
 1085 00dc 00F0AF80 		beq	.L105
 531:Drivers/STM32F1xx_HAL_Driver/Src/stm32f1xx_hal_dma.c ****   }
 1086              		.loc 1 531 12 discriminator 1 view .LVU367
 1087 00e0 1430     		adds	r0, r0, #20
 1088 00e2 8342     		cmp	r3, r0
 1089 00e4 00F0AD80 		beq	.L106
 531:Drivers/STM32F1xx_HAL_Driver/Src/stm32f1xx_hal_dma.c ****   }
 1090              		.loc 1 531 12 discriminator 3 view .LVU368
 1091 00e8 1430     		adds	r0, r0, #20
 1092 00ea 8342     		cmp	r3, r0
 1093 00ec 00F0B480 		beq	.L107
 531:Drivers/STM32F1xx_HAL_Driver/Src/stm32f1xx_hal_dma.c ****   }
 1094              		.loc 1 531 12 discriminator 5 view .LVU369
 1095 00f0 1430     		adds	r0, r0, #20
 1096 00f2 8342     		cmp	r3, r0
 1097 00f4 00F09D80 		beq	.L108
 531:Drivers/STM32F1xx_HAL_Driver/Src/stm32f1xx_hal_dma.c ****   }
 1098              		.loc 1 531 12 discriminator 7 view .LVU370
 1099 00f8 1430     		adds	r0, r0, #20
 1100 00fa 8342     		cmp	r3, r0
 1101 00fc 00F0E980 		beq	.L109
 531:Drivers/STM32F1xx_HAL_Driver/Src/stm32f1xx_hal_dma.c ****   }
 1102              		.loc 1 531 12 discriminator 9 view .LVU371
 1103 0100 854C     		ldr	r4, .L159+4
 1104 0102 A342     		cmp	r3, r4
 1105 0104 0CBF     		ite	eq
 1106 0106 4FF48004 		moveq	r4, #4194304
 1107 010a 4FF08064 		movne	r4, #67108864
ARM GAS  /var/folders/20/cstyxln53wn53rr40gj353bh0000gn/T//ccP3ZOe1.s 			page 41


 1108 010e A6E7     		b	.L65
 1109              	.LVL68:
 1110              	.L70:
 531:Drivers/STM32F1xx_HAL_Driver/Src/stm32f1xx_hal_dma.c ****   }
 1111              		.loc 1 531 12 discriminator 9 view .LVU372
 1112 0110 9842     		cmp	r0, r3
 1113 0112 00F0C380 		beq	.L82
 537:Drivers/STM32F1xx_HAL_Driver/Src/stm32f1xx_hal_dma.c ****   {
 1114              		.loc 1 537 9 view .LVU373
 1115 0116 DFF814C2 		ldr	ip, .L159+24
 1116 011a 9042     		cmp	r0, r2
 1117 011c DCF800E0 		ldr	lr, [ip]
 1118 0120 00F0C780 		beq	.L154
 1119 0124 8842     		cmp	r0, r1
 1120 0126 00F09D80 		beq	.L155
 537:Drivers/STM32F1xx_HAL_Driver/Src/stm32f1xx_hal_dma.c ****   {
 1121              		.loc 1 537 8 view .LVU374
 1122 012a 14EA0E0F 		tst	r4, lr
 1123 012e 40F08C80 		bne	.L87
 539:Drivers/STM32F1xx_HAL_Driver/Src/stm32f1xx_hal_dma.c ****     {
 1124              		.loc 1 539 5 is_stmt 1 view .LVU375
 539:Drivers/STM32F1xx_HAL_Driver/Src/stm32f1xx_hal_dma.c ****     {
 1125              		.loc 1 539 9 is_stmt 0 view .LVU376
 1126 0132 4845     		cmp	r0, r9
 1127 0134 DCF800C0 		ldr	ip, [ip]
 1128 0138 00F0C380 		beq	.L114
 1129 013c 5045     		cmp	r0, r10
 1130 013e 00F0D280 		beq	.L115
 1131 0142 5845     		cmp	r0, fp
 1132 0144 14BF     		ite	ne
 1133 0146 4FF00060 		movne	r0, #134217728
 1134 014a 4FF40060 		moveq	r0, #2048
 1135              	.L88:
 539:Drivers/STM32F1xx_HAL_Driver/Src/stm32f1xx_hal_dma.c ****     {
 1136              		.loc 1 539 7 view .LVU377
 1137 014e 1CEA000F 		tst	ip, r0
 1138 0152 00F08F80 		beq	.L67
 1139              	.LVL69:
 1140              	.L74:
 544:Drivers/STM32F1xx_HAL_Driver/Src/stm32f1xx_hal_dma.c **** 
 1141              		.loc 1 544 7 is_stmt 1 view .LVU378
 544:Drivers/STM32F1xx_HAL_Driver/Src/stm32f1xx_hal_dma.c **** 
 1142              		.loc 1 544 50 is_stmt 0 view .LVU379
 1143 0156 0120     		movs	r0, #1
 544:Drivers/STM32F1xx_HAL_Driver/Src/stm32f1xx_hal_dma.c **** 
 1144              		.loc 1 544 11 view .LVU380
 1145 0158 D5E90F13 		ldrd	r1, r3, [r5, #60]
 553:Drivers/STM32F1xx_HAL_Driver/Src/stm32f1xx_hal_dma.c **** 
 1146              		.loc 1 553 7 view .LVU381
 1147 015c 4FF48072 		mov	r2, #256
 544:Drivers/STM32F1xx_HAL_Driver/Src/stm32f1xx_hal_dma.c **** 
 1148              		.loc 1 544 50 view .LVU382
 1149 0160 00FA03F3 		lsl	r3, r0, r3
 544:Drivers/STM32F1xx_HAL_Driver/Src/stm32f1xx_hal_dma.c **** 
 1150              		.loc 1 544 34 view .LVU383
 1151 0164 4B60     		str	r3, [r1, #4]
 547:Drivers/STM32F1xx_HAL_Driver/Src/stm32f1xx_hal_dma.c **** 
ARM GAS  /var/folders/20/cstyxln53wn53rr40gj353bh0000gn/T//ccP3ZOe1.s 			page 42


 1152              		.loc 1 547 7 is_stmt 1 view .LVU384
 1153 0166 AB6B     		ldr	r3, [r5, #56]
 553:Drivers/STM32F1xx_HAL_Driver/Src/stm32f1xx_hal_dma.c **** 
 1154              		.loc 1 553 7 is_stmt 0 view .LVU385
 1155 0168 2A84     		strh	r2, [r5, #32]	@ movhi
 547:Drivers/STM32F1xx_HAL_Driver/Src/stm32f1xx_hal_dma.c **** 
 1156              		.loc 1 547 7 view .LVU386
 1157 016a 0343     		orrs	r3, r3, r0
 1158 016c AB63     		str	r3, [r5, #56]
 550:Drivers/STM32F1xx_HAL_Driver/Src/stm32f1xx_hal_dma.c **** 
 1159              		.loc 1 550 7 is_stmt 1 view .LVU387
 553:Drivers/STM32F1xx_HAL_Driver/Src/stm32f1xx_hal_dma.c **** 
 1160              		.loc 1 553 7 view .LVU388
 553:Drivers/STM32F1xx_HAL_Driver/Src/stm32f1xx_hal_dma.c **** 
 1161              		.loc 1 553 7 view .LVU389
 555:Drivers/STM32F1xx_HAL_Driver/Src/stm32f1xx_hal_dma.c ****     }
 1162              		.loc 1 555 7 view .LVU390
 595:Drivers/STM32F1xx_HAL_Driver/Src/stm32f1xx_hal_dma.c **** 
 1163              		.loc 1 595 1 is_stmt 0 view .LVU391
 1164 016e BDE8F88F 		pop	{r3, r4, r5, r6, r7, r8, r9, r10, fp, pc}
 1165              	.LVL70:
 1166              	.L112:
 539:Drivers/STM32F1xx_HAL_Driver/Src/stm32f1xx_hal_dma.c ****     {
 1167              		.loc 1 539 9 view .LVU392
 1168 0172 4FF40041 		mov	r1, #32768
 1169 0176 9EE7     		b	.L80
 1170              	.LVL71:
 1171              	.L151:
 537:Drivers/STM32F1xx_HAL_Driver/Src/stm32f1xx_hal_dma.c ****   {
 1172              		.loc 1 537 9 view .LVU393
 1173 0178 6C3B     		subs	r3, r3, #108
 1174 017a 02E0     		b	.L71
 1175              	.L156:
 539:Drivers/STM32F1xx_HAL_Driver/Src/stm32f1xx_hal_dma.c ****     {
 1176              		.loc 1 539 9 view .LVU394
 1177 017c 1A68     		ldr	r2, [r3]
 539:Drivers/STM32F1xx_HAL_Driver/Src/stm32f1xx_hal_dma.c ****     {
 1178              		.loc 1 539 7 view .LVU395
 1179 017e 1102     		lsls	r1, r2, #8
 1180 0180 E9D4     		bmi	.L74
 1181              	.L71:
 539:Drivers/STM32F1xx_HAL_Driver/Src/stm32f1xx_hal_dma.c ****     {
 1182              		.loc 1 539 5 is_stmt 1 view .LVU396
 537:Drivers/STM32F1xx_HAL_Driver/Src/stm32f1xx_hal_dma.c ****   {
 1183              		.loc 1 537 9 is_stmt 0 view .LVU397
 1184 0182 1A68     		ldr	r2, [r3]
 537:Drivers/STM32F1xx_HAL_Driver/Src/stm32f1xx_hal_dma.c ****   {
 1185              		.loc 1 537 8 view .LVU398
 1186 0184 1442     		tst	r4, r2
 1187 0186 F9D0     		beq	.L156
 1188              	.L81:
 576:Drivers/STM32F1xx_HAL_Driver/Src/stm32f1xx_hal_dma.c ****   {
 1189              		.loc 1 576 3 is_stmt 1 view .LVU399
 576:Drivers/STM32F1xx_HAL_Driver/Src/stm32f1xx_hal_dma.c ****   {
 1190              		.loc 1 576 5 is_stmt 0 view .LVU400
 1191 0188 002F     		cmp	r7, #0
 1192 018a 00F0C080 		beq	.L131
ARM GAS  /var/folders/20/cstyxln53wn53rr40gj353bh0000gn/T//ccP3ZOe1.s 			page 43


 1193 018e 6248     		ldr	r0, .L159+4
 1194              	.L97:
 588:Drivers/STM32F1xx_HAL_Driver/Src/stm32f1xx_hal_dma.c ****   }
 1195              		.loc 1 588 5 discriminator 1 view .LVU401
 1196 0190 644B     		ldr	r3, .L159+16
 1197 0192 9842     		cmp	r0, r3
 1198 0194 2AD0     		beq	.L148
 1199              	.LVL72:
 1200              	.L96:
 588:Drivers/STM32F1xx_HAL_Driver/Src/stm32f1xx_hal_dma.c ****   }
 1201              		.loc 1 588 5 discriminator 3 view .LVU402
 1202 0196 644B     		ldr	r3, .L159+20
 1203 0198 9842     		cmp	r0, r3
 1204 019a 00F09D80 		beq	.L125
 588:Drivers/STM32F1xx_HAL_Driver/Src/stm32f1xx_hal_dma.c ****   }
 1205              		.loc 1 588 5 discriminator 5 view .LVU403
 1206 019e 1433     		adds	r3, r3, #20
 1207 01a0 9842     		cmp	r0, r3
 1208 01a2 00F0A280 		beq	.L126
 588:Drivers/STM32F1xx_HAL_Driver/Src/stm32f1xx_hal_dma.c ****   }
 1209              		.loc 1 588 5 discriminator 7 view .LVU404
 1210 01a6 1433     		adds	r3, r3, #20
 1211 01a8 9842     		cmp	r0, r3
 1212 01aa 00F0A780 		beq	.L127
 588:Drivers/STM32F1xx_HAL_Driver/Src/stm32f1xx_hal_dma.c ****   }
 1213              		.loc 1 588 5 discriminator 9 view .LVU405
 1214 01ae 1433     		adds	r3, r3, #20
 1215 01b0 9842     		cmp	r0, r3
 1216 01b2 0CBF     		ite	eq
 1217 01b4 4FF48000 		moveq	r0, #4194304
 1218 01b8 4FF08060 		movne	r0, #67108864
 1219 01bc 0AE0     		b	.L93
 1220              	.LVL73:
 1221              	.L152:
 537:Drivers/STM32F1xx_HAL_Driver/Src/stm32f1xx_hal_dma.c ****   {
 1222              		.loc 1 537 9 view .LVU406
 1223 01be 083B     		subs	r3, r3, #8
 1224 01c0 02E0     		b	.L75
 1225              	.L157:
 539:Drivers/STM32F1xx_HAL_Driver/Src/stm32f1xx_hal_dma.c ****     {
 1226              		.loc 1 539 9 view .LVU407
 1227 01c2 1A68     		ldr	r2, [r3]
 539:Drivers/STM32F1xx_HAL_Driver/Src/stm32f1xx_hal_dma.c ****     {
 1228              		.loc 1 539 7 view .LVU408
 1229 01c4 1207     		lsls	r2, r2, #28
 1230 01c6 C6D4     		bmi	.L74
 1231              	.L75:
 539:Drivers/STM32F1xx_HAL_Driver/Src/stm32f1xx_hal_dma.c ****     {
 1232              		.loc 1 539 5 is_stmt 1 view .LVU409
 537:Drivers/STM32F1xx_HAL_Driver/Src/stm32f1xx_hal_dma.c ****   {
 1233              		.loc 1 537 9 is_stmt 0 view .LVU410
 1234 01c8 1A68     		ldr	r2, [r3]
 537:Drivers/STM32F1xx_HAL_Driver/Src/stm32f1xx_hal_dma.c ****   {
 1235              		.loc 1 537 8 view .LVU411
 1236 01ca 1442     		tst	r4, r2
 1237 01cc F9D0     		beq	.L157
 576:Drivers/STM32F1xx_HAL_Driver/Src/stm32f1xx_hal_dma.c ****   {
ARM GAS  /var/folders/20/cstyxln53wn53rr40gj353bh0000gn/T//ccP3ZOe1.s 			page 44


 1238              		.loc 1 576 3 is_stmt 1 view .LVU412
 576:Drivers/STM32F1xx_HAL_Driver/Src/stm32f1xx_hal_dma.c ****   {
 1239              		.loc 1 576 5 is_stmt 0 view .LVU413
 1240 01ce 002F     		cmp	r7, #0
 1241 01d0 40D0     		beq	.L130
 1242              	.L149:
 588:Drivers/STM32F1xx_HAL_Driver/Src/stm32f1xx_hal_dma.c ****   }
 1243              		.loc 1 588 5 view .LVU414
 1244 01d2 0420     		movs	r0, #4
 1245              	.LVL74:
 1246              	.L93:
 588:Drivers/STM32F1xx_HAL_Driver/Src/stm32f1xx_hal_dma.c ****   }
 1247              		.loc 1 588 5 discriminator 24 view .LVU415
 1248 01d4 554B     		ldr	r3, .L159+24
 1249 01d6 5860     		str	r0, [r3, #4]
 1250 01d8 24E0     		b	.L92
 1251              	.LVL75:
 1252              	.L146:
 537:Drivers/STM32F1xx_HAL_Driver/Src/stm32f1xx_hal_dma.c ****   {
 1253              		.loc 1 537 9 view .LVU416
 1254 01da 544B     		ldr	r3, .L159+24
 1255 01dc 02E0     		b	.L78
 1256              	.LVL76:
 1257              	.L158:
 539:Drivers/STM32F1xx_HAL_Driver/Src/stm32f1xx_hal_dma.c ****     {
 1258              		.loc 1 539 9 view .LVU417
 1259 01de 1A68     		ldr	r2, [r3]
 539:Drivers/STM32F1xx_HAL_Driver/Src/stm32f1xx_hal_dma.c ****     {
 1260              		.loc 1 539 7 view .LVU418
 1261 01e0 1606     		lsls	r6, r2, #24
 1262 01e2 B8D4     		bmi	.L74
 1263              	.L78:
 539:Drivers/STM32F1xx_HAL_Driver/Src/stm32f1xx_hal_dma.c ****     {
 1264              		.loc 1 539 5 is_stmt 1 view .LVU419
 537:Drivers/STM32F1xx_HAL_Driver/Src/stm32f1xx_hal_dma.c ****   {
 1265              		.loc 1 537 9 is_stmt 0 view .LVU420
 1266 01e4 1A68     		ldr	r2, [r3]
 537:Drivers/STM32F1xx_HAL_Driver/Src/stm32f1xx_hal_dma.c ****   {
 1267              		.loc 1 537 8 view .LVU421
 1268 01e6 1442     		tst	r4, r2
 1269 01e8 F9D0     		beq	.L158
 576:Drivers/STM32F1xx_HAL_Driver/Src/stm32f1xx_hal_dma.c ****   {
 1270              		.loc 1 576 3 is_stmt 1 view .LVU422
 576:Drivers/STM32F1xx_HAL_Driver/Src/stm32f1xx_hal_dma.c ****   {
 1271              		.loc 1 576 5 is_stmt 0 view .LVU423
 1272 01ea 1FB1     		cbz	r7, .L98
 1273              	.L148:
 588:Drivers/STM32F1xx_HAL_Driver/Src/stm32f1xx_hal_dma.c ****   }
 1274              		.loc 1 588 5 view .LVU424
 1275 01ec 4020     		movs	r0, #64
 1276 01ee F1E7     		b	.L93
 1277              	.L79:
 576:Drivers/STM32F1xx_HAL_Driver/Src/stm32f1xx_hal_dma.c ****   {
 1278              		.loc 1 576 3 is_stmt 1 view .LVU425
 576:Drivers/STM32F1xx_HAL_Driver/Src/stm32f1xx_hal_dma.c ****   {
 1279              		.loc 1 576 5 is_stmt 0 view .LVU426
 1280 01f0 002F     		cmp	r7, #0
ARM GAS  /var/folders/20/cstyxln53wn53rr40gj353bh0000gn/T//ccP3ZOe1.s 			page 45


 1281 01f2 D0D1     		bne	.L96
 1282              	.L98:
 579:Drivers/STM32F1xx_HAL_Driver/Src/stm32f1xx_hal_dma.c **** 
 1283              		.loc 1 579 5 discriminator 1 view .LVU427
 1284 01f4 4B4B     		ldr	r3, .L159+16
 1285 01f6 9842     		cmp	r0, r3
 1286 01f8 19D0     		beq	.L118
 579:Drivers/STM32F1xx_HAL_Driver/Src/stm32f1xx_hal_dma.c **** 
 1287              		.loc 1 579 5 discriminator 3 view .LVU428
 1288 01fa 1433     		adds	r3, r3, #20
 1289 01fc 9842     		cmp	r0, r3
 1290 01fe 65D0     		beq	.L119
 579:Drivers/STM32F1xx_HAL_Driver/Src/stm32f1xx_hal_dma.c **** 
 1291              		.loc 1 579 5 discriminator 5 view .LVU429
 1292 0200 1433     		adds	r3, r3, #20
 1293 0202 9842     		cmp	r0, r3
 1294 0204 77D0     		beq	.L129
 579:Drivers/STM32F1xx_HAL_Driver/Src/stm32f1xx_hal_dma.c **** 
 1295              		.loc 1 579 5 discriminator 7 view .LVU430
 1296 0206 1433     		adds	r3, r3, #20
 1297 0208 9842     		cmp	r0, r3
 1298 020a 7DD0     		beq	.L132
 579:Drivers/STM32F1xx_HAL_Driver/Src/stm32f1xx_hal_dma.c **** 
 1299              		.loc 1 579 5 discriminator 9 view .LVU431
 1300 020c 1433     		adds	r3, r3, #20
 1301 020e 9842     		cmp	r0, r3
 1302 0210 0CBF     		ite	eq
 1303 0212 4FF40010 		moveq	r0, #2097152
 1304 0216 4FF00070 		movne	r0, #33554432
 1305              	.L91:
 583:Drivers/STM32F1xx_HAL_Driver/Src/stm32f1xx_hal_dma.c ****   }
 1306              		.loc 1 583 17 discriminator 24 view .LVU432
 1307 021a 0123     		movs	r3, #1
 579:Drivers/STM32F1xx_HAL_Driver/Src/stm32f1xx_hal_dma.c **** 
 1308              		.loc 1 579 5 discriminator 24 view .LVU433
 1309 021c 434A     		ldr	r2, .L159+24
 1310 021e 5060     		str	r0, [r2, #4]
 583:Drivers/STM32F1xx_HAL_Driver/Src/stm32f1xx_hal_dma.c ****   }
 1311              		.loc 1 583 5 is_stmt 1 discriminator 24 view .LVU434
 583:Drivers/STM32F1xx_HAL_Driver/Src/stm32f1xx_hal_dma.c ****   }
 1312              		.loc 1 583 17 is_stmt 0 discriminator 24 view .LVU435
 1313 0220 85F82130 		strb	r3, [r5, #33]
 1314              	.L92:
 592:Drivers/STM32F1xx_HAL_Driver/Src/stm32f1xx_hal_dma.c **** 
 1315              		.loc 1 592 3 is_stmt 1 view .LVU436
 592:Drivers/STM32F1xx_HAL_Driver/Src/stm32f1xx_hal_dma.c **** 
 1316              		.loc 1 592 3 view .LVU437
 1317 0224 0020     		movs	r0, #0
 1318 0226 85F82000 		strb	r0, [r5, #32]
 594:Drivers/STM32F1xx_HAL_Driver/Src/stm32f1xx_hal_dma.c **** }
 1319              		.loc 1 594 3 view .LVU438
 595:Drivers/STM32F1xx_HAL_Driver/Src/stm32f1xx_hal_dma.c **** 
 1320              		.loc 1 595 1 is_stmt 0 view .LVU439
 1321 022a BDE8F88F 		pop	{r3, r4, r5, r6, r7, r8, r9, r10, fp, pc}
 1322              	.LVL77:
 1323              	.L118:
 579:Drivers/STM32F1xx_HAL_Driver/Src/stm32f1xx_hal_dma.c **** 
ARM GAS  /var/folders/20/cstyxln53wn53rr40gj353bh0000gn/T//ccP3ZOe1.s 			page 46


 1324              		.loc 1 579 5 view .LVU440
 1325 022e 2020     		movs	r0, #32
 1326 0230 F3E7     		b	.L91
 1327              	.LVL78:
 1328              	.L108:
 531:Drivers/STM32F1xx_HAL_Driver/Src/stm32f1xx_hal_dma.c ****   }
 1329              		.loc 1 531 12 view .LVU441
 1330 0232 4FF48044 		mov	r4, #16384
 1331 0236 12E7     		b	.L65
 1332              	.L102:
 526:Drivers/STM32F1xx_HAL_Driver/Src/stm32f1xx_hal_dma.c ****   }
 1333              		.loc 1 526 12 view .LVU442
 1334 0238 4FF40054 		mov	r4, #8192
 1335 023c 0FE7     		b	.L65
 1336              	.L105:
 531:Drivers/STM32F1xx_HAL_Driver/Src/stm32f1xx_hal_dma.c ****   }
 1337              		.loc 1 531 12 view .LVU443
 1338 023e 0424     		movs	r4, #4
 1339 0240 0DE7     		b	.L65
 1340              	.L106:
 1341 0242 4024     		movs	r4, #64
 1342 0244 0BE7     		b	.L65
 1343              	.L100:
 526:Drivers/STM32F1xx_HAL_Driver/Src/stm32f1xx_hal_dma.c ****   }
 1344              		.loc 1 526 12 view .LVU444
 1345 0246 2024     		movs	r4, #32
 1346 0248 09E7     		b	.L65
 1347              	.LVL79:
 1348              	.L87:
 576:Drivers/STM32F1xx_HAL_Driver/Src/stm32f1xx_hal_dma.c ****   {
 1349              		.loc 1 576 3 is_stmt 1 view .LVU445
 579:Drivers/STM32F1xx_HAL_Driver/Src/stm32f1xx_hal_dma.c **** 
 1350              		.loc 1 579 5 is_stmt 0 view .LVU446
 1351 024a 324B     		ldr	r3, .L159
 576:Drivers/STM32F1xx_HAL_Driver/Src/stm32f1xx_hal_dma.c ****   {
 1352              		.loc 1 576 5 view .LVU447
 1353 024c 002F     		cmp	r7, #0
 1354 024e 46D1     		bne	.L90
 579:Drivers/STM32F1xx_HAL_Driver/Src/stm32f1xx_hal_dma.c **** 
 1355              		.loc 1 579 5 is_stmt 1 view .LVU448
 1356 0250 9842     		cmp	r0, r3
 1357 0252 CFD1     		bne	.L98
 1358              	.L130:
 579:Drivers/STM32F1xx_HAL_Driver/Src/stm32f1xx_hal_dma.c **** 
 1359              		.loc 1 579 5 is_stmt 0 view .LVU449
 1360 0254 0220     		movs	r0, #2
 1361 0256 E0E7     		b	.L91
 1362              	.LVL80:
 1363              	.L107:
 531:Drivers/STM32F1xx_HAL_Driver/Src/stm32f1xx_hal_dma.c ****   }
 1364              		.loc 1 531 12 view .LVU450
 1365 0258 4FF48064 		mov	r4, #1024
 1366 025c FFE6     		b	.L65
 1367              	.L101:
 526:Drivers/STM32F1xx_HAL_Driver/Src/stm32f1xx_hal_dma.c ****   }
 1368              		.loc 1 526 12 view .LVU451
 1369 025e 4FF40074 		mov	r4, #512
ARM GAS  /var/folders/20/cstyxln53wn53rr40gj353bh0000gn/T//ccP3ZOe1.s 			page 47


 1370 0262 FCE6     		b	.L65
 1371              	.LVL81:
 1372              	.L155:
 537:Drivers/STM32F1xx_HAL_Driver/Src/stm32f1xx_hal_dma.c ****   {
 1373              		.loc 1 537 8 view .LVU452
 1374 0264 14EA0E0F 		tst	r4, lr
 1375 0268 42D1     		bne	.L86
 539:Drivers/STM32F1xx_HAL_Driver/Src/stm32f1xx_hal_dma.c ****     {
 1376              		.loc 1 539 5 is_stmt 1 view .LVU453
 539:Drivers/STM32F1xx_HAL_Driver/Src/stm32f1xx_hal_dma.c ****     {
 1377              		.loc 1 539 9 is_stmt 0 view .LVU454
 1378 026a DCF80000 		ldr	r0, [ip]
 539:Drivers/STM32F1xx_HAL_Driver/Src/stm32f1xx_hal_dma.c ****     {
 1379              		.loc 1 539 7 view .LVU455
 1380 026e 0304     		lsls	r3, r0, #16
 1381 0270 3FF571AF 		bmi	.L74
 1382              	.L67:
 560:Drivers/STM32F1xx_HAL_Driver/Src/stm32f1xx_hal_dma.c ****       {
 1383              		.loc 1 560 7 is_stmt 1 view .LVU456
 560:Drivers/STM32F1xx_HAL_Driver/Src/stm32f1xx_hal_dma.c ****       {
 1384              		.loc 1 560 9 is_stmt 0 view .LVU457
 1385 0274 4EB1     		cbz	r6, .L69
 560:Drivers/STM32F1xx_HAL_Driver/Src/stm32f1xx_hal_dma.c ****       {
 1386              		.loc 1 560 31 discriminator 1 view .LVU458
 1387 0276 FFF7FEFF 		bl	HAL_GetTick
 1388              	.LVL82:
 560:Drivers/STM32F1xx_HAL_Driver/Src/stm32f1xx_hal_dma.c ****       {
 1389              		.loc 1 560 45 discriminator 1 view .LVU459
 1390 027a A0EB0800 		sub	r0, r0, r8
 560:Drivers/STM32F1xx_HAL_Driver/Src/stm32f1xx_hal_dma.c ****       {
 1391              		.loc 1 560 26 discriminator 1 view .LVU460
 1392 027e B042     		cmp	r0, r6
 1393 0280 254B     		ldr	r3, .L159+4
 1394 0282 264A     		ldr	r2, .L159+8
 1395 0284 2649     		ldr	r1, .L159+12
 1396 0286 7FF6F8AE 		bls	.L66
 1397              	.L69:
 563:Drivers/STM32F1xx_HAL_Driver/Src/stm32f1xx_hal_dma.c **** 
 1398              		.loc 1 563 9 is_stmt 1 view .LVU461
 569:Drivers/STM32F1xx_HAL_Driver/Src/stm32f1xx_hal_dma.c **** 
 1399              		.loc 1 569 9 is_stmt 0 view .LVU462
 1400 028a 4FF48072 		mov	r2, #256
 563:Drivers/STM32F1xx_HAL_Driver/Src/stm32f1xx_hal_dma.c **** 
 1401              		.loc 1 563 9 view .LVU463
 1402 028e AB6B     		ldr	r3, [r5, #56]
 569:Drivers/STM32F1xx_HAL_Driver/Src/stm32f1xx_hal_dma.c **** 
 1403              		.loc 1 569 9 view .LVU464
 1404 0290 2A84     		strh	r2, [r5, #32]	@ movhi
 563:Drivers/STM32F1xx_HAL_Driver/Src/stm32f1xx_hal_dma.c **** 
 1405              		.loc 1 563 9 view .LVU465
 1406 0292 43F02003 		orr	r3, r3, #32
 1407 0296 AB63     		str	r3, [r5, #56]
 566:Drivers/STM32F1xx_HAL_Driver/Src/stm32f1xx_hal_dma.c **** 
 1408              		.loc 1 566 9 is_stmt 1 view .LVU466
 569:Drivers/STM32F1xx_HAL_Driver/Src/stm32f1xx_hal_dma.c **** 
 1409              		.loc 1 569 9 view .LVU467
 569:Drivers/STM32F1xx_HAL_Driver/Src/stm32f1xx_hal_dma.c **** 
ARM GAS  /var/folders/20/cstyxln53wn53rr40gj353bh0000gn/T//ccP3ZOe1.s 			page 48


 1410              		.loc 1 569 9 view .LVU468
 571:Drivers/STM32F1xx_HAL_Driver/Src/stm32f1xx_hal_dma.c ****       }
 1411              		.loc 1 571 9 view .LVU469
 571:Drivers/STM32F1xx_HAL_Driver/Src/stm32f1xx_hal_dma.c ****       }
 1412              		.loc 1 571 16 is_stmt 0 view .LVU470
 1413 0298 0120     		movs	r0, #1
 1414 029a BEE6     		b	.L144
 1415              	.L82:
 537:Drivers/STM32F1xx_HAL_Driver/Src/stm32f1xx_hal_dma.c ****   {
 1416              		.loc 1 537 9 view .LVU471
 1417 029c 2348     		ldr	r0, .L159+24
 1418 029e D0F800C0 		ldr	ip, [r0]
 537:Drivers/STM32F1xx_HAL_Driver/Src/stm32f1xx_hal_dma.c ****   {
 1419              		.loc 1 537 8 view .LVU472
 1420 02a2 1CEA040F 		tst	ip, r4
 1421 02a6 7FF46FAF 		bne	.L81
 539:Drivers/STM32F1xx_HAL_Driver/Src/stm32f1xx_hal_dma.c ****     {
 1422              		.loc 1 539 5 is_stmt 1 view .LVU473
 539:Drivers/STM32F1xx_HAL_Driver/Src/stm32f1xx_hal_dma.c ****     {
 1423              		.loc 1 539 9 is_stmt 0 view .LVU474
 1424 02aa 0068     		ldr	r0, [r0]
 539:Drivers/STM32F1xx_HAL_Driver/Src/stm32f1xx_hal_dma.c ****     {
 1425              		.loc 1 539 7 view .LVU475
 1426 02ac 0302     		lsls	r3, r0, #8
 1427 02ae E1D5     		bpl	.L67
 1428 02b0 51E7     		b	.L74
 1429              	.L154:
 537:Drivers/STM32F1xx_HAL_Driver/Src/stm32f1xx_hal_dma.c ****   {
 1430              		.loc 1 537 8 view .LVU476
 1431 02b2 14EA0E0F 		tst	r4, lr
 1432 02b6 24D1     		bne	.L84
 539:Drivers/STM32F1xx_HAL_Driver/Src/stm32f1xx_hal_dma.c ****     {
 1433              		.loc 1 539 5 is_stmt 1 view .LVU477
 539:Drivers/STM32F1xx_HAL_Driver/Src/stm32f1xx_hal_dma.c ****     {
 1434              		.loc 1 539 9 is_stmt 0 view .LVU478
 1435 02b8 DCF80000 		ldr	r0, [ip]
 539:Drivers/STM32F1xx_HAL_Driver/Src/stm32f1xx_hal_dma.c ****     {
 1436              		.loc 1 539 7 view .LVU479
 1437 02bc 0203     		lsls	r2, r0, #12
 1438 02be D9D5     		bpl	.L67
 1439 02c0 49E7     		b	.L74
 1440              	.L114:
 539:Drivers/STM32F1xx_HAL_Driver/Src/stm32f1xx_hal_dma.c ****     {
 1441              		.loc 1 539 9 view .LVU480
 1442 02c2 0820     		movs	r0, #8
 1443 02c4 43E7     		b	.L88
 1444              	.LVL83:
 1445              	.L103:
 526:Drivers/STM32F1xx_HAL_Driver/Src/stm32f1xx_hal_dma.c ****   }
 1446              		.loc 1 526 12 view .LVU481
 1447 02c6 4FF40034 		mov	r4, #131072
 1448 02ca C8E6     		b	.L65
 1449              	.LVL84:
 1450              	.L119:
 579:Drivers/STM32F1xx_HAL_Driver/Src/stm32f1xx_hal_dma.c **** 
 1451              		.loc 1 579 5 view .LVU482
 1452 02cc 4FF40070 		mov	r0, #512
ARM GAS  /var/folders/20/cstyxln53wn53rr40gj353bh0000gn/T//ccP3ZOe1.s 			page 49


 1453 02d0 A3E7     		b	.L91
 1454              	.LVL85:
 1455              	.L109:
 531:Drivers/STM32F1xx_HAL_Driver/Src/stm32f1xx_hal_dma.c ****   }
 1456              		.loc 1 531 12 view .LVU483
 1457 02d2 4FF48024 		mov	r4, #262144
 1458 02d6 C2E6     		b	.L65
 1459              	.LVL86:
 1460              	.L125:
 588:Drivers/STM32F1xx_HAL_Driver/Src/stm32f1xx_hal_dma.c ****   }
 1461              		.loc 1 588 5 view .LVU484
 1462 02d8 4FF48060 		mov	r0, #1024
 1463 02dc 7AE7     		b	.L93
 1464              	.LVL87:
 1465              	.L90:
 588:Drivers/STM32F1xx_HAL_Driver/Src/stm32f1xx_hal_dma.c ****   }
 1466              		.loc 1 588 5 is_stmt 1 view .LVU485
 1467 02de 9842     		cmp	r0, r3
 1468 02e0 3FF477AF 		beq	.L149
 1469 02e4 54E7     		b	.L97
 1470              	.L115:
 539:Drivers/STM32F1xx_HAL_Driver/Src/stm32f1xx_hal_dma.c ****     {
 1471              		.loc 1 539 9 is_stmt 0 view .LVU486
 1472 02e6 8020     		movs	r0, #128
 1473 02e8 31E7     		b	.L88
 1474              	.LVL88:
 1475              	.L126:
 588:Drivers/STM32F1xx_HAL_Driver/Src/stm32f1xx_hal_dma.c ****   }
 1476              		.loc 1 588 5 view .LVU487
 1477 02ea 4FF48040 		mov	r0, #16384
 1478 02ee 71E7     		b	.L93
 1479              	.LVL89:
 1480              	.L86:
 576:Drivers/STM32F1xx_HAL_Driver/Src/stm32f1xx_hal_dma.c ****   {
 1481              		.loc 1 576 3 is_stmt 1 view .LVU488
 576:Drivers/STM32F1xx_HAL_Driver/Src/stm32f1xx_hal_dma.c ****   {
 1482              		.loc 1 576 5 is_stmt 0 view .LVU489
 1483 02f0 002F     		cmp	r7, #0
 1484 02f2 7FF44DAF 		bne	.L97
 1485              	.LVL90:
 1486              	.L129:
 579:Drivers/STM32F1xx_HAL_Driver/Src/stm32f1xx_hal_dma.c **** 
 1487              		.loc 1 579 5 view .LVU490
 1488 02f6 4FF40050 		mov	r0, #8192
 1489 02fa 8EE7     		b	.L91
 1490              	.L127:
 588:Drivers/STM32F1xx_HAL_Driver/Src/stm32f1xx_hal_dma.c ****   }
 1491              		.loc 1 588 5 view .LVU491
 1492 02fc 4FF48020 		mov	r0, #262144
 1493 0300 68E7     		b	.L93
 1494              	.LVL91:
 1495              	.L84:
 576:Drivers/STM32F1xx_HAL_Driver/Src/stm32f1xx_hal_dma.c ****   {
 1496              		.loc 1 576 3 is_stmt 1 view .LVU492
 576:Drivers/STM32F1xx_HAL_Driver/Src/stm32f1xx_hal_dma.c ****   {
 1497              		.loc 1 576 5 is_stmt 0 view .LVU493
 1498 0302 002F     		cmp	r7, #0
ARM GAS  /var/folders/20/cstyxln53wn53rr40gj353bh0000gn/T//ccP3ZOe1.s 			page 50


 1499 0304 7FF444AF 		bne	.L97
 1500              	.LVL92:
 1501              	.L132:
 579:Drivers/STM32F1xx_HAL_Driver/Src/stm32f1xx_hal_dma.c **** 
 1502              		.loc 1 579 5 view .LVU494
 1503 0308 4FF40030 		mov	r0, #131072
 1504 030c 85E7     		b	.L91
 1505              	.LVL93:
 1506              	.L131:
 579:Drivers/STM32F1xx_HAL_Driver/Src/stm32f1xx_hal_dma.c **** 
 1507              		.loc 1 579 5 view .LVU495
 1508 030e 4FF40010 		mov	r0, #2097152
 1509 0312 82E7     		b	.L91
 1510              	.L160:
 1511              		.align	2
 1512              	.L159:
 1513 0314 08000240 		.word	1073872904
 1514 0318 6C000240 		.word	1073873004
 1515 031c 58000240 		.word	1073872984
 1516 0320 44000240 		.word	1073872964
 1517 0324 1C000240 		.word	1073872924
 1518 0328 30000240 		.word	1073872944
 1519 032c 00000240 		.word	1073872896
 1520              		.cfi_endproc
 1521              	.LFE71:
 1523              		.section	.text.HAL_DMA_IRQHandler,"ax",%progbits
 1524              		.align	1
 1525              		.p2align 2,,3
 1526              		.global	HAL_DMA_IRQHandler
 1527              		.syntax unified
 1528              		.thumb
 1529              		.thumb_func
 1530              		.fpu softvfp
 1532              	HAL_DMA_IRQHandler:
 1533              	.LVL94:
 1534              	.LFB72:
 604:Drivers/STM32F1xx_HAL_Driver/Src/stm32f1xx_hal_dma.c ****   uint32_t flag_it = hdma->DmaBaseAddress->ISR;
 1535              		.loc 1 604 1 is_stmt 1 view -0
 1536              		.cfi_startproc
 1537              		@ args = 0, pretend = 0, frame = 0
 1538              		@ frame_needed = 0, uses_anonymous_args = 0
 1539              		@ link register save eliminated.
 605:Drivers/STM32F1xx_HAL_Driver/Src/stm32f1xx_hal_dma.c ****   uint32_t source_it = hdma->Instance->CCR;
 1540              		.loc 1 605 3 view .LVU497
 609:Drivers/STM32F1xx_HAL_Driver/Src/stm32f1xx_hal_dma.c ****   {
 1541              		.loc 1 609 33 is_stmt 0 view .LVU498
 1542 0000 0422     		movs	r2, #4
 604:Drivers/STM32F1xx_HAL_Driver/Src/stm32f1xx_hal_dma.c ****   uint32_t flag_it = hdma->DmaBaseAddress->ISR;
 1543              		.loc 1 604 1 view .LVU499
 1544 0002 70B4     		push	{r4, r5, r6}
 1545              	.LCFI15:
 1546              		.cfi_def_cfa_offset 12
 1547              		.cfi_offset 4, -12
 1548              		.cfi_offset 5, -8
 1549              		.cfi_offset 6, -4
 609:Drivers/STM32F1xx_HAL_Driver/Src/stm32f1xx_hal_dma.c ****   {
 1550              		.loc 1 609 40 view .LVU500
ARM GAS  /var/folders/20/cstyxln53wn53rr40gj353bh0000gn/T//ccP3ZOe1.s 			page 51


 1551 0004 D0E90F61 		ldrd	r6, r1, [r0, #60]
 605:Drivers/STM32F1xx_HAL_Driver/Src/stm32f1xx_hal_dma.c ****   uint32_t source_it = hdma->Instance->CCR;
 1552              		.loc 1 605 12 view .LVU501
 1553 0008 3468     		ldr	r4, [r6]
 1554              	.LVL95:
 606:Drivers/STM32F1xx_HAL_Driver/Src/stm32f1xx_hal_dma.c ****   
 1555              		.loc 1 606 3 is_stmt 1 view .LVU502
 606:Drivers/STM32F1xx_HAL_Driver/Src/stm32f1xx_hal_dma.c ****   
 1556              		.loc 1 606 28 is_stmt 0 view .LVU503
 1557 000a 0368     		ldr	r3, [r0]
 609:Drivers/STM32F1xx_HAL_Driver/Src/stm32f1xx_hal_dma.c ****   {
 1558              		.loc 1 609 33 view .LVU504
 1559 000c 8A40     		lsls	r2, r2, r1
 609:Drivers/STM32F1xx_HAL_Driver/Src/stm32f1xx_hal_dma.c ****   {
 1560              		.loc 1 609 6 view .LVU505
 1561 000e 2242     		tst	r2, r4
 606:Drivers/STM32F1xx_HAL_Driver/Src/stm32f1xx_hal_dma.c ****   
 1562              		.loc 1 606 12 view .LVU506
 1563 0010 1D68     		ldr	r5, [r3]
 1564              	.LVL96:
 609:Drivers/STM32F1xx_HAL_Driver/Src/stm32f1xx_hal_dma.c ****   {
 1565              		.loc 1 609 3 is_stmt 1 view .LVU507
 609:Drivers/STM32F1xx_HAL_Driver/Src/stm32f1xx_hal_dma.c ****   {
 1566              		.loc 1 609 6 is_stmt 0 view .LVU508
 1567 0012 1FD0     		beq	.L162
 609:Drivers/STM32F1xx_HAL_Driver/Src/stm32f1xx_hal_dma.c ****   {
 1568              		.loc 1 609 67 discriminator 1 view .LVU509
 1569 0014 6A07     		lsls	r2, r5, #29
 1570 0016 1DD5     		bpl	.L162
 612:Drivers/STM32F1xx_HAL_Driver/Src/stm32f1xx_hal_dma.c ****     {
 1571              		.loc 1 612 5 is_stmt 1 view .LVU510
 612:Drivers/STM32F1xx_HAL_Driver/Src/stm32f1xx_hal_dma.c ****     {
 1572              		.loc 1 612 23 is_stmt 0 view .LVU511
 1573 0018 1A68     		ldr	r2, [r3]
 612:Drivers/STM32F1xx_HAL_Driver/Src/stm32f1xx_hal_dma.c ****     {
 1574              		.loc 1 612 7 view .LVU512
 1575 001a 9106     		lsls	r1, r2, #26
 1576 001c 03D4     		bmi	.L163
 615:Drivers/STM32F1xx_HAL_Driver/Src/stm32f1xx_hal_dma.c ****     }
 1577              		.loc 1 615 7 is_stmt 1 view .LVU513
 1578 001e 1A68     		ldr	r2, [r3]
 1579 0020 22F00402 		bic	r2, r2, #4
 1580 0024 1A60     		str	r2, [r3]
 1581              	.L163:
 618:Drivers/STM32F1xx_HAL_Driver/Src/stm32f1xx_hal_dma.c **** 
 1582              		.loc 1 618 5 view .LVU514
 1583 0026 3E4A     		ldr	r2, .L209
 1584 0028 9342     		cmp	r3, r2
 1585 002a 5AD0     		beq	.L171
 618:Drivers/STM32F1xx_HAL_Driver/Src/stm32f1xx_hal_dma.c **** 
 1586              		.loc 1 618 5 is_stmt 0 discriminator 1 view .LVU515
 1587 002c 1432     		adds	r2, r2, #20
 1588 002e 9342     		cmp	r3, r2
 1589 0030 5FD0     		beq	.L172
 618:Drivers/STM32F1xx_HAL_Driver/Src/stm32f1xx_hal_dma.c **** 
 1590              		.loc 1 618 5 discriminator 3 view .LVU516
 1591 0032 1432     		adds	r2, r2, #20
ARM GAS  /var/folders/20/cstyxln53wn53rr40gj353bh0000gn/T//ccP3ZOe1.s 			page 52


 1592 0034 9342     		cmp	r3, r2
 1593 0036 66D0     		beq	.L173
 618:Drivers/STM32F1xx_HAL_Driver/Src/stm32f1xx_hal_dma.c **** 
 1594              		.loc 1 618 5 discriminator 5 view .LVU517
 1595 0038 1432     		adds	r2, r2, #20
 1596 003a 9342     		cmp	r3, r2
 1597 003c 69D0     		beq	.L174
 618:Drivers/STM32F1xx_HAL_Driver/Src/stm32f1xx_hal_dma.c **** 
 1598              		.loc 1 618 5 discriminator 7 view .LVU518
 1599 003e 1432     		adds	r2, r2, #20
 1600 0040 9342     		cmp	r3, r2
 1601 0042 5BD0     		beq	.L175
 618:Drivers/STM32F1xx_HAL_Driver/Src/stm32f1xx_hal_dma.c **** 
 1602              		.loc 1 618 5 discriminator 9 view .LVU519
 1603 0044 1432     		adds	r2, r2, #20
 1604 0046 9342     		cmp	r3, r2
 1605 0048 0CBF     		ite	eq
 1606 004a 4FF48003 		moveq	r3, #4194304
 1607 004e 4FF08063 		movne	r3, #67108864
 1608 0052 47E0     		b	.L164
 1609              	.L162:
 631:Drivers/STM32F1xx_HAL_Driver/Src/stm32f1xx_hal_dma.c ****   {
 1610              		.loc 1 631 8 is_stmt 1 view .LVU520
 631:Drivers/STM32F1xx_HAL_Driver/Src/stm32f1xx_hal_dma.c ****   {
 1611              		.loc 1 631 38 is_stmt 0 view .LVU521
 1612 0054 0222     		movs	r2, #2
 1613 0056 8A40     		lsls	r2, r2, r1
 631:Drivers/STM32F1xx_HAL_Driver/Src/stm32f1xx_hal_dma.c ****   {
 1614              		.loc 1 631 11 view .LVU522
 1615 0058 2242     		tst	r2, r4
 1616 005a 22D0     		beq	.L167
 631:Drivers/STM32F1xx_HAL_Driver/Src/stm32f1xx_hal_dma.c ****   {
 1617              		.loc 1 631 72 discriminator 1 view .LVU523
 1618 005c AA07     		lsls	r2, r5, #30
 1619 005e 20D5     		bpl	.L167
 633:Drivers/STM32F1xx_HAL_Driver/Src/stm32f1xx_hal_dma.c ****     {
 1620              		.loc 1 633 5 is_stmt 1 view .LVU524
 633:Drivers/STM32F1xx_HAL_Driver/Src/stm32f1xx_hal_dma.c ****     {
 1621              		.loc 1 633 23 is_stmt 0 view .LVU525
 1622 0060 1A68     		ldr	r2, [r3]
 633:Drivers/STM32F1xx_HAL_Driver/Src/stm32f1xx_hal_dma.c ****     {
 1623              		.loc 1 633 7 view .LVU526
 1624 0062 9106     		lsls	r1, r2, #26
 1625 0064 06D4     		bmi	.L168
 636:Drivers/STM32F1xx_HAL_Driver/Src/stm32f1xx_hal_dma.c **** 
 1626              		.loc 1 636 7 is_stmt 1 view .LVU527
 639:Drivers/STM32F1xx_HAL_Driver/Src/stm32f1xx_hal_dma.c ****     }
 1627              		.loc 1 639 19 is_stmt 0 view .LVU528
 1628 0066 0121     		movs	r1, #1
 636:Drivers/STM32F1xx_HAL_Driver/Src/stm32f1xx_hal_dma.c **** 
 1629              		.loc 1 636 7 view .LVU529
 1630 0068 1A68     		ldr	r2, [r3]
 1631 006a 22F00A02 		bic	r2, r2, #10
 1632 006e 1A60     		str	r2, [r3]
 639:Drivers/STM32F1xx_HAL_Driver/Src/stm32f1xx_hal_dma.c ****     }
 1633              		.loc 1 639 7 is_stmt 1 view .LVU530
 639:Drivers/STM32F1xx_HAL_Driver/Src/stm32f1xx_hal_dma.c ****     }
ARM GAS  /var/folders/20/cstyxln53wn53rr40gj353bh0000gn/T//ccP3ZOe1.s 			page 53


 1634              		.loc 1 639 19 is_stmt 0 view .LVU531
 1635 0070 80F82110 		strb	r1, [r0, #33]
 1636              	.L168:
 642:Drivers/STM32F1xx_HAL_Driver/Src/stm32f1xx_hal_dma.c **** 
 1637              		.loc 1 642 7 is_stmt 1 view .LVU532
 1638 0074 2A4A     		ldr	r2, .L209
 1639 0076 9342     		cmp	r3, r2
 1640 0078 29D0     		beq	.L177
 642:Drivers/STM32F1xx_HAL_Driver/Src/stm32f1xx_hal_dma.c **** 
 1641              		.loc 1 642 7 is_stmt 0 discriminator 1 view .LVU533
 1642 007a 1432     		adds	r2, r2, #20
 1643 007c 9342     		cmp	r3, r2
 1644 007e 40D0     		beq	.L178
 642:Drivers/STM32F1xx_HAL_Driver/Src/stm32f1xx_hal_dma.c **** 
 1645              		.loc 1 642 7 discriminator 3 view .LVU534
 1646 0080 1432     		adds	r2, r2, #20
 1647 0082 9342     		cmp	r3, r2
 1648 0084 42D0     		beq	.L179
 642:Drivers/STM32F1xx_HAL_Driver/Src/stm32f1xx_hal_dma.c **** 
 1649              		.loc 1 642 7 discriminator 5 view .LVU535
 1650 0086 1432     		adds	r2, r2, #20
 1651 0088 9342     		cmp	r3, r2
 1652 008a 34D0     		beq	.L180
 642:Drivers/STM32F1xx_HAL_Driver/Src/stm32f1xx_hal_dma.c **** 
 1653              		.loc 1 642 7 discriminator 7 view .LVU536
 1654 008c 1432     		adds	r2, r2, #20
 1655 008e 9342     		cmp	r3, r2
 1656 0090 42D0     		beq	.L181
 642:Drivers/STM32F1xx_HAL_Driver/Src/stm32f1xx_hal_dma.c **** 
 1657              		.loc 1 642 7 discriminator 9 view .LVU537
 1658 0092 1432     		adds	r2, r2, #20
 1659 0094 9342     		cmp	r3, r2
 1660 0096 0CBF     		ite	eq
 1661 0098 4FF40013 		moveq	r3, #2097152
 1662 009c 4FF00073 		movne	r3, #33554432
 1663 00a0 16E0     		b	.L169
 1664              	.L167:
 655:Drivers/STM32F1xx_HAL_Driver/Src/stm32f1xx_hal_dma.c ****   {
 1665              		.loc 1 655 8 is_stmt 1 view .LVU538
 655:Drivers/STM32F1xx_HAL_Driver/Src/stm32f1xx_hal_dma.c ****   {
 1666              		.loc 1 655 48 is_stmt 0 view .LVU539
 1667 00a2 0822     		movs	r2, #8
 1668 00a4 8A40     		lsls	r2, r2, r1
 655:Drivers/STM32F1xx_HAL_Driver/Src/stm32f1xx_hal_dma.c ****   {
 1669              		.loc 1 655 11 view .LVU540
 1670 00a6 2242     		tst	r2, r4
 1671 00a8 19D0     		beq	.L161
 655:Drivers/STM32F1xx_HAL_Driver/Src/stm32f1xx_hal_dma.c ****   {
 1672              		.loc 1 655 73 discriminator 1 view .LVU541
 1673 00aa 2A07     		lsls	r2, r5, #28
 1674 00ac 17D5     		bpl	.L161
 660:Drivers/STM32F1xx_HAL_Driver/Src/stm32f1xx_hal_dma.c **** 
 1675              		.loc 1 660 5 is_stmt 1 view .LVU542
 663:Drivers/STM32F1xx_HAL_Driver/Src/stm32f1xx_hal_dma.c **** 
 1676              		.loc 1 663 48 is_stmt 0 view .LVU543
 1677 00ae 0124     		movs	r4, #1
 1678              	.LVL97:
ARM GAS  /var/folders/20/cstyxln53wn53rr40gj353bh0000gn/T//ccP3ZOe1.s 			page 54


 672:Drivers/STM32F1xx_HAL_Driver/Src/stm32f1xx_hal_dma.c **** 
 1679              		.loc 1 672 5 view .LVU544
 1680 00b0 4FF48075 		mov	r5, #256
 1681              	.LVL98:
 660:Drivers/STM32F1xx_HAL_Driver/Src/stm32f1xx_hal_dma.c **** 
 1682              		.loc 1 660 5 view .LVU545
 1683 00b4 1A68     		ldr	r2, [r3]
 663:Drivers/STM32F1xx_HAL_Driver/Src/stm32f1xx_hal_dma.c **** 
 1684              		.loc 1 663 48 view .LVU546
 1685 00b6 04FA01F1 		lsl	r1, r4, r1
 660:Drivers/STM32F1xx_HAL_Driver/Src/stm32f1xx_hal_dma.c **** 
 1686              		.loc 1 660 5 view .LVU547
 1687 00ba 22F00E02 		bic	r2, r2, #14
 1688 00be 1A60     		str	r2, [r3]
 663:Drivers/STM32F1xx_HAL_Driver/Src/stm32f1xx_hal_dma.c **** 
 1689              		.loc 1 663 5 is_stmt 1 view .LVU548
 674:Drivers/STM32F1xx_HAL_Driver/Src/stm32f1xx_hal_dma.c ****     {
 1690              		.loc 1 674 13 is_stmt 0 view .LVU549
 1691 00c0 036B     		ldr	r3, [r0, #48]
 663:Drivers/STM32F1xx_HAL_Driver/Src/stm32f1xx_hal_dma.c **** 
 1692              		.loc 1 663 32 view .LVU550
 1693 00c2 7160     		str	r1, [r6, #4]
 666:Drivers/STM32F1xx_HAL_Driver/Src/stm32f1xx_hal_dma.c **** 
 1694              		.loc 1 666 5 is_stmt 1 view .LVU551
 666:Drivers/STM32F1xx_HAL_Driver/Src/stm32f1xx_hal_dma.c **** 
 1695              		.loc 1 666 21 is_stmt 0 view .LVU552
 1696 00c4 8463     		str	r4, [r0, #56]
 669:Drivers/STM32F1xx_HAL_Driver/Src/stm32f1xx_hal_dma.c **** 
 1697              		.loc 1 669 5 is_stmt 1 view .LVU553
 672:Drivers/STM32F1xx_HAL_Driver/Src/stm32f1xx_hal_dma.c **** 
 1698              		.loc 1 672 5 view .LVU554
 672:Drivers/STM32F1xx_HAL_Driver/Src/stm32f1xx_hal_dma.c **** 
 1699              		.loc 1 672 5 view .LVU555
 1700 00c6 0584     		strh	r5, [r0, #32]	@ movhi
 674:Drivers/STM32F1xx_HAL_Driver/Src/stm32f1xx_hal_dma.c ****     {
 1701              		.loc 1 674 5 view .LVU556
 674:Drivers/STM32F1xx_HAL_Driver/Src/stm32f1xx_hal_dma.c ****     {
 1702              		.loc 1 674 8 is_stmt 0 view .LVU557
 1703 00c8 4BB1     		cbz	r3, .L161
 677:Drivers/STM32F1xx_HAL_Driver/Src/stm32f1xx_hal_dma.c ****     }
 1704              		.loc 1 677 7 is_stmt 1 view .LVU558
 681:Drivers/STM32F1xx_HAL_Driver/Src/stm32f1xx_hal_dma.c **** 
 1705              		.loc 1 681 1 is_stmt 0 view .LVU559
 1706 00ca 70BC     		pop	{r4, r5, r6}
 1707              	.LCFI16:
 1708              		.cfi_remember_state
 1709              		.cfi_restore 6
 1710              		.cfi_restore 5
 1711              		.cfi_restore 4
 1712              		.cfi_def_cfa_offset 0
 677:Drivers/STM32F1xx_HAL_Driver/Src/stm32f1xx_hal_dma.c ****     }
 1713              		.loc 1 677 7 view .LVU560
 1714 00cc 1847     		bx	r3	@ indirect register sibling call
 1715              	.LVL99:
 1716              	.L177:
 1717              	.LCFI17:
 1718              		.cfi_restore_state
ARM GAS  /var/folders/20/cstyxln53wn53rr40gj353bh0000gn/T//ccP3ZOe1.s 			page 55


 642:Drivers/STM32F1xx_HAL_Driver/Src/stm32f1xx_hal_dma.c **** 
 1719              		.loc 1 642 7 view .LVU561
 1720 00ce 0223     		movs	r3, #2
 1721              	.L169:
 645:Drivers/STM32F1xx_HAL_Driver/Src/stm32f1xx_hal_dma.c **** 
 1722              		.loc 1 645 5 discriminator 24 view .LVU562
 1723 00d0 0021     		movs	r1, #0
 642:Drivers/STM32F1xx_HAL_Driver/Src/stm32f1xx_hal_dma.c **** 
 1724              		.loc 1 642 7 discriminator 24 view .LVU563
 1725 00d2 144C     		ldr	r4, .L209+4
 1726              	.LVL100:
 647:Drivers/STM32F1xx_HAL_Driver/Src/stm32f1xx_hal_dma.c ****     {
 1727              		.loc 1 647 12 discriminator 24 view .LVU564
 1728 00d4 826A     		ldr	r2, [r0, #40]
 642:Drivers/STM32F1xx_HAL_Driver/Src/stm32f1xx_hal_dma.c **** 
 1729              		.loc 1 642 7 discriminator 24 view .LVU565
 1730 00d6 6360     		str	r3, [r4, #4]
 645:Drivers/STM32F1xx_HAL_Driver/Src/stm32f1xx_hal_dma.c **** 
 1731              		.loc 1 645 5 is_stmt 1 discriminator 24 view .LVU566
 645:Drivers/STM32F1xx_HAL_Driver/Src/stm32f1xx_hal_dma.c **** 
 1732              		.loc 1 645 5 discriminator 24 view .LVU567
 1733 00d8 80F82010 		strb	r1, [r0, #32]
 647:Drivers/STM32F1xx_HAL_Driver/Src/stm32f1xx_hal_dma.c ****     {
 1734              		.loc 1 647 5 discriminator 24 view .LVU568
 647:Drivers/STM32F1xx_HAL_Driver/Src/stm32f1xx_hal_dma.c ****     {
 1735              		.loc 1 647 7 is_stmt 0 discriminator 24 view .LVU569
 1736 00dc 3AB9     		cbnz	r2, .L208
 1737              	.LVL101:
 1738              	.L161:
 681:Drivers/STM32F1xx_HAL_Driver/Src/stm32f1xx_hal_dma.c **** 
 1739              		.loc 1 681 1 view .LVU570
 1740 00de 70BC     		pop	{r4, r5, r6}
 1741              	.LCFI18:
 1742              		.cfi_remember_state
 1743              		.cfi_restore 6
 1744              		.cfi_restore 5
 1745              		.cfi_restore 4
 1746              		.cfi_def_cfa_offset 0
 1747 00e0 7047     		bx	lr
 1748              	.LVL102:
 1749              	.L171:
 1750              	.LCFI19:
 1751              		.cfi_restore_state
 618:Drivers/STM32F1xx_HAL_Driver/Src/stm32f1xx_hal_dma.c **** 
 1752              		.loc 1 618 5 view .LVU571
 1753 00e2 0423     		movs	r3, #4
 1754              	.L164:
 618:Drivers/STM32F1xx_HAL_Driver/Src/stm32f1xx_hal_dma.c **** 
 1755              		.loc 1 618 5 discriminator 24 view .LVU572
 1756 00e4 0F49     		ldr	r1, .L209+4
 623:Drivers/STM32F1xx_HAL_Driver/Src/stm32f1xx_hal_dma.c ****     {
 1757              		.loc 1 623 12 discriminator 24 view .LVU573
 1758 00e6 C26A     		ldr	r2, [r0, #44]
 618:Drivers/STM32F1xx_HAL_Driver/Src/stm32f1xx_hal_dma.c **** 
 1759              		.loc 1 618 5 discriminator 24 view .LVU574
 1760 00e8 4B60     		str	r3, [r1, #4]
 623:Drivers/STM32F1xx_HAL_Driver/Src/stm32f1xx_hal_dma.c ****     {
ARM GAS  /var/folders/20/cstyxln53wn53rr40gj353bh0000gn/T//ccP3ZOe1.s 			page 56


 1761              		.loc 1 623 5 is_stmt 1 discriminator 24 view .LVU575
 623:Drivers/STM32F1xx_HAL_Driver/Src/stm32f1xx_hal_dma.c ****     {
 1762              		.loc 1 623 7 is_stmt 0 discriminator 24 view .LVU576
 1763 00ea 002A     		cmp	r2, #0
 1764 00ec F7D0     		beq	.L161
 1765              	.LVL103:
 1766              	.L208:
 650:Drivers/STM32F1xx_HAL_Driver/Src/stm32f1xx_hal_dma.c ****     }
 1767              		.loc 1 650 7 is_stmt 1 view .LVU577
 681:Drivers/STM32F1xx_HAL_Driver/Src/stm32f1xx_hal_dma.c **** 
 1768              		.loc 1 681 1 is_stmt 0 view .LVU578
 1769 00ee 70BC     		pop	{r4, r5, r6}
 1770              	.LCFI20:
 1771              		.cfi_remember_state
 1772              		.cfi_restore 6
 1773              		.cfi_restore 5
 1774              		.cfi_restore 4
 1775              		.cfi_def_cfa_offset 0
 1776              	.LVL104:
 650:Drivers/STM32F1xx_HAL_Driver/Src/stm32f1xx_hal_dma.c ****     }
 1777              		.loc 1 650 7 view .LVU579
 1778 00f0 1047     		bx	r2	@ indirect register sibling call
 1779              	.LVL105:
 1780              	.L172:
 1781              	.LCFI21:
 1782              		.cfi_restore_state
 618:Drivers/STM32F1xx_HAL_Driver/Src/stm32f1xx_hal_dma.c **** 
 1783              		.loc 1 618 5 view .LVU580
 1784 00f2 4023     		movs	r3, #64
 1785 00f4 F6E7     		b	.L164
 1786              	.L180:
 642:Drivers/STM32F1xx_HAL_Driver/Src/stm32f1xx_hal_dma.c **** 
 1787              		.loc 1 642 7 view .LVU581
 1788 00f6 4FF40053 		mov	r3, #8192
 1789 00fa E9E7     		b	.L169
 1790              	.L175:
 618:Drivers/STM32F1xx_HAL_Driver/Src/stm32f1xx_hal_dma.c **** 
 1791              		.loc 1 618 5 view .LVU582
 1792 00fc 4FF48023 		mov	r3, #262144
 1793 0100 F0E7     		b	.L164
 1794              	.L178:
 642:Drivers/STM32F1xx_HAL_Driver/Src/stm32f1xx_hal_dma.c **** 
 1795              		.loc 1 642 7 view .LVU583
 1796 0102 2023     		movs	r3, #32
 1797 0104 E4E7     		b	.L169
 1798              	.L173:
 618:Drivers/STM32F1xx_HAL_Driver/Src/stm32f1xx_hal_dma.c **** 
 1799              		.loc 1 618 5 view .LVU584
 1800 0106 4FF48063 		mov	r3, #1024
 1801 010a EBE7     		b	.L164
 1802              	.L179:
 642:Drivers/STM32F1xx_HAL_Driver/Src/stm32f1xx_hal_dma.c **** 
 1803              		.loc 1 642 7 view .LVU585
 1804 010c 4FF40073 		mov	r3, #512
 1805 0110 DEE7     		b	.L169
 1806              	.L174:
 618:Drivers/STM32F1xx_HAL_Driver/Src/stm32f1xx_hal_dma.c **** 
ARM GAS  /var/folders/20/cstyxln53wn53rr40gj353bh0000gn/T//ccP3ZOe1.s 			page 57


 1807              		.loc 1 618 5 view .LVU586
 1808 0112 4FF48043 		mov	r3, #16384
 1809 0116 E5E7     		b	.L164
 1810              	.L181:
 642:Drivers/STM32F1xx_HAL_Driver/Src/stm32f1xx_hal_dma.c **** 
 1811              		.loc 1 642 7 view .LVU587
 1812 0118 4FF40033 		mov	r3, #131072
 1813 011c D8E7     		b	.L169
 1814              	.L210:
 1815 011e 00BF     		.align	2
 1816              	.L209:
 1817 0120 08000240 		.word	1073872904
 1818 0124 00000240 		.word	1073872896
 1819              		.cfi_endproc
 1820              	.LFE72:
 1822              		.section	.text.HAL_DMA_RegisterCallback,"ax",%progbits
 1823              		.align	1
 1824              		.p2align 2,,3
 1825              		.global	HAL_DMA_RegisterCallback
 1826              		.syntax unified
 1827              		.thumb
 1828              		.thumb_func
 1829              		.fpu softvfp
 1831              	HAL_DMA_RegisterCallback:
 1832              	.LVL106:
 1833              	.LFB73:
 694:Drivers/STM32F1xx_HAL_Driver/Src/stm32f1xx_hal_dma.c ****   HAL_StatusTypeDef status = HAL_OK;
 1834              		.loc 1 694 1 is_stmt 1 view -0
 1835              		.cfi_startproc
 1836              		@ args = 0, pretend = 0, frame = 0
 1837              		@ frame_needed = 0, uses_anonymous_args = 0
 1838              		@ link register save eliminated.
 695:Drivers/STM32F1xx_HAL_Driver/Src/stm32f1xx_hal_dma.c ****   
 1839              		.loc 1 695 3 view .LVU589
 698:Drivers/STM32F1xx_HAL_Driver/Src/stm32f1xx_hal_dma.c ****   
 1840              		.loc 1 698 3 view .LVU590
 698:Drivers/STM32F1xx_HAL_Driver/Src/stm32f1xx_hal_dma.c ****   
 1841              		.loc 1 698 3 view .LVU591
 694:Drivers/STM32F1xx_HAL_Driver/Src/stm32f1xx_hal_dma.c ****   HAL_StatusTypeDef status = HAL_OK;
 1842              		.loc 1 694 1 is_stmt 0 view .LVU592
 1843 0000 0346     		mov	r3, r0
 698:Drivers/STM32F1xx_HAL_Driver/Src/stm32f1xx_hal_dma.c ****   
 1844              		.loc 1 698 3 view .LVU593
 1845 0002 90F82000 		ldrb	r0, [r0, #32]	@ zero_extendqisi2
 1846              	.LVL107:
 698:Drivers/STM32F1xx_HAL_Driver/Src/stm32f1xx_hal_dma.c ****   
 1847              		.loc 1 698 3 view .LVU594
 1848 0006 0128     		cmp	r0, #1
 1849 0008 1FD0     		beq	.L219
 698:Drivers/STM32F1xx_HAL_Driver/Src/stm32f1xx_hal_dma.c ****   
 1850              		.loc 1 698 3 is_stmt 1 discriminator 2 view .LVU595
 694:Drivers/STM32F1xx_HAL_Driver/Src/stm32f1xx_hal_dma.c ****   HAL_StatusTypeDef status = HAL_OK;
 1851              		.loc 1 694 1 is_stmt 0 discriminator 2 view .LVU596
 1852 000a 10B4     		push	{r4}
 1853              	.LCFI22:
 1854              		.cfi_def_cfa_offset 4
 1855              		.cfi_offset 4, -4
ARM GAS  /var/folders/20/cstyxln53wn53rr40gj353bh0000gn/T//ccP3ZOe1.s 			page 58


 698:Drivers/STM32F1xx_HAL_Driver/Src/stm32f1xx_hal_dma.c ****   
 1856              		.loc 1 698 3 discriminator 2 view .LVU597
 1857 000c 0124     		movs	r4, #1
 700:Drivers/STM32F1xx_HAL_Driver/Src/stm32f1xx_hal_dma.c ****   {
 1858              		.loc 1 700 33 discriminator 2 view .LVU598
 1859 000e 93F82100 		ldrb	r0, [r3, #33]	@ zero_extendqisi2
 698:Drivers/STM32F1xx_HAL_Driver/Src/stm32f1xx_hal_dma.c ****   
 1860              		.loc 1 698 3 discriminator 2 view .LVU599
 1861 0012 83F82040 		strb	r4, [r3, #32]
 700:Drivers/STM32F1xx_HAL_Driver/Src/stm32f1xx_hal_dma.c ****   {
 1862              		.loc 1 700 3 is_stmt 1 discriminator 2 view .LVU600
 700:Drivers/STM32F1xx_HAL_Driver/Src/stm32f1xx_hal_dma.c ****   {
 1863              		.loc 1 700 5 is_stmt 0 discriminator 2 view .LVU601
 1864 0016 A042     		cmp	r0, r4
 1865 0018 05D0     		beq	.L225
 727:Drivers/STM32F1xx_HAL_Driver/Src/stm32f1xx_hal_dma.c ****   } 
 1866              		.loc 1 727 12 view .LVU602
 1867 001a 2046     		mov	r0, r4
 1868              	.L213:
 1869              	.LVL108:
 731:Drivers/STM32F1xx_HAL_Driver/Src/stm32f1xx_hal_dma.c ****   
 1870              		.loc 1 731 3 is_stmt 1 view .LVU603
 731:Drivers/STM32F1xx_HAL_Driver/Src/stm32f1xx_hal_dma.c ****   
 1871              		.loc 1 731 3 view .LVU604
 1872 001c 0022     		movs	r2, #0
 1873              	.LVL109:
 734:Drivers/STM32F1xx_HAL_Driver/Src/stm32f1xx_hal_dma.c **** 
 1874              		.loc 1 734 1 is_stmt 0 view .LVU605
 1875 001e 10BC     		pop	{r4}
 1876              	.LCFI23:
 1877              		.cfi_remember_state
 1878              		.cfi_restore 4
 1879              		.cfi_def_cfa_offset 0
 731:Drivers/STM32F1xx_HAL_Driver/Src/stm32f1xx_hal_dma.c ****   
 1880              		.loc 1 731 3 view .LVU606
 1881 0020 83F82020 		strb	r2, [r3, #32]
 733:Drivers/STM32F1xx_HAL_Driver/Src/stm32f1xx_hal_dma.c **** }
 1882              		.loc 1 733 3 is_stmt 1 view .LVU607
 734:Drivers/STM32F1xx_HAL_Driver/Src/stm32f1xx_hal_dma.c **** 
 1883              		.loc 1 734 1 is_stmt 0 view .LVU608
 1884 0024 7047     		bx	lr
 1885              	.LVL110:
 1886              	.L225:
 1887              	.LCFI24:
 1888              		.cfi_restore_state
 702:Drivers/STM32F1xx_HAL_Driver/Src/stm32f1xx_hal_dma.c ****     {
 1889              		.loc 1 702 5 is_stmt 1 view .LVU609
 1890 0026 0329     		cmp	r1, #3
 1891 0028 F8D8     		bhi	.L213
 1892 002a DFE801F0 		tbb	[pc, r1]
 1893              	.L215:
 1894 002e 0B       		.byte	(.L218-.L215)/2
 1895 002f 08       		.byte	(.L217-.L215)/2
 1896 0030 05       		.byte	(.L216-.L215)/2
 1897 0031 02       		.byte	(.L214-.L215)/2
 1898              		.p2align 1
 1899              	.L214:
ARM GAS  /var/folders/20/cstyxln53wn53rr40gj353bh0000gn/T//ccP3ZOe1.s 			page 59


 717:Drivers/STM32F1xx_HAL_Driver/Src/stm32f1xx_hal_dma.c ****       break; 
 1900              		.loc 1 717 7 view .LVU610
 717:Drivers/STM32F1xx_HAL_Driver/Src/stm32f1xx_hal_dma.c ****       break; 
 1901              		.loc 1 717 31 is_stmt 0 view .LVU611
 1902 0032 5A63     		str	r2, [r3, #52]
 718:Drivers/STM32F1xx_HAL_Driver/Src/stm32f1xx_hal_dma.c ****       
 1903              		.loc 1 718 7 is_stmt 1 view .LVU612
 695:Drivers/STM32F1xx_HAL_Driver/Src/stm32f1xx_hal_dma.c ****   
 1904              		.loc 1 695 21 is_stmt 0 view .LVU613
 1905 0034 0020     		movs	r0, #0
 718:Drivers/STM32F1xx_HAL_Driver/Src/stm32f1xx_hal_dma.c ****       
 1906              		.loc 1 718 7 view .LVU614
 1907 0036 F1E7     		b	.L213
 1908              	.L216:
 713:Drivers/STM32F1xx_HAL_Driver/Src/stm32f1xx_hal_dma.c ****       break;         
 1909              		.loc 1 713 7 is_stmt 1 view .LVU615
 713:Drivers/STM32F1xx_HAL_Driver/Src/stm32f1xx_hal_dma.c ****       break;         
 1910              		.loc 1 713 31 is_stmt 0 view .LVU616
 1911 0038 1A63     		str	r2, [r3, #48]
 714:Drivers/STM32F1xx_HAL_Driver/Src/stm32f1xx_hal_dma.c ****       
 1912              		.loc 1 714 7 is_stmt 1 view .LVU617
 695:Drivers/STM32F1xx_HAL_Driver/Src/stm32f1xx_hal_dma.c ****   
 1913              		.loc 1 695 21 is_stmt 0 view .LVU618
 1914 003a 0020     		movs	r0, #0
 714:Drivers/STM32F1xx_HAL_Driver/Src/stm32f1xx_hal_dma.c ****       
 1915              		.loc 1 714 7 view .LVU619
 1916 003c EEE7     		b	.L213
 1917              	.L217:
 709:Drivers/STM32F1xx_HAL_Driver/Src/stm32f1xx_hal_dma.c ****       break;         
 1918              		.loc 1 709 7 is_stmt 1 view .LVU620
 709:Drivers/STM32F1xx_HAL_Driver/Src/stm32f1xx_hal_dma.c ****       break;         
 1919              		.loc 1 709 34 is_stmt 0 view .LVU621
 1920 003e DA62     		str	r2, [r3, #44]
 710:Drivers/STM32F1xx_HAL_Driver/Src/stm32f1xx_hal_dma.c **** 
 1921              		.loc 1 710 7 is_stmt 1 view .LVU622
 695:Drivers/STM32F1xx_HAL_Driver/Src/stm32f1xx_hal_dma.c ****   
 1922              		.loc 1 695 21 is_stmt 0 view .LVU623
 1923 0040 0020     		movs	r0, #0
 710:Drivers/STM32F1xx_HAL_Driver/Src/stm32f1xx_hal_dma.c **** 
 1924              		.loc 1 710 7 view .LVU624
 1925 0042 EBE7     		b	.L213
 1926              	.L218:
 705:Drivers/STM32F1xx_HAL_Driver/Src/stm32f1xx_hal_dma.c ****       break;
 1927              		.loc 1 705 7 is_stmt 1 view .LVU625
 705:Drivers/STM32F1xx_HAL_Driver/Src/stm32f1xx_hal_dma.c ****       break;
 1928              		.loc 1 705 30 is_stmt 0 view .LVU626
 1929 0044 9A62     		str	r2, [r3, #40]
 706:Drivers/STM32F1xx_HAL_Driver/Src/stm32f1xx_hal_dma.c ****       
 1930              		.loc 1 706 7 is_stmt 1 view .LVU627
 695:Drivers/STM32F1xx_HAL_Driver/Src/stm32f1xx_hal_dma.c ****   
 1931              		.loc 1 695 21 is_stmt 0 view .LVU628
 1932 0046 0846     		mov	r0, r1
 706:Drivers/STM32F1xx_HAL_Driver/Src/stm32f1xx_hal_dma.c ****       
 1933              		.loc 1 706 7 view .LVU629
 1934 0048 E8E7     		b	.L213
 1935              	.L219:
 1936              	.LCFI25:
ARM GAS  /var/folders/20/cstyxln53wn53rr40gj353bh0000gn/T//ccP3ZOe1.s 			page 60


 1937              		.cfi_def_cfa_offset 0
 1938              		.cfi_restore 4
 698:Drivers/STM32F1xx_HAL_Driver/Src/stm32f1xx_hal_dma.c ****   
 1939              		.loc 1 698 3 view .LVU630
 1940 004a 0220     		movs	r0, #2
 734:Drivers/STM32F1xx_HAL_Driver/Src/stm32f1xx_hal_dma.c **** 
 1941              		.loc 1 734 1 view .LVU631
 1942 004c 7047     		bx	lr
 1943              		.cfi_endproc
 1944              	.LFE73:
 1946 004e 00BF     		.section	.text.HAL_DMA_UnRegisterCallback,"ax",%progbits
 1947              		.align	1
 1948              		.p2align 2,,3
 1949              		.global	HAL_DMA_UnRegisterCallback
 1950              		.syntax unified
 1951              		.thumb
 1952              		.thumb_func
 1953              		.fpu softvfp
 1955              	HAL_DMA_UnRegisterCallback:
 1956              	.LVL111:
 1957              	.LFB74:
 745:Drivers/STM32F1xx_HAL_Driver/Src/stm32f1xx_hal_dma.c ****   HAL_StatusTypeDef status = HAL_OK;
 1958              		.loc 1 745 1 is_stmt 1 view -0
 1959              		.cfi_startproc
 1960              		@ args = 0, pretend = 0, frame = 0
 1961              		@ frame_needed = 0, uses_anonymous_args = 0
 1962              		@ link register save eliminated.
 746:Drivers/STM32F1xx_HAL_Driver/Src/stm32f1xx_hal_dma.c **** 
 1963              		.loc 1 746 3 view .LVU633
 749:Drivers/STM32F1xx_HAL_Driver/Src/stm32f1xx_hal_dma.c ****   
 1964              		.loc 1 749 3 view .LVU634
 749:Drivers/STM32F1xx_HAL_Driver/Src/stm32f1xx_hal_dma.c ****   
 1965              		.loc 1 749 3 view .LVU635
 1966 0000 90F82020 		ldrb	r2, [r0, #32]	@ zero_extendqisi2
 745:Drivers/STM32F1xx_HAL_Driver/Src/stm32f1xx_hal_dma.c ****   HAL_StatusTypeDef status = HAL_OK;
 1967              		.loc 1 745 1 is_stmt 0 view .LVU636
 1968 0004 0346     		mov	r3, r0
 749:Drivers/STM32F1xx_HAL_Driver/Src/stm32f1xx_hal_dma.c ****   
 1969              		.loc 1 749 3 view .LVU637
 1970 0006 012A     		cmp	r2, #1
 1971 0008 12D0     		beq	.L235
 749:Drivers/STM32F1xx_HAL_Driver/Src/stm32f1xx_hal_dma.c ****   
 1972              		.loc 1 749 3 is_stmt 1 discriminator 2 view .LVU638
 1973 000a 0122     		movs	r2, #1
 751:Drivers/STM32F1xx_HAL_Driver/Src/stm32f1xx_hal_dma.c ****   {
 1974              		.loc 1 751 33 is_stmt 0 discriminator 2 view .LVU639
 1975 000c 90F82100 		ldrb	r0, [r0, #33]	@ zero_extendqisi2
 1976              	.LVL112:
 749:Drivers/STM32F1xx_HAL_Driver/Src/stm32f1xx_hal_dma.c ****   
 1977              		.loc 1 749 3 discriminator 2 view .LVU640
 1978 0010 83F82020 		strb	r2, [r3, #32]
 751:Drivers/STM32F1xx_HAL_Driver/Src/stm32f1xx_hal_dma.c ****   {
 1979              		.loc 1 751 3 is_stmt 1 discriminator 2 view .LVU641
 751:Drivers/STM32F1xx_HAL_Driver/Src/stm32f1xx_hal_dma.c ****   {
 1980              		.loc 1 751 5 is_stmt 0 discriminator 2 view .LVU642
 1981 0014 9042     		cmp	r0, r2
 1982 0016 04D0     		beq	.L237
ARM GAS  /var/folders/20/cstyxln53wn53rr40gj353bh0000gn/T//ccP3ZOe1.s 			page 61


 785:Drivers/STM32F1xx_HAL_Driver/Src/stm32f1xx_hal_dma.c ****   } 
 1983              		.loc 1 785 12 view .LVU643
 1984 0018 1046     		mov	r0, r2
 1985              	.L228:
 1986              	.LVL113:
 789:Drivers/STM32F1xx_HAL_Driver/Src/stm32f1xx_hal_dma.c ****   
 1987              		.loc 1 789 3 is_stmt 1 view .LVU644
 789:Drivers/STM32F1xx_HAL_Driver/Src/stm32f1xx_hal_dma.c ****   
 1988              		.loc 1 789 3 view .LVU645
 1989 001a 0022     		movs	r2, #0
 1990 001c 83F82020 		strb	r2, [r3, #32]
 791:Drivers/STM32F1xx_HAL_Driver/Src/stm32f1xx_hal_dma.c **** }
 1991              		.loc 1 791 3 view .LVU646
 791:Drivers/STM32F1xx_HAL_Driver/Src/stm32f1xx_hal_dma.c **** }
 1992              		.loc 1 791 10 is_stmt 0 view .LVU647
 1993 0020 7047     		bx	lr
 1994              	.LVL114:
 1995              	.L237:
 753:Drivers/STM32F1xx_HAL_Driver/Src/stm32f1xx_hal_dma.c ****     {
 1996              		.loc 1 753 5 is_stmt 1 view .LVU648
 1997 0022 0429     		cmp	r1, #4
 1998 0024 F9D8     		bhi	.L228
 1999 0026 DFE801F0 		tbb	[pc, r1]
 2000              	.L230:
 2001 002a 0B       		.byte	(.L234-.L230)/2
 2002 002b 0F       		.byte	(.L233-.L230)/2
 2003 002c 12       		.byte	(.L232-.L230)/2
 2004 002d 15       		.byte	(.L231-.L230)/2
 2005 002e 05       		.byte	(.L229-.L230)/2
 2006              	.LVL115:
 2007 002f 00       		.p2align 1
 2008              	.L235:
 749:Drivers/STM32F1xx_HAL_Driver/Src/stm32f1xx_hal_dma.c ****   
 2009              		.loc 1 749 3 is_stmt 0 view .LVU649
 2010 0030 0220     		movs	r0, #2
 2011              	.LVL116:
 792:Drivers/STM32F1xx_HAL_Driver/Src/stm32f1xx_hal_dma.c ****   
 2012              		.loc 1 792 1 view .LVU650
 2013 0032 7047     		bx	lr
 2014              	.L229:
 772:Drivers/STM32F1xx_HAL_Driver/Src/stm32f1xx_hal_dma.c ****       hdma->XferHalfCpltCallback = NULL;
 2015              		.loc 1 772 7 is_stmt 1 view .LVU651
 772:Drivers/STM32F1xx_HAL_Driver/Src/stm32f1xx_hal_dma.c ****       hdma->XferHalfCpltCallback = NULL;
 2016              		.loc 1 772 30 is_stmt 0 view .LVU652
 2017 0034 0020     		movs	r0, #0
 773:Drivers/STM32F1xx_HAL_Driver/Src/stm32f1xx_hal_dma.c ****       hdma->XferErrorCallback = NULL;
 2018              		.loc 1 773 34 view .LVU653
 2019 0036 C3E90A00 		strd	r0, r0, [r3, #40]
 774:Drivers/STM32F1xx_HAL_Driver/Src/stm32f1xx_hal_dma.c ****       hdma->XferAbortCallback = NULL;
 2020              		.loc 1 774 7 is_stmt 1 view .LVU654
 775:Drivers/STM32F1xx_HAL_Driver/Src/stm32f1xx_hal_dma.c ****       break; 
 2021              		.loc 1 775 31 is_stmt 0 view .LVU655
 2022 003a C3E90C00 		strd	r0, r0, [r3, #48]
 776:Drivers/STM32F1xx_HAL_Driver/Src/stm32f1xx_hal_dma.c **** 
 2023              		.loc 1 776 7 is_stmt 1 view .LVU656
 2024 003e ECE7     		b	.L228
 2025              	.L234:
ARM GAS  /var/folders/20/cstyxln53wn53rr40gj353bh0000gn/T//ccP3ZOe1.s 			page 62


 756:Drivers/STM32F1xx_HAL_Driver/Src/stm32f1xx_hal_dma.c ****       break;
 2026              		.loc 1 756 7 view .LVU657
 756:Drivers/STM32F1xx_HAL_Driver/Src/stm32f1xx_hal_dma.c ****       break;
 2027              		.loc 1 756 30 is_stmt 0 view .LVU658
 2028 0040 0022     		movs	r2, #0
 746:Drivers/STM32F1xx_HAL_Driver/Src/stm32f1xx_hal_dma.c **** 
 2029              		.loc 1 746 21 view .LVU659
 2030 0042 0846     		mov	r0, r1
 756:Drivers/STM32F1xx_HAL_Driver/Src/stm32f1xx_hal_dma.c ****       break;
 2031              		.loc 1 756 30 view .LVU660
 2032 0044 9A62     		str	r2, [r3, #40]
 757:Drivers/STM32F1xx_HAL_Driver/Src/stm32f1xx_hal_dma.c **** 
 2033              		.loc 1 757 7 is_stmt 1 view .LVU661
 2034 0046 E8E7     		b	.L228
 2035              	.L233:
 760:Drivers/STM32F1xx_HAL_Driver/Src/stm32f1xx_hal_dma.c ****       break;         
 2036              		.loc 1 760 7 view .LVU662
 760:Drivers/STM32F1xx_HAL_Driver/Src/stm32f1xx_hal_dma.c ****       break;         
 2037              		.loc 1 760 34 is_stmt 0 view .LVU663
 2038 0048 0020     		movs	r0, #0
 2039 004a D862     		str	r0, [r3, #44]
 761:Drivers/STM32F1xx_HAL_Driver/Src/stm32f1xx_hal_dma.c **** 
 2040              		.loc 1 761 7 is_stmt 1 view .LVU664
 2041 004c E5E7     		b	.L228
 2042              	.L232:
 764:Drivers/STM32F1xx_HAL_Driver/Src/stm32f1xx_hal_dma.c ****       break;         
 2043              		.loc 1 764 7 view .LVU665
 764:Drivers/STM32F1xx_HAL_Driver/Src/stm32f1xx_hal_dma.c ****       break;         
 2044              		.loc 1 764 31 is_stmt 0 view .LVU666
 2045 004e 0020     		movs	r0, #0
 2046 0050 1863     		str	r0, [r3, #48]
 765:Drivers/STM32F1xx_HAL_Driver/Src/stm32f1xx_hal_dma.c **** 
 2047              		.loc 1 765 7 is_stmt 1 view .LVU667
 2048 0052 E2E7     		b	.L228
 2049              	.L231:
 768:Drivers/STM32F1xx_HAL_Driver/Src/stm32f1xx_hal_dma.c ****       break; 
 2050              		.loc 1 768 7 view .LVU668
 768:Drivers/STM32F1xx_HAL_Driver/Src/stm32f1xx_hal_dma.c ****       break; 
 2051              		.loc 1 768 31 is_stmt 0 view .LVU669
 2052 0054 0020     		movs	r0, #0
 2053 0056 5863     		str	r0, [r3, #52]
 769:Drivers/STM32F1xx_HAL_Driver/Src/stm32f1xx_hal_dma.c **** 
 2054              		.loc 1 769 7 is_stmt 1 view .LVU670
 2055 0058 DFE7     		b	.L228
 2056              		.cfi_endproc
 2057              	.LFE74:
 2059 005a 00BF     		.section	.text.HAL_DMA_GetState,"ax",%progbits
 2060              		.align	1
 2061              		.p2align 2,,3
 2062              		.global	HAL_DMA_GetState
 2063              		.syntax unified
 2064              		.thumb
 2065              		.thumb_func
 2066              		.fpu softvfp
 2068              	HAL_DMA_GetState:
 2069              	.LVL117:
 2070              	.LFB75:
ARM GAS  /var/folders/20/cstyxln53wn53rr40gj353bh0000gn/T//ccP3ZOe1.s 			page 63


 821:Drivers/STM32F1xx_HAL_Driver/Src/stm32f1xx_hal_dma.c ****   /* Return DMA handle state */
 2071              		.loc 1 821 1 view -0
 2072              		.cfi_startproc
 2073              		@ args = 0, pretend = 0, frame = 0
 2074              		@ frame_needed = 0, uses_anonymous_args = 0
 2075              		@ link register save eliminated.
 823:Drivers/STM32F1xx_HAL_Driver/Src/stm32f1xx_hal_dma.c **** }
 2076              		.loc 1 823 3 view .LVU672
 824:Drivers/STM32F1xx_HAL_Driver/Src/stm32f1xx_hal_dma.c **** 
 2077              		.loc 1 824 1 is_stmt 0 view .LVU673
 2078 0000 90F82100 		ldrb	r0, [r0, #33]	@ zero_extendqisi2
 2079              	.LVL118:
 824:Drivers/STM32F1xx_HAL_Driver/Src/stm32f1xx_hal_dma.c **** 
 2080              		.loc 1 824 1 view .LVU674
 2081 0004 7047     		bx	lr
 2082              		.cfi_endproc
 2083              	.LFE75:
 2085 0006 00BF     		.section	.text.HAL_DMA_GetError,"ax",%progbits
 2086              		.align	1
 2087              		.p2align 2,,3
 2088              		.global	HAL_DMA_GetError
 2089              		.syntax unified
 2090              		.thumb
 2091              		.thumb_func
 2092              		.fpu softvfp
 2094              	HAL_DMA_GetError:
 2095              	.LVL119:
 2096              	.LFB76:
 833:Drivers/STM32F1xx_HAL_Driver/Src/stm32f1xx_hal_dma.c ****   return hdma->ErrorCode;
 2097              		.loc 1 833 1 is_stmt 1 view -0
 2098              		.cfi_startproc
 2099              		@ args = 0, pretend = 0, frame = 0
 2100              		@ frame_needed = 0, uses_anonymous_args = 0
 2101              		@ link register save eliminated.
 834:Drivers/STM32F1xx_HAL_Driver/Src/stm32f1xx_hal_dma.c **** }
 2102              		.loc 1 834 3 view .LVU676
 834:Drivers/STM32F1xx_HAL_Driver/Src/stm32f1xx_hal_dma.c **** }
 2103              		.loc 1 834 14 is_stmt 0 view .LVU677
 2104 0000 806B     		ldr	r0, [r0, #56]
 2105              	.LVL120:
 835:Drivers/STM32F1xx_HAL_Driver/Src/stm32f1xx_hal_dma.c **** 
 2106              		.loc 1 835 1 view .LVU678
 2107 0002 7047     		bx	lr
 2108              		.cfi_endproc
 2109              	.LFE76:
 2111              		.text
 2112              	.Letext0:
 2113              		.file 2 "/usr/local/gcc-arm-none-eabi-8-2019-q3-update/arm-none-eabi/include/machine/_default_type
 2114              		.file 3 "/usr/local/gcc-arm-none-eabi-8-2019-q3-update/arm-none-eabi/include/sys/_stdint.h"
 2115              		.file 4 "Drivers/CMSIS/Include/core_cm3.h"
 2116              		.file 5 "Drivers/CMSIS/Device/ST/STM32F1xx/Include/system_stm32f1xx.h"
 2117              		.file 6 "Drivers/CMSIS/Device/ST/STM32F1xx/Include/stm32f103xb.h"
 2118              		.file 7 "Drivers/CMSIS/Device/ST/STM32F1xx/Include/stm32f1xx.h"
 2119              		.file 8 "Drivers/STM32F1xx_HAL_Driver/Inc/stm32f1xx_hal_def.h"
 2120              		.file 9 "Drivers/STM32F1xx_HAL_Driver/Inc/stm32f1xx_hal_dma.h"
 2121              		.file 10 "Drivers/STM32F1xx_HAL_Driver/Inc/stm32f1xx_hal.h"
ARM GAS  /var/folders/20/cstyxln53wn53rr40gj353bh0000gn/T//ccP3ZOe1.s 			page 64

