ARM GAS  /var/folders/20/cstyxln53wn53rr40gj353bh0000gn/T//ccDiX01C.s 			page 1


   1              		.cpu cortex-m3
   2              		.eabi_attribute 20, 1
   3              		.eabi_attribute 21, 1
   4              		.eabi_attribute 23, 3
   5              		.eabi_attribute 24, 1
   6              		.eabi_attribute 25, 1
   7              		.eabi_attribute 26, 1
   8              		.eabi_attribute 30, 2
   9              		.eabi_attribute 34, 1
  10              		.eabi_attribute 18, 4
  11              		.file	"syscalls.c"
  12              		.text
  13              	.Ltext0:
  14              		.cfi_sections	.debug_frame
  15              		.section	.text.initialise_monitor_handles,"ax",%progbits
  16              		.align	1
  17              		.p2align 2,,3
  18              		.global	initialise_monitor_handles
  19              		.arch armv7-m
  20              		.syntax unified
  21              		.thumb
  22              		.thumb_func
  23              		.fpu softvfp
  25              	initialise_monitor_handles:
  26              	.LFB25:
  27              		.file 1 "Src/syscalls.c"
   1:Src/syscalls.c **** /**
   2:Src/syscalls.c **** *****************************************************************************
   3:Src/syscalls.c **** **
   4:Src/syscalls.c **** **  File        : syscalls.c
   5:Src/syscalls.c **** **
   6:Src/syscalls.c **** **  Abstract    : System Workbench Minimal System calls file
   7:Src/syscalls.c **** **
   8:Src/syscalls.c **** ** 		          For more information about which c-functions
   9:Src/syscalls.c **** **                need which of these lowlevel functions
  10:Src/syscalls.c **** **                please consult the Newlib libc-manual
  11:Src/syscalls.c **** **
  12:Src/syscalls.c **** **  Environment : System Workbench for MCU
  13:Src/syscalls.c **** **
  14:Src/syscalls.c **** **  Distribution: The file is distributed “as is,” without any warranty
  15:Src/syscalls.c **** **                of any kind.
  16:Src/syscalls.c **** **
  17:Src/syscalls.c **** *****************************************************************************
  18:Src/syscalls.c **** **
  19:Src/syscalls.c **** ** <h2><center>&copy; COPYRIGHT(c) 2014 Ac6</center></h2>
  20:Src/syscalls.c **** **
  21:Src/syscalls.c **** ** Redistribution and use in source and binary forms, with or without modification,
  22:Src/syscalls.c **** ** are permitted provided that the following conditions are met:
  23:Src/syscalls.c **** **   1. Redistributions of source code must retain the above copyright notice,
  24:Src/syscalls.c **** **      this list of conditions and the following disclaimer.
  25:Src/syscalls.c **** **   2. Redistributions in binary form must reproduce the above copyright notice,
  26:Src/syscalls.c **** **      this list of conditions and the following disclaimer in the documentation
  27:Src/syscalls.c **** **      and/or other materials provided with the distribution.
  28:Src/syscalls.c **** **   3. Neither the name of Ac6 nor the names of its contributors
  29:Src/syscalls.c **** **      may be used to endorse or promote products derived from this software
  30:Src/syscalls.c **** **      without specific prior written permission.
  31:Src/syscalls.c **** **
ARM GAS  /var/folders/20/cstyxln53wn53rr40gj353bh0000gn/T//ccDiX01C.s 			page 2


  32:Src/syscalls.c **** ** THIS SOFTWARE IS PROVIDED BY THE COPYRIGHT HOLDERS AND CONTRIBUTORS "AS IS"
  33:Src/syscalls.c **** ** AND ANY EXPRESS OR IMPLIED WARRANTIES, INCLUDING, BUT NOT LIMITED TO, THE
  34:Src/syscalls.c **** ** IMPLIED WARRANTIES OF MERCHANTABILITY AND FITNESS FOR A PARTICULAR PURPOSE ARE
  35:Src/syscalls.c **** ** DISCLAIMED. IN NO EVENT SHALL THE COPYRIGHT HOLDER OR CONTRIBUTORS BE LIABLE
  36:Src/syscalls.c **** ** FOR ANY DIRECT, INDIRECT, INCIDENTAL, SPECIAL, EXEMPLARY, OR CONSEQUENTIAL
  37:Src/syscalls.c **** ** DAMAGES (INCLUDING, BUT NOT LIMITED TO, PROCUREMENT OF SUBSTITUTE GOODS OR
  38:Src/syscalls.c **** ** SERVICES; LOSS OF USE, DATA, OR PROFITS; OR BUSINESS INTERRUPTION) HOWEVER
  39:Src/syscalls.c **** ** CAUSED AND ON ANY THEORY OF LIABILITY, WHETHER IN CONTRACT, STRICT LIABILITY,
  40:Src/syscalls.c **** ** OR TORT (INCLUDING NEGLIGENCE OR OTHERWISE) ARISING IN ANY WAY OUT OF THE USE
  41:Src/syscalls.c **** ** OF THIS SOFTWARE, EVEN IF ADVISED OF THE POSSIBILITY OF SUCH DAMAGE.
  42:Src/syscalls.c **** **
  43:Src/syscalls.c **** *****************************************************************************
  44:Src/syscalls.c **** */
  45:Src/syscalls.c **** 
  46:Src/syscalls.c **** /* Includes */
  47:Src/syscalls.c **** #include <sys/stat.h>
  48:Src/syscalls.c **** #include <stdlib.h>
  49:Src/syscalls.c **** #include <errno.h>
  50:Src/syscalls.c **** #include <stdio.h>
  51:Src/syscalls.c **** #include <signal.h>
  52:Src/syscalls.c **** #include <time.h>
  53:Src/syscalls.c **** #include <sys/time.h>
  54:Src/syscalls.c **** #include <sys/times.h>
  55:Src/syscalls.c **** 
  56:Src/syscalls.c **** 
  57:Src/syscalls.c **** /* Variables */
  58:Src/syscalls.c **** //#undef errno
  59:Src/syscalls.c **** extern int errno;
  60:Src/syscalls.c **** extern int __io_putchar(int ch) __attribute__((weak));
  61:Src/syscalls.c **** extern int __io_getchar(void) __attribute__((weak));
  62:Src/syscalls.c **** 
  63:Src/syscalls.c **** register char * stack_ptr asm("sp");
  64:Src/syscalls.c **** 
  65:Src/syscalls.c **** char *__env[1] = { 0 };
  66:Src/syscalls.c **** char **environ = __env;
  67:Src/syscalls.c **** 
  68:Src/syscalls.c **** 
  69:Src/syscalls.c **** /* Functions */
  70:Src/syscalls.c **** void initialise_monitor_handles()
  71:Src/syscalls.c **** {
  28              		.loc 1 71 1 view -0
  29              		.cfi_startproc
  30              		@ args = 0, pretend = 0, frame = 0
  31              		@ frame_needed = 0, uses_anonymous_args = 0
  32              		@ link register save eliminated.
  72:Src/syscalls.c **** }
  33              		.loc 1 72 1 view .LVU1
  34 0000 7047     		bx	lr
  35              		.cfi_endproc
  36              	.LFE25:
  38 0002 00BF     		.section	.text._getpid,"ax",%progbits
  39              		.align	1
  40              		.p2align 2,,3
  41              		.global	_getpid
  42              		.syntax unified
  43              		.thumb
  44              		.thumb_func
ARM GAS  /var/folders/20/cstyxln53wn53rr40gj353bh0000gn/T//ccDiX01C.s 			page 3


  45              		.fpu softvfp
  47              	_getpid:
  48              	.LFB26:
  73:Src/syscalls.c **** 
  74:Src/syscalls.c **** int _getpid(void)
  75:Src/syscalls.c **** {
  49              		.loc 1 75 1 view -0
  50              		.cfi_startproc
  51              		@ args = 0, pretend = 0, frame = 0
  52              		@ frame_needed = 0, uses_anonymous_args = 0
  53              		@ link register save eliminated.
  76:Src/syscalls.c **** 	return 1;
  54              		.loc 1 76 2 view .LVU3
  77:Src/syscalls.c **** }
  55              		.loc 1 77 1 is_stmt 0 view .LVU4
  56 0000 0120     		movs	r0, #1
  57 0002 7047     		bx	lr
  58              		.cfi_endproc
  59              	.LFE26:
  61              		.section	.text._kill,"ax",%progbits
  62              		.align	1
  63              		.p2align 2,,3
  64              		.global	_kill
  65              		.syntax unified
  66              		.thumb
  67              		.thumb_func
  68              		.fpu softvfp
  70              	_kill:
  71              	.LVL0:
  72              	.LFB27:
  78:Src/syscalls.c **** 
  79:Src/syscalls.c **** int _kill(int pid, int sig)
  80:Src/syscalls.c **** {
  73              		.loc 1 80 1 is_stmt 1 view -0
  74              		.cfi_startproc
  75              		@ args = 0, pretend = 0, frame = 0
  76              		@ frame_needed = 0, uses_anonymous_args = 0
  81:Src/syscalls.c **** 	errno = EINVAL;
  77              		.loc 1 81 2 view .LVU6
  80:Src/syscalls.c **** 	errno = EINVAL;
  78              		.loc 1 80 1 is_stmt 0 view .LVU7
  79 0000 08B5     		push	{r3, lr}
  80              	.LCFI0:
  81              		.cfi_def_cfa_offset 8
  82              		.cfi_offset 3, -8
  83              		.cfi_offset 14, -4
  84              		.loc 1 81 2 view .LVU8
  85 0002 FFF7FEFF 		bl	__errno
  86              	.LVL1:
  87              		.loc 1 81 8 view .LVU9
  88 0006 1623     		movs	r3, #22
  89 0008 0360     		str	r3, [r0]
  82:Src/syscalls.c **** 	return -1;
  90              		.loc 1 82 2 is_stmt 1 view .LVU10
  83:Src/syscalls.c **** }
  91              		.loc 1 83 1 is_stmt 0 view .LVU11
  92 000a 4FF0FF30 		mov	r0, #-1
ARM GAS  /var/folders/20/cstyxln53wn53rr40gj353bh0000gn/T//ccDiX01C.s 			page 4


  93 000e 08BD     		pop	{r3, pc}
  94              		.cfi_endproc
  95              	.LFE27:
  97              		.section	.text._exit,"ax",%progbits
  98              		.align	1
  99              		.p2align 2,,3
 100              		.global	_exit
 101              		.syntax unified
 102              		.thumb
 103              		.thumb_func
 104              		.fpu softvfp
 106              	_exit:
 107              	.LVL2:
 108              	.LFB28:
  84:Src/syscalls.c **** 
  85:Src/syscalls.c **** void _exit (int status)
  86:Src/syscalls.c **** {
 109              		.loc 1 86 1 is_stmt 1 view -0
 110              		.cfi_startproc
 111              		@ Volatile: function does not return.
 112              		@ args = 0, pretend = 0, frame = 0
 113              		@ frame_needed = 0, uses_anonymous_args = 0
  87:Src/syscalls.c **** 	_kill(status, -1);
 114              		.loc 1 87 2 view .LVU13
 115              	.LBB4:
 116              	.LBI4:
  79:Src/syscalls.c **** {
 117              		.loc 1 79 5 view .LVU14
 118              	.LBB5:
  81:Src/syscalls.c **** 	return -1;
 119              		.loc 1 81 2 view .LVU15
 120              	.LBE5:
 121              	.LBE4:
  86:Src/syscalls.c **** 	_kill(status, -1);
 122              		.loc 1 86 1 is_stmt 0 view .LVU16
 123 0000 08B5     		push	{r3, lr}
 124              	.LCFI1:
 125              		.cfi_def_cfa_offset 8
 126              		.cfi_offset 3, -8
 127              		.cfi_offset 14, -4
 128              	.LBB7:
 129              	.LBB6:
  81:Src/syscalls.c **** 	return -1;
 130              		.loc 1 81 2 view .LVU17
 131 0002 FFF7FEFF 		bl	__errno
 132              	.LVL3:
  81:Src/syscalls.c **** 	return -1;
 133              		.loc 1 81 8 view .LVU18
 134 0006 1623     		movs	r3, #22
 135 0008 0360     		str	r3, [r0]
  82:Src/syscalls.c **** }
 136              		.loc 1 82 2 is_stmt 1 view .LVU19
 137              	.L7:
 138              	.LBE6:
 139              	.LBE7:
  88:Src/syscalls.c **** 	while (1) {}		/* Make sure we hang here */
 140              		.loc 1 88 2 discriminator 1 view .LVU20
ARM GAS  /var/folders/20/cstyxln53wn53rr40gj353bh0000gn/T//ccDiX01C.s 			page 5


 141              		.loc 1 88 13 discriminator 1 view .LVU21
 142              		.loc 1 88 2 discriminator 1 view .LVU22
 143              		.loc 1 88 13 discriminator 1 view .LVU23
 144 000a FEE7     		b	.L7
 145              		.cfi_endproc
 146              	.LFE28:
 148              		.section	.text._read,"ax",%progbits
 149              		.align	1
 150              		.p2align 2,,3
 151              		.weak	_read
 152              		.syntax unified
 153              		.thumb
 154              		.thumb_func
 155              		.fpu softvfp
 157              	_read:
 158              	.LVL4:
 159              	.LFB29:
  89:Src/syscalls.c **** }
  90:Src/syscalls.c **** 
  91:Src/syscalls.c **** __attribute__((weak)) int _read(int file, char *ptr, int len)
  92:Src/syscalls.c **** {
 160              		.loc 1 92 1 view -0
 161              		.cfi_startproc
 162              		@ args = 0, pretend = 0, frame = 0
 163              		@ frame_needed = 0, uses_anonymous_args = 0
  93:Src/syscalls.c **** 	int DataIdx;
 164              		.loc 1 93 2 view .LVU25
  94:Src/syscalls.c **** 
  95:Src/syscalls.c **** 	for (DataIdx = 0; DataIdx < len; DataIdx++)
 165              		.loc 1 95 2 view .LVU26
  92:Src/syscalls.c **** 	int DataIdx;
 166              		.loc 1 92 1 is_stmt 0 view .LVU27
 167 0000 70B5     		push	{r4, r5, r6, lr}
 168              	.LCFI2:
 169              		.cfi_def_cfa_offset 16
 170              		.cfi_offset 4, -16
 171              		.cfi_offset 5, -12
 172              		.cfi_offset 6, -8
 173              		.cfi_offset 14, -4
 174              		.loc 1 95 2 view .LVU28
 175 0002 161E     		subs	r6, r2, #0
 176 0004 07DD     		ble	.L10
 177 0006 0C46     		mov	r4, r1
 178 0008 8D19     		adds	r5, r1, r6
 179              	.LVL5:
 180              	.L11:
  96:Src/syscalls.c **** 	{
  97:Src/syscalls.c **** 		*ptr++ = __io_getchar();
 181              		.loc 1 97 3 is_stmt 1 discriminator 3 view .LVU29
 182              		.loc 1 97 12 is_stmt 0 discriminator 3 view .LVU30
 183 000a FFF7FEFF 		bl	__io_getchar
 184              	.LVL6:
 185              		.loc 1 97 10 discriminator 3 view .LVU31
 186 000e 04F8010B 		strb	r0, [r4], #1
 187              	.LVL7:
  95:Src/syscalls.c **** 	{
 188              		.loc 1 95 2 discriminator 3 view .LVU32
ARM GAS  /var/folders/20/cstyxln53wn53rr40gj353bh0000gn/T//ccDiX01C.s 			page 6


 189 0012 A542     		cmp	r5, r4
 190 0014 F9D1     		bne	.L11
 191              	.LVL8:
 192              	.L10:
  98:Src/syscalls.c **** 	}
  99:Src/syscalls.c **** 
 100:Src/syscalls.c **** return len;
 193              		.loc 1 100 1 is_stmt 1 view .LVU33
 101:Src/syscalls.c **** }
 194              		.loc 1 101 1 is_stmt 0 view .LVU34
 195 0016 3046     		mov	r0, r6
 196 0018 70BD     		pop	{r4, r5, r6, pc}
 197              		.loc 1 101 1 view .LVU35
 198              		.cfi_endproc
 199              	.LFE29:
 201 001a 00BF     		.section	.text._write,"ax",%progbits
 202              		.align	1
 203              		.p2align 2,,3
 204              		.weak	_write
 205              		.syntax unified
 206              		.thumb
 207              		.thumb_func
 208              		.fpu softvfp
 210              	_write:
 211              	.LVL9:
 212              	.LFB30:
 102:Src/syscalls.c **** 
 103:Src/syscalls.c **** __attribute__((weak)) int _write(int file, char *ptr, int len)
 104:Src/syscalls.c **** {
 213              		.loc 1 104 1 is_stmt 1 view -0
 214              		.cfi_startproc
 215              		@ args = 0, pretend = 0, frame = 0
 216              		@ frame_needed = 0, uses_anonymous_args = 0
 105:Src/syscalls.c **** 	int DataIdx;
 217              		.loc 1 105 2 view .LVU37
 106:Src/syscalls.c **** 
 107:Src/syscalls.c **** 	for (DataIdx = 0; DataIdx < len; DataIdx++)
 218              		.loc 1 107 2 view .LVU38
 104:Src/syscalls.c **** 	int DataIdx;
 219              		.loc 1 104 1 is_stmt 0 view .LVU39
 220 0000 70B5     		push	{r4, r5, r6, lr}
 221              	.LCFI3:
 222              		.cfi_def_cfa_offset 16
 223              		.cfi_offset 4, -16
 224              		.cfi_offset 5, -12
 225              		.cfi_offset 6, -8
 226              		.cfi_offset 14, -4
 227              		.loc 1 107 2 view .LVU40
 228 0002 161E     		subs	r6, r2, #0
 229 0004 07DD     		ble	.L15
 230 0006 0C46     		mov	r4, r1
 231 0008 8D19     		adds	r5, r1, r6
 232              	.LVL10:
 233              	.L16:
 108:Src/syscalls.c **** 	{
 109:Src/syscalls.c **** 		__io_putchar(*ptr++);
 234              		.loc 1 109 3 is_stmt 1 discriminator 3 view .LVU41
ARM GAS  /var/folders/20/cstyxln53wn53rr40gj353bh0000gn/T//ccDiX01C.s 			page 7


 235              		.loc 1 109 3 is_stmt 0 discriminator 3 view .LVU42
 236 000a 14F8010B 		ldrb	r0, [r4], #1	@ zero_extendqisi2
 237              	.LVL11:
 238              		.loc 1 109 3 discriminator 3 view .LVU43
 239 000e FFF7FEFF 		bl	__io_putchar
 240              	.LVL12:
 107:Src/syscalls.c **** 	{
 241              		.loc 1 107 2 discriminator 3 view .LVU44
 242 0012 AC42     		cmp	r4, r5
 243 0014 F9D1     		bne	.L16
 244              	.LVL13:
 245              	.L15:
 110:Src/syscalls.c **** 	}
 111:Src/syscalls.c **** 	return len;
 246              		.loc 1 111 2 is_stmt 1 view .LVU45
 112:Src/syscalls.c **** }
 247              		.loc 1 112 1 is_stmt 0 view .LVU46
 248 0016 3046     		mov	r0, r6
 249 0018 70BD     		pop	{r4, r5, r6, pc}
 250              		.loc 1 112 1 view .LVU47
 251              		.cfi_endproc
 252              	.LFE30:
 254 001a 00BF     		.section	.text._sbrk,"ax",%progbits
 255              		.align	1
 256              		.p2align 2,,3
 257              		.global	_sbrk
 258              		.syntax unified
 259              		.thumb
 260              		.thumb_func
 261              		.fpu softvfp
 263              	_sbrk:
 264              	.LVL14:
 265              	.LFB31:
 113:Src/syscalls.c **** 
 114:Src/syscalls.c **** caddr_t _sbrk(int incr)
 115:Src/syscalls.c **** {
 266              		.loc 1 115 1 is_stmt 1 view -0
 267              		.cfi_startproc
 268              		@ args = 0, pretend = 0, frame = 0
 269              		@ frame_needed = 0, uses_anonymous_args = 0
 116:Src/syscalls.c **** 	extern char end asm("end");
 270              		.loc 1 116 2 view .LVU49
 117:Src/syscalls.c **** 	static char *heap_end;
 271              		.loc 1 117 2 view .LVU50
 118:Src/syscalls.c **** 	char *prev_heap_end;
 272              		.loc 1 118 2 view .LVU51
 119:Src/syscalls.c **** 
 120:Src/syscalls.c **** 	if (heap_end == 0)
 273              		.loc 1 120 2 view .LVU52
 274              		.loc 1 120 15 is_stmt 0 view .LVU53
 275 0000 0C4A     		ldr	r2, .L26
 115:Src/syscalls.c **** 	extern char end asm("end");
 276              		.loc 1 115 1 view .LVU54
 277 0002 08B5     		push	{r3, lr}
 278              	.LCFI4:
 279              		.cfi_def_cfa_offset 8
 280              		.cfi_offset 3, -8
ARM GAS  /var/folders/20/cstyxln53wn53rr40gj353bh0000gn/T//ccDiX01C.s 			page 8


 281              		.cfi_offset 14, -4
 282              		.loc 1 120 15 view .LVU55
 283 0004 1368     		ldr	r3, [r2]
 284              		.loc 1 120 5 view .LVU56
 285 0006 33B1     		cbz	r3, .L24
 121:Src/syscalls.c **** 		heap_end = &end;
 122:Src/syscalls.c **** 
 123:Src/syscalls.c **** 	prev_heap_end = heap_end;
 286              		.loc 1 123 2 is_stmt 1 view .LVU57
 287              	.LVL15:
 124:Src/syscalls.c **** 	if (heap_end + incr > stack_ptr)
 288              		.loc 1 124 2 view .LVU58
 289              		.loc 1 124 5 is_stmt 0 view .LVU59
 290 0008 6946     		mov	r1, sp
 291              		.loc 1 124 15 view .LVU60
 292 000a 1844     		add	r0, r0, r3
 293              	.LVL16:
 294              		.loc 1 124 5 view .LVU61
 295 000c 8842     		cmp	r0, r1
 296 000e 09D8     		bhi	.L25
 297              	.LVL17:
 298              	.L21:
 125:Src/syscalls.c **** 	{
 126:Src/syscalls.c **** //		write(1, "Heap and stack collision\n", 25);
 127:Src/syscalls.c **** //		abort();
 128:Src/syscalls.c **** 		errno = ENOMEM;
 129:Src/syscalls.c **** 		return (caddr_t) -1;
 130:Src/syscalls.c **** 	}
 131:Src/syscalls.c **** 
 132:Src/syscalls.c **** 	heap_end += incr;
 299              		.loc 1 132 2 is_stmt 1 view .LVU62
 300              		.loc 1 132 11 is_stmt 0 view .LVU63
 301 0010 1060     		str	r0, [r2]
 302              	.LVL18:
 133:Src/syscalls.c **** 
 134:Src/syscalls.c **** 	return (caddr_t) prev_heap_end;
 303              		.loc 1 134 2 is_stmt 1 view .LVU64
 135:Src/syscalls.c **** }
 304              		.loc 1 135 1 is_stmt 0 view .LVU65
 305 0012 1846     		mov	r0, r3
 306 0014 08BD     		pop	{r3, pc}
 307              	.LVL19:
 308              	.L24:
 121:Src/syscalls.c **** 
 309              		.loc 1 121 3 is_stmt 1 view .LVU66
 121:Src/syscalls.c **** 
 310              		.loc 1 121 12 is_stmt 0 view .LVU67
 311 0016 0849     		ldr	r1, .L26+4
 312 0018 0B46     		mov	r3, r1
 313 001a 1160     		str	r1, [r2]
 123:Src/syscalls.c **** 	if (heap_end + incr > stack_ptr)
 314              		.loc 1 123 2 is_stmt 1 view .LVU68
 315              	.LVL20:
 124:Src/syscalls.c **** 	{
 316              		.loc 1 124 2 view .LVU69
 124:Src/syscalls.c **** 	{
 317              		.loc 1 124 5 is_stmt 0 view .LVU70
ARM GAS  /var/folders/20/cstyxln53wn53rr40gj353bh0000gn/T//ccDiX01C.s 			page 9


 318 001c 6946     		mov	r1, sp
 124:Src/syscalls.c **** 	{
 319              		.loc 1 124 15 view .LVU71
 320 001e 1844     		add	r0, r0, r3
 321              	.LVL21:
 124:Src/syscalls.c **** 	{
 322              		.loc 1 124 5 view .LVU72
 323 0020 8842     		cmp	r0, r1
 324 0022 F5D9     		bls	.L21
 325              	.L25:
 128:Src/syscalls.c **** 		return (caddr_t) -1;
 326              		.loc 1 128 3 is_stmt 1 view .LVU73
 327 0024 FFF7FEFF 		bl	__errno
 328              	.LVL22:
 128:Src/syscalls.c **** 		return (caddr_t) -1;
 329              		.loc 1 128 9 is_stmt 0 view .LVU74
 330 0028 0C22     		movs	r2, #12
 129:Src/syscalls.c **** 	}
 331              		.loc 1 129 10 view .LVU75
 332 002a 4FF0FF33 		mov	r3, #-1
 128:Src/syscalls.c **** 		return (caddr_t) -1;
 333              		.loc 1 128 9 view .LVU76
 334 002e 0260     		str	r2, [r0]
 129:Src/syscalls.c **** 	}
 335              		.loc 1 129 3 is_stmt 1 view .LVU77
 336              		.loc 1 135 1 is_stmt 0 view .LVU78
 337 0030 1846     		mov	r0, r3
 338 0032 08BD     		pop	{r3, pc}
 339              	.L27:
 340              		.align	2
 341              	.L26:
 342 0034 00000000 		.word	.LANCHOR0
 343 0038 00000000 		.word	end
 344              		.cfi_endproc
 345              	.LFE31:
 347              		.section	.text._close,"ax",%progbits
 348              		.align	1
 349              		.p2align 2,,3
 350              		.global	_close
 351              		.syntax unified
 352              		.thumb
 353              		.thumb_func
 354              		.fpu softvfp
 356              	_close:
 357              	.LVL23:
 358              	.LFB32:
 136:Src/syscalls.c **** 
 137:Src/syscalls.c **** int _close(int file)
 138:Src/syscalls.c **** {
 359              		.loc 1 138 1 is_stmt 1 view -0
 360              		.cfi_startproc
 361              		@ args = 0, pretend = 0, frame = 0
 362              		@ frame_needed = 0, uses_anonymous_args = 0
 363              		@ link register save eliminated.
 139:Src/syscalls.c **** 	return -1;
 364              		.loc 1 139 2 view .LVU80
 140:Src/syscalls.c **** }
ARM GAS  /var/folders/20/cstyxln53wn53rr40gj353bh0000gn/T//ccDiX01C.s 			page 10


 365              		.loc 1 140 1 is_stmt 0 view .LVU81
 366 0000 4FF0FF30 		mov	r0, #-1
 367              	.LVL24:
 368              		.loc 1 140 1 view .LVU82
 369 0004 7047     		bx	lr
 370              		.cfi_endproc
 371              	.LFE32:
 373 0006 00BF     		.section	.text._fstat,"ax",%progbits
 374              		.align	1
 375              		.p2align 2,,3
 376              		.global	_fstat
 377              		.syntax unified
 378              		.thumb
 379              		.thumb_func
 380              		.fpu softvfp
 382              	_fstat:
 383              	.LVL25:
 384              	.LFB33:
 141:Src/syscalls.c **** 
 142:Src/syscalls.c **** 
 143:Src/syscalls.c **** int _fstat(int file, struct stat *st)
 144:Src/syscalls.c **** {
 385              		.loc 1 144 1 is_stmt 1 view -0
 386              		.cfi_startproc
 387              		@ args = 0, pretend = 0, frame = 0
 388              		@ frame_needed = 0, uses_anonymous_args = 0
 389              		@ link register save eliminated.
 145:Src/syscalls.c **** 	st->st_mode = S_IFCHR;
 390              		.loc 1 145 2 view .LVU84
 391              		.loc 1 145 14 is_stmt 0 view .LVU85
 392 0000 4FF40053 		mov	r3, #8192
 146:Src/syscalls.c **** 	return 0;
 147:Src/syscalls.c **** }
 393              		.loc 1 147 1 view .LVU86
 394 0004 0020     		movs	r0, #0
 395              	.LVL26:
 145:Src/syscalls.c **** 	st->st_mode = S_IFCHR;
 396              		.loc 1 145 14 view .LVU87
 397 0006 4B60     		str	r3, [r1, #4]
 146:Src/syscalls.c **** 	return 0;
 398              		.loc 1 146 2 is_stmt 1 view .LVU88
 399              		.loc 1 147 1 is_stmt 0 view .LVU89
 400 0008 7047     		bx	lr
 401              		.cfi_endproc
 402              	.LFE33:
 404 000a 00BF     		.section	.text._isatty,"ax",%progbits
 405              		.align	1
 406              		.p2align 2,,3
 407              		.global	_isatty
 408              		.syntax unified
 409              		.thumb
 410              		.thumb_func
 411              		.fpu softvfp
 413              	_isatty:
 414              	.LVL27:
 415              	.LFB34:
 148:Src/syscalls.c **** 
ARM GAS  /var/folders/20/cstyxln53wn53rr40gj353bh0000gn/T//ccDiX01C.s 			page 11


 149:Src/syscalls.c **** int _isatty(int file)
 150:Src/syscalls.c **** {
 416              		.loc 1 150 1 is_stmt 1 view -0
 417              		.cfi_startproc
 418              		@ args = 0, pretend = 0, frame = 0
 419              		@ frame_needed = 0, uses_anonymous_args = 0
 420              		@ link register save eliminated.
 151:Src/syscalls.c **** 	return 1;
 421              		.loc 1 151 2 view .LVU91
 152:Src/syscalls.c **** }
 422              		.loc 1 152 1 is_stmt 0 view .LVU92
 423 0000 0120     		movs	r0, #1
 424              	.LVL28:
 425              		.loc 1 152 1 view .LVU93
 426 0002 7047     		bx	lr
 427              		.cfi_endproc
 428              	.LFE34:
 430              		.section	.text._lseek,"ax",%progbits
 431              		.align	1
 432              		.p2align 2,,3
 433              		.global	_lseek
 434              		.syntax unified
 435              		.thumb
 436              		.thumb_func
 437              		.fpu softvfp
 439              	_lseek:
 440              	.LVL29:
 441              	.LFB35:
 153:Src/syscalls.c **** 
 154:Src/syscalls.c **** int _lseek(int file, int ptr, int dir)
 155:Src/syscalls.c **** {
 442              		.loc 1 155 1 is_stmt 1 view -0
 443              		.cfi_startproc
 444              		@ args = 0, pretend = 0, frame = 0
 445              		@ frame_needed = 0, uses_anonymous_args = 0
 446              		@ link register save eliminated.
 156:Src/syscalls.c **** 	return 0;
 447              		.loc 1 156 2 view .LVU95
 157:Src/syscalls.c **** }
 448              		.loc 1 157 1 is_stmt 0 view .LVU96
 449 0000 0020     		movs	r0, #0
 450              	.LVL30:
 451              		.loc 1 157 1 view .LVU97
 452 0002 7047     		bx	lr
 453              		.cfi_endproc
 454              	.LFE35:
 456              		.section	.text._open,"ax",%progbits
 457              		.align	1
 458              		.p2align 2,,3
 459              		.global	_open
 460              		.syntax unified
 461              		.thumb
 462              		.thumb_func
 463              		.fpu softvfp
 465              	_open:
 466              	.LVL31:
 467              	.LFB36:
ARM GAS  /var/folders/20/cstyxln53wn53rr40gj353bh0000gn/T//ccDiX01C.s 			page 12


 158:Src/syscalls.c **** 
 159:Src/syscalls.c **** int _open(char *path, int flags, ...)
 160:Src/syscalls.c **** {
 468              		.loc 1 160 1 is_stmt 1 view -0
 469              		.cfi_startproc
 470              		@ args = 4, pretend = 12, frame = 0
 471              		@ frame_needed = 0, uses_anonymous_args = 1
 472              		@ link register save eliminated.
 161:Src/syscalls.c **** 	/* Pretend like we always fail */
 162:Src/syscalls.c **** 	return -1;
 473              		.loc 1 162 2 view .LVU99
 160:Src/syscalls.c **** 	/* Pretend like we always fail */
 474              		.loc 1 160 1 is_stmt 0 view .LVU100
 475 0000 0EB4     		push	{r1, r2, r3}
 476              	.LCFI5:
 477              		.cfi_def_cfa_offset 12
 478              		.cfi_offset 1, -12
 479              		.cfi_offset 2, -8
 480              		.cfi_offset 3, -4
 163:Src/syscalls.c **** }
 481              		.loc 1 163 1 view .LVU101
 482 0002 4FF0FF30 		mov	r0, #-1
 483              	.LVL32:
 484              		.loc 1 163 1 view .LVU102
 485 0006 03B0     		add	sp, sp, #12
 486              	.LCFI6:
 487              		.cfi_restore 3
 488              		.cfi_restore 2
 489              		.cfi_restore 1
 490              		.cfi_def_cfa_offset 0
 491 0008 7047     		bx	lr
 492              		.cfi_endproc
 493              	.LFE36:
 495              		.section	.text._wait,"ax",%progbits
 496              		.align	1
 497              		.p2align 2,,3
 498              		.global	_wait
 499              		.syntax unified
 500              		.thumb
 501              		.thumb_func
 502              		.fpu softvfp
 504              	_wait:
 505              	.LVL33:
 506              	.LFB37:
 164:Src/syscalls.c **** 
 165:Src/syscalls.c **** int _wait(int *status)
 166:Src/syscalls.c **** {
 507              		.loc 1 166 1 is_stmt 1 view -0
 508              		.cfi_startproc
 509              		@ args = 0, pretend = 0, frame = 0
 510              		@ frame_needed = 0, uses_anonymous_args = 0
 167:Src/syscalls.c **** 	errno = ECHILD;
 511              		.loc 1 167 2 view .LVU104
 166:Src/syscalls.c **** 	errno = ECHILD;
 512              		.loc 1 166 1 is_stmt 0 view .LVU105
 513 0000 08B5     		push	{r3, lr}
 514              	.LCFI7:
ARM GAS  /var/folders/20/cstyxln53wn53rr40gj353bh0000gn/T//ccDiX01C.s 			page 13


 515              		.cfi_def_cfa_offset 8
 516              		.cfi_offset 3, -8
 517              		.cfi_offset 14, -4
 518              		.loc 1 167 2 view .LVU106
 519 0002 FFF7FEFF 		bl	__errno
 520              	.LVL34:
 521              		.loc 1 167 8 view .LVU107
 522 0006 0A23     		movs	r3, #10
 523 0008 0360     		str	r3, [r0]
 168:Src/syscalls.c **** 	return -1;
 524              		.loc 1 168 2 is_stmt 1 view .LVU108
 169:Src/syscalls.c **** }
 525              		.loc 1 169 1 is_stmt 0 view .LVU109
 526 000a 4FF0FF30 		mov	r0, #-1
 527 000e 08BD     		pop	{r3, pc}
 528              		.cfi_endproc
 529              	.LFE37:
 531              		.section	.text._unlink,"ax",%progbits
 532              		.align	1
 533              		.p2align 2,,3
 534              		.global	_unlink
 535              		.syntax unified
 536              		.thumb
 537              		.thumb_func
 538              		.fpu softvfp
 540              	_unlink:
 541              	.LVL35:
 542              	.LFB38:
 170:Src/syscalls.c **** 
 171:Src/syscalls.c **** int _unlink(char *name)
 172:Src/syscalls.c **** {
 543              		.loc 1 172 1 is_stmt 1 view -0
 544              		.cfi_startproc
 545              		@ args = 0, pretend = 0, frame = 0
 546              		@ frame_needed = 0, uses_anonymous_args = 0
 173:Src/syscalls.c **** 	errno = ENOENT;
 547              		.loc 1 173 2 view .LVU111
 172:Src/syscalls.c **** 	errno = ENOENT;
 548              		.loc 1 172 1 is_stmt 0 view .LVU112
 549 0000 08B5     		push	{r3, lr}
 550              	.LCFI8:
 551              		.cfi_def_cfa_offset 8
 552              		.cfi_offset 3, -8
 553              		.cfi_offset 14, -4
 554              		.loc 1 173 2 view .LVU113
 555 0002 FFF7FEFF 		bl	__errno
 556              	.LVL36:
 557              		.loc 1 173 8 view .LVU114
 558 0006 0223     		movs	r3, #2
 559 0008 0360     		str	r3, [r0]
 174:Src/syscalls.c **** 	return -1;
 560              		.loc 1 174 2 is_stmt 1 view .LVU115
 175:Src/syscalls.c **** }
 561              		.loc 1 175 1 is_stmt 0 view .LVU116
 562 000a 4FF0FF30 		mov	r0, #-1
 563 000e 08BD     		pop	{r3, pc}
 564              		.cfi_endproc
ARM GAS  /var/folders/20/cstyxln53wn53rr40gj353bh0000gn/T//ccDiX01C.s 			page 14


 565              	.LFE38:
 567              		.section	.text._times,"ax",%progbits
 568              		.align	1
 569              		.p2align 2,,3
 570              		.global	_times
 571              		.syntax unified
 572              		.thumb
 573              		.thumb_func
 574              		.fpu softvfp
 576              	_times:
 577              	.LVL37:
 578              	.LFB39:
 176:Src/syscalls.c **** 
 177:Src/syscalls.c **** int _times(struct tms *buf)
 178:Src/syscalls.c **** {
 579              		.loc 1 178 1 is_stmt 1 view -0
 580              		.cfi_startproc
 581              		@ args = 0, pretend = 0, frame = 0
 582              		@ frame_needed = 0, uses_anonymous_args = 0
 583              		@ link register save eliminated.
 179:Src/syscalls.c **** 	return -1;
 584              		.loc 1 179 2 view .LVU118
 180:Src/syscalls.c **** }
 585              		.loc 1 180 1 is_stmt 0 view .LVU119
 586 0000 4FF0FF30 		mov	r0, #-1
 587              	.LVL38:
 588              		.loc 1 180 1 view .LVU120
 589 0004 7047     		bx	lr
 590              		.cfi_endproc
 591              	.LFE39:
 593 0006 00BF     		.section	.text._stat,"ax",%progbits
 594              		.align	1
 595              		.p2align 2,,3
 596              		.global	_stat
 597              		.syntax unified
 598              		.thumb
 599              		.thumb_func
 600              		.fpu softvfp
 602              	_stat:
 603              	.LVL39:
 604              	.LFB40:
 181:Src/syscalls.c **** 
 182:Src/syscalls.c **** int _stat(char *file, struct stat *st)
 183:Src/syscalls.c **** {
 605              		.loc 1 183 1 is_stmt 1 view -0
 606              		.cfi_startproc
 607              		@ args = 0, pretend = 0, frame = 0
 608              		@ frame_needed = 0, uses_anonymous_args = 0
 609              		@ link register save eliminated.
 184:Src/syscalls.c **** 	st->st_mode = S_IFCHR;
 610              		.loc 1 184 2 view .LVU122
 611              		.loc 1 184 14 is_stmt 0 view .LVU123
 612 0000 4FF40053 		mov	r3, #8192
 185:Src/syscalls.c **** 	return 0;
 186:Src/syscalls.c **** }
 613              		.loc 1 186 1 view .LVU124
 614 0004 0020     		movs	r0, #0
ARM GAS  /var/folders/20/cstyxln53wn53rr40gj353bh0000gn/T//ccDiX01C.s 			page 15


 615              	.LVL40:
 184:Src/syscalls.c **** 	st->st_mode = S_IFCHR;
 616              		.loc 1 184 14 view .LVU125
 617 0006 4B60     		str	r3, [r1, #4]
 185:Src/syscalls.c **** 	return 0;
 618              		.loc 1 185 2 is_stmt 1 view .LVU126
 619              		.loc 1 186 1 is_stmt 0 view .LVU127
 620 0008 7047     		bx	lr
 621              		.cfi_endproc
 622              	.LFE40:
 624 000a 00BF     		.section	.text._link,"ax",%progbits
 625              		.align	1
 626              		.p2align 2,,3
 627              		.global	_link
 628              		.syntax unified
 629              		.thumb
 630              		.thumb_func
 631              		.fpu softvfp
 633              	_link:
 634              	.LVL41:
 635              	.LFB41:
 187:Src/syscalls.c **** 
 188:Src/syscalls.c **** int _link(char *old, char *new)
 189:Src/syscalls.c **** {
 636              		.loc 1 189 1 is_stmt 1 view -0
 637              		.cfi_startproc
 638              		@ args = 0, pretend = 0, frame = 0
 639              		@ frame_needed = 0, uses_anonymous_args = 0
 190:Src/syscalls.c **** 	errno = EMLINK;
 640              		.loc 1 190 2 view .LVU129
 189:Src/syscalls.c **** 	errno = EMLINK;
 641              		.loc 1 189 1 is_stmt 0 view .LVU130
 642 0000 08B5     		push	{r3, lr}
 643              	.LCFI9:
 644              		.cfi_def_cfa_offset 8
 645              		.cfi_offset 3, -8
 646              		.cfi_offset 14, -4
 647              		.loc 1 190 2 view .LVU131
 648 0002 FFF7FEFF 		bl	__errno
 649              	.LVL42:
 650              		.loc 1 190 8 view .LVU132
 651 0006 1F23     		movs	r3, #31
 652 0008 0360     		str	r3, [r0]
 191:Src/syscalls.c **** 	return -1;
 653              		.loc 1 191 2 is_stmt 1 view .LVU133
 192:Src/syscalls.c **** }
 654              		.loc 1 192 1 is_stmt 0 view .LVU134
 655 000a 4FF0FF30 		mov	r0, #-1
 656 000e 08BD     		pop	{r3, pc}
 657              		.cfi_endproc
 658              	.LFE41:
 660              		.section	.text._fork,"ax",%progbits
 661              		.align	1
 662              		.p2align 2,,3
 663              		.global	_fork
 664              		.syntax unified
 665              		.thumb
ARM GAS  /var/folders/20/cstyxln53wn53rr40gj353bh0000gn/T//ccDiX01C.s 			page 16


 666              		.thumb_func
 667              		.fpu softvfp
 669              	_fork:
 670              	.LFB42:
 193:Src/syscalls.c **** 
 194:Src/syscalls.c **** int _fork(void)
 195:Src/syscalls.c **** {
 671              		.loc 1 195 1 is_stmt 1 view -0
 672              		.cfi_startproc
 673              		@ args = 0, pretend = 0, frame = 0
 674              		@ frame_needed = 0, uses_anonymous_args = 0
 196:Src/syscalls.c **** 	errno = EAGAIN;
 675              		.loc 1 196 2 view .LVU136
 195:Src/syscalls.c **** 	errno = EAGAIN;
 676              		.loc 1 195 1 is_stmt 0 view .LVU137
 677 0000 08B5     		push	{r3, lr}
 678              	.LCFI10:
 679              		.cfi_def_cfa_offset 8
 680              		.cfi_offset 3, -8
 681              		.cfi_offset 14, -4
 682              		.loc 1 196 2 view .LVU138
 683 0002 FFF7FEFF 		bl	__errno
 684              	.LVL43:
 685              		.loc 1 196 8 view .LVU139
 686 0006 0B23     		movs	r3, #11
 687 0008 0360     		str	r3, [r0]
 197:Src/syscalls.c **** 	return -1;
 688              		.loc 1 197 2 is_stmt 1 view .LVU140
 198:Src/syscalls.c **** }
 689              		.loc 1 198 1 is_stmt 0 view .LVU141
 690 000a 4FF0FF30 		mov	r0, #-1
 691 000e 08BD     		pop	{r3, pc}
 692              		.cfi_endproc
 693              	.LFE42:
 695              		.section	.text._execve,"ax",%progbits
 696              		.align	1
 697              		.p2align 2,,3
 698              		.global	_execve
 699              		.syntax unified
 700              		.thumb
 701              		.thumb_func
 702              		.fpu softvfp
 704              	_execve:
 705              	.LVL44:
 706              	.LFB43:
 199:Src/syscalls.c **** 
 200:Src/syscalls.c **** int _execve(char *name, char **argv, char **env)
 201:Src/syscalls.c **** {
 707              		.loc 1 201 1 is_stmt 1 view -0
 708              		.cfi_startproc
 709              		@ args = 0, pretend = 0, frame = 0
 710              		@ frame_needed = 0, uses_anonymous_args = 0
 202:Src/syscalls.c **** 	errno = ENOMEM;
 711              		.loc 1 202 2 view .LVU143
 201:Src/syscalls.c **** 	errno = ENOMEM;
 712              		.loc 1 201 1 is_stmt 0 view .LVU144
 713 0000 08B5     		push	{r3, lr}
ARM GAS  /var/folders/20/cstyxln53wn53rr40gj353bh0000gn/T//ccDiX01C.s 			page 17


 714              	.LCFI11:
 715              		.cfi_def_cfa_offset 8
 716              		.cfi_offset 3, -8
 717              		.cfi_offset 14, -4
 718              		.loc 1 202 2 view .LVU145
 719 0002 FFF7FEFF 		bl	__errno
 720              	.LVL45:
 721              		.loc 1 202 8 view .LVU146
 722 0006 0C23     		movs	r3, #12
 723 0008 0360     		str	r3, [r0]
 203:Src/syscalls.c **** 	return -1;
 724              		.loc 1 203 2 is_stmt 1 view .LVU147
 204:Src/syscalls.c **** }
 725              		.loc 1 204 1 is_stmt 0 view .LVU148
 726 000a 4FF0FF30 		mov	r0, #-1
 727 000e 08BD     		pop	{r3, pc}
 728              		.cfi_endproc
 729              	.LFE43:
 731              		.global	environ
 732              		.global	__env
 733              		.section	.bss.__env,"aw",%nobits
 734              		.align	2
 737              	__env:
 738 0000 00000000 		.space	4
 739              		.section	.bss.heap_end.6074,"aw",%nobits
 740              		.align	2
 741              		.set	.LANCHOR0,. + 0
 744              	heap_end.6074:
 745 0000 00000000 		.space	4
 746              		.section	.data.environ,"aw"
 747              		.align	2
 750              	environ:
 751 0000 00000000 		.word	__env
 752              		.weak	__io_putchar
 753              		.weak	__io_getchar
 754              		.text
 755              	.Letext0:
 756              		.file 2 "/usr/local/gcc-arm-none-eabi-8-2019-q3-update/arm-none-eabi/include/machine/_default_type
 757              		.file 3 "/usr/local/gcc-arm-none-eabi-8-2019-q3-update/lib/gcc/arm-none-eabi/8.3.1/include/stddef.
 758              		.file 4 "/usr/local/gcc-arm-none-eabi-8-2019-q3-update/arm-none-eabi/include/sys/_types.h"
 759              		.file 5 "/usr/local/gcc-arm-none-eabi-8-2019-q3-update/arm-none-eabi/include/sys/reent.h"
 760              		.file 6 "/usr/local/gcc-arm-none-eabi-8-2019-q3-update/arm-none-eabi/include/sys/lock.h"
 761              		.file 7 "/usr/local/gcc-arm-none-eabi-8-2019-q3-update/arm-none-eabi/include/sys/_timeval.h"
 762              		.file 8 "/usr/local/gcc-arm-none-eabi-8-2019-q3-update/arm-none-eabi/include/sys/types.h"
 763              		.file 9 "/usr/local/gcc-arm-none-eabi-8-2019-q3-update/arm-none-eabi/include/time.h"
 764              		.file 10 "/usr/local/gcc-arm-none-eabi-8-2019-q3-update/arm-none-eabi/include/sys/stat.h"
 765              		.file 11 "/usr/local/gcc-arm-none-eabi-8-2019-q3-update/arm-none-eabi/include/stdlib.h"
 766              		.file 12 "/usr/local/gcc-arm-none-eabi-8-2019-q3-update/arm-none-eabi/include/sys/errno.h"
 767              		.file 13 "/usr/local/gcc-arm-none-eabi-8-2019-q3-update/arm-none-eabi/include/sys/times.h"
ARM GAS  /var/folders/20/cstyxln53wn53rr40gj353bh0000gn/T//ccDiX01C.s 			page 18

