ARM GAS  /var/folders/20/cstyxln53wn53rr40gj353bh0000gn/T//ccQ1MofN.s 			page 1


   1              		.cpu cortex-m3
   2              		.eabi_attribute 20, 1
   3              		.eabi_attribute 21, 1
   4              		.eabi_attribute 23, 3
   5              		.eabi_attribute 24, 1
   6              		.eabi_attribute 25, 1
   7              		.eabi_attribute 26, 1
   8              		.eabi_attribute 30, 2
   9              		.eabi_attribute 34, 1
  10              		.eabi_attribute 18, 4
  11              		.file	"Utils.cpp"
  12              		.text
  13              	.Ltext0:
  14              		.cfi_sections	.debug_frame
  15              		.section	.text._ZN3VFO8valToStrElPcjc,"ax",%progbits
  16              		.align	1
  17              		.p2align 2,,3
  18              		.global	_ZN3VFO8valToStrElPcjc
  19              		.arch armv7-m
  20              		.syntax unified
  21              		.thumb
  22              		.thumb_func
  23              		.fpu softvfp
  25              	_ZN3VFO8valToStrElPcjc:
  26              		.fnstart
  27              	.LVL0:
  28              	.LFB0:
  29              		.file 1 "Src/VFO/GUI/Utils.cpp"
   1:Src/VFO/GUI/Utils.cpp **** /*
   2:Src/VFO/GUI/Utils.cpp ****  * Utils.cpp
   3:Src/VFO/GUI/Utils.cpp ****  *
   4:Src/VFO/GUI/Utils.cpp ****  *  Created on: Apr 8, 2018
   5:Src/VFO/GUI/Utils.cpp ****  *      Author: lymes
   6:Src/VFO/GUI/Utils.cpp ****  */
   7:Src/VFO/GUI/Utils.cpp **** 
   8:Src/VFO/GUI/Utils.cpp **** #include "Utils.h"
   9:Src/VFO/GUI/Utils.cpp **** 
  10:Src/VFO/GUI/Utils.cpp **** namespace VFO
  11:Src/VFO/GUI/Utils.cpp **** {
  12:Src/VFO/GUI/Utils.cpp **** 
  13:Src/VFO/GUI/Utils.cpp **** char *valToStr(int32_t val, char *buf, size_t bufSize, char sepChar)
  14:Src/VFO/GUI/Utils.cpp **** {
  30              		.loc 1 14 1 view -0
  31              		.cfi_startproc
  32              		@ args = 0, pretend = 0, frame = 0
  33              		@ frame_needed = 0, uses_anonymous_args = 0
  15:Src/VFO/GUI/Utils.cpp **** 	// validate the parameters, return null on error
  16:Src/VFO/GUI/Utils.cpp **** 	if ((bufSize < 2) || (buf == 0))
  34              		.loc 1 16 2 view .LVU1
  35 0000 012A     		cmp	r2, #1
  36 0002 7CD9     		bls	.L21
  37              		.loc 1 16 20 is_stmt 0 discriminator 1 view .LVU2
  38 0004 0029     		cmp	r1, #0
  39 0006 7BD0     		beq	.L36
  17:Src/VFO/GUI/Utils.cpp **** 	{
  18:Src/VFO/GUI/Utils.cpp **** 		return 0;
  19:Src/VFO/GUI/Utils.cpp **** 	}
ARM GAS  /var/folders/20/cstyxln53wn53rr40gj353bh0000gn/T//ccQ1MofN.s 			page 2


  20:Src/VFO/GUI/Utils.cpp **** 
  21:Src/VFO/GUI/Utils.cpp **** 	// put a null at the end of the buffer, adjust the size
  22:Src/VFO/GUI/Utils.cpp **** 	buf += bufSize--;
  40              		.loc 1 22 2 is_stmt 1 view .LVU3
  41              	.LVL1:
  14:Src/VFO/GUI/Utils.cpp **** 	// validate the parameters, return null on error
  42              		.loc 1 14 1 is_stmt 0 view .LVU4
  43 0008 2DE9F041 		push	{r4, r5, r6, r7, r8, lr}
  44              	.LCFI0:
  45              		.cfi_def_cfa_offset 24
  46              		.cfi_offset 4, -24
  47              		.cfi_offset 5, -20
  48              		.cfi_offset 6, -16
  49              		.cfi_offset 7, -12
  50              		.cfi_offset 8, -8
  51              		.cfi_offset 14, -4
  23:Src/VFO/GUI/Utils.cpp **** 	*(--buf) = '\0';
  52              		.loc 1 23 11 view .LVU5
  53 000c 0027     		movs	r7, #0
  22:Src/VFO/GUI/Utils.cpp **** 	*(--buf) = '\0';
  54              		.loc 1 22 6 view .LVU6
  55 000e 1144     		add	r1, r1, r2
  56              	.LVL2:
  57              		.loc 1 23 2 is_stmt 1 view .LVU7
  24:Src/VFO/GUI/Utils.cpp **** 
  25:Src/VFO/GUI/Utils.cpp **** 	// special case: value equal zero
  26:Src/VFO/GUI/Utils.cpp **** 	if (val == 0)
  58              		.loc 1 26 2 is_stmt 0 view .LVU8
  59 0010 B842     		cmp	r0, r7
  23:Src/VFO/GUI/Utils.cpp **** 
  60              		.loc 1 23 11 view .LVU9
  61 0012 01F8017C 		strb	r7, [r1, #-1]
  62              		.loc 1 26 2 is_stmt 1 view .LVU10
  63 0016 1ED0     		beq	.L40
  27:Src/VFO/GUI/Utils.cpp **** 	{
  28:Src/VFO/GUI/Utils.cpp **** 		*(--buf) = '0';
  29:Src/VFO/GUI/Utils.cpp **** 		bufSize--;
  30:Src/VFO/GUI/Utils.cpp **** 	}
  31:Src/VFO/GUI/Utils.cpp **** 
  32:Src/VFO/GUI/Utils.cpp **** 	// special case: value is negative
  33:Src/VFO/GUI/Utils.cpp **** 	bool negative = false;
  64              		.loc 1 33 2 view .LVU11
  65              	.LVL3:
  34:Src/VFO/GUI/Utils.cpp **** 	if (val < 0)
  66              		.loc 1 34 2 view .LVU12
  67 0018 01DA     		bge	.L5
  35:Src/VFO/GUI/Utils.cpp **** 	{
  36:Src/VFO/GUI/Utils.cpp **** 		val = -val;
  68              		.loc 1 36 3 view .LVU13
  37:Src/VFO/GUI/Utils.cpp **** 		negative = true;
  69              		.loc 1 37 12 is_stmt 0 view .LVU14
  70 001a 0127     		movs	r7, #1
  36:Src/VFO/GUI/Utils.cpp **** 		negative = true;
  71              		.loc 1 36 7 view .LVU15
  72 001c 4042     		rsbs	r0, r0, #0
  73              	.LVL4:
  74              		.loc 1 37 3 is_stmt 1 view .LVU16
ARM GAS  /var/folders/20/cstyxln53wn53rr40gj353bh0000gn/T//ccQ1MofN.s 			page 3


  75              	.L5:
  22:Src/VFO/GUI/Utils.cpp **** 	*(--buf) = '\0';
  76              		.loc 1 22 16 is_stmt 0 view .LVU17
  77 001e 013A     		subs	r2, r2, #1
  78              	.LVL5:
  23:Src/VFO/GUI/Utils.cpp **** 
  79              		.loc 1 23 4 view .LVU18
  80 0020 0139     		subs	r1, r1, #1
  81              	.LVL6:
  38:Src/VFO/GUI/Utils.cpp **** 	}
  39:Src/VFO/GUI/Utils.cpp **** 
  40:Src/VFO/GUI/Utils.cpp **** 	uint8_t digCnt = 0;
  41:Src/VFO/GUI/Utils.cpp **** 
  42:Src/VFO/GUI/Utils.cpp **** 	// general case: possibly multiple digits with thousands separators
  43:Src/VFO/GUI/Utils.cpp **** 	while (bufSize)
  82              		.loc 1 43 2 is_stmt 1 view .LVU19
  83 0022 13BB     		cbnz	r3, .L24
  84              	.LVL7:
  85              	.L41:
  44:Src/VFO/GUI/Utils.cpp **** 	{
  45:Src/VFO/GUI/Utils.cpp **** 		// add a thousands separator every three digits
  46:Src/VFO/GUI/Utils.cpp **** 		if (sepChar && (digCnt >= 3) && (bufSize > 1))
  47:Src/VFO/GUI/Utils.cpp **** 		{
  48:Src/VFO/GUI/Utils.cpp **** 			*(--buf) = sepChar;
  49:Src/VFO/GUI/Utils.cpp **** 			bufSize--;
  50:Src/VFO/GUI/Utils.cpp **** 			digCnt = 0;
  51:Src/VFO/GUI/Utils.cpp **** 		}
  52:Src/VFO/GUI/Utils.cpp **** 		if (val == 0)
  53:Src/VFO/GUI/Utils.cpp **** 		{
  54:Src/VFO/GUI/Utils.cpp **** 			if (*buf == '.') // first symbol cannot be separator
  55:Src/VFO/GUI/Utils.cpp **** 			{
  56:Src/VFO/GUI/Utils.cpp **** 				buf++;
  57:Src/VFO/GUI/Utils.cpp **** 				bufSize++;
  58:Src/VFO/GUI/Utils.cpp **** 			}
  59:Src/VFO/GUI/Utils.cpp **** 			if (negative) // put minus symbol
  60:Src/VFO/GUI/Utils.cpp **** 			{
  61:Src/VFO/GUI/Utils.cpp **** 				*(--buf) = '-';
  86              		.loc 1 61 14 is_stmt 0 view .LVU20
  87 0024 4FF02D0C 		mov	ip, #45
  62:Src/VFO/GUI/Utils.cpp **** 				negative = false;
  63:Src/VFO/GUI/Utils.cpp **** 			}
  64:Src/VFO/GUI/Utils.cpp **** 			else
  65:Src/VFO/GUI/Utils.cpp **** 			{
  66:Src/VFO/GUI/Utils.cpp **** 				*(--buf) = ' '; // nothing to do, put space
  88              		.loc 1 66 14 view .LVU21
  89 0028 2026     		movs	r6, #32
  67:Src/VFO/GUI/Utils.cpp **** 			}
  68:Src/VFO/GUI/Utils.cpp **** 		}
  69:Src/VFO/GUI/Utils.cpp **** 		else
  70:Src/VFO/GUI/Utils.cpp **** 		{
  71:Src/VFO/GUI/Utils.cpp **** 			// add another digit to the buffer
  72:Src/VFO/GUI/Utils.cpp **** 			*(--buf) = (char) (val % 10) | '0';
  90              		.loc 1 72 27 view .LVU22
  91 002a 364D     		ldr	r5, .L44
  92              	.LVL8:
  93              	.L13:
  46:Src/VFO/GUI/Utils.cpp **** 		{
ARM GAS  /var/folders/20/cstyxln53wn53rr40gj353bh0000gn/T//ccQ1MofN.s 			page 4


  94              		.loc 1 46 3 is_stmt 1 view .LVU23
  52:Src/VFO/GUI/Utils.cpp **** 		{
  95              		.loc 1 52 3 view .LVU24
  96              		.loc 1 72 4 view .LVU25
  54:Src/VFO/GUI/Utils.cpp **** 			{
  97              		.loc 1 54 4 view .LVU26
  52:Src/VFO/GUI/Utils.cpp **** 		{
  98              		.loc 1 52 3 is_stmt 0 view .LVU27
  99 002c 0028     		cmp	r0, #0
 100 002e 4FD0     		beq	.L7
 101              		.loc 1 72 27 view .LVU28
 102 0030 A5FB0043 		umull	r4, r3, r5, r0
 103 0034 DB08     		lsrs	r3, r3, #3
 104 0036 03EB8304 		add	r4, r3, r3, lsl #2
 105 003a A0EB4400 		sub	r0, r0, r4, lsl #1
 106              		.loc 1 72 33 view .LVU29
 107 003e 40F03000 		orr	r0, r0, #48
 108 0042 013A     		subs	r2, r2, #1
 109              	.LVL9:
 110              		.loc 1 72 13 view .LVU30
 111 0044 01F8010C 		strb	r0, [r1, #-1]
  73:Src/VFO/GUI/Utils.cpp **** 			digCnt++;
 112              		.loc 1 73 4 is_stmt 1 view .LVU31
  74:Src/VFO/GUI/Utils.cpp **** 			// prepare for producing the next digit
  75:Src/VFO/GUI/Utils.cpp **** 			val /= 10;
 113              		.loc 1 75 4 view .LVU32
 114              		.loc 1 75 8 is_stmt 0 view .LVU33
 115 0048 1846     		mov	r0, r3
 116              	.LVL10:
  72:Src/VFO/GUI/Utils.cpp **** 			digCnt++;
 117              		.loc 1 72 6 view .LVU34
 118 004a 0139     		subs	r1, r1, #1
 119              	.LVL11:
  76:Src/VFO/GUI/Utils.cpp **** 		}
  77:Src/VFO/GUI/Utils.cpp **** 		bufSize--;
 120              		.loc 1 77 3 is_stmt 1 view .LVU35
  43:Src/VFO/GUI/Utils.cpp **** 	{
 121              		.loc 1 43 2 view .LVU36
  43:Src/VFO/GUI/Utils.cpp **** 	{
 122              		.loc 1 43 9 is_stmt 0 view .LVU37
 123 004c 002A     		cmp	r2, #0
 124 004e EDD1     		bne	.L13
 125              	.LVL12:
 126              	.L1:
  78:Src/VFO/GUI/Utils.cpp **** 	}
  79:Src/VFO/GUI/Utils.cpp **** 
  80:Src/VFO/GUI/Utils.cpp **** 	// return a pointer to the completed string
  81:Src/VFO/GUI/Utils.cpp **** 	return (buf);
  82:Src/VFO/GUI/Utils.cpp **** }
 127              		.loc 1 82 1 view .LVU38
 128 0050 0846     		mov	r0, r1
 129 0052 BDE8F081 		pop	{r4, r5, r6, r7, r8, pc}
 130              	.LVL13:
 131              	.L40:
  28:Src/VFO/GUI/Utils.cpp **** 		bufSize--;
 132              		.loc 1 28 3 is_stmt 1 view .LVU39
  28:Src/VFO/GUI/Utils.cpp **** 		bufSize--;
ARM GAS  /var/folders/20/cstyxln53wn53rr40gj353bh0000gn/T//ccQ1MofN.s 			page 5


 133              		.loc 1 28 12 is_stmt 0 view .LVU40
 134 0056 3024     		movs	r4, #48
  43:Src/VFO/GUI/Utils.cpp **** 	{
 135              		.loc 1 43 9 view .LVU41
 136 0058 023A     		subs	r2, r2, #2
 137              	.LVL14:
  28:Src/VFO/GUI/Utils.cpp **** 		bufSize--;
 138              		.loc 1 28 12 view .LVU42
 139 005a 01F8024C 		strb	r4, [r1, #-2]
  28:Src/VFO/GUI/Utils.cpp **** 		bufSize--;
 140              		.loc 1 28 5 view .LVU43
 141 005e A1F10201 		sub	r1, r1, #2
 142              	.LVL15:
  29:Src/VFO/GUI/Utils.cpp **** 	}
 143              		.loc 1 29 3 is_stmt 1 view .LVU44
  33:Src/VFO/GUI/Utils.cpp **** 	if (val < 0)
 144              		.loc 1 33 2 view .LVU45
  34:Src/VFO/GUI/Utils.cpp **** 	{
 145              		.loc 1 34 2 view .LVU46
  43:Src/VFO/GUI/Utils.cpp **** 	{
 146              		.loc 1 43 2 view .LVU47
  43:Src/VFO/GUI/Utils.cpp **** 	{
 147              		.loc 1 43 9 is_stmt 0 view .LVU48
 148 0062 F5D0     		beq	.L1
  33:Src/VFO/GUI/Utils.cpp **** 	if (val < 0)
 149              		.loc 1 33 7 view .LVU49
 150 0064 0746     		mov	r7, r0
 151 0066 002B     		cmp	r3, #0
 152 0068 DCD0     		beq	.L41
 153              	.LVL16:
 154              	.L24:
  50:Src/VFO/GUI/Utils.cpp **** 		}
 155              		.loc 1 50 11 view .LVU50
 156 006a 0024     		movs	r4, #0
  66:Src/VFO/GUI/Utils.cpp **** 			}
 157              		.loc 1 66 14 view .LVU51
 158 006c 4FF02008 		mov	r8, #32
  61:Src/VFO/GUI/Utils.cpp **** 				negative = false;
 159              		.loc 1 61 14 view .LVU52
 160 0070 4FF02D0E 		mov	lr, #45
  72:Src/VFO/GUI/Utils.cpp **** 			digCnt++;
 161              		.loc 1 72 27 view .LVU53
 162 0074 DFF88CC0 		ldr	ip, .L44
 163              	.LVL17:
 164              	.L6:
  52:Src/VFO/GUI/Utils.cpp **** 		{
 165              		.loc 1 52 3 is_stmt 1 view .LVU54
 166 0078 C8B9     		cbnz	r0, .L15
 167              	.L42:
  54:Src/VFO/GUI/Utils.cpp **** 			{
 168              		.loc 1 54 4 view .LVU55
 169 007a 0D78     		ldrb	r5, [r1]	@ zero_extendqisi2
 170 007c 2E2D     		cmp	r5, #46
 171 007e 1DBF     		ittte	ne
 172 0080 0D46     		movne	r5, r1
 173 0082 02F1FF32 		addne	r2, r2, #-1
 174              	.LVL18:
ARM GAS  /var/folders/20/cstyxln53wn53rr40gj353bh0000gn/T//ccQ1MofN.s 			page 6


  54:Src/VFO/GUI/Utils.cpp **** 			{
 175              		.loc 1 54 4 is_stmt 0 view .LVU56
 176 0086 01F1FF31 		addne	r1, r1, #-1
 177              	.LVL19:
  56:Src/VFO/GUI/Utils.cpp **** 				bufSize++;
 178              		.loc 1 56 5 is_stmt 1 view .LVU57
  56:Src/VFO/GUI/Utils.cpp **** 				bufSize++;
 179              		.loc 1 56 8 is_stmt 0 view .LVU58
 180 008a 4D1C     		addeq	r5, r1, #1
 181              	.LVL20:
  57:Src/VFO/GUI/Utils.cpp **** 			}
 182              		.loc 1 57 5 is_stmt 1 view .LVU59
  59:Src/VFO/GUI/Utils.cpp **** 			{
 183              		.loc 1 59 4 view .LVU60
 184 008c A7B3     		cbz	r7, .L18
  61:Src/VFO/GUI/Utils.cpp **** 				negative = false;
 185              		.loc 1 61 5 view .LVU61
 186              	.LVL21:
  62:Src/VFO/GUI/Utils.cpp **** 			}
 187              		.loc 1 62 14 is_stmt 0 view .LVU62
 188 008e 0027     		movs	r7, #0
  61:Src/VFO/GUI/Utils.cpp **** 				negative = false;
 189              		.loc 1 61 14 view .LVU63
 190 0090 05F801EC 		strb	lr, [r5, #-1]
  62:Src/VFO/GUI/Utils.cpp **** 			}
 191              		.loc 1 62 5 is_stmt 1 view .LVU64
 192              	.LVL22:
 193              	.L19:
  77:Src/VFO/GUI/Utils.cpp **** 	}
 194              		.loc 1 77 3 view .LVU65
  43:Src/VFO/GUI/Utils.cpp **** 	{
 195              		.loc 1 43 2 view .LVU66
  43:Src/VFO/GUI/Utils.cpp **** 	{
 196              		.loc 1 43 9 is_stmt 0 view .LVU67
 197 0094 002A     		cmp	r2, #0
 198 0096 DBD0     		beq	.L1
 199              	.LVL23:
  46:Src/VFO/GUI/Utils.cpp **** 		{
 200              		.loc 1 46 3 is_stmt 1 view .LVU68
  46:Src/VFO/GUI/Utils.cpp **** 		{
 201              		.loc 1 46 15 is_stmt 0 view .LVU69
 202 0098 022C     		cmp	r4, #2
 203 009a EDD9     		bls	.L6
  46:Src/VFO/GUI/Utils.cpp **** 		{
 204              		.loc 1 46 32 discriminator 2 view .LVU70
 205 009c 012A     		cmp	r2, #1
 206 009e EBD0     		beq	.L6
  48:Src/VFO/GUI/Utils.cpp **** 			bufSize--;
 207              		.loc 1 48 4 is_stmt 1 view .LVU71
 208              	.LVL24:
  48:Src/VFO/GUI/Utils.cpp **** 			bufSize--;
 209              		.loc 1 48 13 is_stmt 0 view .LVU72
 210 00a0 01F8013C 		strb	r3, [r1, #-1]
  49:Src/VFO/GUI/Utils.cpp **** 			digCnt = 0;
 211              		.loc 1 49 4 is_stmt 1 view .LVU73
  49:Src/VFO/GUI/Utils.cpp **** 			digCnt = 0;
 212              		.loc 1 49 11 is_stmt 0 view .LVU74
ARM GAS  /var/folders/20/cstyxln53wn53rr40gj353bh0000gn/T//ccQ1MofN.s 			page 7


 213 00a4 013A     		subs	r2, r2, #1
 214              	.LVL25:
  50:Src/VFO/GUI/Utils.cpp **** 		}
 215              		.loc 1 50 4 is_stmt 1 view .LVU75
  48:Src/VFO/GUI/Utils.cpp **** 			bufSize--;
 216              		.loc 1 48 6 is_stmt 0 view .LVU76
 217 00a6 0139     		subs	r1, r1, #1
 218              	.LVL26:
  50:Src/VFO/GUI/Utils.cpp **** 		}
 219              		.loc 1 50 11 view .LVU77
 220 00a8 0024     		movs	r4, #0
 221              	.LVL27:
  52:Src/VFO/GUI/Utils.cpp **** 		{
 222              		.loc 1 52 3 is_stmt 1 view .LVU78
 223 00aa 0028     		cmp	r0, #0
 224 00ac E5D0     		beq	.L42
 225              	.LVL28:
 226              	.L15:
  72:Src/VFO/GUI/Utils.cpp **** 			digCnt++;
 227              		.loc 1 72 4 view .LVU79
  72:Src/VFO/GUI/Utils.cpp **** 			digCnt++;
 228              		.loc 1 72 27 is_stmt 0 view .LVU80
 229 00ae ACFB0056 		umull	r5, r6, ip, r0
 230 00b2 F608     		lsrs	r6, r6, #3
 231 00b4 06EB8605 		add	r5, r6, r6, lsl #2
 232 00b8 A0EB4505 		sub	r5, r0, r5, lsl #1
  73:Src/VFO/GUI/Utils.cpp **** 			// prepare for producing the next digit
 233              		.loc 1 73 10 view .LVU81
 234 00bc 0134     		adds	r4, r4, #1
 235              	.LVL29:
  72:Src/VFO/GUI/Utils.cpp **** 			digCnt++;
 236              		.loc 1 72 33 view .LVU82
 237 00be 45F03005 		orr	r5, r5, #48
  72:Src/VFO/GUI/Utils.cpp **** 			digCnt++;
 238              		.loc 1 72 13 view .LVU83
 239 00c2 01F8015C 		strb	r5, [r1, #-1]
  73:Src/VFO/GUI/Utils.cpp **** 			// prepare for producing the next digit
 240              		.loc 1 73 4 is_stmt 1 view .LVU84
  75:Src/VFO/GUI/Utils.cpp **** 		}
 241              		.loc 1 75 8 is_stmt 0 view .LVU85
 242 00c6 3046     		mov	r0, r6
  73:Src/VFO/GUI/Utils.cpp **** 			// prepare for producing the next digit
 243              		.loc 1 73 10 view .LVU86
 244 00c8 E4B2     		uxtb	r4, r4
 245              	.LVL30:
  75:Src/VFO/GUI/Utils.cpp **** 		}
 246              		.loc 1 75 4 is_stmt 1 view .LVU87
  75:Src/VFO/GUI/Utils.cpp **** 		}
 247              		.loc 1 75 4 is_stmt 0 view .LVU88
 248 00ca 013A     		subs	r2, r2, #1
 249              	.LVL31:
  72:Src/VFO/GUI/Utils.cpp **** 			digCnt++;
 250              		.loc 1 72 6 view .LVU89
 251 00cc 0139     		subs	r1, r1, #1
 252              	.LVL32:
  72:Src/VFO/GUI/Utils.cpp **** 			digCnt++;
 253              		.loc 1 72 6 view .LVU90
ARM GAS  /var/folders/20/cstyxln53wn53rr40gj353bh0000gn/T//ccQ1MofN.s 			page 8


 254 00ce E1E7     		b	.L19
 255              	.LVL33:
 256              	.L7:
  54:Src/VFO/GUI/Utils.cpp **** 			{
 257              		.loc 1 54 4 view .LVU91
 258 00d0 0B78     		ldrb	r3, [r1]	@ zero_extendqisi2
 259 00d2 2E2B     		cmp	r3, #46
 260 00d4 0ED0     		beq	.L43
 261 00d6 0B46     		mov	r3, r1
 262 00d8 013A     		subs	r2, r2, #1
 263              	.LVL34:
  54:Src/VFO/GUI/Utils.cpp **** 			{
 264              		.loc 1 54 4 view .LVU92
 265 00da 0139     		subs	r1, r1, #1
 266              	.LVL35:
 267              	.L12:
  59:Src/VFO/GUI/Utils.cpp **** 			{
 268              		.loc 1 59 4 is_stmt 1 view .LVU93
  66:Src/VFO/GUI/Utils.cpp **** 			}
 269              		.loc 1 66 5 view .LVU94
  61:Src/VFO/GUI/Utils.cpp **** 				negative = false;
 270              		.loc 1 61 5 view .LVU95
  59:Src/VFO/GUI/Utils.cpp **** 			{
 271              		.loc 1 59 4 is_stmt 0 view .LVU96
 272 00dc 27B9     		cbnz	r7, .L11
  66:Src/VFO/GUI/Utils.cpp **** 			}
 273              		.loc 1 66 14 view .LVU97
 274 00de 03F8016C 		strb	r6, [r3, #-1]
 275              	.LVL36:
  77:Src/VFO/GUI/Utils.cpp **** 	}
 276              		.loc 1 77 3 is_stmt 1 view .LVU98
  43:Src/VFO/GUI/Utils.cpp **** 	{
 277              		.loc 1 43 2 view .LVU99
  43:Src/VFO/GUI/Utils.cpp **** 	{
 278              		.loc 1 43 9 is_stmt 0 view .LVU100
 279 00e2 002A     		cmp	r2, #0
 280 00e4 A2D1     		bne	.L13
 281 00e6 B3E7     		b	.L1
 282              	.LVL37:
 283              	.L11:
  62:Src/VFO/GUI/Utils.cpp **** 			}
 284              		.loc 1 62 14 view .LVU101
 285 00e8 0027     		movs	r7, #0
 286              	.LVL38:
  61:Src/VFO/GUI/Utils.cpp **** 				negative = false;
 287              		.loc 1 61 14 view .LVU102
 288 00ea 03F801CC 		strb	ip, [r3, #-1]
  62:Src/VFO/GUI/Utils.cpp **** 			}
 289              		.loc 1 62 5 is_stmt 1 view .LVU103
 290              	.LVL39:
  77:Src/VFO/GUI/Utils.cpp **** 	}
 291              		.loc 1 77 3 view .LVU104
  43:Src/VFO/GUI/Utils.cpp **** 	{
 292              		.loc 1 43 2 view .LVU105
  43:Src/VFO/GUI/Utils.cpp **** 	{
 293              		.loc 1 43 9 is_stmt 0 view .LVU106
 294 00ee 002A     		cmp	r2, #0
ARM GAS  /var/folders/20/cstyxln53wn53rr40gj353bh0000gn/T//ccQ1MofN.s 			page 9


 295 00f0 9CD1     		bne	.L13
 296 00f2 ADE7     		b	.L1
 297              	.LVL40:
 298              	.L43:
  56:Src/VFO/GUI/Utils.cpp **** 				bufSize++;
 299              		.loc 1 56 5 is_stmt 1 view .LVU107
  56:Src/VFO/GUI/Utils.cpp **** 				bufSize++;
 300              		.loc 1 56 8 is_stmt 0 view .LVU108
 301 00f4 4B1C     		adds	r3, r1, #1
 302              	.LVL41:
  57:Src/VFO/GUI/Utils.cpp **** 			}
 303              		.loc 1 57 5 is_stmt 1 view .LVU109
  57:Src/VFO/GUI/Utils.cpp **** 			}
 304              		.loc 1 57 5 is_stmt 0 view .LVU110
 305 00f6 F1E7     		b	.L12
 306              	.LVL42:
 307              	.L18:
  66:Src/VFO/GUI/Utils.cpp **** 			}
 308              		.loc 1 66 5 is_stmt 1 view .LVU111
  66:Src/VFO/GUI/Utils.cpp **** 			}
 309              		.loc 1 66 14 is_stmt 0 view .LVU112
 310 00f8 05F8018C 		strb	r8, [r5, #-1]
 311 00fc CAE7     		b	.L19
 312              	.LVL43:
 313              	.L21:
 314              	.LCFI1:
 315              		.cfi_def_cfa_offset 0
 316              		.cfi_restore 4
 317              		.cfi_restore 5
 318              		.cfi_restore 6
 319              		.cfi_restore 7
 320              		.cfi_restore 8
 321              		.cfi_restore 14
  18:Src/VFO/GUI/Utils.cpp **** 	}
 322              		.loc 1 18 10 view .LVU113
 323 00fe 0021     		movs	r1, #0
 324              	.LVL44:
 325              	.L36:
 326              		.loc 1 82 1 view .LVU114
 327 0100 0846     		mov	r0, r1
 328              	.LVL45:
 329              		.loc 1 82 1 view .LVU115
 330 0102 7047     		bx	lr
 331              	.L45:
 332              		.align	2
 333              	.L44:
 334 0104 CDCCCCCC 		.word	-858993459
 335              		.cfi_endproc
 336              	.LFE0:
 337              		.cantunwind
 338              		.fnend
 340              		.section	.text._ZN3VFO12voltageToStrElPcj,"ax",%progbits
 341              		.align	1
 342              		.p2align 2,,3
 343              		.global	_ZN3VFO12voltageToStrElPcj
 344              		.syntax unified
 345              		.thumb
ARM GAS  /var/folders/20/cstyxln53wn53rr40gj353bh0000gn/T//ccQ1MofN.s 			page 10


 346              		.thumb_func
 347              		.fpu softvfp
 349              	_ZN3VFO12voltageToStrElPcj:
 350              		.fnstart
 351              	.LVL46:
 352              	.LFB1:
  83:Src/VFO/GUI/Utils.cpp **** 
  84:Src/VFO/GUI/Utils.cpp **** 
  85:Src/VFO/GUI/Utils.cpp **** char *voltageToStr(int32_t val, char *buf, size_t bufSize)
  86:Src/VFO/GUI/Utils.cpp **** {
 353              		.loc 1 86 1 is_stmt 1 view -0
 354              		.cfi_startproc
 355              		@ args = 0, pretend = 0, frame = 0
 356              		@ frame_needed = 0, uses_anonymous_args = 0
  87:Src/VFO/GUI/Utils.cpp **** 	// validate the parameters, return null on error
  88:Src/VFO/GUI/Utils.cpp **** 	if ((bufSize < 2) || (buf == 0))
 357              		.loc 1 88 2 view .LVU117
 358 0000 012A     		cmp	r2, #1
 359 0002 51D9     		bls	.L59
 360              		.loc 1 88 20 is_stmt 0 discriminator 1 view .LVU118
 361 0004 0029     		cmp	r1, #0
 362 0006 50D0     		beq	.L69
  89:Src/VFO/GUI/Utils.cpp **** 	{
  90:Src/VFO/GUI/Utils.cpp **** 		return 0;
  91:Src/VFO/GUI/Utils.cpp **** 	}
  92:Src/VFO/GUI/Utils.cpp **** 
  93:Src/VFO/GUI/Utils.cpp **** 	// put a null at the end of the buffer, adjust the size
  94:Src/VFO/GUI/Utils.cpp **** 	buf += bufSize--;
 363              		.loc 1 94 2 is_stmt 1 view .LVU119
 364              	.LVL47:
  86:Src/VFO/GUI/Utils.cpp **** 	// validate the parameters, return null on error
 365              		.loc 1 86 1 is_stmt 0 view .LVU120
 366 0008 2DE9F041 		push	{r4, r5, r6, r7, r8, lr}
 367              	.LCFI2:
 368              		.cfi_def_cfa_offset 24
 369              		.cfi_offset 4, -24
 370              		.cfi_offset 5, -20
 371              		.cfi_offset 6, -16
 372              		.cfi_offset 7, -12
 373              		.cfi_offset 8, -8
 374              		.cfi_offset 14, -4
  95:Src/VFO/GUI/Utils.cpp **** 	*(--buf) = '\0';
 375              		.loc 1 95 11 view .LVU121
 376 000c 0026     		movs	r6, #0
  94:Src/VFO/GUI/Utils.cpp **** 	*(--buf) = '\0';
 377              		.loc 1 94 6 view .LVU122
 378 000e 8B18     		adds	r3, r1, r2
 379              	.LVL48:
 380              		.loc 1 95 2 is_stmt 1 view .LVU123
  96:Src/VFO/GUI/Utils.cpp **** 
  97:Src/VFO/GUI/Utils.cpp **** 	// special case: value equal zero
  98:Src/VFO/GUI/Utils.cpp **** 	if (val == 0)
 381              		.loc 1 98 2 is_stmt 0 view .LVU124
 382 0010 B042     		cmp	r0, r6
  95:Src/VFO/GUI/Utils.cpp **** 
 383              		.loc 1 95 11 view .LVU125
 384 0012 03F8016C 		strb	r6, [r3, #-1]
ARM GAS  /var/folders/20/cstyxln53wn53rr40gj353bh0000gn/T//ccQ1MofN.s 			page 11


 385              		.loc 1 98 2 is_stmt 1 view .LVU126
 386 0016 3BD0     		beq	.L72
  99:Src/VFO/GUI/Utils.cpp **** 	{
 100:Src/VFO/GUI/Utils.cpp **** 		*(--buf) = '0';
 101:Src/VFO/GUI/Utils.cpp **** 		bufSize--;
 102:Src/VFO/GUI/Utils.cpp **** 	}
 103:Src/VFO/GUI/Utils.cpp **** 
 104:Src/VFO/GUI/Utils.cpp **** 	// special case: value is negative
 105:Src/VFO/GUI/Utils.cpp **** 	bool negative = false;
 387              		.loc 1 105 2 view .LVU127
 388              	.LVL49:
 106:Src/VFO/GUI/Utils.cpp **** 	if (val < 0)
 389              		.loc 1 106 2 view .LVU128
 390 0018 01DA     		bge	.L50
 107:Src/VFO/GUI/Utils.cpp **** 	{
 108:Src/VFO/GUI/Utils.cpp **** 		val = -val;
 391              		.loc 1 108 3 view .LVU129
 109:Src/VFO/GUI/Utils.cpp **** 		negative = true;
 392              		.loc 1 109 12 is_stmt 0 view .LVU130
 393 001a 0126     		movs	r6, #1
 108:Src/VFO/GUI/Utils.cpp **** 		negative = true;
 394              		.loc 1 108 7 view .LVU131
 395 001c 4042     		rsbs	r0, r0, #0
 396              	.LVL50:
 397              		.loc 1 109 3 is_stmt 1 view .LVU132
 398              	.L50:
  94:Src/VFO/GUI/Utils.cpp **** 	*(--buf) = '\0';
 399              		.loc 1 94 16 is_stmt 0 view .LVU133
 400 001e 013A     		subs	r2, r2, #1
 401              	.LVL51:
  95:Src/VFO/GUI/Utils.cpp **** 
 402              		.loc 1 95 4 view .LVU134
 403 0020 591E     		subs	r1, r3, #1
 404              	.LVL52:
 110:Src/VFO/GUI/Utils.cpp **** 	}
 111:Src/VFO/GUI/Utils.cpp **** 
 112:Src/VFO/GUI/Utils.cpp **** 	uint8_t digCnt = 0;
 113:Src/VFO/GUI/Utils.cpp **** 
 114:Src/VFO/GUI/Utils.cpp **** 	// general case: possibly multiple digits with thousands separators
 115:Src/VFO/GUI/Utils.cpp **** 	while (bufSize)
 405              		.loc 1 115 2 is_stmt 1 view .LVU135
 406              	.L49:
 116:Src/VFO/GUI/Utils.cpp **** 	{
 117:Src/VFO/GUI/Utils.cpp **** 		// add a thousands separator every three digits
 118:Src/VFO/GUI/Utils.cpp **** 		if ((digCnt >= 2) && (bufSize > 1))
 407              		.loc 1 118 3 view .LVU136
 119:Src/VFO/GUI/Utils.cpp **** 		{
 120:Src/VFO/GUI/Utils.cpp **** 			*(--buf) = '.';
 121:Src/VFO/GUI/Utils.cpp **** 			bufSize--;
 122:Src/VFO/GUI/Utils.cpp **** 			digCnt = 0;
 408              		.loc 1 122 11 is_stmt 0 view .LVU137
 409 0022 0023     		movs	r3, #0
 123:Src/VFO/GUI/Utils.cpp **** 		}
 124:Src/VFO/GUI/Utils.cpp **** 		if (val == 0)
 125:Src/VFO/GUI/Utils.cpp **** 		{
 126:Src/VFO/GUI/Utils.cpp **** 			if (*buf == '.') // first symbol cannot be separator
 127:Src/VFO/GUI/Utils.cpp **** 			{
ARM GAS  /var/folders/20/cstyxln53wn53rr40gj353bh0000gn/T//ccQ1MofN.s 			page 12


 128:Src/VFO/GUI/Utils.cpp **** 				buf++;
 129:Src/VFO/GUI/Utils.cpp **** 				bufSize++;
 130:Src/VFO/GUI/Utils.cpp **** 			}
 131:Src/VFO/GUI/Utils.cpp **** 			if (negative) // put minus symbol
 132:Src/VFO/GUI/Utils.cpp **** 			{
 133:Src/VFO/GUI/Utils.cpp **** 				*(--buf) = '-';
 134:Src/VFO/GUI/Utils.cpp **** 				negative = false;
 135:Src/VFO/GUI/Utils.cpp **** 			}
 136:Src/VFO/GUI/Utils.cpp **** 			else
 137:Src/VFO/GUI/Utils.cpp **** 			{
 138:Src/VFO/GUI/Utils.cpp **** 				*(--buf) = '0'; // nothing to do, put space
 410              		.loc 1 138 14 view .LVU138
 411 0024 4FF03008 		mov	r8, #48
 133:Src/VFO/GUI/Utils.cpp **** 				negative = false;
 412              		.loc 1 133 14 view .LVU139
 413 0028 4FF02D0E 		mov	lr, #45
 120:Src/VFO/GUI/Utils.cpp **** 			bufSize--;
 414              		.loc 1 120 13 view .LVU140
 415 002c 4FF02E0C 		mov	ip, #46
 139:Src/VFO/GUI/Utils.cpp **** 			}
 140:Src/VFO/GUI/Utils.cpp **** 		}
 141:Src/VFO/GUI/Utils.cpp **** 		else
 142:Src/VFO/GUI/Utils.cpp **** 		{
 143:Src/VFO/GUI/Utils.cpp **** 			// add another digit to the buffer
 144:Src/VFO/GUI/Utils.cpp **** 			*(--buf) = (char) (val % 10) | '0';
 416              		.loc 1 144 27 view .LVU141
 417 0030 1F4F     		ldr	r7, .L74
 418              	.LVL53:
 419              	.L51:
 124:Src/VFO/GUI/Utils.cpp **** 		{
 420              		.loc 1 124 3 is_stmt 1 view .LVU142
 421 0032 C0B9     		cbnz	r0, .L53
 422              	.L73:
 126:Src/VFO/GUI/Utils.cpp **** 			{
 423              		.loc 1 126 4 view .LVU143
 424 0034 0C78     		ldrb	r4, [r1]	@ zero_extendqisi2
 425 0036 2E2C     		cmp	r4, #46
 426 0038 1DBF     		ittte	ne
 427 003a 0C46     		movne	r4, r1
 428 003c 02F1FF32 		addne	r2, r2, #-1
 429              	.LVL54:
 126:Src/VFO/GUI/Utils.cpp **** 			{
 430              		.loc 1 126 4 is_stmt 0 view .LVU144
 431 0040 01F1FF31 		addne	r1, r1, #-1
 432              	.LVL55:
 128:Src/VFO/GUI/Utils.cpp **** 				bufSize++;
 433              		.loc 1 128 5 is_stmt 1 view .LVU145
 128:Src/VFO/GUI/Utils.cpp **** 				bufSize++;
 434              		.loc 1 128 8 is_stmt 0 view .LVU146
 435 0044 4C1C     		addeq	r4, r1, #1
 436              	.LVL56:
 129:Src/VFO/GUI/Utils.cpp **** 			}
 437              		.loc 1 129 5 is_stmt 1 view .LVU147
 131:Src/VFO/GUI/Utils.cpp **** 			{
 438              		.loc 1 131 4 view .LVU148
 439 0046 66B3     		cbz	r6, .L56
 133:Src/VFO/GUI/Utils.cpp **** 				negative = false;
ARM GAS  /var/folders/20/cstyxln53wn53rr40gj353bh0000gn/T//ccQ1MofN.s 			page 13


 440              		.loc 1 133 5 view .LVU149
 441              	.LVL57:
 134:Src/VFO/GUI/Utils.cpp **** 			}
 442              		.loc 1 134 14 is_stmt 0 view .LVU150
 443 0048 0026     		movs	r6, #0
 444              	.LVL58:
 133:Src/VFO/GUI/Utils.cpp **** 				negative = false;
 445              		.loc 1 133 14 view .LVU151
 446 004a 04F801EC 		strb	lr, [r4, #-1]
 134:Src/VFO/GUI/Utils.cpp **** 			}
 447              		.loc 1 134 5 is_stmt 1 view .LVU152
 448              	.LVL59:
 449              	.L57:
 145:Src/VFO/GUI/Utils.cpp **** 			digCnt++;
 146:Src/VFO/GUI/Utils.cpp **** 			// prepare for producing the next digit
 147:Src/VFO/GUI/Utils.cpp **** 			val /= 10;
 148:Src/VFO/GUI/Utils.cpp **** 		}
 149:Src/VFO/GUI/Utils.cpp **** 		bufSize--;
 450              		.loc 1 149 3 view .LVU153
 115:Src/VFO/GUI/Utils.cpp **** 	{
 451              		.loc 1 115 2 view .LVU154
 115:Src/VFO/GUI/Utils.cpp **** 	{
 452              		.loc 1 115 9 is_stmt 0 view .LVU155
 453 004e E2B1     		cbz	r2, .L46
 454              	.L58:
 455              	.LVL60:
 118:Src/VFO/GUI/Utils.cpp **** 		{
 456              		.loc 1 118 3 is_stmt 1 view .LVU156
 457 0050 012B     		cmp	r3, #1
 458 0052 EED9     		bls	.L51
 118:Src/VFO/GUI/Utils.cpp **** 		{
 459              		.loc 1 118 21 is_stmt 0 discriminator 1 view .LVU157
 460 0054 012A     		cmp	r2, #1
 461 0056 ECD0     		beq	.L51
 120:Src/VFO/GUI/Utils.cpp **** 			bufSize--;
 462              		.loc 1 120 4 is_stmt 1 view .LVU158
 463              	.LVL61:
 120:Src/VFO/GUI/Utils.cpp **** 			bufSize--;
 464              		.loc 1 120 13 is_stmt 0 view .LVU159
 465 0058 01F801CC 		strb	ip, [r1, #-1]
 121:Src/VFO/GUI/Utils.cpp **** 			digCnt = 0;
 466              		.loc 1 121 4 is_stmt 1 view .LVU160
 122:Src/VFO/GUI/Utils.cpp **** 		}
 467              		.loc 1 122 11 is_stmt 0 view .LVU161
 468 005c 0023     		movs	r3, #0
 469              	.LVL62:
 121:Src/VFO/GUI/Utils.cpp **** 			digCnt = 0;
 470              		.loc 1 121 11 view .LVU162
 471 005e 013A     		subs	r2, r2, #1
 472              	.LVL63:
 122:Src/VFO/GUI/Utils.cpp **** 		}
 473              		.loc 1 122 4 is_stmt 1 view .LVU163
 120:Src/VFO/GUI/Utils.cpp **** 			bufSize--;
 474              		.loc 1 120 13 is_stmt 0 view .LVU164
 475 0060 0139     		subs	r1, r1, #1
 476              	.LVL64:
 124:Src/VFO/GUI/Utils.cpp **** 		{
ARM GAS  /var/folders/20/cstyxln53wn53rr40gj353bh0000gn/T//ccQ1MofN.s 			page 14


 477              		.loc 1 124 3 is_stmt 1 view .LVU165
 478 0062 0028     		cmp	r0, #0
 479 0064 E6D0     		beq	.L73
 480              	.L53:
 144:Src/VFO/GUI/Utils.cpp **** 			digCnt++;
 481              		.loc 1 144 4 view .LVU166
 482              	.LVL65:
 144:Src/VFO/GUI/Utils.cpp **** 			digCnt++;
 483              		.loc 1 144 27 is_stmt 0 view .LVU167
 484 0066 A7FB0045 		umull	r4, r5, r7, r0
 485 006a ED08     		lsrs	r5, r5, #3
 486 006c 05EB8504 		add	r4, r5, r5, lsl #2
 487 0070 A0EB4404 		sub	r4, r0, r4, lsl #1
 145:Src/VFO/GUI/Utils.cpp **** 			// prepare for producing the next digit
 488              		.loc 1 145 10 view .LVU168
 489 0074 0133     		adds	r3, r3, #1
 490              	.LVL66:
 144:Src/VFO/GUI/Utils.cpp **** 			digCnt++;
 491              		.loc 1 144 33 view .LVU169
 492 0076 44F03004 		orr	r4, r4, #48
 493 007a 013A     		subs	r2, r2, #1
 494              	.LVL67:
 144:Src/VFO/GUI/Utils.cpp **** 			digCnt++;
 495              		.loc 1 144 13 view .LVU170
 496 007c 01F8014C 		strb	r4, [r1, #-1]
 145:Src/VFO/GUI/Utils.cpp **** 			// prepare for producing the next digit
 497              		.loc 1 145 4 is_stmt 1 view .LVU171
 147:Src/VFO/GUI/Utils.cpp **** 		}
 498              		.loc 1 147 8 is_stmt 0 view .LVU172
 499 0080 2846     		mov	r0, r5
 500              	.LVL68:
 145:Src/VFO/GUI/Utils.cpp **** 			// prepare for producing the next digit
 501              		.loc 1 145 10 view .LVU173
 502 0082 DBB2     		uxtb	r3, r3
 503              	.LVL69:
 147:Src/VFO/GUI/Utils.cpp **** 		}
 504              		.loc 1 147 4 is_stmt 1 view .LVU174
 144:Src/VFO/GUI/Utils.cpp **** 			digCnt++;
 505              		.loc 1 144 13 is_stmt 0 view .LVU175
 506 0084 0139     		subs	r1, r1, #1
 507              	.LVL70:
 508              		.loc 1 149 3 is_stmt 1 view .LVU176
 115:Src/VFO/GUI/Utils.cpp **** 	{
 509              		.loc 1 115 2 view .LVU177
 115:Src/VFO/GUI/Utils.cpp **** 	{
 510              		.loc 1 115 9 is_stmt 0 view .LVU178
 511 0086 002A     		cmp	r2, #0
 512 0088 E2D1     		bne	.L58
 513              	.LVL71:
 514              	.L46:
 150:Src/VFO/GUI/Utils.cpp **** 	}
 151:Src/VFO/GUI/Utils.cpp **** 
 152:Src/VFO/GUI/Utils.cpp **** 	// return a pointer to the completed string
 153:Src/VFO/GUI/Utils.cpp **** 	return (buf);
 154:Src/VFO/GUI/Utils.cpp **** }
 515              		.loc 1 154 1 view .LVU179
 516 008a 0846     		mov	r0, r1
ARM GAS  /var/folders/20/cstyxln53wn53rr40gj353bh0000gn/T//ccQ1MofN.s 			page 15


 517 008c BDE8F081 		pop	{r4, r5, r6, r7, r8, pc}
 518              	.LVL72:
 519              	.L72:
 100:Src/VFO/GUI/Utils.cpp **** 		bufSize--;
 520              		.loc 1 100 3 is_stmt 1 view .LVU180
 100:Src/VFO/GUI/Utils.cpp **** 		bufSize--;
 521              		.loc 1 100 12 is_stmt 0 view .LVU181
 522 0090 3024     		movs	r4, #48
 115:Src/VFO/GUI/Utils.cpp **** 	{
 523              		.loc 1 115 9 view .LVU182
 524 0092 023A     		subs	r2, r2, #2
 525              	.LVL73:
 100:Src/VFO/GUI/Utils.cpp **** 		bufSize--;
 526              		.loc 1 100 5 view .LVU183
 527 0094 A3F10201 		sub	r1, r3, #2
 528              	.LVL74:
 100:Src/VFO/GUI/Utils.cpp **** 		bufSize--;
 529              		.loc 1 100 12 view .LVU184
 530 0098 03F8024C 		strb	r4, [r3, #-2]
 101:Src/VFO/GUI/Utils.cpp **** 	}
 531              		.loc 1 101 3 is_stmt 1 view .LVU185
 532              	.LVL75:
 105:Src/VFO/GUI/Utils.cpp **** 	if (val < 0)
 533              		.loc 1 105 2 view .LVU186
 106:Src/VFO/GUI/Utils.cpp **** 	{
 534              		.loc 1 106 2 view .LVU187
 115:Src/VFO/GUI/Utils.cpp **** 	{
 535              		.loc 1 115 2 view .LVU188
 115:Src/VFO/GUI/Utils.cpp **** 	{
 536              		.loc 1 115 9 is_stmt 0 view .LVU189
 537 009c F5D0     		beq	.L46
 105:Src/VFO/GUI/Utils.cpp **** 	if (val < 0)
 538              		.loc 1 105 7 view .LVU190
 539 009e 0646     		mov	r6, r0
 540 00a0 BFE7     		b	.L49
 541              	.LVL76:
 542              	.L56:
 138:Src/VFO/GUI/Utils.cpp **** 			}
 543              		.loc 1 138 5 is_stmt 1 view .LVU191
 138:Src/VFO/GUI/Utils.cpp **** 			}
 544              		.loc 1 138 14 is_stmt 0 view .LVU192
 545 00a2 04F8018C 		strb	r8, [r4, #-1]
 546 00a6 D2E7     		b	.L57
 547              	.LVL77:
 548              	.L59:
 549              	.LCFI3:
 550              		.cfi_def_cfa_offset 0
 551              		.cfi_restore 4
 552              		.cfi_restore 5
 553              		.cfi_restore 6
 554              		.cfi_restore 7
 555              		.cfi_restore 8
 556              		.cfi_restore 14
  90:Src/VFO/GUI/Utils.cpp **** 	}
 557              		.loc 1 90 10 view .LVU193
 558 00a8 0021     		movs	r1, #0
 559              	.LVL78:
ARM GAS  /var/folders/20/cstyxln53wn53rr40gj353bh0000gn/T//ccQ1MofN.s 			page 16


 560              	.L69:
 561              		.loc 1 154 1 view .LVU194
 562 00aa 0846     		mov	r0, r1
 563              	.LVL79:
 564              		.loc 1 154 1 view .LVU195
 565 00ac 7047     		bx	lr
 566              	.L75:
 567 00ae 00BF     		.align	2
 568              	.L74:
 569 00b0 CDCCCCCC 		.word	-858993459
 570              		.cfi_endproc
 571              	.LFE1:
 572              		.cantunwind
 573              		.fnend
 575              		.section	.text._ZN3VFO14utf8to1251DestEPKcPcj,"ax",%progbits
 576              		.align	1
 577              		.p2align 2,,3
 578              		.global	_ZN3VFO14utf8to1251DestEPKcPcj
 579              		.syntax unified
 580              		.thumb
 581              		.thumb_func
 582              		.fpu softvfp
 584              	_ZN3VFO14utf8to1251DestEPKcPcj:
 585              		.fnstart
 586              	.LVL80:
 587              	.LFB2:
 155:Src/VFO/GUI/Utils.cpp **** 
 156:Src/VFO/GUI/Utils.cpp **** 
 157:Src/VFO/GUI/Utils.cpp **** 
 158:Src/VFO/GUI/Utils.cpp **** char* utf8to1251Dest(const char *utf8, char *dest, size_t len)
 159:Src/VFO/GUI/Utils.cpp **** {
 588              		.loc 1 159 1 is_stmt 1 view -0
 589              		.cfi_startproc
 590              		@ args = 0, pretend = 0, frame = 0
 591              		@ frame_needed = 0, uses_anonymous_args = 0
 592              		@ link register save eliminated.
 160:Src/VFO/GUI/Utils.cpp **** 	int i = 0;
 593              		.loc 1 160 2 view .LVU197
 161:Src/VFO/GUI/Utils.cpp **** 	size_t j = 0;
 594              		.loc 1 161 2 view .LVU198
 162:Src/VFO/GUI/Utils.cpp **** 	for (; utf8[i] != 0 && j < len; ++i)
 595              		.loc 1 162 2 view .LVU199
 596              	.LBB2:
 597              		.loc 1 162 15 is_stmt 0 view .LVU200
 598 0000 0378     		ldrb	r3, [r0]	@ zero_extendqisi2
 599              		.loc 1 162 22 view .LVU201
 600 0002 002B     		cmp	r3, #0
 601 0004 46D0     		beq	.L94
 602 0006 002A     		cmp	r2, #0
 603 0008 44D0     		beq	.L94
 604              	.LBE2:
 159:Src/VFO/GUI/Utils.cpp **** 	int i = 0;
 605              		.loc 1 159 1 view .LVU202
 606 000a F0B4     		push	{r4, r5, r6, r7}
 607              	.LCFI4:
 608              		.cfi_def_cfa_offset 16
 609              		.cfi_offset 4, -16
ARM GAS  /var/folders/20/cstyxln53wn53rr40gj353bh0000gn/T//ccQ1MofN.s 			page 17


 610              		.cfi_offset 5, -12
 611              		.cfi_offset 6, -8
 612              		.cfi_offset 7, -4
 160:Src/VFO/GUI/Utils.cpp **** 	size_t j = 0;
 613              		.loc 1 160 6 view .LVU203
 614 000c 0024     		movs	r4, #0
 615              	.LBB23:
 616              		.loc 1 162 22 view .LVU204
 617 000e 0D46     		mov	r5, r1
 618              		.loc 1 162 15 view .LVU205
 619 0010 2646     		mov	r6, r4
 620 0012 C1F10107 		rsb	r7, r1, #1
 621 0016 0AE0     		b	.L79
 622              	.LVL81:
 623              	.L98:
 624              	.LBB3:
 625              	.LBB4:
 163:Src/VFO/GUI/Utils.cpp **** 	{
 164:Src/VFO/GUI/Utils.cpp **** 		char prefix = utf8[i];
 165:Src/VFO/GUI/Utils.cpp **** 		char suffix = utf8[i + 1];
 166:Src/VFO/GUI/Utils.cpp **** 		if ((prefix & 0x80) == 0)
 167:Src/VFO/GUI/Utils.cpp **** 		{
 168:Src/VFO/GUI/Utils.cpp **** 			dest[j] = (char) prefix;
 626              		.loc 1 168 4 is_stmt 1 view .LVU206
 627              	.LBE4:
 628              	.LBE3:
 162:Src/VFO/GUI/Utils.cpp **** 	{
 629              		.loc 1 162 2 is_stmt 0 view .LVU207
 630 0018 0134     		adds	r4, r4, #1
 631              	.LVL82:
 632              	.LBB18:
 633              	.LBB12:
 634              		.loc 1 168 12 view .LVU208
 635 001a 2B70     		strb	r3, [r5]
 169:Src/VFO/GUI/Utils.cpp **** 			++j;
 636              		.loc 1 169 4 is_stmt 1 view .LVU209
 637              	.LBE12:
 638              	.LBE18:
 162:Src/VFO/GUI/Utils.cpp **** 	{
 639              		.loc 1 162 15 is_stmt 0 view .LVU210
 640 001c 035D     		ldrb	r3, [r0, r4]	@ zero_extendqisi2
 641              	.LVL83:
 162:Src/VFO/GUI/Utils.cpp **** 	{
 642              		.loc 1 162 15 view .LVU211
 643 001e 07EB050C 		add	ip, r7, r5
 644              	.LVL84:
 162:Src/VFO/GUI/Utils.cpp **** 	{
 645              		.loc 1 162 15 view .LVU212
 646              	.LBE23:
 162:Src/VFO/GUI/Utils.cpp **** 	{
 647              		.loc 1 162 2 is_stmt 1 view .LVU213
 648              	.LBB24:
 162:Src/VFO/GUI/Utils.cpp **** 	{
 649              		.loc 1 162 15 is_stmt 0 view .LVU214
 650 0022 2646     		mov	r6, r4
 162:Src/VFO/GUI/Utils.cpp **** 	{
 651              		.loc 1 162 22 view .LVU215
ARM GAS  /var/folders/20/cstyxln53wn53rr40gj353bh0000gn/T//ccQ1MofN.s 			page 18


 652 0024 FBB1     		cbz	r3, .L97
 653              	.LVL85:
 654              	.L86:
 162:Src/VFO/GUI/Utils.cpp **** 	{
 655              		.loc 1 162 22 discriminator 1 view .LVU216
 656 0026 9445     		cmp	ip, r2
 657 0028 05F10105 		add	r5, r5, #1
 658 002c 1BD2     		bcs	.L97
 659              	.LVL86:
 660              	.L79:
 661              	.LBB19:
 164:Src/VFO/GUI/Utils.cpp **** 		char suffix = utf8[i + 1];
 662              		.loc 1 164 3 is_stmt 1 view .LVU217
 165:Src/VFO/GUI/Utils.cpp **** 		if ((prefix & 0x80) == 0)
 663              		.loc 1 165 3 view .LVU218
 166:Src/VFO/GUI/Utils.cpp **** 		{
 664              		.loc 1 166 3 view .LVU219
 665              	.LBB13:
 666 002e 13F0800F 		tst	r3, #128
 667 0032 F1D0     		beq	.L98
 668              	.LBE13:
 669              	.LBE19:
 670              	.LBE24:
 170:Src/VFO/GUI/Utils.cpp **** 		}
 171:Src/VFO/GUI/Utils.cpp **** 		else if ((~prefix) & 0x20)
 671              		.loc 1 171 8 view .LVU220
 672              	.LBB25:
 673              	.LBB20:
 674              	.LBB14:
 675              	.LBB5:
 676 0034 13F0200C 		ands	ip, r3, #32
 677 0038 27D1     		bne	.L89
 678              	.LBB6:
 172:Src/VFO/GUI/Utils.cpp **** 		{
 173:Src/VFO/GUI/Utils.cpp **** 			int first5bit = prefix & 0x1F;
 679              		.loc 1 173 4 view .LVU221
 680              	.LBE6:
 681              	.LBE5:
 682              	.LBE14:
 165:Src/VFO/GUI/Utils.cpp **** 		if ((prefix & 0x80) == 0)
 683              		.loc 1 165 8 is_stmt 0 view .LVU222
 684 003a 0644     		add	r6, r6, r0
 685              	.LBB15:
 686              	.LBB9:
 687              	.LBB7:
 174:Src/VFO/GUI/Utils.cpp **** 			first5bit <<= 6;
 175:Src/VFO/GUI/Utils.cpp **** 			int sec6bit = suffix & 0x3F;
 688              		.loc 1 175 8 view .LVU223
 689 003c 7678     		ldrb	r6, [r6, #1]	@ zero_extendqisi2
 173:Src/VFO/GUI/Utils.cpp **** 			first5bit <<= 6;
 690              		.loc 1 173 8 view .LVU224
 691 003e 03F01F03 		and	r3, r3, #31
 692              	.LVL87:
 174:Src/VFO/GUI/Utils.cpp **** 			first5bit <<= 6;
 693              		.loc 1 174 4 is_stmt 1 view .LVU225
 694              		.loc 1 175 4 view .LVU226
 176:Src/VFO/GUI/Utils.cpp **** 			int unicode_char = first5bit + sec6bit;
ARM GAS  /var/folders/20/cstyxln53wn53rr40gj353bh0000gn/T//ccQ1MofN.s 			page 19


 695              		.loc 1 176 4 view .LVU227
 175:Src/VFO/GUI/Utils.cpp **** 			int unicode_char = first5bit + sec6bit;
 696              		.loc 1 175 8 is_stmt 0 view .LVU228
 697 0042 06F03F06 		and	r6, r6, #63
 698              		.loc 1 176 33 view .LVU229
 699 0046 06EB8313 		add	r3, r6, r3, lsl #6
 700              	.LVL88:
 177:Src/VFO/GUI/Utils.cpp **** 
 178:Src/VFO/GUI/Utils.cpp **** 			if (unicode_char >= 0x410 && unicode_char <= 0x44F)
 701              		.loc 1 178 4 is_stmt 1 view .LVU230
 702              		.loc 1 178 30 is_stmt 0 view .LVU231
 703 004a A3F58266 		sub	r6, r3, #1040
 704              		.loc 1 178 4 view .LVU232
 705 004e 3F2E     		cmp	r6, #63
 706 0050 10D8     		bhi	.L83
 179:Src/VFO/GUI/Utils.cpp **** 			{
 180:Src/VFO/GUI/Utils.cpp **** 				dest[j] = (char) (unicode_char - 0x350);
 707              		.loc 1 180 5 is_stmt 1 view .LVU233
 708              		.loc 1 180 36 is_stmt 0 view .LVU234
 709 0052 503B     		subs	r3, r3, #80
 710              	.LVL89:
 711              		.loc 1 180 13 view .LVU235
 712 0054 2B70     		strb	r3, [r5]
 713              	.LVL90:
 714              	.L84:
 181:Src/VFO/GUI/Utils.cpp **** 			}
 182:Src/VFO/GUI/Utils.cpp **** 			else if (unicode_char >= 0x80 && unicode_char <= 0xFF)
 183:Src/VFO/GUI/Utils.cpp **** 			{
 184:Src/VFO/GUI/Utils.cpp **** 				dest[j] = (char) (unicode_char);
 185:Src/VFO/GUI/Utils.cpp **** 			}
 186:Src/VFO/GUI/Utils.cpp **** 			else if (unicode_char >= 0x402 && unicode_char <= 0x403)
 187:Src/VFO/GUI/Utils.cpp **** 			{
 188:Src/VFO/GUI/Utils.cpp **** 				dest[j] = (char) (unicode_char - 0x382);
 189:Src/VFO/GUI/Utils.cpp **** 			}
 190:Src/VFO/GUI/Utils.cpp **** 			else
 191:Src/VFO/GUI/Utils.cpp **** 			{
 192:Src/VFO/GUI/Utils.cpp **** 				// can't convert this char
 193:Src/VFO/GUI/Utils.cpp **** 				return 0;
 194:Src/VFO/GUI/Utils.cpp **** 			}
 195:Src/VFO/GUI/Utils.cpp **** 			++i;
 715              		.loc 1 195 4 is_stmt 1 view .LVU236
 716 0056 0134     		adds	r4, r4, #1
 717              	.LVL91:
 196:Src/VFO/GUI/Utils.cpp **** 			++j;
 718              		.loc 1 196 4 view .LVU237
 719              	.LBE7:
 720              	.LBE9:
 721              	.LBE15:
 722              	.LBE20:
 162:Src/VFO/GUI/Utils.cpp **** 	{
 723              		.loc 1 162 2 is_stmt 0 view .LVU238
 724 0058 0134     		adds	r4, r4, #1
 725              	.LVL92:
 162:Src/VFO/GUI/Utils.cpp **** 	{
 726              		.loc 1 162 15 view .LVU239
 727 005a 035D     		ldrb	r3, [r0, r4]	@ zero_extendqisi2
 728 005c 07EB050C 		add	ip, r7, r5
ARM GAS  /var/folders/20/cstyxln53wn53rr40gj353bh0000gn/T//ccQ1MofN.s 			page 20


 729              	.LVL93:
 162:Src/VFO/GUI/Utils.cpp **** 	{
 730              		.loc 1 162 15 view .LVU240
 731              	.LBE25:
 162:Src/VFO/GUI/Utils.cpp **** 	{
 732              		.loc 1 162 2 is_stmt 1 view .LVU241
 733              	.LBB26:
 162:Src/VFO/GUI/Utils.cpp **** 	{
 734              		.loc 1 162 15 is_stmt 0 view .LVU242
 735 0060 2646     		mov	r6, r4
 162:Src/VFO/GUI/Utils.cpp **** 	{
 736              		.loc 1 162 22 view .LVU243
 737 0062 002B     		cmp	r3, #0
 738 0064 DFD1     		bne	.L86
 739              	.L97:
 162:Src/VFO/GUI/Utils.cpp **** 	{
 740              		.loc 1 162 22 view .LVU244
 741              	.LBE26:
 197:Src/VFO/GUI/Utils.cpp **** 		}
 198:Src/VFO/GUI/Utils.cpp **** 		else
 199:Src/VFO/GUI/Utils.cpp **** 		{
 200:Src/VFO/GUI/Utils.cpp **** 			// can't convert this chars
 201:Src/VFO/GUI/Utils.cpp **** 			return 0;
 202:Src/VFO/GUI/Utils.cpp **** 		}
 203:Src/VFO/GUI/Utils.cpp **** 	}
 204:Src/VFO/GUI/Utils.cpp **** 	dest[j] = 0;
 742              		.loc 1 204 10 view .LVU245
 743 0066 0023     		movs	r3, #0
 205:Src/VFO/GUI/Utils.cpp **** 	return dest;
 744              		.loc 1 205 9 view .LVU246
 745 0068 0846     		mov	r0, r1
 746              	.LVL94:
 747              		.loc 1 205 9 view .LVU247
 748 006a 8C44     		add	ip, ip, r1
 749              	.LVL95:
 204:Src/VFO/GUI/Utils.cpp **** 	return dest;
 750              		.loc 1 204 2 is_stmt 1 view .LVU248
 204:Src/VFO/GUI/Utils.cpp **** 	return dest;
 751              		.loc 1 204 10 is_stmt 0 view .LVU249
 752 006c 8CF80030 		strb	r3, [ip]
 753              		.loc 1 205 2 is_stmt 1 view .LVU250
 754              	.L76:
 206:Src/VFO/GUI/Utils.cpp **** }
 755              		.loc 1 206 1 is_stmt 0 view .LVU251
 756 0070 F0BC     		pop	{r4, r5, r6, r7}
 757              	.LCFI5:
 758              		.cfi_remember_state
 759              		.cfi_restore 7
 760              		.cfi_restore 6
 761              		.cfi_restore 5
 762              		.cfi_restore 4
 763              		.cfi_def_cfa_offset 0
 764              	.LVL96:
 765              		.loc 1 206 1 view .LVU252
 766 0072 7047     		bx	lr
 767              	.LVL97:
 768              	.L83:
ARM GAS  /var/folders/20/cstyxln53wn53rr40gj353bh0000gn/T//ccQ1MofN.s 			page 21


 769              	.LCFI6:
 770              		.cfi_restore_state
 771              	.LBB27:
 772              	.LBB21:
 773              	.LBB16:
 774              	.LBB10:
 775              	.LBB8:
 182:Src/VFO/GUI/Utils.cpp **** 			{
 776              		.loc 1 182 9 is_stmt 1 view .LVU253
 182:Src/VFO/GUI/Utils.cpp **** 			{
 777              		.loc 1 182 34 is_stmt 0 view .LVU254
 778 0074 A3F18006 		sub	r6, r3, #128
 182:Src/VFO/GUI/Utils.cpp **** 			{
 779              		.loc 1 182 9 view .LVU255
 780 0078 7F2E     		cmp	r6, #127
 781 007a 04D9     		bls	.L96
 186:Src/VFO/GUI/Utils.cpp **** 			{
 782              		.loc 1 186 9 is_stmt 1 view .LVU256
 186:Src/VFO/GUI/Utils.cpp **** 			{
 783              		.loc 1 186 35 is_stmt 0 view .LVU257
 784 007c A3F20246 		subw	r6, r3, #1026
 186:Src/VFO/GUI/Utils.cpp **** 			{
 785              		.loc 1 186 9 view .LVU258
 786 0080 012E     		cmp	r6, #1
 787 0082 05D8     		bhi	.L90
 188:Src/VFO/GUI/Utils.cpp **** 			}
 788              		.loc 1 188 5 is_stmt 1 view .LVU259
 188:Src/VFO/GUI/Utils.cpp **** 			}
 789              		.loc 1 188 36 is_stmt 0 view .LVU260
 790 0084 7E33     		adds	r3, r3, #126
 791              	.LVL98:
 792              	.L96:
 188:Src/VFO/GUI/Utils.cpp **** 			}
 793              		.loc 1 188 13 view .LVU261
 794 0086 2B70     		strb	r3, [r5]
 188:Src/VFO/GUI/Utils.cpp **** 			}
 795              		.loc 1 188 13 view .LVU262
 796 0088 E5E7     		b	.L84
 797              	.LVL99:
 798              	.L89:
 188:Src/VFO/GUI/Utils.cpp **** 			}
 799              		.loc 1 188 13 view .LVU263
 800              	.LBE8:
 201:Src/VFO/GUI/Utils.cpp **** 		}
 801              		.loc 1 201 11 view .LVU264
 802 008a 0020     		movs	r0, #0
 803              	.LVL100:
 201:Src/VFO/GUI/Utils.cpp **** 		}
 804              		.loc 1 201 11 view .LVU265
 805              	.LBE10:
 806              	.LBE16:
 807              	.LBE21:
 808              	.LBE27:
 809              		.loc 1 206 1 view .LVU266
 810 008c F0BC     		pop	{r4, r5, r6, r7}
 811              	.LCFI7:
 812              		.cfi_remember_state
ARM GAS  /var/folders/20/cstyxln53wn53rr40gj353bh0000gn/T//ccQ1MofN.s 			page 22


 813              		.cfi_restore 7
 814              		.cfi_restore 6
 815              		.cfi_restore 5
 816              		.cfi_restore 4
 817              		.cfi_def_cfa_offset 0
 818              	.LVL101:
 819              		.loc 1 206 1 view .LVU267
 820 008e 7047     		bx	lr
 821              	.LVL102:
 822              	.L90:
 823              	.LCFI8:
 824              		.cfi_restore_state
 825              	.LBB28:
 826              	.LBB22:
 827              	.LBB17:
 828              	.LBB11:
 201:Src/VFO/GUI/Utils.cpp **** 		}
 829              		.loc 1 201 11 view .LVU268
 830 0090 6046     		mov	r0, ip
 831              	.LVL103:
 201:Src/VFO/GUI/Utils.cpp **** 		}
 832              		.loc 1 201 11 view .LVU269
 833 0092 EDE7     		b	.L76
 834              	.LVL104:
 835              	.L94:
 836              	.LCFI9:
 837              		.cfi_def_cfa_offset 0
 838              		.cfi_restore 4
 839              		.cfi_restore 5
 840              		.cfi_restore 6
 841              		.cfi_restore 7
 201:Src/VFO/GUI/Utils.cpp **** 		}
 842              		.loc 1 201 11 view .LVU270
 843              	.LBE11:
 844              	.LBE17:
 845              	.LBE22:
 846              	.LBE28:
 204:Src/VFO/GUI/Utils.cpp **** 	return dest;
 847              		.loc 1 204 2 is_stmt 1 view .LVU271
 204:Src/VFO/GUI/Utils.cpp **** 	return dest;
 848              		.loc 1 204 10 is_stmt 0 view .LVU272
 849 0094 0023     		movs	r3, #0
 205:Src/VFO/GUI/Utils.cpp **** }
 850              		.loc 1 205 9 view .LVU273
 851 0096 0846     		mov	r0, r1
 852              	.LVL105:
 204:Src/VFO/GUI/Utils.cpp **** 	return dest;
 853              		.loc 1 204 10 view .LVU274
 854 0098 0B70     		strb	r3, [r1]
 205:Src/VFO/GUI/Utils.cpp **** }
 855              		.loc 1 205 2 is_stmt 1 view .LVU275
 856              		.loc 1 206 1 is_stmt 0 view .LVU276
 857 009a 7047     		bx	lr
 858              		.cfi_endproc
 859              	.LFE2:
 860              		.cantunwind
 861              		.fnend
ARM GAS  /var/folders/20/cstyxln53wn53rr40gj353bh0000gn/T//ccQ1MofN.s 			page 23


 863              		.section	.text._ZN3VFO10utf8to1251EPc,"ax",%progbits
 864              		.align	1
 865              		.p2align 2,,3
 866              		.global	_ZN3VFO10utf8to1251EPc
 867              		.syntax unified
 868              		.thumb
 869              		.thumb_func
 870              		.fpu softvfp
 872              	_ZN3VFO10utf8to1251EPc:
 873              		.fnstart
 874              	.LVL106:
 875              	.LFB3:
 207:Src/VFO/GUI/Utils.cpp **** 
 208:Src/VFO/GUI/Utils.cpp **** 
 209:Src/VFO/GUI/Utils.cpp **** char* utf8to1251(char *utf8)
 210:Src/VFO/GUI/Utils.cpp **** {
 876              		.loc 1 210 1 is_stmt 1 view -0
 877              		.cfi_startproc
 878              		@ args = 0, pretend = 0, frame = 0
 879              		@ frame_needed = 0, uses_anonymous_args = 0
 880              		@ link register save eliminated.
 211:Src/VFO/GUI/Utils.cpp **** 	int i = 0;
 881              		.loc 1 211 2 view .LVU278
 212:Src/VFO/GUI/Utils.cpp **** 	int j = 0;
 882              		.loc 1 212 2 view .LVU279
 213:Src/VFO/GUI/Utils.cpp **** 	for (; utf8[i] != 0; ++i)
 883              		.loc 1 213 2 view .LVU280
 210:Src/VFO/GUI/Utils.cpp **** 	int i = 0;
 884              		.loc 1 210 1 is_stmt 0 view .LVU281
 885 0000 70B4     		push	{r4, r5, r6}
 886              	.LCFI10:
 887              		.cfi_def_cfa_offset 12
 888              		.cfi_offset 4, -12
 889              		.cfi_offset 5, -8
 890              		.cfi_offset 6, -4
 891              	.LBB29:
 892              		.loc 1 213 15 view .LVU282
 893 0002 0378     		ldrb	r3, [r0]	@ zero_extendqisi2
 894              		.loc 1 213 17 view .LVU283
 895 0004 002B     		cmp	r3, #0
 896 0006 3CD0     		beq	.L108
 897              	.LBE29:
 211:Src/VFO/GUI/Utils.cpp **** 	int j = 0;
 898              		.loc 1 211 6 view .LVU284
 899 0008 0022     		movs	r2, #0
 900              	.LBB48:
 901              		.loc 1 213 17 view .LVU285
 902 000a 0146     		mov	r1, r0
 903              		.loc 1 213 15 view .LVU286
 904 000c 1446     		mov	r4, r2
 905 000e C0F10106 		rsb	r6, r0, #1
 906 0012 06E0     		b	.L107
 907              	.LVL107:
 908              	.L115:
 909              	.LBB30:
 910              	.LBB31:
 214:Src/VFO/GUI/Utils.cpp **** 	{
ARM GAS  /var/folders/20/cstyxln53wn53rr40gj353bh0000gn/T//ccQ1MofN.s 			page 24


 215:Src/VFO/GUI/Utils.cpp **** 		char prefix = utf8[i];
 216:Src/VFO/GUI/Utils.cpp **** 		char suffix = utf8[i + 1];
 217:Src/VFO/GUI/Utils.cpp **** 		if ((prefix & 0x80) == 0)
 218:Src/VFO/GUI/Utils.cpp **** 		{
 219:Src/VFO/GUI/Utils.cpp **** 			utf8[j] = (char) prefix;
 911              		.loc 1 219 4 is_stmt 1 view .LVU287
 912              		.loc 1 219 12 is_stmt 0 view .LVU288
 913 0014 0B70     		strb	r3, [r1]
 220:Src/VFO/GUI/Utils.cpp **** 			++j;
 914              		.loc 1 220 4 is_stmt 1 view .LVU289
 915              	.LBE31:
 916              	.LBE30:
 213:Src/VFO/GUI/Utils.cpp **** 	{
 917              		.loc 1 213 2 is_stmt 0 view .LVU290
 918 0016 0132     		adds	r2, r2, #1
 919              	.LVL108:
 213:Src/VFO/GUI/Utils.cpp **** 	{
 920              		.loc 1 213 15 view .LVU291
 921 0018 835C     		ldrb	r3, [r0, r2]	@ zero_extendqisi2
 922              	.LVL109:
 213:Src/VFO/GUI/Utils.cpp **** 	{
 923              		.loc 1 213 15 view .LVU292
 924 001a 7518     		adds	r5, r6, r1
 925              	.LVL110:
 213:Src/VFO/GUI/Utils.cpp **** 	{
 926              		.loc 1 213 15 view .LVU293
 927              	.LBE48:
 213:Src/VFO/GUI/Utils.cpp **** 	{
 928              		.loc 1 213 2 is_stmt 1 view .LVU294
 929              	.LBB49:
 213:Src/VFO/GUI/Utils.cpp **** 	{
 930              		.loc 1 213 15 is_stmt 0 view .LVU295
 931 001c 1446     		mov	r4, r2
 932 001e 0131     		adds	r1, r1, #1
 933              	.LVL111:
 213:Src/VFO/GUI/Utils.cpp **** 	{
 934              		.loc 1 213 17 view .LVU296
 935 0020 D3B1     		cbz	r3, .L114
 936              	.LVL112:
 937              	.L107:
 938              	.LBB44:
 215:Src/VFO/GUI/Utils.cpp **** 		char suffix = utf8[i + 1];
 939              		.loc 1 215 3 is_stmt 1 view .LVU297
 216:Src/VFO/GUI/Utils.cpp **** 		if ((prefix & 0x80) == 0)
 940              		.loc 1 216 3 view .LVU298
 217:Src/VFO/GUI/Utils.cpp **** 		{
 941              		.loc 1 217 3 view .LVU299
 942              	.LBB39:
 943 0022 1D06     		lsls	r5, r3, #24
 944 0024 F6D5     		bpl	.L115
 945              	.LBE39:
 946              	.LBE44:
 947              	.LBE49:
 221:Src/VFO/GUI/Utils.cpp **** 		}
 222:Src/VFO/GUI/Utils.cpp **** 		else if ((~prefix) & 0x20)
 948              		.loc 1 222 8 view .LVU300
 949              	.LBB50:
ARM GAS  /var/folders/20/cstyxln53wn53rr40gj353bh0000gn/T//ccQ1MofN.s 			page 25


 950              	.LBB45:
 951              	.LBB40:
 952              	.LBB32:
 953 0026 13F02005 		ands	r5, r3, #32
 954 002a 25D1     		bne	.L109
 955              	.LBB33:
 223:Src/VFO/GUI/Utils.cpp **** 		{
 224:Src/VFO/GUI/Utils.cpp **** 			int first5bit = prefix & 0x1F;
 956              		.loc 1 224 4 view .LVU301
 957              	.LBE33:
 958              	.LBE32:
 959              	.LBE40:
 216:Src/VFO/GUI/Utils.cpp **** 		if ((prefix & 0x80) == 0)
 960              		.loc 1 216 8 is_stmt 0 view .LVU302
 961 002c 0444     		add	r4, r4, r0
 962              	.LBB41:
 963              	.LBB36:
 964              	.LBB34:
 225:Src/VFO/GUI/Utils.cpp **** 			first5bit <<= 6;
 226:Src/VFO/GUI/Utils.cpp **** 			int sec6bit = suffix & 0x3F;
 965              		.loc 1 226 8 view .LVU303
 966 002e 6478     		ldrb	r4, [r4, #1]	@ zero_extendqisi2
 224:Src/VFO/GUI/Utils.cpp **** 			first5bit <<= 6;
 967              		.loc 1 224 8 view .LVU304
 968 0030 03F01F03 		and	r3, r3, #31
 969              	.LVL113:
 225:Src/VFO/GUI/Utils.cpp **** 			first5bit <<= 6;
 970              		.loc 1 225 4 is_stmt 1 view .LVU305
 971              		.loc 1 226 4 view .LVU306
 227:Src/VFO/GUI/Utils.cpp **** 			int unicode_char = first5bit + sec6bit;
 972              		.loc 1 227 4 view .LVU307
 226:Src/VFO/GUI/Utils.cpp **** 			int unicode_char = first5bit + sec6bit;
 973              		.loc 1 226 8 is_stmt 0 view .LVU308
 974 0034 04F03F04 		and	r4, r4, #63
 975              		.loc 1 227 33 view .LVU309
 976 0038 04EB8313 		add	r3, r4, r3, lsl #6
 977              	.LVL114:
 228:Src/VFO/GUI/Utils.cpp **** 
 229:Src/VFO/GUI/Utils.cpp **** 			if (unicode_char >= 0x410 && unicode_char <= 0x44F)
 978              		.loc 1 229 4 is_stmt 1 view .LVU310
 979              		.loc 1 229 30 is_stmt 0 view .LVU311
 980 003c A3F58264 		sub	r4, r3, #1040
 981              		.loc 1 229 4 view .LVU312
 982 0040 3F2C     		cmp	r4, #63
 983 0042 0ED8     		bhi	.L104
 230:Src/VFO/GUI/Utils.cpp **** 			{
 231:Src/VFO/GUI/Utils.cpp **** 				utf8[j] = (char) (unicode_char - 0x350);
 984              		.loc 1 231 5 is_stmt 1 view .LVU313
 985              		.loc 1 231 36 is_stmt 0 view .LVU314
 986 0044 503B     		subs	r3, r3, #80
 987              	.LVL115:
 988              		.loc 1 231 13 view .LVU315
 989 0046 0B70     		strb	r3, [r1]
 990              	.LVL116:
 991              	.L105:
 232:Src/VFO/GUI/Utils.cpp **** 			}
 233:Src/VFO/GUI/Utils.cpp **** 			else if (unicode_char >= 0x80 && unicode_char <= 0xFF)
ARM GAS  /var/folders/20/cstyxln53wn53rr40gj353bh0000gn/T//ccQ1MofN.s 			page 26


 234:Src/VFO/GUI/Utils.cpp **** 			{
 235:Src/VFO/GUI/Utils.cpp **** 				utf8[j] = (char) (unicode_char);
 236:Src/VFO/GUI/Utils.cpp **** 			}
 237:Src/VFO/GUI/Utils.cpp **** 			else if (unicode_char >= 0x402 && unicode_char <= 0x403)
 238:Src/VFO/GUI/Utils.cpp **** 			{
 239:Src/VFO/GUI/Utils.cpp **** 				utf8[j] = (char) (unicode_char - 0x382);
 240:Src/VFO/GUI/Utils.cpp **** 			}
 241:Src/VFO/GUI/Utils.cpp **** 			else
 242:Src/VFO/GUI/Utils.cpp **** 			{
 243:Src/VFO/GUI/Utils.cpp **** 				// can't convert this char
 244:Src/VFO/GUI/Utils.cpp **** 				return 0;
 245:Src/VFO/GUI/Utils.cpp **** 			}
 246:Src/VFO/GUI/Utils.cpp **** 			++i;
 992              		.loc 1 246 4 is_stmt 1 view .LVU316
 993 0048 0132     		adds	r2, r2, #1
 994              	.LVL117:
 247:Src/VFO/GUI/Utils.cpp **** 			++j;
 995              		.loc 1 247 4 view .LVU317
 996              	.LBE34:
 997              	.LBE36:
 998              	.LBE41:
 999              	.LBE45:
 213:Src/VFO/GUI/Utils.cpp **** 	{
 1000              		.loc 1 213 2 is_stmt 0 view .LVU318
 1001 004a 0132     		adds	r2, r2, #1
 1002              	.LVL118:
 213:Src/VFO/GUI/Utils.cpp **** 	{
 1003              		.loc 1 213 15 view .LVU319
 1004 004c 835C     		ldrb	r3, [r0, r2]	@ zero_extendqisi2
 1005 004e 7518     		adds	r5, r6, r1
 1006              	.LVL119:
 213:Src/VFO/GUI/Utils.cpp **** 	{
 1007              		.loc 1 213 15 view .LVU320
 1008              	.LBE50:
 213:Src/VFO/GUI/Utils.cpp **** 	{
 1009              		.loc 1 213 2 is_stmt 1 view .LVU321
 1010              	.LBB51:
 213:Src/VFO/GUI/Utils.cpp **** 	{
 1011              		.loc 1 213 15 is_stmt 0 view .LVU322
 1012 0050 1446     		mov	r4, r2
 1013 0052 0131     		adds	r1, r1, #1
 213:Src/VFO/GUI/Utils.cpp **** 	{
 1014              		.loc 1 213 17 view .LVU323
 1015 0054 002B     		cmp	r3, #0
 1016 0056 E4D1     		bne	.L107
 1017              	.L114:
 213:Src/VFO/GUI/Utils.cpp **** 	{
 1018              		.loc 1 213 17 view .LVU324
 1019 0058 0544     		add	r5, r5, r0
 1020              	.LVL120:
 1021              	.L100:
 213:Src/VFO/GUI/Utils.cpp **** 	{
 1022              		.loc 1 213 17 view .LVU325
 1023              	.LBE51:
 248:Src/VFO/GUI/Utils.cpp **** 		}
 249:Src/VFO/GUI/Utils.cpp **** 		else
 250:Src/VFO/GUI/Utils.cpp **** 		{
ARM GAS  /var/folders/20/cstyxln53wn53rr40gj353bh0000gn/T//ccQ1MofN.s 			page 27


 251:Src/VFO/GUI/Utils.cpp **** 			// can't convert this chars
 252:Src/VFO/GUI/Utils.cpp **** 			return 0;
 253:Src/VFO/GUI/Utils.cpp **** 		}
 254:Src/VFO/GUI/Utils.cpp **** 	}
 255:Src/VFO/GUI/Utils.cpp **** 	utf8[j] = 0;
 1024              		.loc 1 255 2 is_stmt 1 view .LVU326
 1025              		.loc 1 255 10 is_stmt 0 view .LVU327
 1026 005a 0023     		movs	r3, #0
 1027 005c 2B70     		strb	r3, [r5]
 256:Src/VFO/GUI/Utils.cpp **** 	return utf8;
 1028              		.loc 1 256 2 is_stmt 1 view .LVU328
 1029              	.LVL121:
 1030              	.L99:
 257:Src/VFO/GUI/Utils.cpp **** }
 1031              		.loc 1 257 1 is_stmt 0 view .LVU329
 1032 005e 70BC     		pop	{r4, r5, r6}
 1033              	.LCFI11:
 1034              		.cfi_remember_state
 1035              		.cfi_restore 6
 1036              		.cfi_restore 5
 1037              		.cfi_restore 4
 1038              		.cfi_def_cfa_offset 0
 1039 0060 7047     		bx	lr
 1040              	.LVL122:
 1041              	.L104:
 1042              	.LCFI12:
 1043              		.cfi_restore_state
 1044              	.LBB52:
 1045              	.LBB46:
 1046              	.LBB42:
 1047              	.LBB37:
 1048              	.LBB35:
 233:Src/VFO/GUI/Utils.cpp **** 			{
 1049              		.loc 1 233 9 is_stmt 1 view .LVU330
 233:Src/VFO/GUI/Utils.cpp **** 			{
 1050              		.loc 1 233 34 is_stmt 0 view .LVU331
 1051 0062 A3F18004 		sub	r4, r3, #128
 233:Src/VFO/GUI/Utils.cpp **** 			{
 1052              		.loc 1 233 9 view .LVU332
 1053 0066 7F2C     		cmp	r4, #127
 1054 0068 04D9     		bls	.L113
 237:Src/VFO/GUI/Utils.cpp **** 			{
 1055              		.loc 1 237 9 is_stmt 1 view .LVU333
 237:Src/VFO/GUI/Utils.cpp **** 			{
 1056              		.loc 1 237 35 is_stmt 0 view .LVU334
 1057 006a A3F20244 		subw	r4, r3, #1026
 237:Src/VFO/GUI/Utils.cpp **** 			{
 1058              		.loc 1 237 9 view .LVU335
 1059 006e 012C     		cmp	r4, #1
 1060 0070 05D8     		bhi	.L110
 239:Src/VFO/GUI/Utils.cpp **** 			}
 1061              		.loc 1 239 5 is_stmt 1 view .LVU336
 239:Src/VFO/GUI/Utils.cpp **** 			}
 1062              		.loc 1 239 36 is_stmt 0 view .LVU337
 1063 0072 7E33     		adds	r3, r3, #126
 1064              	.LVL123:
 1065              	.L113:
ARM GAS  /var/folders/20/cstyxln53wn53rr40gj353bh0000gn/T//ccQ1MofN.s 			page 28


 239:Src/VFO/GUI/Utils.cpp **** 			}
 1066              		.loc 1 239 13 view .LVU338
 1067 0074 0B70     		strb	r3, [r1]
 239:Src/VFO/GUI/Utils.cpp **** 			}
 1068              		.loc 1 239 13 view .LVU339
 1069 0076 E7E7     		b	.L105
 1070              	.LVL124:
 1071              	.L109:
 239:Src/VFO/GUI/Utils.cpp **** 			}
 1072              		.loc 1 239 13 view .LVU340
 1073              	.LBE35:
 252:Src/VFO/GUI/Utils.cpp **** 		}
 1074              		.loc 1 252 11 view .LVU341
 1075 0078 0020     		movs	r0, #0
 1076              	.LVL125:
 252:Src/VFO/GUI/Utils.cpp **** 		}
 1077              		.loc 1 252 11 view .LVU342
 1078              	.LBE37:
 1079              	.LBE42:
 1080              	.LBE46:
 1081              	.LBE52:
 1082              		.loc 1 257 1 view .LVU343
 1083 007a 70BC     		pop	{r4, r5, r6}
 1084              	.LCFI13:
 1085              		.cfi_remember_state
 1086              		.cfi_restore 6
 1087              		.cfi_restore 5
 1088              		.cfi_restore 4
 1089              		.cfi_def_cfa_offset 0
 1090 007c 7047     		bx	lr
 1091              	.LVL126:
 1092              	.L110:
 1093              	.LCFI14:
 1094              		.cfi_restore_state
 1095              	.LBB53:
 1096              	.LBB47:
 1097              	.LBB43:
 1098              	.LBB38:
 252:Src/VFO/GUI/Utils.cpp **** 		}
 1099              		.loc 1 252 11 view .LVU344
 1100 007e 2846     		mov	r0, r5
 1101              	.LVL127:
 252:Src/VFO/GUI/Utils.cpp **** 		}
 1102              		.loc 1 252 11 view .LVU345
 1103 0080 EDE7     		b	.L99
 1104              	.LVL128:
 1105              	.L108:
 252:Src/VFO/GUI/Utils.cpp **** 		}
 1106              		.loc 1 252 11 view .LVU346
 1107              	.LBE38:
 1108              	.LBE43:
 1109              	.LBE47:
 213:Src/VFO/GUI/Utils.cpp **** 	{
 1110              		.loc 1 213 17 view .LVU347
 1111 0082 0546     		mov	r5, r0
 1112 0084 E9E7     		b	.L100
 1113              	.LBE53:
ARM GAS  /var/folders/20/cstyxln53wn53rr40gj353bh0000gn/T//ccQ1MofN.s 			page 29


 1114              		.cfi_endproc
 1115              	.LFE3:
 1116              		.cantunwind
 1117              		.fnend
 1119 0086 00BF     		.text
 1120              	.Letext0:
 1121              		.file 2 "/usr/local/gcc-arm-none-eabi-8-2019-q3-update/arm-none-eabi/include/machine/_default_type
 1122              		.file 3 "/usr/local/gcc-arm-none-eabi-8-2019-q3-update/arm-none-eabi/include/sys/_stdint.h"
 1123              		.file 4 "/usr/local/gcc-arm-none-eabi-8-2019-q3-update/lib/gcc/arm-none-eabi/8.3.1/include/stddef.
 1124              		.file 5 "Src/VFO/GUI/Utils.h"
ARM GAS  /var/folders/20/cstyxln53wn53rr40gj353bh0000gn/T//ccQ1MofN.s 			page 30

