ARM GAS  /var/folders/20/cstyxln53wn53rr40gj353bh0000gn/T//cc8Pz03c.s 			page 1


   1              		.cpu cortex-m3
   2              		.eabi_attribute 20, 1
   3              		.eabi_attribute 21, 1
   4              		.eabi_attribute 23, 3
   5              		.eabi_attribute 24, 1
   6              		.eabi_attribute 25, 1
   7              		.eabi_attribute 26, 1
   8              		.eabi_attribute 30, 2
   9              		.eabi_attribute 34, 1
  10              		.eabi_attribute 18, 4
  11              		.file	"VFO.cpp"
  12              		.text
  13              	.Ltext0:
  14              		.cfi_sections	.debug_frame
  15              		.section	.text._Z11KBDCallBackii,"ax",%progbits
  16              		.align	1
  17              		.p2align 2,,3
  18              		.global	_Z11KBDCallBackii
  19              		.arch armv7-m
  20              		.syntax unified
  21              		.thumb
  22              		.thumb_func
  23              		.fpu softvfp
  25              	_Z11KBDCallBackii:
  26              		.fnstart
  27              	.LVL0:
  28              	.LFB122:
  29              		.file 1 "Src/VFO.cpp"
   1:Src/VFO.cpp   **** #include "VFO.h"
   2:Src/VFO.cpp   **** 
   3:Src/VFO.cpp   **** #include "stm32f1xx_hal.h"
   4:Src/VFO.cpp   **** #include "VFO/VFOController.h"
   5:Src/VFO.cpp   **** #include "kbd/kbd.h"
   6:Src/VFO.cpp   **** 
   7:Src/VFO.cpp   **** #define ENC_VALUE 500
   8:Src/VFO.cpp   **** 
   9:Src/VFO.cpp   **** VFO::VFOController *_mainController;
  10:Src/VFO.cpp   **** volatile uint32_t _ticks = 0;
  11:Src/VFO.cpp   **** 
  12:Src/VFO.cpp   **** void _vfoSetup(void);
  13:Src/VFO.cpp   **** void _vfoLoopIteration(void);
  14:Src/VFO.cpp   **** void _vfoSystick(void);
  15:Src/VFO.cpp   **** 
  16:Src/VFO.cpp   **** 
  17:Src/VFO.cpp   **** extern "C"
  18:Src/VFO.cpp   **** {
  19:Src/VFO.cpp   **** extern TIM_HandleTypeDef htim3;
  20:Src/VFO.cpp   **** extern TIM_HandleTypeDef htim4;
  21:Src/VFO.cpp   **** 
  22:Src/VFO.cpp   **** extern uint16_t readVoltage(ADC_TypeDef *ADCx, uint8_t channel);
  23:Src/VFO.cpp   **** 
  24:Src/VFO.cpp   **** 
  25:Src/VFO.cpp   **** void HAL_SYSTICK_Callback(void)
  26:Src/VFO.cpp   **** {
  27:Src/VFO.cpp   **** 	KBD_ISR_Callback();
  28:Src/VFO.cpp   **** }
  29:Src/VFO.cpp   **** 
ARM GAS  /var/folders/20/cstyxln53wn53rr40gj353bh0000gn/T//cc8Pz03c.s 			page 2


  30:Src/VFO.cpp   **** 
  31:Src/VFO.cpp   **** void vfoSetup(void)
  32:Src/VFO.cpp   **** {
  33:Src/VFO.cpp   **** 	_vfoSetup();
  34:Src/VFO.cpp   **** }
  35:Src/VFO.cpp   **** 
  36:Src/VFO.cpp   **** 
  37:Src/VFO.cpp   **** void vfoLoopIteration(void)
  38:Src/VFO.cpp   **** {
  39:Src/VFO.cpp   **** 	_vfoLoopIteration();
  40:Src/VFO.cpp   **** }
  41:Src/VFO.cpp   **** 
  42:Src/VFO.cpp   **** 
  43:Src/VFO.cpp   **** void vfoSystick(void)
  44:Src/VFO.cpp   **** {
  45:Src/VFO.cpp   **** 	_vfoSystick();
  46:Src/VFO.cpp   **** }
  47:Src/VFO.cpp   **** }
  48:Src/VFO.cpp   **** 
  49:Src/VFO.cpp   **** 
  50:Src/VFO.cpp   **** void KBDCallBack(int key, int action)
  51:Src/VFO.cpp   **** {
  30              		.loc 1 51 1 view -0
  31              		.cfi_startproc
  32              		@ args = 0, pretend = 0, frame = 0
  33              		@ frame_needed = 0, uses_anonymous_args = 0
  34              		@ link register save eliminated.
  52:Src/VFO.cpp   **** 	switch (action)
  35              		.loc 1 52 2 view .LVU1
  36 0000 0139     		subs	r1, r1, #1
  37              	.LVL1:
  38              		.loc 1 52 2 is_stmt 0 view .LVU2
  39 0002 0129     		cmp	r1, #1
  40 0004 03D8     		bhi	.L1
  41              	.LBB6:
  42              	.LBI6:
  50:Src/VFO.cpp   **** {
  43              		.loc 1 50 6 is_stmt 1 view .LVU3
  44              	.LVL2:
  45              	.LBB7:
  53:Src/VFO.cpp   **** 	{
  54:Src/VFO.cpp   **** 	case KEY:
  46              		.loc 1 54 2 view .LVU4
  55:Src/VFO.cpp   **** 		_mainController->menuKeyPressed();
  47              		.loc 1 55 3 view .LVU5
  48              		.loc 1 55 34 is_stmt 0 view .LVU6
  49 0006 024B     		ldr	r3, .L4
  50 0008 1868     		ldr	r0, [r3]
  51              	.LVL3:
  52              		.loc 1 55 34 view .LVU7
  53 000a FFF7FEBF 		b	_ZN3VFO13VFOController14menuKeyPressedEv
  54              	.LVL4:
  55              	.L1:
  56              		.loc 1 55 34 view .LVU8
  57              	.LBE7:
  58              	.LBE6:
  56:Src/VFO.cpp   **** 		//_mainController->initSI();
ARM GAS  /var/folders/20/cstyxln53wn53rr40gj353bh0000gn/T//cc8Pz03c.s 			page 3


  57:Src/VFO.cpp   **** 		break;
  58:Src/VFO.cpp   **** 	case LONGKEY:
  59:Src/VFO.cpp   **** 		_mainController->menuKeyPressed();
  60:Src/VFO.cpp   **** 		break;
  61:Src/VFO.cpp   **** 	case DOUBLECLICK:
  62:Src/VFO.cpp   **** 		break;
  63:Src/VFO.cpp   **** 
  64:Src/VFO.cpp   **** 	}
  65:Src/VFO.cpp   **** }
  59              		.loc 1 65 1 view .LVU9
  60 000e 7047     		bx	lr
  61              	.L5:
  62              		.align	2
  63              	.L4:
  64 0010 00000000 		.word	.LANCHOR0
  65              		.cfi_endproc
  66              	.LFE122:
  67              		.cantunwind
  68              		.fnend
  70              		.section	.text.HAL_SYSTICK_Callback,"ax",%progbits
  71              		.align	1
  72              		.p2align 2,,3
  73              		.global	HAL_SYSTICK_Callback
  74              		.syntax unified
  75              		.thumb
  76              		.thumb_func
  77              		.fpu softvfp
  79              	HAL_SYSTICK_Callback:
  80              		.fnstart
  81              	.LFB118:
  26:Src/VFO.cpp   **** 	KBD_ISR_Callback();
  82              		.loc 1 26 1 is_stmt 1 view -0
  83              		.cfi_startproc
  84              		@ args = 0, pretend = 0, frame = 0
  85              		@ frame_needed = 0, uses_anonymous_args = 0
  86              		@ link register save eliminated.
  27:Src/VFO.cpp   **** }
  87              		.loc 1 27 2 view .LVU11
  27:Src/VFO.cpp   **** }
  88              		.loc 1 27 18 is_stmt 0 view .LVU12
  89 0000 FFF7FEBF 		b	_Z16KBD_ISR_Callbackv
  90              	.LVL5:
  91              		.cfi_endproc
  92              	.LFE118:
  93              		.cantunwind
  94              		.fnend
  96              		.section	.text.vfoLoopIteration,"ax",%progbits
  97              		.align	1
  98              		.p2align 2,,3
  99              		.global	vfoLoopIteration
 100              		.syntax unified
 101              		.thumb
 102              		.thumb_func
 103              		.fpu softvfp
 105              	vfoLoopIteration:
 106              		.fnstart
 107              	.LFB120:
ARM GAS  /var/folders/20/cstyxln53wn53rr40gj353bh0000gn/T//cc8Pz03c.s 			page 4


  38:Src/VFO.cpp   **** 	_vfoLoopIteration();
 108              		.loc 1 38 1 is_stmt 1 view -0
 109              		.cfi_startproc
 110              		@ args = 0, pretend = 0, frame = 0
 111              		@ frame_needed = 0, uses_anonymous_args = 0
  39:Src/VFO.cpp   **** }
 112              		.loc 1 39 2 view .LVU14
 113              	.LBB10:
 114              	.LBI10:
  66:Src/VFO.cpp   **** 
  67:Src/VFO.cpp   **** 
  68:Src/VFO.cpp   **** // Initial Setup
  69:Src/VFO.cpp   **** void _vfoSetup(void)
  70:Src/VFO.cpp   **** {
  71:Src/VFO.cpp   **** 	HAL_TIM_Encoder_Start_IT(&htim4, TIM_CHANNEL_1);
  72:Src/VFO.cpp   **** 	__HAL_TIM_SET_COUNTER(&htim4, ENC_VALUE);
  73:Src/VFO.cpp   **** 
  74:Src/VFO.cpp   **** 	HAL_TIM_Base_Start_IT(&htim3);
  75:Src/VFO.cpp   **** 	HAL_TIM_PWM_Start(&htim3,TIM_CHANNEL_1);
  76:Src/VFO.cpp   **** 
  77:Src/VFO.cpp   **** 	KBD_addKey(GPIOB, 5, LO, KBDCallBack);
  78:Src/VFO.cpp   **** 
  79:Src/VFO.cpp   **** 	_mainController = new VFO::VFOController;
  80:Src/VFO.cpp   **** 
  81:Src/VFO.cpp   **** 	if ( HAL_GPIO_ReadPin(GPIOB, GPIO_PIN_5) == 0 )
  82:Src/VFO.cpp   **** 	{
  83:Src/VFO.cpp   **** 		_mainController->reset();
  84:Src/VFO.cpp   **** 	}
  85:Src/VFO.cpp   **** 	_mainController->begin();
  86:Src/VFO.cpp   **** }
  87:Src/VFO.cpp   **** 
  88:Src/VFO.cpp   **** 
  89:Src/VFO.cpp   **** // Loop Iteration
  90:Src/VFO.cpp   **** void _vfoLoopIteration(void)
 115              		.loc 1 90 6 view .LVU15
 116              	.LBB11:
  91:Src/VFO.cpp   **** {
  92:Src/VFO.cpp   **** 	uint16_t encCounter = __HAL_TIM_GET_COUNTER(&htim4);
 117              		.loc 1 92 2 view .LVU16
 118              	.LBE11:
 119              	.LBE10:
  38:Src/VFO.cpp   **** 	_vfoLoopIteration();
 120              		.loc 1 38 1 is_stmt 0 view .LVU17
 121 0000 38B5     		push	{r3, r4, r5, lr}
 122              		.save {r3, r4, r5, lr}
 123              	.LCFI0:
 124              		.cfi_def_cfa_offset 16
 125              		.cfi_offset 3, -16
 126              		.cfi_offset 4, -12
 127              		.cfi_offset 5, -8
 128              		.cfi_offset 14, -4
 129              	.LBB14:
 130              	.LBB12:
 131              		.loc 1 92 24 view .LVU18
 132 0002 144B     		ldr	r3, .L13
 133 0004 1B68     		ldr	r3, [r3]
 134 0006 596A     		ldr	r1, [r3, #36]
ARM GAS  /var/folders/20/cstyxln53wn53rr40gj353bh0000gn/T//cc8Pz03c.s 			page 5


 135 0008 89B2     		uxth	r1, r1
 136              	.LVL6:
  93:Src/VFO.cpp   **** 	if (encCounter != ENC_VALUE)
 137              		.loc 1 93 2 is_stmt 1 view .LVU19
 138 000a B1F5FA7F 		cmp	r1, #500
 139 000e 13D1     		bne	.L11
 140 0010 114D     		ldr	r5, .L13+4
 141 0012 124C     		ldr	r4, .L13+8
 142              	.LVL7:
 143              	.L8:
  94:Src/VFO.cpp   **** 	{
  95:Src/VFO.cpp   **** 		__HAL_TIM_SET_COUNTER(&htim4, ENC_VALUE);
  96:Src/VFO.cpp   **** 		_mainController->pushEncoderIncrement(encCounter - ENC_VALUE, _ticks);
  97:Src/VFO.cpp   **** 	}
  98:Src/VFO.cpp   **** 	_ticks = 0;
 144              		.loc 1 98 2 view .LVU20
 145              		.loc 1 98 9 is_stmt 0 view .LVU21
 146 0014 0023     		movs	r3, #0
  99:Src/VFO.cpp   **** 
 100:Src/VFO.cpp   **** 	uint32_t voltage = readVoltage(ADC1, 3);
 147              		.loc 1 100 32 view .LVU22
 148 0016 0321     		movs	r1, #3
 149 0018 1148     		ldr	r0, .L13+12
  98:Src/VFO.cpp   **** 
 150              		.loc 1 98 9 view .LVU23
 151 001a 2B60     		str	r3, [r5]
 152              		.loc 1 100 2 is_stmt 1 view .LVU24
 153              		.loc 1 100 32 is_stmt 0 view .LVU25
 154 001c FFF7FEFF 		bl	readVoltage
 155              	.LVL8:
 101:Src/VFO.cpp   **** 	_mainController->showVoltage(voltage);
 156              		.loc 1 101 2 is_stmt 1 view .LVU26
 157              		.loc 1 101 30 is_stmt 0 view .LVU27
 158 0020 0146     		mov	r1, r0
 159 0022 2068     		ldr	r0, [r4]
 160              	.LVL9:
 161              		.loc 1 101 30 view .LVU28
 162 0024 FFF7FEFF 		bl	_ZN3VFO13VFOController11showVoltageEm
 163              	.LVL10:
 102:Src/VFO.cpp   **** 
 103:Src/VFO.cpp   **** 	_mainController->checkMemoryState();
 164              		.loc 1 103 2 is_stmt 1 view .LVU29
 165              		.loc 1 103 35 is_stmt 0 view .LVU30
 166 0028 2068     		ldr	r0, [r4]
 167 002a FFF7FEFF 		bl	_ZN3VFO13VFOController16checkMemoryStateEv
 168              	.LVL11:
 104:Src/VFO.cpp   **** 	HAL_Delay(10);
 169              		.loc 1 104 2 is_stmt 1 view .LVU31
 170              	.LBE12:
 171              	.LBE14:
  40:Src/VFO.cpp   **** 
 172              		.loc 1 40 1 is_stmt 0 view .LVU32
 173 002e BDE83840 		pop	{r3, r4, r5, lr}
 174              	.LCFI1:
 175              		.cfi_remember_state
 176              		.cfi_restore 14
 177              		.cfi_restore 5
ARM GAS  /var/folders/20/cstyxln53wn53rr40gj353bh0000gn/T//cc8Pz03c.s 			page 6


 178              		.cfi_restore 4
 179              		.cfi_restore 3
 180              		.cfi_def_cfa_offset 0
 181              	.LBB15:
 182              	.LBB13:
 183              		.loc 1 104 11 view .LVU33
 184 0032 0A20     		movs	r0, #10
 185 0034 FFF7FEBF 		b	HAL_Delay
 186              	.LVL12:
 187              	.L11:
 188              	.LCFI2:
 189              		.cfi_restore_state
  95:Src/VFO.cpp   **** 		_mainController->pushEncoderIncrement(encCounter - ENC_VALUE, _ticks);
 190              		.loc 1 95 3 is_stmt 1 view .LVU34
 191 0038 4FF4FA72 		mov	r2, #500
  96:Src/VFO.cpp   **** 	}
 192              		.loc 1 96 40 is_stmt 0 view .LVU35
 193 003c 064D     		ldr	r5, .L13+4
  95:Src/VFO.cpp   **** 		_mainController->pushEncoderIncrement(encCounter - ENC_VALUE, _ticks);
 194              		.loc 1 95 3 view .LVU36
 195 003e 5A62     		str	r2, [r3, #36]
  96:Src/VFO.cpp   **** 	}
 196              		.loc 1 96 3 is_stmt 1 view .LVU37
  96:Src/VFO.cpp   **** 	}
 197              		.loc 1 96 40 is_stmt 0 view .LVU38
 198 0040 2A68     		ldr	r2, [r5]
 199 0042 064C     		ldr	r4, .L13+8
  96:Src/VFO.cpp   **** 	}
 200              		.loc 1 96 52 view .LVU39
 201 0044 A1F5FA71 		sub	r1, r1, #500
 202              	.LVL13:
  96:Src/VFO.cpp   **** 	}
 203              		.loc 1 96 40 view .LVU40
 204 0048 09B2     		sxth	r1, r1
 205              	.LVL14:
  96:Src/VFO.cpp   **** 	}
 206              		.loc 1 96 40 view .LVU41
 207 004a 92B2     		uxth	r2, r2
 208 004c 2068     		ldr	r0, [r4]
 209 004e FFF7FEFF 		bl	_ZN3VFO13VFOController20pushEncoderIncrementEst
 210              	.LVL15:
 211 0052 DFE7     		b	.L8
 212              	.L14:
 213              		.align	2
 214              	.L13:
 215 0054 00000000 		.word	htim4
 216 0058 00000000 		.word	.LANCHOR1
 217 005c 00000000 		.word	.LANCHOR0
 218 0060 00240140 		.word	1073816576
 219              	.LBE13:
 220              	.LBE15:
 221              		.cfi_endproc
 222              	.LFE120:
 223              		.fnend
 225              		.section	.text.vfoSystick,"ax",%progbits
 226              		.align	1
 227              		.p2align 2,,3
ARM GAS  /var/folders/20/cstyxln53wn53rr40gj353bh0000gn/T//cc8Pz03c.s 			page 7


 228              		.global	vfoSystick
 229              		.syntax unified
 230              		.thumb
 231              		.thumb_func
 232              		.fpu softvfp
 234              	vfoSystick:
 235              		.fnstart
 236              	.LFB128:
 237              		.cfi_startproc
 238              		@ args = 0, pretend = 0, frame = 0
 239              		@ frame_needed = 0, uses_anonymous_args = 0
 240              		@ link register save eliminated.
 241 0000 024A     		ldr	r2, .L16
 242 0002 1368     		ldr	r3, [r2]
 243 0004 0133     		adds	r3, r3, #1
 244 0006 1360     		str	r3, [r2]
 245 0008 7047     		bx	lr
 246              	.L17:
 247 000a 00BF     		.align	2
 248              	.L16:
 249 000c 00000000 		.word	.LANCHOR1
 250              		.cfi_endproc
 251              	.LFE128:
 252              		.cantunwind
 253              		.fnend
 255              		.section	.text._Z9_vfoSetupv,"ax",%progbits
 256              		.align	1
 257              		.p2align 2,,3
 258              		.global	_Z9_vfoSetupv
 259              		.syntax unified
 260              		.thumb
 261              		.thumb_func
 262              		.fpu softvfp
 264              	_Z9_vfoSetupv:
 265              		.fnstart
 266              	.LFB123:
  70:Src/VFO.cpp   **** 	HAL_TIM_Encoder_Start_IT(&htim4, TIM_CHANNEL_1);
 267              		.loc 1 70 1 is_stmt 1 view -0
 268              		.cfi_startproc
 269              		@ args = 0, pretend = 0, frame = 0
 270              		@ frame_needed = 0, uses_anonymous_args = 0
  71:Src/VFO.cpp   **** 	__HAL_TIM_SET_COUNTER(&htim4, ENC_VALUE);
 271              		.loc 1 71 2 view .LVU43
  70:Src/VFO.cpp   **** 	HAL_TIM_Encoder_Start_IT(&htim4, TIM_CHANNEL_1);
 272              		.loc 1 70 1 is_stmt 0 view .LVU44
 273 0000 38B5     		push	{r3, r4, r5, lr}
 274              		.save {r3, r4, r5, lr}
 275              	.LCFI3:
 276              		.cfi_def_cfa_offset 16
 277              		.cfi_offset 3, -16
 278              		.cfi_offset 4, -12
 279              		.cfi_offset 5, -8
 280              		.cfi_offset 14, -4
  71:Src/VFO.cpp   **** 	__HAL_TIM_SET_COUNTER(&htim4, ENC_VALUE);
 281              		.loc 1 71 26 view .LVU45
 282 0002 1B4C     		ldr	r4, .L24
 283 0004 0021     		movs	r1, #0
ARM GAS  /var/folders/20/cstyxln53wn53rr40gj353bh0000gn/T//cc8Pz03c.s 			page 8


 284 0006 2046     		mov	r0, r4
 285              	.LEHB0:
 286 0008 FFF7FEFF 		bl	HAL_TIM_Encoder_Start_IT
 287              	.LVL16:
  72:Src/VFO.cpp   **** 
 288              		.loc 1 72 2 is_stmt 1 view .LVU46
 289 000c 4FF4FA72 		mov	r2, #500
 290 0010 2368     		ldr	r3, [r4]
  74:Src/VFO.cpp   **** 	HAL_TIM_PWM_Start(&htim3,TIM_CHANNEL_1);
 291              		.loc 1 74 23 is_stmt 0 view .LVU47
 292 0012 1848     		ldr	r0, .L24+4
  72:Src/VFO.cpp   **** 
 293              		.loc 1 72 2 view .LVU48
 294 0014 5A62     		str	r2, [r3, #36]
  74:Src/VFO.cpp   **** 	HAL_TIM_PWM_Start(&htim3,TIM_CHANNEL_1);
 295              		.loc 1 74 2 is_stmt 1 view .LVU49
  74:Src/VFO.cpp   **** 	HAL_TIM_PWM_Start(&htim3,TIM_CHANNEL_1);
 296              		.loc 1 74 23 is_stmt 0 view .LVU50
 297 0016 FFF7FEFF 		bl	HAL_TIM_Base_Start_IT
 298              	.LVL17:
  75:Src/VFO.cpp   **** 
 299              		.loc 1 75 2 is_stmt 1 view .LVU51
  75:Src/VFO.cpp   **** 
 300              		.loc 1 75 19 is_stmt 0 view .LVU52
 301 001a 0021     		movs	r1, #0
 302 001c 1548     		ldr	r0, .L24+4
 303 001e FFF7FEFF 		bl	HAL_TIM_PWM_Start
 304              	.LVL18:
  77:Src/VFO.cpp   **** 
 305              		.loc 1 77 2 is_stmt 1 view .LVU53
  77:Src/VFO.cpp   **** 
 306              		.loc 1 77 12 is_stmt 0 view .LVU54
 307 0022 154B     		ldr	r3, .L24+8
 308 0024 0122     		movs	r2, #1
 309 0026 0521     		movs	r1, #5
 310 0028 1448     		ldr	r0, .L24+12
 311 002a FFF7FEFF 		bl	_Z10KBD_addKeyP12GPIO_TypeDefiiPFviiE
 312              	.LVL19:
  79:Src/VFO.cpp   **** 
 313              		.loc 1 79 2 is_stmt 1 view .LVU55
  79:Src/VFO.cpp   **** 
 314              		.loc 1 79 29 is_stmt 0 view .LVU56
 315 002e 1420     		movs	r0, #20
 316 0030 FFF7FEFF 		bl	_Znwj
 317              	.LVL20:
 318              	.LEHE0:
 319 0034 0546     		mov	r5, r0
 320              	.LEHB1:
 321 0036 FFF7FEFF 		bl	_ZN3VFO13VFOControllerC1Ev
 322              	.LVL21:
 323              	.LEHE1:
  79:Src/VFO.cpp   **** 
 324              		.loc 1 79 18 discriminator 2 view .LVU57
 325 003a 114C     		ldr	r4, .L24+16
  81:Src/VFO.cpp   **** 	{
 326              		.loc 1 81 23 discriminator 2 view .LVU58
 327 003c 2021     		movs	r1, #32
ARM GAS  /var/folders/20/cstyxln53wn53rr40gj353bh0000gn/T//cc8Pz03c.s 			page 9


 328 003e 0F48     		ldr	r0, .L24+12
  79:Src/VFO.cpp   **** 
 329              		.loc 1 79 18 discriminator 2 view .LVU59
 330 0040 2560     		str	r5, [r4]
  81:Src/VFO.cpp   **** 	{
 331              		.loc 1 81 2 is_stmt 1 discriminator 2 view .LVU60
 332              	.LEHB2:
  81:Src/VFO.cpp   **** 	{
 333              		.loc 1 81 23 is_stmt 0 discriminator 2 view .LVU61
 334 0042 FFF7FEFF 		bl	HAL_GPIO_ReadPin
 335              	.LVL22:
  81:Src/VFO.cpp   **** 	{
 336              		.loc 1 81 2 discriminator 2 view .LVU62
 337 0046 20B1     		cbz	r0, .L23
  85:Src/VFO.cpp   **** }
 338              		.loc 1 85 2 is_stmt 1 view .LVU63
  85:Src/VFO.cpp   **** }
 339              		.loc 1 85 24 is_stmt 0 view .LVU64
 340 0048 2068     		ldr	r0, [r4]
  86:Src/VFO.cpp   **** 
 341              		.loc 1 86 1 view .LVU65
 342 004a BDE83840 		pop	{r3, r4, r5, lr}
 343              	.LCFI4:
 344              		.cfi_remember_state
 345              		.cfi_restore 14
 346              		.cfi_restore 5
 347              		.cfi_restore 4
 348              		.cfi_restore 3
 349              		.cfi_def_cfa_offset 0
  85:Src/VFO.cpp   **** }
 350              		.loc 1 85 24 view .LVU66
 351 004e FFF7FEBF 		b	_ZN3VFO13VFOController5beginEv
 352              	.LVL23:
 353              	.L23:
 354              	.LCFI5:
 355              		.cfi_restore_state
  83:Src/VFO.cpp   **** 	}
 356              		.loc 1 83 3 is_stmt 1 view .LVU67
  83:Src/VFO.cpp   **** 	}
 357              		.loc 1 83 25 is_stmt 0 view .LVU68
 358 0052 2068     		ldr	r0, [r4]
 359 0054 FFF7FEFF 		bl	_ZN3VFO13VFOController5resetEv
 360              	.LVL24:
  85:Src/VFO.cpp   **** }
 361              		.loc 1 85 2 is_stmt 1 view .LVU69
  85:Src/VFO.cpp   **** }
 362              		.loc 1 85 24 is_stmt 0 view .LVU70
 363 0058 2068     		ldr	r0, [r4]
  86:Src/VFO.cpp   **** 
 364              		.loc 1 86 1 view .LVU71
 365 005a BDE83840 		pop	{r3, r4, r5, lr}
 366              	.LCFI6:
 367              		.cfi_remember_state
 368              		.cfi_restore 14
 369              		.cfi_restore 5
 370              		.cfi_restore 4
 371              		.cfi_restore 3
ARM GAS  /var/folders/20/cstyxln53wn53rr40gj353bh0000gn/T//cc8Pz03c.s 			page 10


 372              		.cfi_def_cfa_offset 0
  85:Src/VFO.cpp   **** }
 373              		.loc 1 85 24 view .LVU72
 374 005e FFF7FEBF 		b	_ZN3VFO13VFOController5beginEv
 375              	.LVL25:
 376              	.L21:
 377              	.LCFI7:
 378              		.cfi_restore_state
  79:Src/VFO.cpp   **** 
 379              		.loc 1 79 29 view .LVU73
 380 0062 2846     		mov	r0, r5
 381 0064 1421     		movs	r1, #20
 382 0066 FFF7FEFF 		bl	_ZdlPvj
 383              	.LVL26:
 384 006a FFF7FEFF 		bl	__cxa_end_cleanup
 385              	.LVL27:
 386              	.LEHE2:
 387              	.L25:
 388 006e 00BF     		.align	2
 389              	.L24:
 390 0070 00000000 		.word	htim4
 391 0074 00000000 		.word	htim3
 392 0078 00000000 		.word	_Z11KBDCallBackii
 393 007c 000C0140 		.word	1073810432
 394 0080 00000000 		.word	.LANCHOR0
 395              		.cfi_endproc
 396              	.LFE123:
 397              		.global	__gxx_personality_v0
 398              		.personality	__gxx_personality_v0
 399              		.handlerdata
 400              	.LLSDA123:
 401 0008 FF       		.byte	0xff
 402 0009 FF       		.byte	0xff
 403 000a 01       		.byte	0x1
 404 000b 0C       		.uleb128 .LLSDACSE123-.LLSDACSB123
 405              	.LLSDACSB123:
 406 000c 08       		.uleb128 .LEHB0-.LFB123
 407 000d 2C       		.uleb128 .LEHE0-.LEHB0
 408 000e 00       		.uleb128 0
 409 000f 00       		.uleb128 0
 410 0010 36       		.uleb128 .LEHB1-.LFB123
 411 0011 04       		.uleb128 .LEHE1-.LEHB1
 412 0012 62       		.uleb128 .L21-.LFB123
 413 0013 00       		.uleb128 0
 414 0014 42       		.uleb128 .LEHB2-.LFB123
 415 0015 2C       		.uleb128 .LEHE2-.LEHB2
 416 0016 00       		.uleb128 0
 417 0017 00       		.uleb128 0
 418              	.LLSDACSE123:
 419              		.section	.text._Z9_vfoSetupv
 420              		.fnend
 422              		.section	.text.vfoSetup,"ax",%progbits
 423              		.align	1
 424              		.p2align 2,,3
 425              		.global	vfoSetup
 426              		.syntax unified
 427              		.thumb
ARM GAS  /var/folders/20/cstyxln53wn53rr40gj353bh0000gn/T//cc8Pz03c.s 			page 11


 428              		.thumb_func
 429              		.fpu softvfp
 431              	vfoSetup:
 432              		.fnstart
 433              	.LFB119:
  32:Src/VFO.cpp   **** 	_vfoSetup();
 434              		.loc 1 32 1 is_stmt 1 view -0
 435              		.cfi_startproc
 436              		@ args = 0, pretend = 0, frame = 0
 437              		@ frame_needed = 0, uses_anonymous_args = 0
 438              		@ link register save eliminated.
  33:Src/VFO.cpp   **** }
 439              		.loc 1 33 2 view .LVU75
  33:Src/VFO.cpp   **** }
 440              		.loc 1 33 11 is_stmt 0 view .LVU76
 441 0000 FFF7FEBF 		b	_Z9_vfoSetupv
 442              	.LVL28:
 443              		.cfi_endproc
 444              	.LFE119:
 445              		.cantunwind
 446              		.fnend
 448              		.section	.text._Z17_vfoLoopIterationv,"ax",%progbits
 449              		.align	1
 450              		.p2align 2,,3
 451              		.global	_Z17_vfoLoopIterationv
 452              		.syntax unified
 453              		.thumb
 454              		.thumb_func
 455              		.fpu softvfp
 457              	_Z17_vfoLoopIterationv:
 458              		.fnstart
 459              	.LFB124:
  91:Src/VFO.cpp   **** 	uint16_t encCounter = __HAL_TIM_GET_COUNTER(&htim4);
 460              		.loc 1 91 1 is_stmt 1 view -0
 461              		.cfi_startproc
 462              		@ args = 0, pretend = 0, frame = 0
 463              		@ frame_needed = 0, uses_anonymous_args = 0
  92:Src/VFO.cpp   **** 	if (encCounter != ENC_VALUE)
 464              		.loc 1 92 2 view .LVU78
  91:Src/VFO.cpp   **** 	uint16_t encCounter = __HAL_TIM_GET_COUNTER(&htim4);
 465              		.loc 1 91 1 is_stmt 0 view .LVU79
 466 0000 38B5     		push	{r3, r4, r5, lr}
 467              		.save {r3, r4, r5, lr}
 468              	.LCFI8:
 469              		.cfi_def_cfa_offset 16
 470              		.cfi_offset 3, -16
 471              		.cfi_offset 4, -12
 472              		.cfi_offset 5, -8
 473              		.cfi_offset 14, -4
  92:Src/VFO.cpp   **** 	if (encCounter != ENC_VALUE)
 474              		.loc 1 92 24 view .LVU80
 475 0002 144B     		ldr	r3, .L33
 476 0004 1B68     		ldr	r3, [r3]
 477 0006 596A     		ldr	r1, [r3, #36]
 478 0008 89B2     		uxth	r1, r1
 479              	.LVL29:
  93:Src/VFO.cpp   **** 	{
ARM GAS  /var/folders/20/cstyxln53wn53rr40gj353bh0000gn/T//cc8Pz03c.s 			page 12


 480              		.loc 1 93 2 is_stmt 1 view .LVU81
 481 000a B1F5FA7F 		cmp	r1, #500
 482 000e 13D1     		bne	.L31
 483 0010 114D     		ldr	r5, .L33+4
 484 0012 124C     		ldr	r4, .L33+8
 485              	.LVL30:
 486              	.L28:
  98:Src/VFO.cpp   **** 
 487              		.loc 1 98 2 view .LVU82
  98:Src/VFO.cpp   **** 
 488              		.loc 1 98 9 is_stmt 0 view .LVU83
 489 0014 0023     		movs	r3, #0
 100:Src/VFO.cpp   **** 	_mainController->showVoltage(voltage);
 490              		.loc 1 100 32 view .LVU84
 491 0016 0321     		movs	r1, #3
 492 0018 1148     		ldr	r0, .L33+12
  98:Src/VFO.cpp   **** 
 493              		.loc 1 98 9 view .LVU85
 494 001a 2B60     		str	r3, [r5]
 100:Src/VFO.cpp   **** 	_mainController->showVoltage(voltage);
 495              		.loc 1 100 2 is_stmt 1 view .LVU86
 100:Src/VFO.cpp   **** 	_mainController->showVoltage(voltage);
 496              		.loc 1 100 32 is_stmt 0 view .LVU87
 497 001c FFF7FEFF 		bl	readVoltage
 498              	.LVL31:
 101:Src/VFO.cpp   **** 
 499              		.loc 1 101 2 is_stmt 1 view .LVU88
 101:Src/VFO.cpp   **** 
 500              		.loc 1 101 30 is_stmt 0 view .LVU89
 501 0020 0146     		mov	r1, r0
 502 0022 2068     		ldr	r0, [r4]
 503              	.LVL32:
 101:Src/VFO.cpp   **** 
 504              		.loc 1 101 30 view .LVU90
 505 0024 FFF7FEFF 		bl	_ZN3VFO13VFOController11showVoltageEm
 506              	.LVL33:
 103:Src/VFO.cpp   **** 	HAL_Delay(10);
 507              		.loc 1 103 2 is_stmt 1 view .LVU91
 103:Src/VFO.cpp   **** 	HAL_Delay(10);
 508              		.loc 1 103 35 is_stmt 0 view .LVU92
 509 0028 2068     		ldr	r0, [r4]
 510 002a FFF7FEFF 		bl	_ZN3VFO13VFOController16checkMemoryStateEv
 511              	.LVL34:
 512              		.loc 1 104 2 is_stmt 1 view .LVU93
 105:Src/VFO.cpp   **** }
 513              		.loc 1 105 1 is_stmt 0 view .LVU94
 514 002e BDE83840 		pop	{r3, r4, r5, lr}
 515              	.LCFI9:
 516              		.cfi_remember_state
 517              		.cfi_restore 14
 518              		.cfi_restore 5
 519              		.cfi_restore 4
 520              		.cfi_restore 3
 521              		.cfi_def_cfa_offset 0
 104:Src/VFO.cpp   **** }
 522              		.loc 1 104 11 view .LVU95
 523 0032 0A20     		movs	r0, #10
ARM GAS  /var/folders/20/cstyxln53wn53rr40gj353bh0000gn/T//cc8Pz03c.s 			page 13


 524 0034 FFF7FEBF 		b	HAL_Delay
 525              	.LVL35:
 526              	.L31:
 527              	.LCFI10:
 528              		.cfi_restore_state
  95:Src/VFO.cpp   **** 		_mainController->pushEncoderIncrement(encCounter - ENC_VALUE, _ticks);
 529              		.loc 1 95 3 is_stmt 1 view .LVU96
 530 0038 4FF4FA72 		mov	r2, #500
  96:Src/VFO.cpp   **** 	}
 531              		.loc 1 96 40 is_stmt 0 view .LVU97
 532 003c 064D     		ldr	r5, .L33+4
  95:Src/VFO.cpp   **** 		_mainController->pushEncoderIncrement(encCounter - ENC_VALUE, _ticks);
 533              		.loc 1 95 3 view .LVU98
 534 003e 5A62     		str	r2, [r3, #36]
  96:Src/VFO.cpp   **** 	}
 535              		.loc 1 96 3 is_stmt 1 view .LVU99
  96:Src/VFO.cpp   **** 	}
 536              		.loc 1 96 40 is_stmt 0 view .LVU100
 537 0040 2A68     		ldr	r2, [r5]
 538 0042 064C     		ldr	r4, .L33+8
  96:Src/VFO.cpp   **** 	}
 539              		.loc 1 96 52 view .LVU101
 540 0044 A1F5FA71 		sub	r1, r1, #500
 541              	.LVL36:
  96:Src/VFO.cpp   **** 	}
 542              		.loc 1 96 40 view .LVU102
 543 0048 09B2     		sxth	r1, r1
 544              	.LVL37:
  96:Src/VFO.cpp   **** 	}
 545              		.loc 1 96 40 view .LVU103
 546 004a 92B2     		uxth	r2, r2
 547 004c 2068     		ldr	r0, [r4]
 548 004e FFF7FEFF 		bl	_ZN3VFO13VFOController20pushEncoderIncrementEst
 549              	.LVL38:
 550 0052 DFE7     		b	.L28
 551              	.L34:
 552              		.align	2
 553              	.L33:
 554 0054 00000000 		.word	htim4
 555 0058 00000000 		.word	.LANCHOR1
 556 005c 00000000 		.word	.LANCHOR0
 557 0060 00240140 		.word	1073816576
 558              		.cfi_endproc
 559              	.LFE124:
 560              		.fnend
 562              		.section	.text._Z11_vfoSystickv,"ax",%progbits
 563              		.align	1
 564              		.p2align 2,,3
 565              		.global	_Z11_vfoSystickv
 566              		.syntax unified
 567              		.thumb
 568              		.thumb_func
 569              		.fpu softvfp
 571              	_Z11_vfoSystickv:
 572              		.fnstart
 573              	.LFB125:
 106:Src/VFO.cpp   **** 
ARM GAS  /var/folders/20/cstyxln53wn53rr40gj353bh0000gn/T//cc8Pz03c.s 			page 14


 107:Src/VFO.cpp   **** 
 108:Src/VFO.cpp   **** // Tick from sys timer
 109:Src/VFO.cpp   **** void _vfoSystick(void)
 110:Src/VFO.cpp   **** {
 574              		.loc 1 110 1 is_stmt 1 view -0
 575              		.cfi_startproc
 576              		@ args = 0, pretend = 0, frame = 0
 577              		@ frame_needed = 0, uses_anonymous_args = 0
 578              		@ link register save eliminated.
 111:Src/VFO.cpp   **** 	_ticks++;
 579              		.loc 1 111 2 view .LVU105
 580              		.loc 1 111 8 is_stmt 0 view .LVU106
 581 0000 024A     		ldr	r2, .L36
 582 0002 1368     		ldr	r3, [r2]
 583 0004 0133     		adds	r3, r3, #1
 584 0006 1360     		str	r3, [r2]
 112:Src/VFO.cpp   **** }
 585              		.loc 1 112 1 view .LVU107
 586 0008 7047     		bx	lr
 587              	.L37:
 588 000a 00BF     		.align	2
 589              	.L36:
 590 000c 00000000 		.word	.LANCHOR1
 591              		.cfi_endproc
 592              	.LFE125:
 593              		.cantunwind
 594              		.fnend
 596              		.global	_ticks
 597              		.global	_mainController
 598              		.section	.bss._mainController,"aw",%nobits
 599              		.align	2
 600              		.set	.LANCHOR0,. + 0
 603              	_mainController:
 604 0000 00000000 		.space	4
 605              		.section	.bss._ticks,"aw",%nobits
 606              		.align	2
 607              		.set	.LANCHOR1,. + 0
 610              	_ticks:
 611 0000 00000000 		.space	4
 612              		.text
 613              	.Letext0:
 614              		.file 2 "/usr/local/gcc-arm-none-eabi-8-2019-q3-update/arm-none-eabi/include/machine/_default_type
 615              		.file 3 "/usr/local/gcc-arm-none-eabi-8-2019-q3-update/arm-none-eabi/include/sys/_stdint.h"
 616              		.file 4 "Drivers/CMSIS/Include/core_cm3.h"
 617              		.file 5 "Drivers/CMSIS/Device/ST/STM32F1xx/Include/system_stm32f1xx.h"
 618              		.file 6 "Drivers/CMSIS/Device/ST/STM32F1xx/Include/stm32f103xb.h"
 619              		.file 7 "/usr/local/gcc-arm-none-eabi-8-2019-q3-update/lib/gcc/arm-none-eabi/8.3.1/include/stddef.
 620              		.file 8 "Drivers/STM32F1xx_HAL_Driver/Inc/stm32f1xx_hal_def.h"
 621              		.file 9 "Drivers/STM32F1xx_HAL_Driver/Inc/stm32f1xx_hal_dma.h"
 622              		.file 10 "Drivers/STM32F1xx_HAL_Driver/Inc/stm32f1xx_hal_tim.h"
 623              		.file 11 "Drivers/STM32F1xx_HAL_Driver/Inc/stm32f1xx_hal.h"
 624              		.file 12 "/usr/local/gcc-arm-none-eabi-8-2019-q3-update/arm-none-eabi/include/sys/_types.h"
 625              		.file 13 "/usr/local/gcc-arm-none-eabi-8-2019-q3-update/arm-none-eabi/include/sys/reent.h"
 626              		.file 14 "/usr/local/gcc-arm-none-eabi-8-2019-q3-update/arm-none-eabi/include/sys/lock.h"
 627              		.file 15 "Inc/st7735/font5x7.h"
 628              		.file 16 "Inc/st7735/font7x11.h"
 629              		.file 17 "Inc/st7735/st7735.h"
ARM GAS  /var/folders/20/cstyxln53wn53rr40gj353bh0000gn/T//cc8Pz03c.s 			page 15


 630              		.file 18 "/usr/local/gcc-arm-none-eabi-8-2019-q3-update/arm-none-eabi/include/c++/8.3.1/cstdlib"
 631              		.file 19 "/usr/local/gcc-arm-none-eabi-8-2019-q3-update/arm-none-eabi/include/c++/8.3.1/bits/std_a
 632              		.file 20 "/usr/local/gcc-arm-none-eabi-8-2019-q3-update/arm-none-eabi/include/c++/8.3.1/arm-none-e
 633              		.file 21 "/usr/local/gcc-arm-none-eabi-8-2019-q3-update/arm-none-eabi/include/stdlib.h"
 634              		.file 22 "/usr/local/gcc-arm-none-eabi-8-2019-q3-update/arm-none-eabi/include/c++/8.3.1/stdlib.h"
 635              		.file 23 "Src/VFO/VFOController.h"
 636              		.file 24 "Src/kbd/kbd.h"
 637              		.file 25 "Drivers/STM32F1xx_HAL_Driver/Inc/stm32f1xx_hal_gpio.h"
 638              		.file 26 "<built-in>"
 639              		.file 27 "Src/VFO/GUIView.h"
ARM GAS  /var/folders/20/cstyxln53wn53rr40gj353bh0000gn/T//cc8Pz03c.s 			page 16

